
SMSnode1.elf:     file format elf32-littlearm

Sections:
Idx Name          Size      VMA       LMA       File off  Algn
  0 .text         00007d80  10008000  10008000  00008000  2**2
                  CONTENTS, ALLOC, LOAD, READONLY, CODE
  1 .relocate     0000006c  1000fd80  1000fd80  0000fd80  2**2
                  CONTENTS, ALLOC, LOAD, DATA
  2 .bss          00001bc8  1000fdec  1000fdec  0000fdec  2**2
                  ALLOC
  3 .stack        00000804  100119b4  100119b4  0000fdec  2**0
                  ALLOC
  4 .ARM.attributes 00000028  00000000  00000000  0000fdec  2**0
                  CONTENTS, READONLY
  5 .comment      0000005b  00000000  00000000  0000fe14  2**0
                  CONTENTS, READONLY
  6 .debug_frame  000008bc  00000000  00000000  0000fe70  2**2
                  CONTENTS, READONLY, DEBUGGING

Disassembly of section .text:

10008000 <app_entry>:
10008000:	480d      	ldr	r0, [pc, #52]	; (10008038 <app_entry+0x38>)
10008002:	490e      	ldr	r1, [pc, #56]	; (1000803c <app_entry+0x3c>)
10008004:	b510      	push	{r4, lr}
10008006:	2300      	movs	r3, #0
10008008:	4288      	cmp	r0, r1
1000800a:	d101      	bne.n	10008010 <app_entry+0x10>
1000800c:	4b0c      	ldr	r3, [pc, #48]	; (10008040 <app_entry+0x40>)
1000800e:	e007      	b.n	10008020 <app_entry+0x20>
10008010:	4c0c      	ldr	r4, [pc, #48]	; (10008044 <app_entry+0x44>)
10008012:	18ca      	adds	r2, r1, r3
10008014:	42a2      	cmp	r2, r4
10008016:	d2f9      	bcs.n	1000800c <app_entry+0xc>
10008018:	58c4      	ldr	r4, [r0, r3]
1000801a:	3304      	adds	r3, #4
1000801c:	6014      	str	r4, [r2, #0]
1000801e:	e7f7      	b.n	10008010 <app_entry+0x10>
10008020:	4a09      	ldr	r2, [pc, #36]	; (10008048 <app_entry+0x48>)
10008022:	4293      	cmp	r3, r2
10008024:	d202      	bcs.n	1000802c <app_entry+0x2c>
10008026:	2200      	movs	r2, #0
10008028:	c304      	stmia	r3!, {r2}
1000802a:	e7f9      	b.n	10008020 <app_entry+0x20>
1000802c:	4b07      	ldr	r3, [pc, #28]	; (1000804c <app_entry+0x4c>)
1000802e:	4798      	blx	r3
10008030:	4b07      	ldr	r3, [pc, #28]	; (10008050 <app_entry+0x50>)
10008032:	4798      	blx	r3
10008034:	bd10      	pop	{r4, pc}
10008036:	46c0      	nop			; (mov r8, r8)
10008038:	1000fd80 	.word	0x1000fd80
1000803c:	1000fd80 	.word	0x1000fd80
10008040:	1000fdec 	.word	0x1000fdec
10008044:	1000fdec 	.word	0x1000fdec
10008048:	100119b4 	.word	0x100119b4
1000804c:	1000efad 	.word	0x1000efad
10008050:	1000aa29 	.word	0x1000aa29

10008054 <__do_global_dtors_aux>:
10008054:	b510      	push	{r4, lr}
10008056:	4c06      	ldr	r4, [pc, #24]	; (10008070 <__do_global_dtors_aux+0x1c>)
10008058:	7823      	ldrb	r3, [r4, #0]
1000805a:	2b00      	cmp	r3, #0
1000805c:	d107      	bne.n	1000806e <__do_global_dtors_aux+0x1a>
1000805e:	4b05      	ldr	r3, [pc, #20]	; (10008074 <__do_global_dtors_aux+0x20>)
10008060:	2b00      	cmp	r3, #0
10008062:	d002      	beq.n	1000806a <__do_global_dtors_aux+0x16>
10008064:	4804      	ldr	r0, [pc, #16]	; (10008078 <__do_global_dtors_aux+0x24>)
10008066:	e000      	b.n	1000806a <__do_global_dtors_aux+0x16>
10008068:	bf00      	nop
1000806a:	2301      	movs	r3, #1
1000806c:	7023      	strb	r3, [r4, #0]
1000806e:	bd10      	pop	{r4, pc}
10008070:	1000fdec 	.word	0x1000fdec
10008074:	00000000 	.word	0x00000000
10008078:	1000fd80 	.word	0x1000fd80

1000807c <frame_dummy>:
1000807c:	b508      	push	{r3, lr}
1000807e:	4b08      	ldr	r3, [pc, #32]	; (100080a0 <frame_dummy+0x24>)
10008080:	2b00      	cmp	r3, #0
10008082:	d003      	beq.n	1000808c <frame_dummy+0x10>
10008084:	4807      	ldr	r0, [pc, #28]	; (100080a4 <frame_dummy+0x28>)
10008086:	4908      	ldr	r1, [pc, #32]	; (100080a8 <frame_dummy+0x2c>)
10008088:	e000      	b.n	1000808c <frame_dummy+0x10>
1000808a:	bf00      	nop
1000808c:	4807      	ldr	r0, [pc, #28]	; (100080ac <frame_dummy+0x30>)
1000808e:	6803      	ldr	r3, [r0, #0]
10008090:	2b00      	cmp	r3, #0
10008092:	d100      	bne.n	10008096 <frame_dummy+0x1a>
10008094:	bd08      	pop	{r3, pc}
10008096:	4b06      	ldr	r3, [pc, #24]	; (100080b0 <frame_dummy+0x34>)
10008098:	2b00      	cmp	r3, #0
1000809a:	d0fb      	beq.n	10008094 <frame_dummy+0x18>
1000809c:	4798      	blx	r3
1000809e:	e7f9      	b.n	10008094 <frame_dummy+0x18>
100080a0:	00000000 	.word	0x00000000
100080a4:	1000fd80 	.word	0x1000fd80
100080a8:	1000fdf0 	.word	0x1000fdf0
100080ac:	1000fd80 	.word	0x1000fd80
100080b0:	00000000 	.word	0x00000000

100080b4 <dualtimer_isr_handler>:
100080b4:	b508      	push	{r3, lr}
100080b6:	4b0c      	ldr	r3, [pc, #48]	; (100080e8 <dualtimer_isr_handler+0x34>)
100080b8:	7d1a      	ldrb	r2, [r3, #20]
100080ba:	2a00      	cmp	r2, #0
100080bc:	d006      	beq.n	100080cc <dualtimer_isr_handler+0x18>
100080be:	2201      	movs	r2, #1
100080c0:	731a      	strb	r2, [r3, #12]
100080c2:	4b0a      	ldr	r3, [pc, #40]	; (100080ec <dualtimer_isr_handler+0x38>)
100080c4:	681b      	ldr	r3, [r3, #0]
100080c6:	2b00      	cmp	r3, #0
100080c8:	d000      	beq.n	100080cc <dualtimer_isr_handler+0x18>
100080ca:	4798      	blx	r3
100080cc:	4b08      	ldr	r3, [pc, #32]	; (100080f0 <dualtimer_isr_handler+0x3c>)
100080ce:	781b      	ldrb	r3, [r3, #0]
100080d0:	2b00      	cmp	r3, #0
100080d2:	d007      	beq.n	100080e4 <dualtimer_isr_handler+0x30>
100080d4:	2201      	movs	r2, #1
100080d6:	4b07      	ldr	r3, [pc, #28]	; (100080f4 <dualtimer_isr_handler+0x40>)
100080d8:	701a      	strb	r2, [r3, #0]
100080da:	4b07      	ldr	r3, [pc, #28]	; (100080f8 <dualtimer_isr_handler+0x44>)
100080dc:	681b      	ldr	r3, [r3, #0]
100080de:	2b00      	cmp	r3, #0
100080e0:	d000      	beq.n	100080e4 <dualtimer_isr_handler+0x30>
100080e2:	4798      	blx	r3
100080e4:	bd08      	pop	{r3, pc}
100080e6:	46c0      	nop			; (mov r8, r8)
100080e8:	40001000 	.word	0x40001000
100080ec:	1000fe08 	.word	0x1000fe08
100080f0:	40001034 	.word	0x40001034
100080f4:	4000102c 	.word	0x4000102c
100080f8:	1000fe0c 	.word	0x1000fe0c

100080fc <dualtimer_get_config_defaults>:
100080fc:	2202      	movs	r2, #2
100080fe:	2301      	movs	r3, #1
10008100:	7042      	strb	r2, [r0, #1]
10008102:	7342      	strb	r2, [r0, #13]
10008104:	2200      	movs	r2, #0
10008106:	7003      	strb	r3, [r0, #0]
10008108:	7303      	strb	r3, [r0, #12]
1000810a:	7083      	strb	r3, [r0, #2]
1000810c:	7383      	strb	r3, [r0, #14]
1000810e:	70c2      	strb	r2, [r0, #3]
10008110:	73c2      	strb	r2, [r0, #15]
10008112:	7103      	strb	r3, [r0, #4]
10008114:	7403      	strb	r3, [r0, #16]
10008116:	6082      	str	r2, [r0, #8]
10008118:	6142      	str	r2, [r0, #20]
1000811a:	7602      	strb	r2, [r0, #24]
1000811c:	4770      	bx	lr
	...

10008120 <dualtimer_enable>:
10008120:	2380      	movs	r3, #128	; 0x80
10008122:	425b      	negs	r3, r3
10008124:	2800      	cmp	r0, #0
10008126:	d105      	bne.n	10008134 <dualtimer_enable+0x14>
10008128:	4905      	ldr	r1, [pc, #20]	; (10008140 <dualtimer_enable+0x20>)
1000812a:	7a0a      	ldrb	r2, [r1, #8]
1000812c:	4313      	orrs	r3, r2
1000812e:	b2db      	uxtb	r3, r3
10008130:	720b      	strb	r3, [r1, #8]
10008132:	e004      	b.n	1000813e <dualtimer_enable+0x1e>
10008134:	4903      	ldr	r1, [pc, #12]	; (10008144 <dualtimer_enable+0x24>)
10008136:	780a      	ldrb	r2, [r1, #0]
10008138:	4313      	orrs	r3, r2
1000813a:	b2db      	uxtb	r3, r3
1000813c:	700b      	strb	r3, [r1, #0]
1000813e:	4770      	bx	lr
10008140:	40001000 	.word	0x40001000
10008144:	40001028 	.word	0x40001028

10008148 <dualtimer_disable>:
10008148:	237f      	movs	r3, #127	; 0x7f
1000814a:	2800      	cmp	r0, #0
1000814c:	d104      	bne.n	10008158 <dualtimer_disable+0x10>
1000814e:	4a05      	ldr	r2, [pc, #20]	; (10008164 <dualtimer_disable+0x1c>)
10008150:	7a11      	ldrb	r1, [r2, #8]
10008152:	400b      	ands	r3, r1
10008154:	7213      	strb	r3, [r2, #8]
10008156:	e003      	b.n	10008160 <dualtimer_disable+0x18>
10008158:	4a03      	ldr	r2, [pc, #12]	; (10008168 <dualtimer_disable+0x20>)
1000815a:	7811      	ldrb	r1, [r2, #0]
1000815c:	400b      	ands	r3, r1
1000815e:	7013      	strb	r3, [r2, #0]
10008160:	4770      	bx	lr
10008162:	46c0      	nop			; (mov r8, r8)
10008164:	40001000 	.word	0x40001000
10008168:	40001028 	.word	0x40001028

1000816c <dualtimer_init>:
1000816c:	b570      	push	{r4, r5, r6, lr}
1000816e:	1c04      	adds	r4, r0, #0
10008170:	4b3a      	ldr	r3, [pc, #232]	; (1000825c <dualtimer_init+0xf0>)
10008172:	2004      	movs	r0, #4
10008174:	4798      	blx	r3
10008176:	7823      	ldrb	r3, [r4, #0]
10008178:	2b00      	cmp	r3, #0
1000817a:	d102      	bne.n	10008182 <dualtimer_init+0x16>
1000817c:	7b23      	ldrb	r3, [r4, #12]
1000817e:	2b00      	cmp	r3, #0
10008180:	d00d      	beq.n	1000819e <dualtimer_init+0x32>
10008182:	2220      	movs	r2, #32
10008184:	4936      	ldr	r1, [pc, #216]	; (10008260 <dualtimer_init+0xf4>)
10008186:	2030      	movs	r0, #48	; 0x30
10008188:	68cb      	ldr	r3, [r1, #12]
1000818a:	4313      	orrs	r3, r2
1000818c:	60cb      	str	r3, [r1, #12]
1000818e:	2303      	movs	r3, #3
10008190:	7e22      	ldrb	r2, [r4, #24]
10008192:	4013      	ands	r3, r2
10008194:	011a      	lsls	r2, r3, #4
10008196:	698b      	ldr	r3, [r1, #24]
10008198:	4383      	bics	r3, r0
1000819a:	4313      	orrs	r3, r2
1000819c:	618b      	str	r3, [r1, #24]
1000819e:	2300      	movs	r3, #0
100081a0:	7822      	ldrb	r2, [r4, #0]
100081a2:	429a      	cmp	r2, r3
100081a4:	d026      	beq.n	100081f4 <dualtimer_init+0x88>
100081a6:	7862      	ldrb	r2, [r4, #1]
100081a8:	3301      	adds	r3, #1
100081aa:	2a00      	cmp	r2, #0
100081ac:	d003      	beq.n	100081b6 <dualtimer_init+0x4a>
100081ae:	1e93      	subs	r3, r2, #2
100081b0:	4259      	negs	r1, r3
100081b2:	4159      	adcs	r1, r3
100081b4:	018b      	lsls	r3, r1, #6
100081b6:	200c      	movs	r0, #12
100081b8:	78e1      	ldrb	r1, [r4, #3]
100081ba:	7922      	ldrb	r2, [r4, #4]
100081bc:	0089      	lsls	r1, r1, #2
100081be:	4001      	ands	r1, r0
100081c0:	1c0d      	adds	r5, r1, #0
100081c2:	78a1      	ldrb	r1, [r4, #2]
100081c4:	380a      	subs	r0, #10
100081c6:	0049      	lsls	r1, r1, #1
100081c8:	4001      	ands	r1, r0
100081ca:	4329      	orrs	r1, r5
100081cc:	430b      	orrs	r3, r1
100081ce:	2a00      	cmp	r2, #0
100081d0:	d001      	beq.n	100081d6 <dualtimer_init+0x6a>
100081d2:	2220      	movs	r2, #32
100081d4:	4313      	orrs	r3, r2
100081d6:	20c4      	movs	r0, #196	; 0xc4
100081d8:	2601      	movs	r6, #1
100081da:	68a1      	ldr	r1, [r4, #8]
100081dc:	4a21      	ldr	r2, [pc, #132]	; (10008264 <dualtimer_init+0xf8>)
100081de:	4d20      	ldr	r5, [pc, #128]	; (10008260 <dualtimer_init+0xf4>)
100081e0:	6011      	str	r1, [r2, #0]
100081e2:	0040      	lsls	r0, r0, #1
100081e4:	7213      	strb	r3, [r2, #8]
100081e6:	5c29      	ldrb	r1, [r5, r0]
100081e8:	4331      	orrs	r1, r6
100081ea:	5429      	strb	r1, [r5, r0]
100081ec:	2180      	movs	r1, #128	; 0x80
100081ee:	7a10      	ldrb	r0, [r2, #8]
100081f0:	4301      	orrs	r1, r0
100081f2:	7211      	strb	r1, [r2, #8]
100081f4:	7b22      	ldrb	r2, [r4, #12]
100081f6:	2a00      	cmp	r2, #0
100081f8:	d02a      	beq.n	10008250 <dualtimer_init+0xe4>
100081fa:	7b62      	ldrb	r2, [r4, #13]
100081fc:	2a00      	cmp	r2, #0
100081fe:	d005      	beq.n	1000820c <dualtimer_init+0xa0>
10008200:	2a01      	cmp	r2, #1
10008202:	d005      	beq.n	10008210 <dualtimer_init+0xa4>
10008204:	2a02      	cmp	r2, #2
10008206:	d104      	bne.n	10008212 <dualtimer_init+0xa6>
10008208:	2340      	movs	r3, #64	; 0x40
1000820a:	e002      	b.n	10008212 <dualtimer_init+0xa6>
1000820c:	2301      	movs	r3, #1
1000820e:	e000      	b.n	10008212 <dualtimer_init+0xa6>
10008210:	2300      	movs	r3, #0
10008212:	210c      	movs	r1, #12
10008214:	7be2      	ldrb	r2, [r4, #15]
10008216:	0092      	lsls	r2, r2, #2
10008218:	400a      	ands	r2, r1
1000821a:	1c10      	adds	r0, r2, #0
1000821c:	7ba2      	ldrb	r2, [r4, #14]
1000821e:	390a      	subs	r1, #10
10008220:	0052      	lsls	r2, r2, #1
10008222:	400a      	ands	r2, r1
10008224:	4302      	orrs	r2, r0
10008226:	4313      	orrs	r3, r2
10008228:	7c22      	ldrb	r2, [r4, #16]
1000822a:	2a00      	cmp	r2, #0
1000822c:	d001      	beq.n	10008232 <dualtimer_init+0xc6>
1000822e:	2220      	movs	r2, #32
10008230:	4313      	orrs	r3, r2
10008232:	6961      	ldr	r1, [r4, #20]
10008234:	4a0b      	ldr	r2, [pc, #44]	; (10008264 <dualtimer_init+0xf8>)
10008236:	2002      	movs	r0, #2
10008238:	6211      	str	r1, [r2, #32]
1000823a:	4a0b      	ldr	r2, [pc, #44]	; (10008268 <dualtimer_init+0xfc>)
1000823c:	4908      	ldr	r1, [pc, #32]	; (10008260 <dualtimer_init+0xf4>)
1000823e:	7013      	strb	r3, [r2, #0]
10008240:	22c4      	movs	r2, #196	; 0xc4
10008242:	0052      	lsls	r2, r2, #1
10008244:	5c8b      	ldrb	r3, [r1, r2]
10008246:	4303      	orrs	r3, r0
10008248:	548b      	strb	r3, [r1, r2]
1000824a:	3801      	subs	r0, #1
1000824c:	4b07      	ldr	r3, [pc, #28]	; (1000826c <dualtimer_init+0x100>)
1000824e:	4798      	blx	r3
10008250:	201e      	movs	r0, #30
10008252:	4907      	ldr	r1, [pc, #28]	; (10008270 <dualtimer_init+0x104>)
10008254:	4b07      	ldr	r3, [pc, #28]	; (10008274 <dualtimer_init+0x108>)
10008256:	4798      	blx	r3
10008258:	bd70      	pop	{r4, r5, r6, pc}
1000825a:	46c0      	nop			; (mov r8, r8)
1000825c:	100089bd 	.word	0x100089bd
10008260:	4000b000 	.word	0x4000b000
10008264:	40001000 	.word	0x40001000
10008268:	40001028 	.word	0x40001028
1000826c:	10008121 	.word	0x10008121
10008270:	100080b5 	.word	0x100080b5
10008274:	10008d45 	.word	0x10008d45

10008278 <dualtimer_register_callback>:
10008278:	4b02      	ldr	r3, [pc, #8]	; (10008284 <dualtimer_register_callback+0xc>)
1000827a:	2800      	cmp	r0, #0
1000827c:	d000      	beq.n	10008280 <dualtimer_register_callback+0x8>
1000827e:	4b02      	ldr	r3, [pc, #8]	; (10008288 <dualtimer_register_callback+0x10>)
10008280:	6019      	str	r1, [r3, #0]
10008282:	4770      	bx	lr
10008284:	1000fe08 	.word	0x1000fe08
10008288:	1000fe0c 	.word	0x1000fe0c

1000828c <gpio_port0_isr_handler>:
1000828c:	2300      	movs	r3, #0
1000828e:	b570      	push	{r4, r5, r6, lr}
10008290:	4c13      	ldr	r4, [pc, #76]	; (100082e0 <gpio_port0_isr_handler+0x54>)
10008292:	6821      	ldr	r1, [r4, #0]
10008294:	8f08      	ldrh	r0, [r1, #56]	; 0x38
10008296:	b280      	uxth	r0, r0
10008298:	2501      	movs	r5, #1
1000829a:	1c2e      	adds	r6, r5, #0
1000829c:	409e      	lsls	r6, r3
1000829e:	4230      	tst	r0, r6
100082a0:	d013      	beq.n	100082ca <gpio_port0_isr_handler+0x3e>
100082a2:	8f0a      	ldrh	r2, [r1, #56]	; 0x38
100082a4:	4332      	orrs	r2, r6
100082a6:	b292      	uxth	r2, r2
100082a8:	870a      	strh	r2, [r1, #56]	; 0x38
100082aa:	1c22      	adds	r2, r4, #0
100082ac:	3208      	adds	r2, #8
100082ae:	8fd2      	ldrh	r2, [r2, #62]	; 0x3e
100082b0:	411a      	asrs	r2, r3
100082b2:	422a      	tst	r2, r5
100082b4:	d00c      	beq.n	100082d0 <gpio_port0_isr_handler+0x44>
100082b6:	1da2      	adds	r2, r4, #6
100082b8:	8fd2      	ldrh	r2, [r2, #62]	; 0x3e
100082ba:	411a      	asrs	r2, r3
100082bc:	422a      	tst	r2, r5
100082be:	d007      	beq.n	100082d0 <gpio_port0_isr_handler+0x44>
100082c0:	009b      	lsls	r3, r3, #2
100082c2:	18e3      	adds	r3, r4, r3
100082c4:	685b      	ldr	r3, [r3, #4]
100082c6:	4798      	blx	r3
100082c8:	e002      	b.n	100082d0 <gpio_port0_isr_handler+0x44>
100082ca:	3301      	adds	r3, #1
100082cc:	2b10      	cmp	r3, #16
100082ce:	d1e3      	bne.n	10008298 <gpio_port0_isr_handler+0xc>
100082d0:	2180      	movs	r1, #128	; 0x80
100082d2:	23c0      	movs	r3, #192	; 0xc0
100082d4:	4a03      	ldr	r2, [pc, #12]	; (100082e4 <gpio_port0_isr_handler+0x58>)
100082d6:	0409      	lsls	r1, r1, #16
100082d8:	005b      	lsls	r3, r3, #1
100082da:	50d1      	str	r1, [r2, r3]
100082dc:	bd70      	pop	{r4, r5, r6, pc}
100082de:	46c0      	nop			; (mov r8, r8)
100082e0:	10010530 	.word	0x10010530
100082e4:	e000e100 	.word	0xe000e100

100082e8 <gpio_port1_isr_handler>:
100082e8:	b570      	push	{r4, r5, r6, lr}
100082ea:	2400      	movs	r4, #0
100082ec:	4d16      	ldr	r5, [pc, #88]	; (10008348 <gpio_port1_isr_handler+0x60>)
100082ee:	6cab      	ldr	r3, [r5, #72]	; 0x48
100082f0:	8f1e      	ldrh	r6, [r3, #56]	; 0x38
100082f2:	b2b6      	uxth	r6, r6
100082f4:	0b73      	lsrs	r3, r6, #13
100082f6:	d001      	beq.n	100082fc <gpio_port1_isr_handler+0x14>
100082f8:	4b14      	ldr	r3, [pc, #80]	; (1000834c <gpio_port1_isr_handler+0x64>)
100082fa:	4798      	blx	r3
100082fc:	2201      	movs	r2, #1
100082fe:	1c10      	adds	r0, r2, #0
10008300:	40a0      	lsls	r0, r4
10008302:	4206      	tst	r6, r0
10008304:	d016      	beq.n	10008334 <gpio_port1_isr_handler+0x4c>
10008306:	6ca9      	ldr	r1, [r5, #72]	; 0x48
10008308:	8f0b      	ldrh	r3, [r1, #56]	; 0x38
1000830a:	4303      	orrs	r3, r0
1000830c:	b29b      	uxth	r3, r3
1000830e:	870b      	strh	r3, [r1, #56]	; 0x38
10008310:	1c2b      	adds	r3, r5, #0
10008312:	338e      	adds	r3, #142	; 0x8e
10008314:	881b      	ldrh	r3, [r3, #0]
10008316:	4123      	asrs	r3, r4
10008318:	4213      	tst	r3, r2
1000831a:	d00b      	beq.n	10008334 <gpio_port1_isr_handler+0x4c>
1000831c:	1c2b      	adds	r3, r5, #0
1000831e:	338c      	adds	r3, #140	; 0x8c
10008320:	881b      	ldrh	r3, [r3, #0]
10008322:	4123      	asrs	r3, r4
10008324:	4213      	tst	r3, r2
10008326:	d005      	beq.n	10008334 <gpio_port1_isr_handler+0x4c>
10008328:	3412      	adds	r4, #18
1000832a:	00a4      	lsls	r4, r4, #2
1000832c:	192c      	adds	r4, r5, r4
1000832e:	6863      	ldr	r3, [r4, #4]
10008330:	4798      	blx	r3
10008332:	e002      	b.n	1000833a <gpio_port1_isr_handler+0x52>
10008334:	3401      	adds	r4, #1
10008336:	2c10      	cmp	r4, #16
10008338:	d1dc      	bne.n	100082f4 <gpio_port1_isr_handler+0xc>
1000833a:	2180      	movs	r1, #128	; 0x80
1000833c:	23c0      	movs	r3, #192	; 0xc0
1000833e:	4a04      	ldr	r2, [pc, #16]	; (10008350 <gpio_port1_isr_handler+0x68>)
10008340:	0449      	lsls	r1, r1, #17
10008342:	005b      	lsls	r3, r3, #1
10008344:	50d1      	str	r1, [r2, r3]
10008346:	bd70      	pop	{r4, r5, r6, pc}
10008348:	10010530 	.word	0x10010530
1000834c:	0001bc51 	.word	0x0001bc51
10008350:	e000e100 	.word	0xe000e100

10008354 <gpio_get_config_defaults>:
10008354:	2300      	movs	r3, #0
10008356:	2201      	movs	r2, #1
10008358:	7003      	strb	r3, [r0, #0]
1000835a:	7042      	strb	r2, [r0, #1]
1000835c:	7083      	strb	r3, [r0, #2]
1000835e:	70c3      	strb	r3, [r0, #3]
10008360:	4770      	bx	lr
	...

10008364 <gpio_pin_set_config>:
10008364:	1c03      	adds	r3, r0, #0
10008366:	b530      	push	{r4, r5, lr}
10008368:	2017      	movs	r0, #23
1000836a:	2b01      	cmp	r3, #1
1000836c:	d800      	bhi.n	10008370 <gpio_pin_set_config+0xc>
1000836e:	e095      	b.n	1000849c <gpio_pin_set_config+0x138>
10008370:	2b0e      	cmp	r3, #14
10008372:	d100      	bne.n	10008376 <gpio_pin_set_config+0x12>
10008374:	e092      	b.n	1000849c <gpio_pin_set_config+0x138>
10008376:	2b07      	cmp	r3, #7
10008378:	d807      	bhi.n	1000838a <gpio_pin_set_config+0x26>
1000837a:	009d      	lsls	r5, r3, #2
1000837c:	3810      	subs	r0, #16
1000837e:	40a8      	lsls	r0, r5
10008380:	4c47      	ldr	r4, [pc, #284]	; (100084a0 <gpio_pin_set_config+0x13c>)
10008382:	6c62      	ldr	r2, [r4, #68]	; 0x44
10008384:	4382      	bics	r2, r0
10008386:	6462      	str	r2, [r4, #68]	; 0x44
10008388:	e016      	b.n	100083b8 <gpio_pin_set_config+0x54>
1000838a:	2b0f      	cmp	r3, #15
1000838c:	d809      	bhi.n	100083a2 <gpio_pin_set_config+0x3e>
1000838e:	2207      	movs	r2, #7
10008390:	1c1c      	adds	r4, r3, #0
10008392:	4014      	ands	r4, r2
10008394:	00a4      	lsls	r4, r4, #2
10008396:	40a2      	lsls	r2, r4
10008398:	4d41      	ldr	r5, [pc, #260]	; (100084a0 <gpio_pin_set_config+0x13c>)
1000839a:	6ca8      	ldr	r0, [r5, #72]	; 0x48
1000839c:	4390      	bics	r0, r2
1000839e:	64a8      	str	r0, [r5, #72]	; 0x48
100083a0:	e00a      	b.n	100083b8 <gpio_pin_set_config+0x54>
100083a2:	2b17      	cmp	r3, #23
100083a4:	d808      	bhi.n	100083b8 <gpio_pin_set_config+0x54>
100083a6:	2207      	movs	r2, #7
100083a8:	1c1c      	adds	r4, r3, #0
100083aa:	4014      	ands	r4, r2
100083ac:	00a4      	lsls	r4, r4, #2
100083ae:	40a2      	lsls	r2, r4
100083b0:	4d3b      	ldr	r5, [pc, #236]	; (100084a0 <gpio_pin_set_config+0x13c>)
100083b2:	6ce8      	ldr	r0, [r5, #76]	; 0x4c
100083b4:	4390      	bics	r0, r2
100083b6:	64e8      	str	r0, [r5, #76]	; 0x4c
100083b8:	1c1a      	adds	r2, r3, #0
100083ba:	3a1d      	subs	r2, #29
100083bc:	2a02      	cmp	r2, #2
100083be:	d825      	bhi.n	1000840c <gpio_pin_set_config+0xa8>
100083c0:	784c      	ldrb	r4, [r1, #1]
100083c2:	4a38      	ldr	r2, [pc, #224]	; (100084a4 <gpio_pin_set_config+0x140>)
100083c4:	201f      	movs	r0, #31
100083c6:	2c01      	cmp	r4, #1
100083c8:	d105      	bne.n	100083d6 <gpio_pin_set_config+0x72>
100083ca:	1ac0      	subs	r0, r0, r3
100083cc:	4084      	lsls	r4, r0
100083ce:	7d15      	ldrb	r5, [r2, #20]
100083d0:	43a5      	bics	r5, r4
100083d2:	1c28      	adds	r0, r5, #0
100083d4:	e006      	b.n	100083e4 <gpio_pin_set_config+0x80>
100083d6:	2501      	movs	r5, #1
100083d8:	1ac0      	subs	r0, r0, r3
100083da:	4085      	lsls	r5, r0
100083dc:	1c28      	adds	r0, r5, #0
100083de:	7d14      	ldrb	r4, [r2, #20]
100083e0:	4320      	orrs	r0, r4
100083e2:	b2c0      	uxtb	r0, r0
100083e4:	7510      	strb	r0, [r2, #20]
100083e6:	78c9      	ldrb	r1, [r1, #3]
100083e8:	2900      	cmp	r1, #0
100083ea:	d03e      	beq.n	1000846a <gpio_pin_set_config+0x106>
100083ec:	201f      	movs	r0, #31
100083ee:	1ac3      	subs	r3, r0, r3
100083f0:	009b      	lsls	r3, r3, #2
100083f2:	381e      	subs	r0, #30
100083f4:	4098      	lsls	r0, r3
100083f6:	1c03      	adds	r3, r0, #0
100083f8:	8811      	ldrh	r1, [r2, #0]
100083fa:	430b      	orrs	r3, r1
100083fc:	2102      	movs	r1, #2
100083fe:	b29b      	uxth	r3, r3
10008400:	8013      	strh	r3, [r2, #0]
10008402:	4a29      	ldr	r2, [pc, #164]	; (100084a8 <gpio_pin_set_config+0x144>)
10008404:	7813      	ldrb	r3, [r2, #0]
10008406:	430b      	orrs	r3, r1
10008408:	7013      	strb	r3, [r2, #0]
1000840a:	e02e      	b.n	1000846a <gpio_pin_set_config+0x106>
1000840c:	780a      	ldrb	r2, [r1, #0]
1000840e:	2a00      	cmp	r2, #0
10008410:	d12d      	bne.n	1000846e <gpio_pin_set_config+0x10a>
10008412:	3201      	adds	r2, #1
10008414:	2b0f      	cmp	r3, #15
10008416:	d803      	bhi.n	10008420 <gpio_pin_set_config+0xbc>
10008418:	409a      	lsls	r2, r3
1000841a:	4824      	ldr	r0, [pc, #144]	; (100084ac <gpio_pin_set_config+0x148>)
1000841c:	b292      	uxth	r2, r2
1000841e:	e004      	b.n	1000842a <gpio_pin_set_config+0xc6>
10008420:	200f      	movs	r0, #15
10008422:	4018      	ands	r0, r3
10008424:	4082      	lsls	r2, r0
10008426:	4822      	ldr	r0, [pc, #136]	; (100084b0 <gpio_pin_set_config+0x14c>)
10008428:	b292      	uxth	r2, r2
1000842a:	8282      	strh	r2, [r0, #20]
1000842c:	7848      	ldrb	r0, [r1, #1]
1000842e:	2801      	cmp	r0, #1
10008430:	d015      	beq.n	1000845e <gpio_pin_set_config+0xfa>
10008432:	2800      	cmp	r0, #0
10008434:	d00b      	beq.n	1000844e <gpio_pin_set_config+0xea>
10008436:	2802      	cmp	r0, #2
10008438:	d12f      	bne.n	1000849a <gpio_pin_set_config+0x136>
1000843a:	2001      	movs	r0, #1
1000843c:	4098      	lsls	r0, r3
1000843e:	4a18      	ldr	r2, [pc, #96]	; (100084a0 <gpio_pin_set_config+0x13c>)
10008440:	6d51      	ldr	r1, [r2, #84]	; 0x54
10008442:	4301      	orrs	r1, r0
10008444:	6551      	str	r1, [r2, #84]	; 0x54
10008446:	6d11      	ldr	r1, [r2, #80]	; 0x50
10008448:	4381      	bics	r1, r0
1000844a:	6511      	str	r1, [r2, #80]	; 0x50
1000844c:	e00d      	b.n	1000846a <gpio_pin_set_config+0x106>
1000844e:	2101      	movs	r1, #1
10008450:	4099      	lsls	r1, r3
10008452:	1c0b      	adds	r3, r1, #0
10008454:	4c12      	ldr	r4, [pc, #72]	; (100084a0 <gpio_pin_set_config+0x13c>)
10008456:	6d22      	ldr	r2, [r4, #80]	; 0x50
10008458:	4313      	orrs	r3, r2
1000845a:	6523      	str	r3, [r4, #80]	; 0x50
1000845c:	e01e      	b.n	1000849c <gpio_pin_set_config+0x138>
1000845e:	4910      	ldr	r1, [pc, #64]	; (100084a0 <gpio_pin_set_config+0x13c>)
10008460:	4098      	lsls	r0, r3
10008462:	6d0a      	ldr	r2, [r1, #80]	; 0x50
10008464:	1c13      	adds	r3, r2, #0
10008466:	4383      	bics	r3, r0
10008468:	650b      	str	r3, [r1, #80]	; 0x50
1000846a:	2000      	movs	r0, #0
1000846c:	e016      	b.n	1000849c <gpio_pin_set_config+0x138>
1000846e:	2a01      	cmp	r2, #1
10008470:	d1fb      	bne.n	1000846a <gpio_pin_set_config+0x106>
10008472:	2b0f      	cmp	r3, #15
10008474:	d807      	bhi.n	10008486 <gpio_pin_set_config+0x122>
10008476:	409a      	lsls	r2, r3
10008478:	1c13      	adds	r3, r2, #0
1000847a:	490c      	ldr	r1, [pc, #48]	; (100084ac <gpio_pin_set_config+0x148>)
1000847c:	8a08      	ldrh	r0, [r1, #16]
1000847e:	4303      	orrs	r3, r0
10008480:	b29b      	uxth	r3, r3
10008482:	820b      	strh	r3, [r1, #16]
10008484:	e7f1      	b.n	1000846a <gpio_pin_set_config+0x106>
10008486:	200f      	movs	r0, #15
10008488:	4003      	ands	r3, r0
1000848a:	409a      	lsls	r2, r3
1000848c:	1c13      	adds	r3, r2, #0
1000848e:	4c08      	ldr	r4, [pc, #32]	; (100084b0 <gpio_pin_set_config+0x14c>)
10008490:	8a21      	ldrh	r1, [r4, #16]
10008492:	430b      	orrs	r3, r1
10008494:	b29a      	uxth	r2, r3
10008496:	8222      	strh	r2, [r4, #16]
10008498:	e7e7      	b.n	1000846a <gpio_pin_set_config+0x106>
1000849a:	2017      	movs	r0, #23
1000849c:	bd30      	pop	{r4, r5, pc}
1000849e:	46c0      	nop			; (mov r8, r8)
100084a0:	4000b000 	.word	0x4000b000
100084a4:	4000f000 	.word	0x4000f000
100084a8:	4000e000 	.word	0x4000e000
100084ac:	40010000 	.word	0x40010000
100084b0:	40011000 	.word	0x40011000

100084b4 <gpio_pin_set_output_level>:
100084b4:	b510      	push	{r4, lr}
100084b6:	280f      	cmp	r0, #15
100084b8:	d80e      	bhi.n	100084d8 <gpio_pin_set_output_level+0x24>
100084ba:	4c0f      	ldr	r4, [pc, #60]	; (100084f8 <gpio_pin_set_output_level+0x44>)
100084bc:	2201      	movs	r2, #1
100084be:	2900      	cmp	r1, #0
100084c0:	d004      	beq.n	100084cc <gpio_pin_set_output_level+0x18>
100084c2:	1c13      	adds	r3, r2, #0
100084c4:	4083      	lsls	r3, r0
100084c6:	88a1      	ldrh	r1, [r4, #4]
100084c8:	430b      	orrs	r3, r1
100084ca:	e00f      	b.n	100084ec <gpio_pin_set_output_level+0x38>
100084cc:	1c13      	adds	r3, r2, #0
100084ce:	4083      	lsls	r3, r0
100084d0:	88a1      	ldrh	r1, [r4, #4]
100084d2:	4399      	bics	r1, r3
100084d4:	1c0b      	adds	r3, r1, #0
100084d6:	e00d      	b.n	100084f4 <gpio_pin_set_output_level+0x40>
100084d8:	230f      	movs	r3, #15
100084da:	4003      	ands	r3, r0
100084dc:	2001      	movs	r0, #1
100084de:	4098      	lsls	r0, r3
100084e0:	4c06      	ldr	r4, [pc, #24]	; (100084fc <gpio_pin_set_output_level+0x48>)
100084e2:	1c03      	adds	r3, r0, #0
100084e4:	88a2      	ldrh	r2, [r4, #4]
100084e6:	2900      	cmp	r1, #0
100084e8:	d002      	beq.n	100084f0 <gpio_pin_set_output_level+0x3c>
100084ea:	4313      	orrs	r3, r2
100084ec:	b29b      	uxth	r3, r3
100084ee:	e001      	b.n	100084f4 <gpio_pin_set_output_level+0x40>
100084f0:	4382      	bics	r2, r0
100084f2:	1c13      	adds	r3, r2, #0
100084f4:	80a3      	strh	r3, [r4, #4]
100084f6:	bd10      	pop	{r4, pc}
100084f8:	40010000 	.word	0x40010000
100084fc:	40011000 	.word	0x40011000

10008500 <gpio_pinmux_cofiguration>:
10008500:	b570      	push	{r4, r5, r6, lr}
10008502:	0a0d      	lsrs	r5, r1, #8
10008504:	b2c9      	uxtb	r1, r1
10008506:	2807      	cmp	r0, #7
10008508:	d822      	bhi.n	10008550 <gpio_pinmux_cofiguration+0x50>
1000850a:	2607      	movs	r6, #7
1000850c:	0083      	lsls	r3, r0, #2
1000850e:	409e      	lsls	r6, r3
10008510:	4c3a      	ldr	r4, [pc, #232]	; (100085fc <gpio_pinmux_cofiguration+0xfc>)
10008512:	6c62      	ldr	r2, [r4, #68]	; 0x44
10008514:	43b2      	bics	r2, r6
10008516:	1c0e      	adds	r6, r1, #0
10008518:	409e      	lsls	r6, r3
1000851a:	1c33      	adds	r3, r6, #0
1000851c:	6462      	str	r2, [r4, #68]	; 0x44
1000851e:	6c62      	ldr	r2, [r4, #68]	; 0x44
10008520:	4313      	orrs	r3, r2
10008522:	6463      	str	r3, [r4, #68]	; 0x44
10008524:	2901      	cmp	r1, #1
10008526:	d168      	bne.n	100085fa <gpio_pinmux_cofiguration+0xfa>
10008528:	2803      	cmp	r0, #3
1000852a:	d80c      	bhi.n	10008546 <gpio_pinmux_cofiguration+0x46>
1000852c:	31a0      	adds	r1, #160	; 0xa0
1000852e:	31ff      	adds	r1, #255	; 0xff
10008530:	5863      	ldr	r3, [r4, r1]
10008532:	00c0      	lsls	r0, r0, #3
10008534:	223f      	movs	r2, #63	; 0x3f
10008536:	4085      	lsls	r5, r0
10008538:	4082      	lsls	r2, r0
1000853a:	1c28      	adds	r0, r5, #0
1000853c:	4393      	bics	r3, r2
1000853e:	5063      	str	r3, [r4, r1]
10008540:	5862      	ldr	r2, [r4, r1]
10008542:	4310      	orrs	r0, r2
10008544:	e058      	b.n	100085f8 <gpio_pinmux_cofiguration+0xf8>
10008546:	21d2      	movs	r1, #210	; 0xd2
10008548:	0049      	lsls	r1, r1, #1
1000854a:	5863      	ldr	r3, [r4, r1]
1000854c:	2203      	movs	r2, #3
1000854e:	e043      	b.n	100085d8 <gpio_pinmux_cofiguration+0xd8>
10008550:	280f      	cmp	r0, #15
10008552:	d828      	bhi.n	100085a6 <gpio_pinmux_cofiguration+0xa6>
10008554:	2207      	movs	r2, #7
10008556:	1c03      	adds	r3, r0, #0
10008558:	4013      	ands	r3, r2
1000855a:	009b      	lsls	r3, r3, #2
1000855c:	409a      	lsls	r2, r3
1000855e:	4c27      	ldr	r4, [pc, #156]	; (100085fc <gpio_pinmux_cofiguration+0xfc>)
10008560:	6ca6      	ldr	r6, [r4, #72]	; 0x48
10008562:	4396      	bics	r6, r2
10008564:	64a6      	str	r6, [r4, #72]	; 0x48
10008566:	1c0e      	adds	r6, r1, #0
10008568:	409e      	lsls	r6, r3
1000856a:	1c33      	adds	r3, r6, #0
1000856c:	6ca2      	ldr	r2, [r4, #72]	; 0x48
1000856e:	4313      	orrs	r3, r2
10008570:	64a3      	str	r3, [r4, #72]	; 0x48
10008572:	2901      	cmp	r1, #1
10008574:	d141      	bne.n	100085fa <gpio_pinmux_cofiguration+0xfa>
10008576:	2303      	movs	r3, #3
10008578:	280b      	cmp	r0, #11
1000857a:	d805      	bhi.n	10008588 <gpio_pinmux_cofiguration+0x88>
1000857c:	22d4      	movs	r2, #212	; 0xd4
1000857e:	4018      	ands	r0, r3
10008580:	0052      	lsls	r2, r2, #1
10008582:	58a1      	ldr	r1, [r4, r2]
10008584:	4098      	lsls	r0, r3
10008586:	e004      	b.n	10008592 <gpio_pinmux_cofiguration+0x92>
10008588:	22d6      	movs	r2, #214	; 0xd6
1000858a:	0052      	lsls	r2, r2, #1
1000858c:	4018      	ands	r0, r3
1000858e:	58a1      	ldr	r1, [r4, r2]
10008590:	00c0      	lsls	r0, r0, #3
10008592:	233f      	movs	r3, #63	; 0x3f
10008594:	4085      	lsls	r5, r0
10008596:	4083      	lsls	r3, r0
10008598:	1c28      	adds	r0, r5, #0
1000859a:	4399      	bics	r1, r3
1000859c:	50a1      	str	r1, [r4, r2]
1000859e:	58a3      	ldr	r3, [r4, r2]
100085a0:	4318      	orrs	r0, r3
100085a2:	50a0      	str	r0, [r4, r2]
100085a4:	e029      	b.n	100085fa <gpio_pinmux_cofiguration+0xfa>
100085a6:	2817      	cmp	r0, #23
100085a8:	d827      	bhi.n	100085fa <gpio_pinmux_cofiguration+0xfa>
100085aa:	2207      	movs	r2, #7
100085ac:	1c03      	adds	r3, r0, #0
100085ae:	4013      	ands	r3, r2
100085b0:	009b      	lsls	r3, r3, #2
100085b2:	409a      	lsls	r2, r3
100085b4:	4c11      	ldr	r4, [pc, #68]	; (100085fc <gpio_pinmux_cofiguration+0xfc>)
100085b6:	6ce6      	ldr	r6, [r4, #76]	; 0x4c
100085b8:	4396      	bics	r6, r2
100085ba:	64e6      	str	r6, [r4, #76]	; 0x4c
100085bc:	1c0e      	adds	r6, r1, #0
100085be:	409e      	lsls	r6, r3
100085c0:	1c33      	adds	r3, r6, #0
100085c2:	6ce2      	ldr	r2, [r4, #76]	; 0x4c
100085c4:	4313      	orrs	r3, r2
100085c6:	64e3      	str	r3, [r4, #76]	; 0x4c
100085c8:	2901      	cmp	r1, #1
100085ca:	d116      	bne.n	100085fa <gpio_pinmux_cofiguration+0xfa>
100085cc:	2203      	movs	r2, #3
100085ce:	2813      	cmp	r0, #19
100085d0:	d805      	bhi.n	100085de <gpio_pinmux_cofiguration+0xde>
100085d2:	31b0      	adds	r1, #176	; 0xb0
100085d4:	31ff      	adds	r1, #255	; 0xff
100085d6:	5863      	ldr	r3, [r4, r1]
100085d8:	4010      	ands	r0, r2
100085da:	4090      	lsls	r0, r2
100085dc:	e7aa      	b.n	10008534 <gpio_pinmux_cofiguration+0x34>
100085de:	4010      	ands	r0, r2
100085e0:	00c2      	lsls	r2, r0, #3
100085e2:	203f      	movs	r0, #63	; 0x3f
100085e4:	21da      	movs	r1, #218	; 0xda
100085e6:	4090      	lsls	r0, r2
100085e8:	0049      	lsls	r1, r1, #1
100085ea:	5863      	ldr	r3, [r4, r1]
100085ec:	4383      	bics	r3, r0
100085ee:	1c28      	adds	r0, r5, #0
100085f0:	4090      	lsls	r0, r2
100085f2:	5063      	str	r3, [r4, r1]
100085f4:	5863      	ldr	r3, [r4, r1]
100085f6:	4318      	orrs	r0, r3
100085f8:	5060      	str	r0, [r4, r1]
100085fa:	bd70      	pop	{r4, r5, r6, pc}
100085fc:	4000b000 	.word	0x4000b000

10008600 <gpio_register_callback>:
10008600:	b5f0      	push	{r4, r5, r6, r7, lr}
10008602:	240f      	movs	r4, #15
10008604:	4284      	cmp	r4, r0
10008606:	41a4      	sbcs	r4, r4
10008608:	1c05      	adds	r5, r0, #0
1000860a:	4264      	negs	r4, r4
1000860c:	2a03      	cmp	r2, #3
1000860e:	d83e      	bhi.n	1000868e <gpio_register_callback+0x8e>
10008610:	1c10      	adds	r0, r2, #0
10008612:	2348      	movs	r3, #72	; 0x48
10008614:	4a28      	ldr	r2, [pc, #160]	; (100086b8 <gpio_register_callback+0xb8>)
10008616:	4363      	muls	r3, r4
10008618:	f005 fc12 	bl	1000de40 <__gnu_thumb1_case_uqi>
1000861c:	2a1a0e02 	.word	0x2a1a0e02
10008620:	58d0      	ldr	r0, [r2, r3]
10008622:	8d86      	ldrh	r6, [r0, #44]	; 0x2c
10008624:	200f      	movs	r0, #15
10008626:	4028      	ands	r0, r5
10008628:	1c07      	adds	r7, r0, #0
1000862a:	2001      	movs	r0, #1
1000862c:	40b8      	lsls	r0, r7
1000862e:	58d7      	ldr	r7, [r2, r3]
10008630:	b280      	uxth	r0, r0
10008632:	4306      	orrs	r6, r0
10008634:	85be      	strh	r6, [r7, #44]	; 0x2c
10008636:	e026      	b.n	10008686 <gpio_register_callback+0x86>
10008638:	58d0      	ldr	r0, [r2, r3]
1000863a:	8d86      	ldrh	r6, [r0, #44]	; 0x2c
1000863c:	200f      	movs	r0, #15
1000863e:	4028      	ands	r0, r5
10008640:	1c07      	adds	r7, r0, #0
10008642:	2001      	movs	r0, #1
10008644:	40b8      	lsls	r0, r7
10008646:	58d7      	ldr	r7, [r2, r3]
10008648:	b280      	uxth	r0, r0
1000864a:	4306      	orrs	r6, r0
1000864c:	85be      	strh	r6, [r7, #44]	; 0x2c
1000864e:	e00a      	b.n	10008666 <gpio_register_callback+0x66>
10008650:	58d0      	ldr	r0, [r2, r3]
10008652:	8d06      	ldrh	r6, [r0, #40]	; 0x28
10008654:	200f      	movs	r0, #15
10008656:	4028      	ands	r0, r5
10008658:	1c07      	adds	r7, r0, #0
1000865a:	2001      	movs	r0, #1
1000865c:	40b8      	lsls	r0, r7
1000865e:	58d7      	ldr	r7, [r2, r3]
10008660:	b280      	uxth	r0, r0
10008662:	4306      	orrs	r6, r0
10008664:	853e      	strh	r6, [r7, #40]	; 0x28
10008666:	58d2      	ldr	r2, [r2, r3]
10008668:	8e13      	ldrh	r3, [r2, #48]	; 0x30
1000866a:	4318      	orrs	r0, r3
1000866c:	8610      	strh	r0, [r2, #48]	; 0x30
1000866e:	e00e      	b.n	1000868e <gpio_register_callback+0x8e>
10008670:	58d0      	ldr	r0, [r2, r3]
10008672:	8d06      	ldrh	r6, [r0, #40]	; 0x28
10008674:	200f      	movs	r0, #15
10008676:	4028      	ands	r0, r5
10008678:	1c07      	adds	r7, r0, #0
1000867a:	2001      	movs	r0, #1
1000867c:	40b8      	lsls	r0, r7
1000867e:	58d7      	ldr	r7, [r2, r3]
10008680:	b280      	uxth	r0, r0
10008682:	4306      	orrs	r6, r0
10008684:	853e      	strh	r6, [r7, #40]	; 0x28
10008686:	58d2      	ldr	r2, [r2, r3]
10008688:	8e93      	ldrh	r3, [r2, #52]	; 0x34
1000868a:	4318      	orrs	r0, r3
1000868c:	8690      	strh	r0, [r2, #52]	; 0x34
1000868e:	230f      	movs	r3, #15
10008690:	401d      	ands	r5, r3
10008692:	3303      	adds	r3, #3
10008694:	4363      	muls	r3, r4
10008696:	4a08      	ldr	r2, [pc, #32]	; (100086b8 <gpio_register_callback+0xb8>)
10008698:	195b      	adds	r3, r3, r5
1000869a:	009b      	lsls	r3, r3, #2
1000869c:	18d3      	adds	r3, r2, r3
1000869e:	6059      	str	r1, [r3, #4]
100086a0:	2348      	movs	r3, #72	; 0x48
100086a2:	435c      	muls	r4, r3
100086a4:	3b47      	subs	r3, #71	; 0x47
100086a6:	40ab      	lsls	r3, r5
100086a8:	1c1d      	adds	r5, r3, #0
100086aa:	1914      	adds	r4, r2, r4
100086ac:	3406      	adds	r4, #6
100086ae:	8fe3      	ldrh	r3, [r4, #62]	; 0x3e
100086b0:	431d      	orrs	r5, r3
100086b2:	87e5      	strh	r5, [r4, #62]	; 0x3e
100086b4:	bdf0      	pop	{r4, r5, r6, r7, pc}
100086b6:	46c0      	nop			; (mov r8, r8)
100086b8:	10010530 	.word	0x10010530

100086bc <gpio_enable_callback>:
100086bc:	220f      	movs	r2, #15
100086be:	4282      	cmp	r2, r0
100086c0:	419b      	sbcs	r3, r3
100086c2:	4002      	ands	r2, r0
100086c4:	2001      	movs	r0, #1
100086c6:	4090      	lsls	r0, r2
100086c8:	2248      	movs	r2, #72	; 0x48
100086ca:	425b      	negs	r3, r3
100086cc:	4353      	muls	r3, r2
100086ce:	b510      	push	{r4, lr}
100086d0:	4c05      	ldr	r4, [pc, #20]	; (100086e8 <gpio_enable_callback+0x2c>)
100086d2:	b280      	uxth	r0, r0
100086d4:	18e2      	adds	r2, r4, r3
100086d6:	3208      	adds	r2, #8
100086d8:	8fd1      	ldrh	r1, [r2, #62]	; 0x3e
100086da:	4301      	orrs	r1, r0
100086dc:	87d1      	strh	r1, [r2, #62]	; 0x3e
100086de:	591a      	ldr	r2, [r3, r4]
100086e0:	8c13      	ldrh	r3, [r2, #32]
100086e2:	4318      	orrs	r0, r3
100086e4:	8410      	strh	r0, [r2, #32]
100086e6:	bd10      	pop	{r4, pc}
100086e8:	10010530 	.word	0x10010530

100086ec <gpio_init>:
100086ec:	2100      	movs	r1, #0
100086ee:	b510      	push	{r4, lr}
100086f0:	2200      	movs	r2, #0
100086f2:	4b11      	ldr	r3, [pc, #68]	; (10008738 <gpio_init+0x4c>)
100086f4:	18c8      	adds	r0, r1, r3
100086f6:	3104      	adds	r1, #4
100086f8:	6042      	str	r2, [r0, #4]
100086fa:	2940      	cmp	r1, #64	; 0x40
100086fc:	d1f8      	bne.n	100086f0 <gpio_init+0x4>
100086fe:	1c19      	adds	r1, r3, #0
10008700:	3108      	adds	r1, #8
10008702:	87ca      	strh	r2, [r1, #62]	; 0x3e
10008704:	1d99      	adds	r1, r3, #6
10008706:	87ca      	strh	r2, [r1, #62]	; 0x3e
10008708:	2100      	movs	r1, #0
1000870a:	1898      	adds	r0, r3, r2
1000870c:	3204      	adds	r2, #4
1000870e:	64c1      	str	r1, [r0, #76]	; 0x4c
10008710:	2a40      	cmp	r2, #64	; 0x40
10008712:	d1f9      	bne.n	10008708 <gpio_init+0x1c>
10008714:	1c1a      	adds	r2, r3, #0
10008716:	328e      	adds	r2, #142	; 0x8e
10008718:	8011      	strh	r1, [r2, #0]
1000871a:	1c1a      	adds	r2, r3, #0
1000871c:	328c      	adds	r2, #140	; 0x8c
1000871e:	8011      	strh	r1, [r2, #0]
10008720:	4a06      	ldr	r2, [pc, #24]	; (1000873c <gpio_init+0x50>)
10008722:	4c07      	ldr	r4, [pc, #28]	; (10008740 <gpio_init+0x54>)
10008724:	601a      	str	r2, [r3, #0]
10008726:	4a07      	ldr	r2, [pc, #28]	; (10008744 <gpio_init+0x58>)
10008728:	2027      	movs	r0, #39	; 0x27
1000872a:	649a      	str	r2, [r3, #72]	; 0x48
1000872c:	4906      	ldr	r1, [pc, #24]	; (10008748 <gpio_init+0x5c>)
1000872e:	47a0      	blx	r4
10008730:	2028      	movs	r0, #40	; 0x28
10008732:	4906      	ldr	r1, [pc, #24]	; (1000874c <gpio_init+0x60>)
10008734:	47a0      	blx	r4
10008736:	bd10      	pop	{r4, pc}
10008738:	10010530 	.word	0x10010530
1000873c:	40010000 	.word	0x40010000
10008740:	10008d45 	.word	0x10008d45
10008744:	40011000 	.word	0x40011000
10008748:	1000828d 	.word	0x1000828d
1000874c:	100082e9 	.word	0x100082e9

10008750 <system_clock_config>:
10008750:	2801      	cmp	r0, #1
10008752:	d00d      	beq.n	10008770 <system_clock_config+0x20>
10008754:	2800      	cmp	r0, #0
10008756:	d006      	beq.n	10008766 <system_clock_config+0x16>
10008758:	2802      	cmp	r0, #2
1000875a:	d129      	bne.n	100087b0 <system_clock_config+0x60>
1000875c:	200c      	movs	r0, #12
1000875e:	4a15      	ldr	r2, [pc, #84]	; (100087b4 <system_clock_config+0x64>)
10008760:	6993      	ldr	r3, [r2, #24]
10008762:	4383      	bics	r3, r0
10008764:	e015      	b.n	10008792 <system_clock_config+0x42>
10008766:	200c      	movs	r0, #12
10008768:	4a12      	ldr	r2, [pc, #72]	; (100087b4 <system_clock_config+0x64>)
1000876a:	6993      	ldr	r3, [r2, #24]
1000876c:	4303      	orrs	r3, r0
1000876e:	e010      	b.n	10008792 <system_clock_config+0x42>
10008770:	2008      	movs	r0, #8
10008772:	4b10      	ldr	r3, [pc, #64]	; (100087b4 <system_clock_config+0x64>)
10008774:	699a      	ldr	r2, [r3, #24]
10008776:	4302      	orrs	r2, r0
10008778:	619a      	str	r2, [r3, #24]
1000877a:	699a      	ldr	r2, [r3, #24]
1000877c:	3804      	subs	r0, #4
1000877e:	4382      	bics	r2, r0
10008780:	2080      	movs	r0, #128	; 0x80
10008782:	619a      	str	r2, [r3, #24]
10008784:	4a0c      	ldr	r2, [pc, #48]	; (100087b8 <system_clock_config+0x68>)
10008786:	0300      	lsls	r0, r0, #12
10008788:	6853      	ldr	r3, [r2, #4]
1000878a:	4303      	orrs	r3, r0
1000878c:	6053      	str	r3, [r2, #4]
1000878e:	4a0b      	ldr	r2, [pc, #44]	; (100087bc <system_clock_config+0x6c>)
10008790:	e001      	b.n	10008796 <system_clock_config+0x46>
10008792:	6193      	str	r3, [r2, #24]
10008794:	4a0a      	ldr	r2, [pc, #40]	; (100087c0 <system_clock_config+0x70>)
10008796:	4b0b      	ldr	r3, [pc, #44]	; (100087c4 <system_clock_config+0x74>)
10008798:	601a      	str	r2, [r3, #0]
1000879a:	2203      	movs	r2, #3
1000879c:	4b05      	ldr	r3, [pc, #20]	; (100087b4 <system_clock_config+0x64>)
1000879e:	6998      	ldr	r0, [r3, #24]
100087a0:	4390      	bics	r0, r2
100087a2:	6198      	str	r0, [r3, #24]
100087a4:	6998      	ldr	r0, [r3, #24]
100087a6:	400a      	ands	r2, r1
100087a8:	4302      	orrs	r2, r0
100087aa:	619a      	str	r2, [r3, #24]
100087ac:	2000      	movs	r0, #0
100087ae:	e000      	b.n	100087b2 <system_clock_config+0x62>
100087b0:	2017      	movs	r0, #23
100087b2:	4770      	bx	lr
100087b4:	4000b000 	.word	0x4000b000
100087b8:	4000f000 	.word	0x4000f000
100087bc:	001e8480 	.word	0x001e8480
100087c0:	018cba80 	.word	0x018cba80
100087c4:	100105c0 	.word	0x100105c0

100087c8 <system_clock_get_value>:
100087c8:	4b01      	ldr	r3, [pc, #4]	; (100087d0 <system_clock_get_value+0x8>)
100087ca:	6818      	ldr	r0, [r3, #0]
100087cc:	4770      	bx	lr
100087ce:	46c0      	nop			; (mov r8, r8)
100087d0:	100105c0 	.word	0x100105c0

100087d4 <system_clock_peripheral_enable>:
100087d4:	b500      	push	{lr}
100087d6:	2317      	movs	r3, #23
100087d8:	2835      	cmp	r0, #53	; 0x35
100087da:	d900      	bls.n	100087de <system_clock_peripheral_enable+0xa>
100087dc:	e0ea      	b.n	100089b4 <system_clock_peripheral_enable+0x1e0>
100087de:	4b76      	ldr	r3, [pc, #472]	; (100089b8 <system_clock_peripheral_enable+0x1e4>)
100087e0:	f005 fb2e 	bl	1000de40 <__gnu_thumb1_case_uqi>
100087e4:	26211e1b 	.word	0x26211e1b
100087e8:	332f2c29 	.word	0x332f2c29
100087ec:	433f3b37 	.word	0x433f3b37
100087f0:	534f4b47 	.word	0x534f4b47
100087f4:	635f5b57 	.word	0x635f5b57
100087f8:	736f6b67 	.word	0x736f6b67
100087fc:	837f7b77 	.word	0x837f7b77
10008800:	8f8c8986 	.word	0x8f8c8986
10008804:	9b989592 	.word	0x9b989592
10008808:	aba7a39f 	.word	0xaba7a39f
1000880c:	bbb7b3af 	.word	0xbbb7b3af
10008810:	cbc7c3bf 	.word	0xcbc7c3bf
10008814:	ddd7d3cf 	.word	0xddd7d3cf
10008818:	e3e0      	.short	0xe3e0
1000881a:	68da      	ldr	r2, [r3, #12]
1000881c:	2102      	movs	r1, #2
1000881e:	e004      	b.n	1000882a <system_clock_peripheral_enable+0x56>
10008820:	68da      	ldr	r2, [r3, #12]
10008822:	2104      	movs	r1, #4
10008824:	e001      	b.n	1000882a <system_clock_peripheral_enable+0x56>
10008826:	2108      	movs	r1, #8
10008828:	68da      	ldr	r2, [r3, #12]
1000882a:	430a      	orrs	r2, r1
1000882c:	60da      	str	r2, [r3, #12]
1000882e:	e0c0      	b.n	100089b2 <system_clock_peripheral_enable+0x1de>
10008830:	68da      	ldr	r2, [r3, #12]
10008832:	2110      	movs	r1, #16
10008834:	e7f9      	b.n	1000882a <system_clock_peripheral_enable+0x56>
10008836:	68da      	ldr	r2, [r3, #12]
10008838:	2120      	movs	r1, #32
1000883a:	e7f6      	b.n	1000882a <system_clock_peripheral_enable+0x56>
1000883c:	68da      	ldr	r2, [r3, #12]
1000883e:	2180      	movs	r1, #128	; 0x80
10008840:	e7f3      	b.n	1000882a <system_clock_peripheral_enable+0x56>
10008842:	2180      	movs	r1, #128	; 0x80
10008844:	68da      	ldr	r2, [r3, #12]
10008846:	0049      	lsls	r1, r1, #1
10008848:	e7ef      	b.n	1000882a <system_clock_peripheral_enable+0x56>
1000884a:	2180      	movs	r1, #128	; 0x80
1000884c:	68da      	ldr	r2, [r3, #12]
1000884e:	0109      	lsls	r1, r1, #4
10008850:	e7eb      	b.n	1000882a <system_clock_peripheral_enable+0x56>
10008852:	2180      	movs	r1, #128	; 0x80
10008854:	68da      	ldr	r2, [r3, #12]
10008856:	0149      	lsls	r1, r1, #5
10008858:	e7e7      	b.n	1000882a <system_clock_peripheral_enable+0x56>
1000885a:	2180      	movs	r1, #128	; 0x80
1000885c:	68da      	ldr	r2, [r3, #12]
1000885e:	0189      	lsls	r1, r1, #6
10008860:	e7e3      	b.n	1000882a <system_clock_peripheral_enable+0x56>
10008862:	2180      	movs	r1, #128	; 0x80
10008864:	68da      	ldr	r2, [r3, #12]
10008866:	01c9      	lsls	r1, r1, #7
10008868:	e7df      	b.n	1000882a <system_clock_peripheral_enable+0x56>
1000886a:	2180      	movs	r1, #128	; 0x80
1000886c:	68da      	ldr	r2, [r3, #12]
1000886e:	0209      	lsls	r1, r1, #8
10008870:	e7db      	b.n	1000882a <system_clock_peripheral_enable+0x56>
10008872:	2180      	movs	r1, #128	; 0x80
10008874:	68da      	ldr	r2, [r3, #12]
10008876:	0249      	lsls	r1, r1, #9
10008878:	e7d7      	b.n	1000882a <system_clock_peripheral_enable+0x56>
1000887a:	2180      	movs	r1, #128	; 0x80
1000887c:	68da      	ldr	r2, [r3, #12]
1000887e:	0289      	lsls	r1, r1, #10
10008880:	e7d3      	b.n	1000882a <system_clock_peripheral_enable+0x56>
10008882:	2180      	movs	r1, #128	; 0x80
10008884:	68da      	ldr	r2, [r3, #12]
10008886:	02c9      	lsls	r1, r1, #11
10008888:	e7cf      	b.n	1000882a <system_clock_peripheral_enable+0x56>
1000888a:	2180      	movs	r1, #128	; 0x80
1000888c:	68da      	ldr	r2, [r3, #12]
1000888e:	0309      	lsls	r1, r1, #12
10008890:	e7cb      	b.n	1000882a <system_clock_peripheral_enable+0x56>
10008892:	2180      	movs	r1, #128	; 0x80
10008894:	68da      	ldr	r2, [r3, #12]
10008896:	0349      	lsls	r1, r1, #13
10008898:	e7c7      	b.n	1000882a <system_clock_peripheral_enable+0x56>
1000889a:	2180      	movs	r1, #128	; 0x80
1000889c:	68da      	ldr	r2, [r3, #12]
1000889e:	0389      	lsls	r1, r1, #14
100088a0:	e7c3      	b.n	1000882a <system_clock_peripheral_enable+0x56>
100088a2:	2180      	movs	r1, #128	; 0x80
100088a4:	68da      	ldr	r2, [r3, #12]
100088a6:	03c9      	lsls	r1, r1, #15
100088a8:	e7bf      	b.n	1000882a <system_clock_peripheral_enable+0x56>
100088aa:	2180      	movs	r1, #128	; 0x80
100088ac:	68da      	ldr	r2, [r3, #12]
100088ae:	0409      	lsls	r1, r1, #16
100088b0:	e7bb      	b.n	1000882a <system_clock_peripheral_enable+0x56>
100088b2:	2180      	movs	r1, #128	; 0x80
100088b4:	68da      	ldr	r2, [r3, #12]
100088b6:	0449      	lsls	r1, r1, #17
100088b8:	e7b7      	b.n	1000882a <system_clock_peripheral_enable+0x56>
100088ba:	2180      	movs	r1, #128	; 0x80
100088bc:	68da      	ldr	r2, [r3, #12]
100088be:	0489      	lsls	r1, r1, #18
100088c0:	e7b3      	b.n	1000882a <system_clock_peripheral_enable+0x56>
100088c2:	2180      	movs	r1, #128	; 0x80
100088c4:	68da      	ldr	r2, [r3, #12]
100088c6:	04c9      	lsls	r1, r1, #19
100088c8:	e7af      	b.n	1000882a <system_clock_peripheral_enable+0x56>
100088ca:	2180      	movs	r1, #128	; 0x80
100088cc:	68da      	ldr	r2, [r3, #12]
100088ce:	0509      	lsls	r1, r1, #20
100088d0:	e7ab      	b.n	1000882a <system_clock_peripheral_enable+0x56>
100088d2:	2180      	movs	r1, #128	; 0x80
100088d4:	68da      	ldr	r2, [r3, #12]
100088d6:	0549      	lsls	r1, r1, #21
100088d8:	e7a7      	b.n	1000882a <system_clock_peripheral_enable+0x56>
100088da:	2180      	movs	r1, #128	; 0x80
100088dc:	68da      	ldr	r2, [r3, #12]
100088de:	0589      	lsls	r1, r1, #22
100088e0:	e7a3      	b.n	1000882a <system_clock_peripheral_enable+0x56>
100088e2:	2180      	movs	r1, #128	; 0x80
100088e4:	68da      	ldr	r2, [r3, #12]
100088e6:	05c9      	lsls	r1, r1, #23
100088e8:	e79f      	b.n	1000882a <system_clock_peripheral_enable+0x56>
100088ea:	691a      	ldr	r2, [r3, #16]
100088ec:	2101      	movs	r1, #1
100088ee:	e053      	b.n	10008998 <system_clock_peripheral_enable+0x1c4>
100088f0:	691a      	ldr	r2, [r3, #16]
100088f2:	2102      	movs	r1, #2
100088f4:	e050      	b.n	10008998 <system_clock_peripheral_enable+0x1c4>
100088f6:	691a      	ldr	r2, [r3, #16]
100088f8:	2104      	movs	r1, #4
100088fa:	e04d      	b.n	10008998 <system_clock_peripheral_enable+0x1c4>
100088fc:	691a      	ldr	r2, [r3, #16]
100088fe:	2108      	movs	r1, #8
10008900:	e04a      	b.n	10008998 <system_clock_peripheral_enable+0x1c4>
10008902:	691a      	ldr	r2, [r3, #16]
10008904:	2110      	movs	r1, #16
10008906:	e047      	b.n	10008998 <system_clock_peripheral_enable+0x1c4>
10008908:	691a      	ldr	r2, [r3, #16]
1000890a:	2120      	movs	r1, #32
1000890c:	e044      	b.n	10008998 <system_clock_peripheral_enable+0x1c4>
1000890e:	691a      	ldr	r2, [r3, #16]
10008910:	2140      	movs	r1, #64	; 0x40
10008912:	e041      	b.n	10008998 <system_clock_peripheral_enable+0x1c4>
10008914:	691a      	ldr	r2, [r3, #16]
10008916:	2180      	movs	r1, #128	; 0x80
10008918:	e03e      	b.n	10008998 <system_clock_peripheral_enable+0x1c4>
1000891a:	2180      	movs	r1, #128	; 0x80
1000891c:	691a      	ldr	r2, [r3, #16]
1000891e:	0049      	lsls	r1, r1, #1
10008920:	e03a      	b.n	10008998 <system_clock_peripheral_enable+0x1c4>
10008922:	2180      	movs	r1, #128	; 0x80
10008924:	691a      	ldr	r2, [r3, #16]
10008926:	0089      	lsls	r1, r1, #2
10008928:	e036      	b.n	10008998 <system_clock_peripheral_enable+0x1c4>
1000892a:	2180      	movs	r1, #128	; 0x80
1000892c:	691a      	ldr	r2, [r3, #16]
1000892e:	00c9      	lsls	r1, r1, #3
10008930:	e032      	b.n	10008998 <system_clock_peripheral_enable+0x1c4>
10008932:	2180      	movs	r1, #128	; 0x80
10008934:	691a      	ldr	r2, [r3, #16]
10008936:	0109      	lsls	r1, r1, #4
10008938:	e02e      	b.n	10008998 <system_clock_peripheral_enable+0x1c4>
1000893a:	2180      	movs	r1, #128	; 0x80
1000893c:	691a      	ldr	r2, [r3, #16]
1000893e:	0149      	lsls	r1, r1, #5
10008940:	e02a      	b.n	10008998 <system_clock_peripheral_enable+0x1c4>
10008942:	2180      	movs	r1, #128	; 0x80
10008944:	691a      	ldr	r2, [r3, #16]
10008946:	0189      	lsls	r1, r1, #6
10008948:	e026      	b.n	10008998 <system_clock_peripheral_enable+0x1c4>
1000894a:	2180      	movs	r1, #128	; 0x80
1000894c:	691a      	ldr	r2, [r3, #16]
1000894e:	01c9      	lsls	r1, r1, #7
10008950:	e022      	b.n	10008998 <system_clock_peripheral_enable+0x1c4>
10008952:	2180      	movs	r1, #128	; 0x80
10008954:	691a      	ldr	r2, [r3, #16]
10008956:	0209      	lsls	r1, r1, #8
10008958:	e01e      	b.n	10008998 <system_clock_peripheral_enable+0x1c4>
1000895a:	2180      	movs	r1, #128	; 0x80
1000895c:	691a      	ldr	r2, [r3, #16]
1000895e:	0249      	lsls	r1, r1, #9
10008960:	e01a      	b.n	10008998 <system_clock_peripheral_enable+0x1c4>
10008962:	2180      	movs	r1, #128	; 0x80
10008964:	691a      	ldr	r2, [r3, #16]
10008966:	0289      	lsls	r1, r1, #10
10008968:	e016      	b.n	10008998 <system_clock_peripheral_enable+0x1c4>
1000896a:	2180      	movs	r1, #128	; 0x80
1000896c:	691a      	ldr	r2, [r3, #16]
1000896e:	02c9      	lsls	r1, r1, #11
10008970:	e012      	b.n	10008998 <system_clock_peripheral_enable+0x1c4>
10008972:	2180      	movs	r1, #128	; 0x80
10008974:	691a      	ldr	r2, [r3, #16]
10008976:	0309      	lsls	r1, r1, #12
10008978:	e00e      	b.n	10008998 <system_clock_peripheral_enable+0x1c4>
1000897a:	2180      	movs	r1, #128	; 0x80
1000897c:	691a      	ldr	r2, [r3, #16]
1000897e:	0349      	lsls	r1, r1, #13
10008980:	e00a      	b.n	10008998 <system_clock_peripheral_enable+0x1c4>
10008982:	2180      	movs	r1, #128	; 0x80
10008984:	691a      	ldr	r2, [r3, #16]
10008986:	0389      	lsls	r1, r1, #14
10008988:	e006      	b.n	10008998 <system_clock_peripheral_enable+0x1c4>
1000898a:	2180      	movs	r1, #128	; 0x80
1000898c:	691a      	ldr	r2, [r3, #16]
1000898e:	03c9      	lsls	r1, r1, #15
10008990:	e002      	b.n	10008998 <system_clock_peripheral_enable+0x1c4>
10008992:	2180      	movs	r1, #128	; 0x80
10008994:	691a      	ldr	r2, [r3, #16]
10008996:	0409      	lsls	r1, r1, #16
10008998:	430a      	orrs	r2, r1
1000899a:	611a      	str	r2, [r3, #16]
1000899c:	e009      	b.n	100089b2 <system_clock_peripheral_enable+0x1de>
1000899e:	7d1a      	ldrb	r2, [r3, #20]
100089a0:	2101      	movs	r1, #1
100089a2:	e004      	b.n	100089ae <system_clock_peripheral_enable+0x1da>
100089a4:	7d1a      	ldrb	r2, [r3, #20]
100089a6:	2102      	movs	r1, #2
100089a8:	e001      	b.n	100089ae <system_clock_peripheral_enable+0x1da>
100089aa:	2104      	movs	r1, #4
100089ac:	7d1a      	ldrb	r2, [r3, #20]
100089ae:	430a      	orrs	r2, r1
100089b0:	751a      	strb	r2, [r3, #20]
100089b2:	2300      	movs	r3, #0
100089b4:	1c18      	adds	r0, r3, #0
100089b6:	bd00      	pop	{pc}
100089b8:	4000b000 	.word	0x4000b000

100089bc <system_peripheral_reset>:
100089bc:	b500      	push	{lr}
100089be:	2843      	cmp	r0, #67	; 0x43
100089c0:	d900      	bls.n	100089c4 <system_peripheral_reset+0x8>
100089c2:	e18c      	b.n	10008cde <system_peripheral_reset+0x322>
100089c4:	f005 fa46 	bl	1000de54 <__gnu_thumb1_case_uhi>
100089c8:	00550048 	.word	0x00550048
100089cc:	0065005d 	.word	0x0065005d
100089d0:	00770140 	.word	0x00770140
100089d4:	00ad0080 	.word	0x00ad0080
100089d8:	008900b6 	.word	0x008900b6
100089dc:	009b0092 	.word	0x009b0092
100089e0:	00bf00a4 	.word	0x00bf00a4
100089e4:	018b018b 	.word	0x018b018b
100089e8:	018b018b 	.word	0x018b018b
100089ec:	018b018b 	.word	0x018b018b
100089f0:	018b018b 	.word	0x018b018b
100089f4:	010700fe 	.word	0x010700fe
100089f8:	01440110 	.word	0x01440110
100089fc:	018b00d1 	.word	0x018b00d1
10008a00:	018b018b 	.word	0x018b018b
10008a04:	018b018b 	.word	0x018b018b
10008a08:	0119018b 	.word	0x0119018b
10008a0c:	012b0122 	.word	0x012b0122
10008a10:	018b0135 	.word	0x018b0135
10008a14:	0176016d 	.word	0x0176016d
10008a18:	018b018b 	.word	0x018b018b
10008a1c:	01540150 	.word	0x01540150
10008a20:	015c0158 	.word	0x015c0158
10008a24:	018b018b 	.word	0x018b018b
10008a28:	018b018b 	.word	0x018b018b
10008a2c:	018b018b 	.word	0x018b018b
10008a30:	018b018b 	.word	0x018b018b
10008a34:	004c0044 	.word	0x004c0044
10008a38:	00610059 	.word	0x00610059
10008a3c:	00c8006e 	.word	0x00c8006e
10008a40:	00e300da 	.word	0x00e300da
10008a44:	00f500ec 	.word	0x00f500ec
10008a48:	0160014c 	.word	0x0160014c
10008a4c:	01820164 	.word	0x01820164
10008a50:	4ba4      	ldr	r3, [pc, #656]	; (10008ce4 <system_peripheral_reset+0x328>)
10008a52:	2002      	movs	r0, #2
10008a54:	6859      	ldr	r1, [r3, #4]
10008a56:	e006      	b.n	10008a66 <system_peripheral_reset+0xaa>
10008a58:	4ba2      	ldr	r3, [pc, #648]	; (10008ce4 <system_peripheral_reset+0x328>)
10008a5a:	2004      	movs	r0, #4
10008a5c:	6859      	ldr	r1, [r3, #4]
10008a5e:	e002      	b.n	10008a66 <system_peripheral_reset+0xaa>
10008a60:	2008      	movs	r0, #8
10008a62:	4ba0      	ldr	r3, [pc, #640]	; (10008ce4 <system_peripheral_reset+0x328>)
10008a64:	6859      	ldr	r1, [r3, #4]
10008a66:	4381      	bics	r1, r0
10008a68:	6059      	str	r1, [r3, #4]
10008a6a:	685a      	ldr	r2, [r3, #4]
10008a6c:	4302      	orrs	r2, r0
10008a6e:	605a      	str	r2, [r3, #4]
10008a70:	e12a      	b.n	10008cc8 <system_peripheral_reset+0x30c>
10008a72:	4b9c      	ldr	r3, [pc, #624]	; (10008ce4 <system_peripheral_reset+0x328>)
10008a74:	2010      	movs	r0, #16
10008a76:	6859      	ldr	r1, [r3, #4]
10008a78:	e7f5      	b.n	10008a66 <system_peripheral_reset+0xaa>
10008a7a:	4b9a      	ldr	r3, [pc, #616]	; (10008ce4 <system_peripheral_reset+0x328>)
10008a7c:	2020      	movs	r0, #32
10008a7e:	6859      	ldr	r1, [r3, #4]
10008a80:	e7f1      	b.n	10008a66 <system_peripheral_reset+0xaa>
10008a82:	4b98      	ldr	r3, [pc, #608]	; (10008ce4 <system_peripheral_reset+0x328>)
10008a84:	2040      	movs	r0, #64	; 0x40
10008a86:	6859      	ldr	r1, [r3, #4]
10008a88:	e7ed      	b.n	10008a66 <system_peripheral_reset+0xaa>
10008a8a:	4b96      	ldr	r3, [pc, #600]	; (10008ce4 <system_peripheral_reset+0x328>)
10008a8c:	2080      	movs	r0, #128	; 0x80
10008a8e:	6859      	ldr	r1, [r3, #4]
10008a90:	e7e9      	b.n	10008a66 <system_peripheral_reset+0xaa>
10008a92:	4b94      	ldr	r3, [pc, #592]	; (10008ce4 <system_peripheral_reset+0x328>)
10008a94:	4a94      	ldr	r2, [pc, #592]	; (10008ce8 <system_peripheral_reset+0x32c>)
10008a96:	6859      	ldr	r1, [r3, #4]
10008a98:	400a      	ands	r2, r1
10008a9a:	2180      	movs	r1, #128	; 0x80
10008a9c:	605a      	str	r2, [r3, #4]
10008a9e:	685a      	ldr	r2, [r3, #4]
10008aa0:	0049      	lsls	r1, r1, #1
10008aa2:	e0c4      	b.n	10008c2e <system_peripheral_reset+0x272>
10008aa4:	4b8f      	ldr	r3, [pc, #572]	; (10008ce4 <system_peripheral_reset+0x328>)
10008aa6:	4a91      	ldr	r2, [pc, #580]	; (10008cec <system_peripheral_reset+0x330>)
10008aa8:	6859      	ldr	r1, [r3, #4]
10008aaa:	400a      	ands	r2, r1
10008aac:	2180      	movs	r1, #128	; 0x80
10008aae:	605a      	str	r2, [r3, #4]
10008ab0:	685a      	ldr	r2, [r3, #4]
10008ab2:	0089      	lsls	r1, r1, #2
10008ab4:	e0bb      	b.n	10008c2e <system_peripheral_reset+0x272>
10008ab6:	4b8b      	ldr	r3, [pc, #556]	; (10008ce4 <system_peripheral_reset+0x328>)
10008ab8:	4a8d      	ldr	r2, [pc, #564]	; (10008cf0 <system_peripheral_reset+0x334>)
10008aba:	6859      	ldr	r1, [r3, #4]
10008abc:	400a      	ands	r2, r1
10008abe:	2180      	movs	r1, #128	; 0x80
10008ac0:	605a      	str	r2, [r3, #4]
10008ac2:	685a      	ldr	r2, [r3, #4]
10008ac4:	00c9      	lsls	r1, r1, #3
10008ac6:	e0b2      	b.n	10008c2e <system_peripheral_reset+0x272>
10008ac8:	4b86      	ldr	r3, [pc, #536]	; (10008ce4 <system_peripheral_reset+0x328>)
10008aca:	4a8a      	ldr	r2, [pc, #552]	; (10008cf4 <system_peripheral_reset+0x338>)
10008acc:	6859      	ldr	r1, [r3, #4]
10008ace:	400a      	ands	r2, r1
10008ad0:	2180      	movs	r1, #128	; 0x80
10008ad2:	605a      	str	r2, [r3, #4]
10008ad4:	685a      	ldr	r2, [r3, #4]
10008ad6:	0109      	lsls	r1, r1, #4
10008ad8:	e0a9      	b.n	10008c2e <system_peripheral_reset+0x272>
10008ada:	4b82      	ldr	r3, [pc, #520]	; (10008ce4 <system_peripheral_reset+0x328>)
10008adc:	4a86      	ldr	r2, [pc, #536]	; (10008cf8 <system_peripheral_reset+0x33c>)
10008ade:	6859      	ldr	r1, [r3, #4]
10008ae0:	400a      	ands	r2, r1
10008ae2:	2180      	movs	r1, #128	; 0x80
10008ae4:	605a      	str	r2, [r3, #4]
10008ae6:	685a      	ldr	r2, [r3, #4]
10008ae8:	0149      	lsls	r1, r1, #5
10008aea:	e0a0      	b.n	10008c2e <system_peripheral_reset+0x272>
10008aec:	4b7d      	ldr	r3, [pc, #500]	; (10008ce4 <system_peripheral_reset+0x328>)
10008aee:	4a83      	ldr	r2, [pc, #524]	; (10008cfc <system_peripheral_reset+0x340>)
10008af0:	6859      	ldr	r1, [r3, #4]
10008af2:	400a      	ands	r2, r1
10008af4:	2180      	movs	r1, #128	; 0x80
10008af6:	605a      	str	r2, [r3, #4]
10008af8:	685a      	ldr	r2, [r3, #4]
10008afa:	0189      	lsls	r1, r1, #6
10008afc:	e097      	b.n	10008c2e <system_peripheral_reset+0x272>
10008afe:	4b79      	ldr	r3, [pc, #484]	; (10008ce4 <system_peripheral_reset+0x328>)
10008b00:	4a7f      	ldr	r2, [pc, #508]	; (10008d00 <system_peripheral_reset+0x344>)
10008b02:	6859      	ldr	r1, [r3, #4]
10008b04:	400a      	ands	r2, r1
10008b06:	2180      	movs	r1, #128	; 0x80
10008b08:	605a      	str	r2, [r3, #4]
10008b0a:	685a      	ldr	r2, [r3, #4]
10008b0c:	01c9      	lsls	r1, r1, #7
10008b0e:	e08e      	b.n	10008c2e <system_peripheral_reset+0x272>
10008b10:	4b74      	ldr	r3, [pc, #464]	; (10008ce4 <system_peripheral_reset+0x328>)
10008b12:	4a7c      	ldr	r2, [pc, #496]	; (10008d04 <system_peripheral_reset+0x348>)
10008b14:	6859      	ldr	r1, [r3, #4]
10008b16:	400a      	ands	r2, r1
10008b18:	2180      	movs	r1, #128	; 0x80
10008b1a:	605a      	str	r2, [r3, #4]
10008b1c:	685a      	ldr	r2, [r3, #4]
10008b1e:	0209      	lsls	r1, r1, #8
10008b20:	e085      	b.n	10008c2e <system_peripheral_reset+0x272>
10008b22:	4b70      	ldr	r3, [pc, #448]	; (10008ce4 <system_peripheral_reset+0x328>)
10008b24:	4a78      	ldr	r2, [pc, #480]	; (10008d08 <system_peripheral_reset+0x34c>)
10008b26:	6859      	ldr	r1, [r3, #4]
10008b28:	400a      	ands	r2, r1
10008b2a:	2180      	movs	r1, #128	; 0x80
10008b2c:	605a      	str	r2, [r3, #4]
10008b2e:	685a      	ldr	r2, [r3, #4]
10008b30:	0249      	lsls	r1, r1, #9
10008b32:	e07c      	b.n	10008c2e <system_peripheral_reset+0x272>
10008b34:	4b6b      	ldr	r3, [pc, #428]	; (10008ce4 <system_peripheral_reset+0x328>)
10008b36:	4a75      	ldr	r2, [pc, #468]	; (10008d0c <system_peripheral_reset+0x350>)
10008b38:	6859      	ldr	r1, [r3, #4]
10008b3a:	400a      	ands	r2, r1
10008b3c:	2180      	movs	r1, #128	; 0x80
10008b3e:	605a      	str	r2, [r3, #4]
10008b40:	685a      	ldr	r2, [r3, #4]
10008b42:	0289      	lsls	r1, r1, #10
10008b44:	e073      	b.n	10008c2e <system_peripheral_reset+0x272>
10008b46:	4b67      	ldr	r3, [pc, #412]	; (10008ce4 <system_peripheral_reset+0x328>)
10008b48:	4a71      	ldr	r2, [pc, #452]	; (10008d10 <system_peripheral_reset+0x354>)
10008b4a:	6859      	ldr	r1, [r3, #4]
10008b4c:	400a      	ands	r2, r1
10008b4e:	2180      	movs	r1, #128	; 0x80
10008b50:	605a      	str	r2, [r3, #4]
10008b52:	685a      	ldr	r2, [r3, #4]
10008b54:	02c9      	lsls	r1, r1, #11
10008b56:	e06a      	b.n	10008c2e <system_peripheral_reset+0x272>
10008b58:	4b62      	ldr	r3, [pc, #392]	; (10008ce4 <system_peripheral_reset+0x328>)
10008b5a:	4a6e      	ldr	r2, [pc, #440]	; (10008d14 <system_peripheral_reset+0x358>)
10008b5c:	6859      	ldr	r1, [r3, #4]
10008b5e:	400a      	ands	r2, r1
10008b60:	2180      	movs	r1, #128	; 0x80
10008b62:	605a      	str	r2, [r3, #4]
10008b64:	685a      	ldr	r2, [r3, #4]
10008b66:	0309      	lsls	r1, r1, #12
10008b68:	e061      	b.n	10008c2e <system_peripheral_reset+0x272>
10008b6a:	4b5e      	ldr	r3, [pc, #376]	; (10008ce4 <system_peripheral_reset+0x328>)
10008b6c:	4a6a      	ldr	r2, [pc, #424]	; (10008d18 <system_peripheral_reset+0x35c>)
10008b6e:	6859      	ldr	r1, [r3, #4]
10008b70:	400a      	ands	r2, r1
10008b72:	2180      	movs	r1, #128	; 0x80
10008b74:	605a      	str	r2, [r3, #4]
10008b76:	685a      	ldr	r2, [r3, #4]
10008b78:	0349      	lsls	r1, r1, #13
10008b7a:	e058      	b.n	10008c2e <system_peripheral_reset+0x272>
10008b7c:	4b59      	ldr	r3, [pc, #356]	; (10008ce4 <system_peripheral_reset+0x328>)
10008b7e:	4a67      	ldr	r2, [pc, #412]	; (10008d1c <system_peripheral_reset+0x360>)
10008b80:	6859      	ldr	r1, [r3, #4]
10008b82:	400a      	ands	r2, r1
10008b84:	2180      	movs	r1, #128	; 0x80
10008b86:	605a      	str	r2, [r3, #4]
10008b88:	685a      	ldr	r2, [r3, #4]
10008b8a:	0389      	lsls	r1, r1, #14
10008b8c:	e04f      	b.n	10008c2e <system_peripheral_reset+0x272>
10008b8e:	4b55      	ldr	r3, [pc, #340]	; (10008ce4 <system_peripheral_reset+0x328>)
10008b90:	4a63      	ldr	r2, [pc, #396]	; (10008d20 <system_peripheral_reset+0x364>)
10008b92:	6859      	ldr	r1, [r3, #4]
10008b94:	400a      	ands	r2, r1
10008b96:	2180      	movs	r1, #128	; 0x80
10008b98:	605a      	str	r2, [r3, #4]
10008b9a:	685a      	ldr	r2, [r3, #4]
10008b9c:	03c9      	lsls	r1, r1, #15
10008b9e:	e046      	b.n	10008c2e <system_peripheral_reset+0x272>
10008ba0:	4b50      	ldr	r3, [pc, #320]	; (10008ce4 <system_peripheral_reset+0x328>)
10008ba2:	4a60      	ldr	r2, [pc, #384]	; (10008d24 <system_peripheral_reset+0x368>)
10008ba4:	6859      	ldr	r1, [r3, #4]
10008ba6:	400a      	ands	r2, r1
10008ba8:	2180      	movs	r1, #128	; 0x80
10008baa:	605a      	str	r2, [r3, #4]
10008bac:	685a      	ldr	r2, [r3, #4]
10008bae:	0409      	lsls	r1, r1, #16
10008bb0:	e03d      	b.n	10008c2e <system_peripheral_reset+0x272>
10008bb2:	4b4c      	ldr	r3, [pc, #304]	; (10008ce4 <system_peripheral_reset+0x328>)
10008bb4:	4a5c      	ldr	r2, [pc, #368]	; (10008d28 <system_peripheral_reset+0x36c>)
10008bb6:	6859      	ldr	r1, [r3, #4]
10008bb8:	400a      	ands	r2, r1
10008bba:	2180      	movs	r1, #128	; 0x80
10008bbc:	605a      	str	r2, [r3, #4]
10008bbe:	685a      	ldr	r2, [r3, #4]
10008bc0:	0449      	lsls	r1, r1, #17
10008bc2:	e034      	b.n	10008c2e <system_peripheral_reset+0x272>
10008bc4:	4b47      	ldr	r3, [pc, #284]	; (10008ce4 <system_peripheral_reset+0x328>)
10008bc6:	4a59      	ldr	r2, [pc, #356]	; (10008d2c <system_peripheral_reset+0x370>)
10008bc8:	6859      	ldr	r1, [r3, #4]
10008bca:	400a      	ands	r2, r1
10008bcc:	2180      	movs	r1, #128	; 0x80
10008bce:	605a      	str	r2, [r3, #4]
10008bd0:	685a      	ldr	r2, [r3, #4]
10008bd2:	0489      	lsls	r1, r1, #18
10008bd4:	e02b      	b.n	10008c2e <system_peripheral_reset+0x272>
10008bd6:	4b43      	ldr	r3, [pc, #268]	; (10008ce4 <system_peripheral_reset+0x328>)
10008bd8:	4a55      	ldr	r2, [pc, #340]	; (10008d30 <system_peripheral_reset+0x374>)
10008bda:	6859      	ldr	r1, [r3, #4]
10008bdc:	400a      	ands	r2, r1
10008bde:	2180      	movs	r1, #128	; 0x80
10008be0:	605a      	str	r2, [r3, #4]
10008be2:	685a      	ldr	r2, [r3, #4]
10008be4:	04c9      	lsls	r1, r1, #19
10008be6:	e022      	b.n	10008c2e <system_peripheral_reset+0x272>
10008be8:	4b3e      	ldr	r3, [pc, #248]	; (10008ce4 <system_peripheral_reset+0x328>)
10008bea:	4a52      	ldr	r2, [pc, #328]	; (10008d34 <system_peripheral_reset+0x378>)
10008bec:	6859      	ldr	r1, [r3, #4]
10008bee:	400a      	ands	r2, r1
10008bf0:	2180      	movs	r1, #128	; 0x80
10008bf2:	605a      	str	r2, [r3, #4]
10008bf4:	685a      	ldr	r2, [r3, #4]
10008bf6:	0509      	lsls	r1, r1, #20
10008bf8:	e019      	b.n	10008c2e <system_peripheral_reset+0x272>
10008bfa:	4b3a      	ldr	r3, [pc, #232]	; (10008ce4 <system_peripheral_reset+0x328>)
10008bfc:	4a4e      	ldr	r2, [pc, #312]	; (10008d38 <system_peripheral_reset+0x37c>)
10008bfe:	6859      	ldr	r1, [r3, #4]
10008c00:	400a      	ands	r2, r1
10008c02:	2180      	movs	r1, #128	; 0x80
10008c04:	605a      	str	r2, [r3, #4]
10008c06:	685a      	ldr	r2, [r3, #4]
10008c08:	0549      	lsls	r1, r1, #21
10008c0a:	e010      	b.n	10008c2e <system_peripheral_reset+0x272>
10008c0c:	4b35      	ldr	r3, [pc, #212]	; (10008ce4 <system_peripheral_reset+0x328>)
10008c0e:	4a4b      	ldr	r2, [pc, #300]	; (10008d3c <system_peripheral_reset+0x380>)
10008c10:	6859      	ldr	r1, [r3, #4]
10008c12:	400a      	ands	r2, r1
10008c14:	2180      	movs	r1, #128	; 0x80
10008c16:	605a      	str	r2, [r3, #4]
10008c18:	685a      	ldr	r2, [r3, #4]
10008c1a:	0589      	lsls	r1, r1, #22
10008c1c:	e007      	b.n	10008c2e <system_peripheral_reset+0x272>
10008c1e:	4b31      	ldr	r3, [pc, #196]	; (10008ce4 <system_peripheral_reset+0x328>)
10008c20:	4a47      	ldr	r2, [pc, #284]	; (10008d40 <system_peripheral_reset+0x384>)
10008c22:	6859      	ldr	r1, [r3, #4]
10008c24:	400a      	ands	r2, r1
10008c26:	2180      	movs	r1, #128	; 0x80
10008c28:	605a      	str	r2, [r3, #4]
10008c2a:	685a      	ldr	r2, [r3, #4]
10008c2c:	05c9      	lsls	r1, r1, #23
10008c2e:	430a      	orrs	r2, r1
10008c30:	e71d      	b.n	10008a6e <system_peripheral_reset+0xb2>
10008c32:	2180      	movs	r1, #128	; 0x80
10008c34:	4a2b      	ldr	r2, [pc, #172]	; (10008ce4 <system_peripheral_reset+0x328>)
10008c36:	0609      	lsls	r1, r1, #24
10008c38:	6853      	ldr	r3, [r2, #4]
10008c3a:	005b      	lsls	r3, r3, #1
10008c3c:	085b      	lsrs	r3, r3, #1
10008c3e:	6053      	str	r3, [r2, #4]
10008c40:	6853      	ldr	r3, [r2, #4]
10008c42:	430b      	orrs	r3, r1
10008c44:	6053      	str	r3, [r2, #4]
10008c46:	e03f      	b.n	10008cc8 <system_peripheral_reset+0x30c>
10008c48:	4b26      	ldr	r3, [pc, #152]	; (10008ce4 <system_peripheral_reset+0x328>)
10008c4a:	2001      	movs	r0, #1
10008c4c:	8919      	ldrh	r1, [r3, #8]
10008c4e:	e002      	b.n	10008c56 <system_peripheral_reset+0x29a>
10008c50:	2002      	movs	r0, #2
10008c52:	4b24      	ldr	r3, [pc, #144]	; (10008ce4 <system_peripheral_reset+0x328>)
10008c54:	8919      	ldrh	r1, [r3, #8]
10008c56:	4381      	bics	r1, r0
10008c58:	8119      	strh	r1, [r3, #8]
10008c5a:	891a      	ldrh	r2, [r3, #8]
10008c5c:	4302      	orrs	r2, r0
10008c5e:	e032      	b.n	10008cc6 <system_peripheral_reset+0x30a>
10008c60:	4b20      	ldr	r3, [pc, #128]	; (10008ce4 <system_peripheral_reset+0x328>)
10008c62:	2004      	movs	r0, #4
10008c64:	8919      	ldrh	r1, [r3, #8]
10008c66:	e7f6      	b.n	10008c56 <system_peripheral_reset+0x29a>
10008c68:	4b1e      	ldr	r3, [pc, #120]	; (10008ce4 <system_peripheral_reset+0x328>)
10008c6a:	2008      	movs	r0, #8
10008c6c:	8919      	ldrh	r1, [r3, #8]
10008c6e:	e7f2      	b.n	10008c56 <system_peripheral_reset+0x29a>
10008c70:	4b1c      	ldr	r3, [pc, #112]	; (10008ce4 <system_peripheral_reset+0x328>)
10008c72:	2010      	movs	r0, #16
10008c74:	8919      	ldrh	r1, [r3, #8]
10008c76:	e7ee      	b.n	10008c56 <system_peripheral_reset+0x29a>
10008c78:	4b1a      	ldr	r3, [pc, #104]	; (10008ce4 <system_peripheral_reset+0x328>)
10008c7a:	2020      	movs	r0, #32
10008c7c:	8919      	ldrh	r1, [r3, #8]
10008c7e:	e7ea      	b.n	10008c56 <system_peripheral_reset+0x29a>
10008c80:	4b18      	ldr	r3, [pc, #96]	; (10008ce4 <system_peripheral_reset+0x328>)
10008c82:	2040      	movs	r0, #64	; 0x40
10008c84:	8919      	ldrh	r1, [r3, #8]
10008c86:	e7e6      	b.n	10008c56 <system_peripheral_reset+0x29a>
10008c88:	4b16      	ldr	r3, [pc, #88]	; (10008ce4 <system_peripheral_reset+0x328>)
10008c8a:	2080      	movs	r0, #128	; 0x80
10008c8c:	8919      	ldrh	r1, [r3, #8]
10008c8e:	e7e2      	b.n	10008c56 <system_peripheral_reset+0x29a>
10008c90:	4b14      	ldr	r3, [pc, #80]	; (10008ce4 <system_peripheral_reset+0x328>)
10008c92:	4a15      	ldr	r2, [pc, #84]	; (10008ce8 <system_peripheral_reset+0x32c>)
10008c94:	8919      	ldrh	r1, [r3, #8]
10008c96:	400a      	ands	r2, r1
10008c98:	2180      	movs	r1, #128	; 0x80
10008c9a:	811a      	strh	r2, [r3, #8]
10008c9c:	891a      	ldrh	r2, [r3, #8]
10008c9e:	0049      	lsls	r1, r1, #1
10008ca0:	e010      	b.n	10008cc4 <system_peripheral_reset+0x308>
10008ca2:	4b10      	ldr	r3, [pc, #64]	; (10008ce4 <system_peripheral_reset+0x328>)
10008ca4:	4a11      	ldr	r2, [pc, #68]	; (10008cec <system_peripheral_reset+0x330>)
10008ca6:	8919      	ldrh	r1, [r3, #8]
10008ca8:	400a      	ands	r2, r1
10008caa:	2180      	movs	r1, #128	; 0x80
10008cac:	811a      	strh	r2, [r3, #8]
10008cae:	891a      	ldrh	r2, [r3, #8]
10008cb0:	0089      	lsls	r1, r1, #2
10008cb2:	e007      	b.n	10008cc4 <system_peripheral_reset+0x308>
10008cb4:	4b0b      	ldr	r3, [pc, #44]	; (10008ce4 <system_peripheral_reset+0x328>)
10008cb6:	4a0e      	ldr	r2, [pc, #56]	; (10008cf0 <system_peripheral_reset+0x334>)
10008cb8:	8919      	ldrh	r1, [r3, #8]
10008cba:	400a      	ands	r2, r1
10008cbc:	2180      	movs	r1, #128	; 0x80
10008cbe:	811a      	strh	r2, [r3, #8]
10008cc0:	891a      	ldrh	r2, [r3, #8]
10008cc2:	00c9      	lsls	r1, r1, #3
10008cc4:	430a      	orrs	r2, r1
10008cc6:	811a      	strh	r2, [r3, #8]
10008cc8:	2000      	movs	r0, #0
10008cca:	e009      	b.n	10008ce0 <system_peripheral_reset+0x324>
10008ccc:	4b05      	ldr	r3, [pc, #20]	; (10008ce4 <system_peripheral_reset+0x328>)
10008cce:	4a09      	ldr	r2, [pc, #36]	; (10008cf4 <system_peripheral_reset+0x338>)
10008cd0:	8919      	ldrh	r1, [r3, #8]
10008cd2:	400a      	ands	r2, r1
10008cd4:	2180      	movs	r1, #128	; 0x80
10008cd6:	811a      	strh	r2, [r3, #8]
10008cd8:	891a      	ldrh	r2, [r3, #8]
10008cda:	0109      	lsls	r1, r1, #4
10008cdc:	e7f2      	b.n	10008cc4 <system_peripheral_reset+0x308>
10008cde:	2017      	movs	r0, #23
10008ce0:	bd00      	pop	{pc}
10008ce2:	46c0      	nop			; (mov r8, r8)
10008ce4:	4000b000 	.word	0x4000b000
10008ce8:	fffffeff 	.word	0xfffffeff
10008cec:	fffffdff 	.word	0xfffffdff
10008cf0:	fffffbff 	.word	0xfffffbff
10008cf4:	fffff7ff 	.word	0xfffff7ff
10008cf8:	ffffefff 	.word	0xffffefff
10008cfc:	ffffdfff 	.word	0xffffdfff
10008d00:	ffffbfff 	.word	0xffffbfff
10008d04:	ffff7fff 	.word	0xffff7fff
10008d08:	fffeffff 	.word	0xfffeffff
10008d0c:	fffdffff 	.word	0xfffdffff
10008d10:	fffbffff 	.word	0xfffbffff
10008d14:	fff7ffff 	.word	0xfff7ffff
10008d18:	ffefffff 	.word	0xffefffff
10008d1c:	ffdfffff 	.word	0xffdfffff
10008d20:	ffbfffff 	.word	0xffbfffff
10008d24:	ff7fffff 	.word	0xff7fffff
10008d28:	feffffff 	.word	0xfeffffff
10008d2c:	fdffffff 	.word	0xfdffffff
10008d30:	fbffffff 	.word	0xfbffffff
10008d34:	f7ffffff 	.word	0xf7ffffff
10008d38:	efffffff 	.word	0xefffffff
10008d3c:	dfffffff 	.word	0xdfffffff
10008d40:	bfffffff 	.word	0xbfffffff

10008d44 <system_register_isr>:
10008d44:	2380      	movs	r3, #128	; 0x80
10008d46:	04db      	lsls	r3, r3, #19
10008d48:	18c0      	adds	r0, r0, r3
10008d4a:	0080      	lsls	r0, r0, #2
10008d4c:	6001      	str	r1, [r0, #0]
10008d4e:	4770      	bx	lr

10008d50 <uart_tx0_isr_handler>:
10008d50:	2201      	movs	r2, #1
10008d52:	b538      	push	{r3, r4, r5, lr}
10008d54:	4b20      	ldr	r3, [pc, #128]	; (10008dd8 <uart_tx0_isr_handler+0x88>)
10008d56:	681c      	ldr	r4, [r3, #0]
10008d58:	6820      	ldr	r0, [r4, #0]
10008d5a:	7905      	ldrb	r5, [r0, #4]
10008d5c:	b2ed      	uxtb	r5, r5
10008d5e:	4215      	tst	r5, r2
10008d60:	d015      	beq.n	10008d8e <uart_tx0_isr_handler+0x3e>
10008d62:	69a3      	ldr	r3, [r4, #24]
10008d64:	7819      	ldrb	r1, [r3, #0]
10008d66:	189b      	adds	r3, r3, r2
10008d68:	b2c9      	uxtb	r1, r1
10008d6a:	61a3      	str	r3, [r4, #24]
10008d6c:	7001      	strb	r1, [r0, #0]
10008d6e:	8be3      	ldrh	r3, [r4, #30]
10008d70:	3b01      	subs	r3, #1
10008d72:	b29b      	uxth	r3, r3
10008d74:	83e3      	strh	r3, [r4, #30]
10008d76:	8be3      	ldrh	r3, [r4, #30]
10008d78:	2b00      	cmp	r3, #0
10008d7a:	d108      	bne.n	10008d8e <uart_tx0_isr_handler+0x3e>
10008d7c:	6821      	ldr	r1, [r4, #0]
10008d7e:	7a0b      	ldrb	r3, [r1, #8]
10008d80:	4393      	bics	r3, r2
10008d82:	720b      	strb	r3, [r1, #8]
10008d84:	2110      	movs	r1, #16
10008d86:	6822      	ldr	r2, [r4, #0]
10008d88:	7a13      	ldrb	r3, [r2, #8]
10008d8a:	430b      	orrs	r3, r1
10008d8c:	7213      	strb	r3, [r2, #8]
10008d8e:	2110      	movs	r1, #16
10008d90:	420d      	tst	r5, r1
10008d92:	d012      	beq.n	10008dba <uart_tx0_isr_handler+0x6a>
10008d94:	1ca3      	adds	r3, r4, #2
10008d96:	7fda      	ldrb	r2, [r3, #31]
10008d98:	2301      	movs	r3, #1
10008d9a:	421a      	tst	r2, r3
10008d9c:	d00d      	beq.n	10008dba <uart_tx0_isr_handler+0x6a>
10008d9e:	18e2      	adds	r2, r4, r3
10008da0:	7fd2      	ldrb	r2, [r2, #31]
10008da2:	421a      	tst	r2, r3
10008da4:	d009      	beq.n	10008dba <uart_tx0_isr_handler+0x6a>
10008da6:	2200      	movs	r2, #0
10008da8:	1ce3      	adds	r3, r4, #3
10008daa:	77da      	strb	r2, [r3, #31]
10008dac:	6822      	ldr	r2, [r4, #0]
10008dae:	1c20      	adds	r0, r4, #0
10008db0:	7a13      	ldrb	r3, [r2, #8]
10008db2:	438b      	bics	r3, r1
10008db4:	7213      	strb	r3, [r2, #8]
10008db6:	6863      	ldr	r3, [r4, #4]
10008db8:	4798      	blx	r3
10008dba:	06ab      	lsls	r3, r5, #26
10008dbc:	d50b      	bpl.n	10008dd6 <uart_tx0_isr_handler+0x86>
10008dbe:	1ca3      	adds	r3, r4, #2
10008dc0:	7fda      	ldrb	r2, [r3, #31]
10008dc2:	2302      	movs	r3, #2
10008dc4:	421a      	tst	r2, r3
10008dc6:	d006      	beq.n	10008dd6 <uart_tx0_isr_handler+0x86>
10008dc8:	1c62      	adds	r2, r4, #1
10008dca:	7fd2      	ldrb	r2, [r2, #31]
10008dcc:	421a      	tst	r2, r3
10008dce:	d002      	beq.n	10008dd6 <uart_tx0_isr_handler+0x86>
10008dd0:	68a3      	ldr	r3, [r4, #8]
10008dd2:	1c20      	adds	r0, r4, #0
10008dd4:	4798      	blx	r3
10008dd6:	bd38      	pop	{r3, r4, r5, pc}
10008dd8:	100105c4 	.word	0x100105c4

10008ddc <uart_rx1_isr_handler>:
10008ddc:	b538      	push	{r3, r4, r5, lr}
10008dde:	4b21      	ldr	r3, [pc, #132]	; (10008e64 <uart_rx1_isr_handler+0x88>)
10008de0:	685c      	ldr	r4, [r3, #4]
10008de2:	6823      	ldr	r3, [r4, #0]
10008de4:	7d1d      	ldrb	r5, [r3, #20]
10008de6:	b2ed      	uxtb	r5, r5
10008de8:	066a      	lsls	r2, r5, #25
10008dea:	d514      	bpl.n	10008e16 <uart_rx1_isr_handler+0x3a>
10008dec:	211e      	movs	r1, #30
10008dee:	1ce2      	adds	r2, r4, #3
10008df0:	77d1      	strb	r1, [r2, #31]
10008df2:	7e1a      	ldrb	r2, [r3, #24]
10008df4:	3123      	adds	r1, #35	; 0x23
10008df6:	438a      	bics	r2, r1
10008df8:	761a      	strb	r2, [r3, #24]
10008dfa:	1ca3      	adds	r3, r4, #2
10008dfc:	7fda      	ldrb	r2, [r3, #31]
10008dfe:	2308      	movs	r3, #8
10008e00:	421a      	tst	r2, r3
10008e02:	d006      	beq.n	10008e12 <uart_rx1_isr_handler+0x36>
10008e04:	1c62      	adds	r2, r4, #1
10008e06:	7fd2      	ldrb	r2, [r2, #31]
10008e08:	421a      	tst	r2, r3
10008e0a:	d002      	beq.n	10008e12 <uart_rx1_isr_handler+0x36>
10008e0c:	1c20      	adds	r0, r4, #0
10008e0e:	6923      	ldr	r3, [r4, #16]
10008e10:	4798      	blx	r3
10008e12:	6823      	ldr	r3, [r4, #0]
10008e14:	7c1b      	ldrb	r3, [r3, #16]
10008e16:	2201      	movs	r2, #1
10008e18:	4215      	tst	r5, r2
10008e1a:	d021      	beq.n	10008e60 <uart_rx1_isr_handler+0x84>
10008e1c:	6823      	ldr	r3, [r4, #0]
10008e1e:	6961      	ldr	r1, [r4, #20]
10008e20:	7c1b      	ldrb	r3, [r3, #16]
10008e22:	b2db      	uxtb	r3, r3
10008e24:	700b      	strb	r3, [r1, #0]
10008e26:	6963      	ldr	r3, [r4, #20]
10008e28:	189b      	adds	r3, r3, r2
10008e2a:	6163      	str	r3, [r4, #20]
10008e2c:	8ba3      	ldrh	r3, [r4, #28]
10008e2e:	3b01      	subs	r3, #1
10008e30:	b29b      	uxth	r3, r3
10008e32:	83a3      	strh	r3, [r4, #28]
10008e34:	8ba3      	ldrh	r3, [r4, #28]
10008e36:	b29b      	uxth	r3, r3
10008e38:	2b00      	cmp	r3, #0
10008e3a:	d111      	bne.n	10008e60 <uart_rx1_isr_handler+0x84>
10008e3c:	1ca1      	adds	r1, r4, #2
10008e3e:	7fc8      	ldrb	r0, [r1, #31]
10008e40:	2104      	movs	r1, #4
10008e42:	4208      	tst	r0, r1
10008e44:	d00c      	beq.n	10008e60 <uart_rx1_isr_handler+0x84>
10008e46:	18a0      	adds	r0, r4, r2
10008e48:	7fc0      	ldrb	r0, [r0, #31]
10008e4a:	4208      	tst	r0, r1
10008e4c:	d008      	beq.n	10008e60 <uart_rx1_isr_handler+0x84>
10008e4e:	1ce1      	adds	r1, r4, #3
10008e50:	77cb      	strb	r3, [r1, #31]
10008e52:	6821      	ldr	r1, [r4, #0]
10008e54:	1c20      	adds	r0, r4, #0
10008e56:	7e0b      	ldrb	r3, [r1, #24]
10008e58:	4393      	bics	r3, r2
10008e5a:	760b      	strb	r3, [r1, #24]
10008e5c:	68e3      	ldr	r3, [r4, #12]
10008e5e:	4798      	blx	r3
10008e60:	bd38      	pop	{r3, r4, r5, pc}
10008e62:	46c0      	nop			; (mov r8, r8)
10008e64:	100105c4 	.word	0x100105c4

10008e68 <uart_rx0_isr_handler>:
10008e68:	b538      	push	{r3, r4, r5, lr}
10008e6a:	4b21      	ldr	r3, [pc, #132]	; (10008ef0 <uart_rx0_isr_handler+0x88>)
10008e6c:	681c      	ldr	r4, [r3, #0]
10008e6e:	6823      	ldr	r3, [r4, #0]
10008e70:	7d1d      	ldrb	r5, [r3, #20]
10008e72:	b2ed      	uxtb	r5, r5
10008e74:	066a      	lsls	r2, r5, #25
10008e76:	d514      	bpl.n	10008ea2 <uart_rx0_isr_handler+0x3a>
10008e78:	211e      	movs	r1, #30
10008e7a:	1ce2      	adds	r2, r4, #3
10008e7c:	77d1      	strb	r1, [r2, #31]
10008e7e:	7e1a      	ldrb	r2, [r3, #24]
10008e80:	3123      	adds	r1, #35	; 0x23
10008e82:	438a      	bics	r2, r1
10008e84:	761a      	strb	r2, [r3, #24]
10008e86:	1ca3      	adds	r3, r4, #2
10008e88:	7fda      	ldrb	r2, [r3, #31]
10008e8a:	2308      	movs	r3, #8
10008e8c:	421a      	tst	r2, r3
10008e8e:	d006      	beq.n	10008e9e <uart_rx0_isr_handler+0x36>
10008e90:	1c62      	adds	r2, r4, #1
10008e92:	7fd2      	ldrb	r2, [r2, #31]
10008e94:	421a      	tst	r2, r3
10008e96:	d002      	beq.n	10008e9e <uart_rx0_isr_handler+0x36>
10008e98:	1c20      	adds	r0, r4, #0
10008e9a:	6923      	ldr	r3, [r4, #16]
10008e9c:	4798      	blx	r3
10008e9e:	6823      	ldr	r3, [r4, #0]
10008ea0:	7c1b      	ldrb	r3, [r3, #16]
10008ea2:	2201      	movs	r2, #1
10008ea4:	4215      	tst	r5, r2
10008ea6:	d021      	beq.n	10008eec <uart_rx0_isr_handler+0x84>
10008ea8:	6823      	ldr	r3, [r4, #0]
10008eaa:	6961      	ldr	r1, [r4, #20]
10008eac:	7c1b      	ldrb	r3, [r3, #16]
10008eae:	b2db      	uxtb	r3, r3
10008eb0:	700b      	strb	r3, [r1, #0]
10008eb2:	6963      	ldr	r3, [r4, #20]
10008eb4:	189b      	adds	r3, r3, r2
10008eb6:	6163      	str	r3, [r4, #20]
10008eb8:	8ba3      	ldrh	r3, [r4, #28]
10008eba:	3b01      	subs	r3, #1
10008ebc:	b29b      	uxth	r3, r3
10008ebe:	83a3      	strh	r3, [r4, #28]
10008ec0:	8ba3      	ldrh	r3, [r4, #28]
10008ec2:	b29b      	uxth	r3, r3
10008ec4:	2b00      	cmp	r3, #0
10008ec6:	d111      	bne.n	10008eec <uart_rx0_isr_handler+0x84>
10008ec8:	1ca1      	adds	r1, r4, #2
10008eca:	7fc8      	ldrb	r0, [r1, #31]
10008ecc:	2104      	movs	r1, #4
10008ece:	4208      	tst	r0, r1
10008ed0:	d00c      	beq.n	10008eec <uart_rx0_isr_handler+0x84>
10008ed2:	18a0      	adds	r0, r4, r2
10008ed4:	7fc0      	ldrb	r0, [r0, #31]
10008ed6:	4208      	tst	r0, r1
10008ed8:	d008      	beq.n	10008eec <uart_rx0_isr_handler+0x84>
10008eda:	1ce1      	adds	r1, r4, #3
10008edc:	77cb      	strb	r3, [r1, #31]
10008ede:	6821      	ldr	r1, [r4, #0]
10008ee0:	1c20      	adds	r0, r4, #0
10008ee2:	7e0b      	ldrb	r3, [r1, #24]
10008ee4:	4393      	bics	r3, r2
10008ee6:	760b      	strb	r3, [r1, #24]
10008ee8:	68e3      	ldr	r3, [r4, #12]
10008eea:	4798      	blx	r3
10008eec:	bd38      	pop	{r3, r4, r5, pc}
10008eee:	46c0      	nop			; (mov r8, r8)
10008ef0:	100105c4 	.word	0x100105c4

10008ef4 <uart_tx1_isr_handler>:
10008ef4:	2201      	movs	r2, #1
10008ef6:	b538      	push	{r3, r4, r5, lr}
10008ef8:	4b20      	ldr	r3, [pc, #128]	; (10008f7c <uart_tx1_isr_handler+0x88>)
10008efa:	685c      	ldr	r4, [r3, #4]
10008efc:	6820      	ldr	r0, [r4, #0]
10008efe:	7905      	ldrb	r5, [r0, #4]
10008f00:	b2ed      	uxtb	r5, r5
10008f02:	4215      	tst	r5, r2
10008f04:	d015      	beq.n	10008f32 <uart_tx1_isr_handler+0x3e>
10008f06:	69a3      	ldr	r3, [r4, #24]
10008f08:	7819      	ldrb	r1, [r3, #0]
10008f0a:	189b      	adds	r3, r3, r2
10008f0c:	b2c9      	uxtb	r1, r1
10008f0e:	61a3      	str	r3, [r4, #24]
10008f10:	7001      	strb	r1, [r0, #0]
10008f12:	8be3      	ldrh	r3, [r4, #30]
10008f14:	3b01      	subs	r3, #1
10008f16:	b29b      	uxth	r3, r3
10008f18:	83e3      	strh	r3, [r4, #30]
10008f1a:	8be3      	ldrh	r3, [r4, #30]
10008f1c:	2b00      	cmp	r3, #0
10008f1e:	d108      	bne.n	10008f32 <uart_tx1_isr_handler+0x3e>
10008f20:	6821      	ldr	r1, [r4, #0]
10008f22:	7a0b      	ldrb	r3, [r1, #8]
10008f24:	4393      	bics	r3, r2
10008f26:	720b      	strb	r3, [r1, #8]
10008f28:	2110      	movs	r1, #16
10008f2a:	6822      	ldr	r2, [r4, #0]
10008f2c:	7a13      	ldrb	r3, [r2, #8]
10008f2e:	430b      	orrs	r3, r1
10008f30:	7213      	strb	r3, [r2, #8]
10008f32:	2110      	movs	r1, #16
10008f34:	420d      	tst	r5, r1
10008f36:	d012      	beq.n	10008f5e <uart_tx1_isr_handler+0x6a>
10008f38:	1ca3      	adds	r3, r4, #2
10008f3a:	7fda      	ldrb	r2, [r3, #31]
10008f3c:	2301      	movs	r3, #1
10008f3e:	421a      	tst	r2, r3
10008f40:	d00d      	beq.n	10008f5e <uart_tx1_isr_handler+0x6a>
10008f42:	18e2      	adds	r2, r4, r3
10008f44:	7fd2      	ldrb	r2, [r2, #31]
10008f46:	421a      	tst	r2, r3
10008f48:	d009      	beq.n	10008f5e <uart_tx1_isr_handler+0x6a>
10008f4a:	2200      	movs	r2, #0
10008f4c:	1ce3      	adds	r3, r4, #3
10008f4e:	77da      	strb	r2, [r3, #31]
10008f50:	6822      	ldr	r2, [r4, #0]
10008f52:	1c20      	adds	r0, r4, #0
10008f54:	7a13      	ldrb	r3, [r2, #8]
10008f56:	438b      	bics	r3, r1
10008f58:	7213      	strb	r3, [r2, #8]
10008f5a:	6863      	ldr	r3, [r4, #4]
10008f5c:	4798      	blx	r3
10008f5e:	06ab      	lsls	r3, r5, #26
10008f60:	d50b      	bpl.n	10008f7a <uart_tx1_isr_handler+0x86>
10008f62:	1ca3      	adds	r3, r4, #2
10008f64:	7fda      	ldrb	r2, [r3, #31]
10008f66:	2302      	movs	r3, #2
10008f68:	421a      	tst	r2, r3
10008f6a:	d006      	beq.n	10008f7a <uart_tx1_isr_handler+0x86>
10008f6c:	1c62      	adds	r2, r4, #1
10008f6e:	7fd2      	ldrb	r2, [r2, #31]
10008f70:	421a      	tst	r2, r3
10008f72:	d002      	beq.n	10008f7a <uart_tx1_isr_handler+0x86>
10008f74:	68a3      	ldr	r3, [r4, #8]
10008f76:	1c20      	adds	r0, r4, #0
10008f78:	4798      	blx	r3
10008f7a:	bd38      	pop	{r3, r4, r5, pc}
10008f7c:	100105c4 	.word	0x100105c4

10008f80 <uart_get_config_defaults>:
10008f80:	23e1      	movs	r3, #225	; 0xe1
10008f82:	2203      	movs	r2, #3
10008f84:	025b      	lsls	r3, r3, #9
10008f86:	6003      	str	r3, [r0, #0]
10008f88:	2300      	movs	r3, #0
10008f8a:	60c2      	str	r2, [r0, #12]
10008f8c:	3201      	adds	r2, #1
10008f8e:	7103      	strb	r3, [r0, #4]
10008f90:	7143      	strb	r3, [r0, #5]
10008f92:	7183      	strb	r3, [r0, #6]
10008f94:	71c3      	strb	r3, [r0, #7]
10008f96:	6102      	str	r2, [r0, #16]
10008f98:	3302      	adds	r3, #2
10008f9a:	3201      	adds	r2, #1
10008f9c:	6083      	str	r3, [r0, #8]
10008f9e:	6142      	str	r2, [r0, #20]
10008fa0:	6183      	str	r3, [r0, #24]
10008fa2:	61c3      	str	r3, [r0, #28]
10008fa4:	6203      	str	r3, [r0, #32]
10008fa6:	6243      	str	r3, [r0, #36]	; 0x24
10008fa8:	4770      	bx	lr
	...

10008fac <uart_init>:
10008fac:	b5f8      	push	{r3, r4, r5, r6, r7, lr}
10008fae:	4b48      	ldr	r3, [pc, #288]	; (100090d0 <uart_init+0x124>)
10008fb0:	1c04      	adds	r4, r0, #0
10008fb2:	1c15      	adds	r5, r2, #0
10008fb4:	6001      	str	r1, [r0, #0]
10008fb6:	4299      	cmp	r1, r3
10008fb8:	d115      	bne.n	10008fe6 <uart_init+0x3a>
10008fba:	4e46      	ldr	r6, [pc, #280]	; (100090d4 <uart_init+0x128>)
10008fbc:	2009      	movs	r0, #9
10008fbe:	47b0      	blx	r6
10008fc0:	200a      	movs	r0, #10
10008fc2:	47b0      	blx	r6
10008fc4:	4e44      	ldr	r6, [pc, #272]	; (100090d8 <uart_init+0x12c>)
10008fc6:	2009      	movs	r0, #9
10008fc8:	47b0      	blx	r6
10008fca:	200a      	movs	r0, #10
10008fcc:	47b0      	blx	r6
10008fce:	4b43      	ldr	r3, [pc, #268]	; (100090dc <uart_init+0x130>)
10008fd0:	2010      	movs	r0, #16
10008fd2:	4943      	ldr	r1, [pc, #268]	; (100090e0 <uart_init+0x134>)
10008fd4:	4e43      	ldr	r6, [pc, #268]	; (100090e4 <uart_init+0x138>)
10008fd6:	601c      	str	r4, [r3, #0]
10008fd8:	47b0      	blx	r6
10008fda:	2011      	movs	r0, #17
10008fdc:	4942      	ldr	r1, [pc, #264]	; (100090e8 <uart_init+0x13c>)
10008fde:	47b0      	blx	r6
10008fe0:	4b42      	ldr	r3, [pc, #264]	; (100090ec <uart_init+0x140>)
10008fe2:	2201      	movs	r2, #1
10008fe4:	e017      	b.n	10009016 <uart_init+0x6a>
10008fe6:	4b42      	ldr	r3, [pc, #264]	; (100090f0 <uart_init+0x144>)
10008fe8:	4299      	cmp	r1, r3
10008fea:	d117      	bne.n	1000901c <uart_init+0x70>
10008fec:	4e39      	ldr	r6, [pc, #228]	; (100090d4 <uart_init+0x128>)
10008fee:	200b      	movs	r0, #11
10008ff0:	47b0      	blx	r6
10008ff2:	200c      	movs	r0, #12
10008ff4:	47b0      	blx	r6
10008ff6:	4e38      	ldr	r6, [pc, #224]	; (100090d8 <uart_init+0x12c>)
10008ff8:	200b      	movs	r0, #11
10008ffa:	47b0      	blx	r6
10008ffc:	200c      	movs	r0, #12
10008ffe:	47b0      	blx	r6
10009000:	4b36      	ldr	r3, [pc, #216]	; (100090dc <uart_init+0x130>)
10009002:	2012      	movs	r0, #18
10009004:	493b      	ldr	r1, [pc, #236]	; (100090f4 <uart_init+0x148>)
10009006:	4e37      	ldr	r6, [pc, #220]	; (100090e4 <uart_init+0x138>)
10009008:	605c      	str	r4, [r3, #4]
1000900a:	47b0      	blx	r6
1000900c:	2013      	movs	r0, #19
1000900e:	493a      	ldr	r1, [pc, #232]	; (100090f8 <uart_init+0x14c>)
10009010:	47b0      	blx	r6
10009012:	2204      	movs	r2, #4
10009014:	4b35      	ldr	r3, [pc, #212]	; (100090ec <uart_init+0x140>)
10009016:	601a      	str	r2, [r3, #0]
10009018:	1892      	adds	r2, r2, r2
1000901a:	601a      	str	r2, [r3, #0]
1000901c:	79ea      	ldrb	r2, [r5, #7]
1000901e:	2304      	movs	r3, #4
10009020:	2a00      	cmp	r2, #0
10009022:	d100      	bne.n	10009026 <uart_init+0x7a>
10009024:	3b02      	subs	r3, #2
10009026:	1c2e      	adds	r6, r5, #0
10009028:	3b01      	subs	r3, #1
1000902a:	b2db      	uxtb	r3, r3
1000902c:	3303      	adds	r3, #3
1000902e:	009b      	lsls	r3, r3, #2
10009030:	3608      	adds	r6, #8
10009032:	18ef      	adds	r7, r5, r3
10009034:	7830      	ldrb	r0, [r6, #0]
10009036:	8a31      	ldrh	r1, [r6, #16]
10009038:	4b30      	ldr	r3, [pc, #192]	; (100090fc <uart_init+0x150>)
1000903a:	3604      	adds	r6, #4
1000903c:	4798      	blx	r3
1000903e:	42be      	cmp	r6, r7
10009040:	d1f8      	bne.n	10009034 <uart_init+0x88>
10009042:	6823      	ldr	r3, [r4, #0]
10009044:	2201      	movs	r2, #1
10009046:	7d19      	ldrb	r1, [r3, #20]
10009048:	400a      	ands	r2, r1
1000904a:	d001      	beq.n	10009050 <uart_init+0xa4>
1000904c:	7c1a      	ldrb	r2, [r3, #16]
1000904e:	e7f9      	b.n	10009044 <uart_init+0x98>
10009050:	3301      	adds	r3, #1
10009052:	77da      	strb	r2, [r3, #31]
10009054:	79eb      	ldrb	r3, [r5, #7]
10009056:	7969      	ldrb	r1, [r5, #5]
10009058:	1e5a      	subs	r2, r3, #1
1000905a:	4193      	sbcs	r3, r2
1000905c:	79a8      	ldrb	r0, [r5, #6]
1000905e:	015a      	lsls	r2, r3, #5
10009060:	792b      	ldrb	r3, [r5, #4]
10009062:	3801      	subs	r0, #1
10009064:	430b      	orrs	r3, r1
10009066:	4313      	orrs	r3, r2
10009068:	2803      	cmp	r0, #3
1000906a:	d80b      	bhi.n	10009084 <uart_init+0xd8>
1000906c:	f004 fee8 	bl	1000de40 <__gnu_thumb1_case_uqi>
10009070:	08060402 	.word	0x08060402
10009074:	2202      	movs	r2, #2
10009076:	e004      	b.n	10009082 <uart_init+0xd6>
10009078:	2206      	movs	r2, #6
1000907a:	e002      	b.n	10009082 <uart_init+0xd6>
1000907c:	220a      	movs	r2, #10
1000907e:	e000      	b.n	10009082 <uart_init+0xd6>
10009080:	220e      	movs	r2, #14
10009082:	4313      	orrs	r3, r2
10009084:	6822      	ldr	r2, [r4, #0]
10009086:	3201      	adds	r2, #1
10009088:	77d3      	strb	r3, [r2, #31]
1000908a:	4b1d      	ldr	r3, [pc, #116]	; (10009100 <uart_init+0x154>)
1000908c:	682d      	ldr	r5, [r5, #0]
1000908e:	4798      	blx	r3
10009090:	1c29      	adds	r1, r5, #0
10009092:	4b1c      	ldr	r3, [pc, #112]	; (10009104 <uart_init+0x158>)
10009094:	1c06      	adds	r6, r0, #0
10009096:	4798      	blx	r3
10009098:	b282      	uxth	r2, r0
1000909a:	1c10      	adds	r0, r2, #0
1000909c:	2300      	movs	r3, #0
1000909e:	4368      	muls	r0, r5
100090a0:	092d      	lsrs	r5, r5, #4
100090a2:	1a30      	subs	r0, r6, r0
100090a4:	3301      	adds	r3, #1
100090a6:	42a8      	cmp	r0, r5
100090a8:	d902      	bls.n	100090b0 <uart_init+0x104>
100090aa:	b2db      	uxtb	r3, r3
100090ac:	1b40      	subs	r0, r0, r5
100090ae:	e7f9      	b.n	100090a4 <uart_init+0xf8>
100090b0:	2000      	movs	r0, #0
100090b2:	6821      	ldr	r1, [r4, #0]
100090b4:	071b      	lsls	r3, r3, #28
100090b6:	3128      	adds	r1, #40	; 0x28
100090b8:	7008      	strb	r0, [r1, #0]
100090ba:	00d2      	lsls	r2, r2, #3
100090bc:	0f5b      	lsrs	r3, r3, #29
100090be:	4313      	orrs	r3, r2
100090c0:	6822      	ldr	r2, [r4, #0]
100090c2:	b29b      	uxth	r3, r3
100090c4:	8493      	strh	r3, [r2, #36]	; 0x24
100090c6:	6823      	ldr	r3, [r4, #0]
100090c8:	7618      	strb	r0, [r3, #24]
100090ca:	6823      	ldr	r3, [r4, #0]
100090cc:	7218      	strb	r0, [r3, #8]
100090ce:	bdf8      	pop	{r3, r4, r5, r6, r7, pc}
100090d0:	40004000 	.word	0x40004000
100090d4:	100089bd 	.word	0x100089bd
100090d8:	100087d5 	.word	0x100087d5
100090dc:	100105c4 	.word	0x100105c4
100090e0:	10008e69 	.word	0x10008e69
100090e4:	10008d45 	.word	0x10008d45
100090e8:	10008d51 	.word	0x10008d51
100090ec:	e000e100 	.word	0xe000e100
100090f0:	40005000 	.word	0x40005000
100090f4:	10008ddd 	.word	0x10008ddd
100090f8:	10008ef5 	.word	0x10008ef5
100090fc:	10008501 	.word	0x10008501
10009100:	100087c9 	.word	0x100087c9
10009104:	1000de69 	.word	0x1000de69

10009108 <uart_write_wait>:
10009108:	6803      	ldr	r3, [r0, #0]
1000910a:	791a      	ldrb	r2, [r3, #4]
1000910c:	07d2      	lsls	r2, r2, #31
1000910e:	d5fc      	bpl.n	1000910a <uart_write_wait+0x2>
10009110:	2000      	movs	r0, #0
10009112:	7019      	strb	r1, [r3, #0]
10009114:	4770      	bx	lr

10009116 <uart_read_wait>:
10009116:	6803      	ldr	r3, [r0, #0]
10009118:	7d1a      	ldrb	r2, [r3, #20]
1000911a:	07d2      	lsls	r2, r2, #31
1000911c:	d5fc      	bpl.n	10009118 <uart_read_wait+0x2>
1000911e:	7c1b      	ldrb	r3, [r3, #16]
10009120:	2000      	movs	r0, #0
10009122:	700b      	strb	r3, [r1, #0]
10009124:	4770      	bx	lr

10009126 <uart_read_buffer_job>:
10009126:	b530      	push	{r4, r5, lr}
10009128:	1c04      	adds	r4, r0, #0
1000912a:	2017      	movs	r0, #23
1000912c:	2a00      	cmp	r2, #0
1000912e:	d00c      	beq.n	1000914a <uart_read_buffer_job+0x24>
10009130:	1ce5      	adds	r5, r4, #3
10009132:	7feb      	ldrb	r3, [r5, #31]
10009134:	b2d8      	uxtb	r0, r3
10009136:	2805      	cmp	r0, #5
10009138:	d007      	beq.n	1000914a <uart_read_buffer_job+0x24>
1000913a:	2305      	movs	r3, #5
1000913c:	83a2      	strh	r2, [r4, #28]
1000913e:	2201      	movs	r2, #1
10009140:	2000      	movs	r0, #0
10009142:	6161      	str	r1, [r4, #20]
10009144:	77eb      	strb	r3, [r5, #31]
10009146:	6823      	ldr	r3, [r4, #0]
10009148:	761a      	strb	r2, [r3, #24]
1000914a:	bd30      	pop	{r4, r5, pc}

1000914c <uart_register_callback>:
1000914c:	0093      	lsls	r3, r2, #2
1000914e:	18c3      	adds	r3, r0, r3
10009150:	6059      	str	r1, [r3, #4]
10009152:	2301      	movs	r3, #1
10009154:	4093      	lsls	r3, r2
10009156:	1c1a      	adds	r2, r3, #0
10009158:	3001      	adds	r0, #1
1000915a:	7fc3      	ldrb	r3, [r0, #31]
1000915c:	431a      	orrs	r2, r3
1000915e:	77c2      	strb	r2, [r0, #31]
10009160:	4770      	bx	lr

10009162 <uart_unregister_callback>:
10009162:	2200      	movs	r2, #0
10009164:	008b      	lsls	r3, r1, #2
10009166:	18c3      	adds	r3, r0, r3
10009168:	605a      	str	r2, [r3, #4]
1000916a:	2301      	movs	r3, #1
1000916c:	408b      	lsls	r3, r1
1000916e:	1c19      	adds	r1, r3, #0
10009170:	3001      	adds	r0, #1
10009172:	7fc3      	ldrb	r3, [r0, #31]
10009174:	438b      	bics	r3, r1
10009176:	77c3      	strb	r3, [r0, #31]
10009178:	4770      	bx	lr

1000917a <uart_enable_callback>:
1000917a:	2301      	movs	r3, #1
1000917c:	408b      	lsls	r3, r1
1000917e:	b510      	push	{r4, lr}
10009180:	1c84      	adds	r4, r0, #2
10009182:	7fe2      	ldrb	r2, [r4, #31]
10009184:	4313      	orrs	r3, r2
10009186:	77e3      	strb	r3, [r4, #31]
10009188:	2901      	cmp	r1, #1
1000918a:	d104      	bne.n	10009196 <uart_enable_callback+0x1c>
1000918c:	6802      	ldr	r2, [r0, #0]
1000918e:	311f      	adds	r1, #31
10009190:	7a13      	ldrb	r3, [r2, #8]
10009192:	430b      	orrs	r3, r1
10009194:	7213      	strb	r3, [r2, #8]
10009196:	bd10      	pop	{r4, pc}

10009198 <uart_disable_callback>:
10009198:	2201      	movs	r2, #1
1000919a:	408a      	lsls	r2, r1
1000919c:	b510      	push	{r4, lr}
1000919e:	1c84      	adds	r4, r0, #2
100091a0:	7fe3      	ldrb	r3, [r4, #31]
100091a2:	4393      	bics	r3, r2
100091a4:	77e3      	strb	r3, [r4, #31]
100091a6:	2901      	cmp	r1, #1
100091a8:	d104      	bne.n	100091b4 <uart_disable_callback+0x1c>
100091aa:	6802      	ldr	r2, [r0, #0]
100091ac:	311f      	adds	r1, #31
100091ae:	7a13      	ldrb	r3, [r2, #8]
100091b0:	438b      	bics	r3, r1
100091b2:	7213      	strb	r3, [r2, #8]
100091b4:	bd10      	pop	{r4, pc}
	...

100091b8 <_read>:
100091b8:	b570      	push	{r4, r5, r6, lr}
100091ba:	2800      	cmp	r0, #0
100091bc:	d111      	bne.n	100091e2 <_read+0x2a>
100091be:	1c14      	adds	r4, r2, #0
100091c0:	1c0e      	adds	r6, r1, #0
100091c2:	1c15      	adds	r5, r2, #0
100091c4:	1b61      	subs	r1, r4, r5
100091c6:	1871      	adds	r1, r6, r1
100091c8:	2d00      	cmp	r5, #0
100091ca:	dd06      	ble.n	100091da <_read+0x22>
100091cc:	4b06      	ldr	r3, [pc, #24]	; (100091e8 <_read+0x30>)
100091ce:	3d01      	subs	r5, #1
100091d0:	6818      	ldr	r0, [r3, #0]
100091d2:	4b06      	ldr	r3, [pc, #24]	; (100091ec <_read+0x34>)
100091d4:	681b      	ldr	r3, [r3, #0]
100091d6:	4798      	blx	r3
100091d8:	e7f4      	b.n	100091c4 <_read+0xc>
100091da:	43e0      	mvns	r0, r4
100091dc:	17c0      	asrs	r0, r0, #31
100091de:	4020      	ands	r0, r4
100091e0:	e001      	b.n	100091e6 <_read+0x2e>
100091e2:	2001      	movs	r0, #1
100091e4:	4240      	negs	r0, r0
100091e6:	bd70      	pop	{r4, r5, r6, pc}
100091e8:	100105d4 	.word	0x100105d4
100091ec:	100105cc 	.word	0x100105cc

100091f0 <_write>:
100091f0:	3801      	subs	r0, #1
100091f2:	b570      	push	{r4, r5, r6, lr}
100091f4:	2802      	cmp	r0, #2
100091f6:	d80e      	bhi.n	10009216 <_write+0x26>
100091f8:	1c0e      	adds	r6, r1, #0
100091fa:	1c0d      	adds	r5, r1, #0
100091fc:	188c      	adds	r4, r1, r2
100091fe:	1ba8      	subs	r0, r5, r6
10009200:	42a5      	cmp	r5, r4
10009202:	d00a      	beq.n	1000921a <_write+0x2a>
10009204:	4b05      	ldr	r3, [pc, #20]	; (1000921c <_write+0x2c>)
10009206:	7829      	ldrb	r1, [r5, #0]
10009208:	6818      	ldr	r0, [r3, #0]
1000920a:	4b05      	ldr	r3, [pc, #20]	; (10009220 <_write+0x30>)
1000920c:	3501      	adds	r5, #1
1000920e:	681b      	ldr	r3, [r3, #0]
10009210:	4798      	blx	r3
10009212:	2800      	cmp	r0, #0
10009214:	daf3      	bge.n	100091fe <_write+0xe>
10009216:	2001      	movs	r0, #1
10009218:	4240      	negs	r0, r0
1000921a:	bd70      	pop	{r4, r5, r6, pc}
1000921c:	100105d4 	.word	0x100105d4
10009220:	100105d0 	.word	0x100105d0

10009224 <_sbrk>:
10009224:	4b05      	ldr	r3, [pc, #20]	; (1000923c <_sbrk+0x18>)
10009226:	1c02      	adds	r2, r0, #0
10009228:	6819      	ldr	r1, [r3, #0]
1000922a:	2900      	cmp	r1, #0
1000922c:	d101      	bne.n	10009232 <_sbrk+0xe>
1000922e:	4904      	ldr	r1, [pc, #16]	; (10009240 <_sbrk+0x1c>)
10009230:	6019      	str	r1, [r3, #0]
10009232:	6818      	ldr	r0, [r3, #0]
10009234:	1882      	adds	r2, r0, r2
10009236:	601a      	str	r2, [r3, #0]
10009238:	4770      	bx	lr
1000923a:	46c0      	nop			; (mov r8, r8)
1000923c:	1000fe10 	.word	0x1000fe10
10009240:	100121b8 	.word	0x100121b8

10009244 <_close>:
10009244:	2001      	movs	r0, #1
10009246:	4240      	negs	r0, r0
10009248:	4770      	bx	lr

1000924a <_fstat>:
1000924a:	2380      	movs	r3, #128	; 0x80
1000924c:	019b      	lsls	r3, r3, #6
1000924e:	2000      	movs	r0, #0
10009250:	604b      	str	r3, [r1, #4]
10009252:	4770      	bx	lr

10009254 <_isatty>:
10009254:	2001      	movs	r0, #1
10009256:	4770      	bx	lr

10009258 <_lseek>:
10009258:	2000      	movs	r0, #0
1000925a:	4770      	bx	lr

1000925c <ble_undefined_event_handler>:
1000925c:	2000      	movs	r0, #0
1000925e:	4770      	bx	lr

10009260 <ble_scan_report_handler>:
10009260:	7800      	ldrb	r0, [r0, #0]
10009262:	2800      	cmp	r0, #0
10009264:	d000      	beq.n	10009268 <ble_scan_report_handler+0x8>
10009266:	20e2      	movs	r0, #226	; 0xe2
10009268:	4770      	bx	lr

1000926a <ble_mtu_changed_indication_handler>:
1000926a:	2000      	movs	r0, #0
1000926c:	4770      	bx	lr

1000926e <ble_mtu_changed_cmd_complete_handler>:
1000926e:	78c0      	ldrb	r0, [r0, #3]
10009270:	2800      	cmp	r0, #0
10009272:	d000      	beq.n	10009276 <ble_mtu_changed_cmd_complete_handler+0x8>
10009274:	20e2      	movs	r0, #226	; 0xe2
10009276:	4770      	bx	lr

10009278 <ble_characteristic_write_cmd_complete_handler>:
10009278:	78c0      	ldrb	r0, [r0, #3]
1000927a:	2800      	cmp	r0, #0
1000927c:	d000      	beq.n	10009280 <ble_characteristic_write_cmd_complete_handler+0x8>
1000927e:	20e2      	movs	r0, #226	; 0xe2
10009280:	4770      	bx	lr
	...

10009284 <ble_disconnected_state_handler>:
10009284:	b530      	push	{r4, r5, lr}
10009286:	4a17      	ldr	r2, [pc, #92]	; (100092e4 <ble_disconnected_state_handler+0x60>)
10009288:	4917      	ldr	r1, [pc, #92]	; (100092e8 <ble_disconnected_state_handler+0x64>)
1000928a:	1c13      	adds	r3, r2, #0
1000928c:	3b56      	subs	r3, #86	; 0x56
1000928e:	881c      	ldrh	r4, [r3, #0]
10009290:	8803      	ldrh	r3, [r0, #0]
10009292:	429c      	cmp	r4, r3
10009294:	d121      	bne.n	100092da <ble_disconnected_state_handler+0x56>
10009296:	7813      	ldrb	r3, [r2, #0]
10009298:	2b05      	cmp	r3, #5
1000929a:	d001      	beq.n	100092a0 <ble_disconnected_state_handler+0x1c>
1000929c:	2b08      	cmp	r3, #8
1000929e:	d101      	bne.n	100092a4 <ble_disconnected_state_handler+0x20>
100092a0:	2301      	movs	r3, #1
100092a2:	e019      	b.n	100092d8 <ble_disconnected_state_handler+0x54>
100092a4:	3b01      	subs	r3, #1
100092a6:	b2db      	uxtb	r3, r3
100092a8:	2b06      	cmp	r3, #6
100092aa:	d814      	bhi.n	100092d6 <ble_disconnected_state_handler+0x52>
100092ac:	2401      	movs	r4, #1
100092ae:	1c25      	adds	r5, r4, #0
100092b0:	409d      	lsls	r5, r3
100092b2:	1c2b      	adds	r3, r5, #0
100092b4:	256e      	movs	r5, #110	; 0x6e
100092b6:	422b      	tst	r3, r5
100092b8:	d102      	bne.n	100092c0 <ble_disconnected_state_handler+0x3c>
100092ba:	4223      	tst	r3, r4
100092bc:	d10d      	bne.n	100092da <ble_disconnected_state_handler+0x56>
100092be:	e00a      	b.n	100092d6 <ble_disconnected_state_handler+0x52>
100092c0:	2300      	movs	r3, #0
100092c2:	4c0a      	ldr	r4, [pc, #40]	; (100092ec <ble_disconnected_state_handler+0x68>)
100092c4:	7013      	strb	r3, [r2, #0]
100092c6:	7823      	ldrb	r3, [r4, #0]
100092c8:	2b00      	cmp	r3, #0
100092ca:	d006      	beq.n	100092da <ble_disconnected_state_handler+0x56>
100092cc:	7823      	ldrb	r3, [r4, #0]
100092ce:	3b01      	subs	r3, #1
100092d0:	b2db      	uxtb	r3, r3
100092d2:	7023      	strb	r3, [r4, #0]
100092d4:	e001      	b.n	100092da <ble_disconnected_state_handler+0x56>
100092d6:	2300      	movs	r3, #0
100092d8:	7013      	strb	r3, [r2, #0]
100092da:	327c      	adds	r2, #124	; 0x7c
100092dc:	428a      	cmp	r2, r1
100092de:	d1d4      	bne.n	1000928a <ble_disconnected_state_handler+0x6>
100092e0:	2000      	movs	r0, #0
100092e2:	bd30      	pop	{r4, r5, pc}
100092e4:	1001064e 	.word	0x1001064e
100092e8:	100108ba 	.word	0x100108ba
100092ec:	1001085c 	.word	0x1001085c

100092f0 <ble_conn_param_update>:
100092f0:	2000      	movs	r0, #0
100092f2:	4770      	bx	lr

100092f4 <ble_encryption_status_change_handler>:
100092f4:	2300      	movs	r3, #0
100092f6:	b510      	push	{r4, lr}
100092f8:	4a17      	ldr	r2, [pc, #92]	; (10009358 <ble_encryption_status_change_handler+0x64>)
100092fa:	8801      	ldrh	r1, [r0, #0]
100092fc:	1c14      	adds	r4, r2, #0
100092fe:	3c56      	subs	r4, #86	; 0x56
10009300:	8824      	ldrh	r4, [r4, #0]
10009302:	428c      	cmp	r4, r1
10009304:	d102      	bne.n	1000930c <ble_encryption_status_change_handler+0x18>
10009306:	7814      	ldrb	r4, [r2, #0]
10009308:	2c06      	cmp	r4, #6
1000930a:	d006      	beq.n	1000931a <ble_encryption_status_change_handler+0x26>
1000930c:	3301      	adds	r3, #1
1000930e:	b2db      	uxtb	r3, r3
10009310:	327c      	adds	r2, #124	; 0x7c
10009312:	2b05      	cmp	r3, #5
10009314:	d1f2      	bne.n	100092fc <ble_encryption_status_change_handler+0x8>
10009316:	2200      	movs	r2, #0
10009318:	e000      	b.n	1000931c <ble_encryption_status_change_handler+0x28>
1000931a:	2201      	movs	r2, #1
1000931c:	7881      	ldrb	r1, [r0, #2]
1000931e:	2900      	cmp	r1, #0
10009320:	d10e      	bne.n	10009340 <ble_encryption_status_change_handler+0x4c>
10009322:	2a00      	cmp	r2, #0
10009324:	d014      	beq.n	10009350 <ble_encryption_status_change_handler+0x5c>
10009326:	227c      	movs	r2, #124	; 0x7c
10009328:	4353      	muls	r3, r2
1000932a:	4a0c      	ldr	r2, [pc, #48]	; (1000935c <ble_encryption_status_change_handler+0x68>)
1000932c:	2408      	movs	r4, #8
1000932e:	18d3      	adds	r3, r2, r3
10009330:	1c1a      	adds	r2, r3, #0
10009332:	3258      	adds	r2, #88	; 0x58
10009334:	7194      	strb	r4, [r2, #6]
10009336:	78c2      	ldrb	r2, [r0, #3]
10009338:	751a      	strb	r2, [r3, #20]
1000933a:	7882      	ldrb	r2, [r0, #2]
1000933c:	761a      	strb	r2, [r3, #24]
1000933e:	e008      	b.n	10009352 <ble_encryption_status_change_handler+0x5e>
10009340:	227c      	movs	r2, #124	; 0x7c
10009342:	4353      	muls	r3, r2
10009344:	4a05      	ldr	r2, [pc, #20]	; (1000935c <ble_encryption_status_change_handler+0x68>)
10009346:	18d3      	adds	r3, r2, r3
10009348:	2207      	movs	r2, #7
1000934a:	7619      	strb	r1, [r3, #24]
1000934c:	3358      	adds	r3, #88	; 0x58
1000934e:	719a      	strb	r2, [r3, #6]
10009350:	21e2      	movs	r1, #226	; 0xe2
10009352:	1c08      	adds	r0, r1, #0
10009354:	bd10      	pop	{r4, pc}
10009356:	46c0      	nop			; (mov r8, r8)
10009358:	1001064e 	.word	0x1001064e
1000935c:	100105f0 	.word	0x100105f0

10009360 <ble_pair_done_handler>:
10009360:	2300      	movs	r3, #0
10009362:	b5f7      	push	{r0, r1, r2, r4, r5, r6, r7, lr}
10009364:	1c04      	adds	r4, r0, #0
10009366:	4a26      	ldr	r2, [pc, #152]	; (10009400 <ble_pair_done_handler+0xa0>)
10009368:	8840      	ldrh	r0, [r0, #2]
1000936a:	1c11      	adds	r1, r2, #0
1000936c:	3956      	subs	r1, #86	; 0x56
1000936e:	8809      	ldrh	r1, [r1, #0]
10009370:	4281      	cmp	r1, r0
10009372:	d102      	bne.n	1000937a <ble_pair_done_handler+0x1a>
10009374:	7811      	ldrb	r1, [r2, #0]
10009376:	2903      	cmp	r1, #3
10009378:	d006      	beq.n	10009388 <ble_pair_done_handler+0x28>
1000937a:	3301      	adds	r3, #1
1000937c:	b2db      	uxtb	r3, r3
1000937e:	327c      	adds	r2, #124	; 0x7c
10009380:	2b05      	cmp	r3, #5
10009382:	d1f2      	bne.n	1000936a <ble_pair_done_handler+0xa>
10009384:	2200      	movs	r2, #0
10009386:	e000      	b.n	1000938a <ble_pair_done_handler+0x2a>
10009388:	2201      	movs	r2, #1
1000938a:	7925      	ldrb	r5, [r4, #4]
1000938c:	2d00      	cmp	r5, #0
1000938e:	d127      	bne.n	100093e0 <ble_pair_done_handler+0x80>
10009390:	2a00      	cmp	r2, #0
10009392:	d101      	bne.n	10009398 <ble_pair_done_handler+0x38>
10009394:	25e2      	movs	r5, #226	; 0xe2
10009396:	e031      	b.n	100093fc <ble_pair_done_handler+0x9c>
10009398:	207c      	movs	r0, #124	; 0x7c
1000939a:	4358      	muls	r0, r3
1000939c:	4b19      	ldr	r3, [pc, #100]	; (10009404 <ble_pair_done_handler+0xa4>)
1000939e:	7822      	ldrb	r2, [r4, #0]
100093a0:	181e      	adds	r6, r3, r0
100093a2:	7532      	strb	r2, [r6, #20]
100093a4:	7922      	ldrb	r2, [r4, #4]
100093a6:	1c33      	adds	r3, r6, #0
100093a8:	9001      	str	r0, [sp, #4]
100093aa:	7632      	strb	r2, [r6, #24]
100093ac:	1c30      	adds	r0, r6, #0
100093ae:	2205      	movs	r2, #5
100093b0:	1c21      	adds	r1, r4, #0
100093b2:	3358      	adds	r3, #88	; 0x58
100093b4:	719a      	strb	r2, [r3, #6]
100093b6:	4f14      	ldr	r7, [pc, #80]	; (10009408 <ble_pair_done_handler+0xa8>)
100093b8:	3122      	adds	r1, #34	; 0x22
100093ba:	320b      	adds	r2, #11
100093bc:	3036      	adds	r0, #54	; 0x36
100093be:	47b8      	blx	r7
100093c0:	1c30      	adds	r0, r6, #0
100093c2:	1c21      	adds	r1, r4, #0
100093c4:	2217      	movs	r2, #23
100093c6:	3132      	adds	r1, #50	; 0x32
100093c8:	3046      	adds	r0, #70	; 0x46
100093ca:	47b8      	blx	r7
100093cc:	4a0d      	ldr	r2, [pc, #52]	; (10009404 <ble_pair_done_handler+0xa4>)
100093ce:	9b01      	ldr	r3, [sp, #4]
100093d0:	4694      	mov	ip, r2
100093d2:	4463      	add	r3, ip
100093d4:	1c18      	adds	r0, r3, #0
100093d6:	1da1      	adds	r1, r4, #6
100093d8:	221c      	movs	r2, #28
100093da:	301a      	adds	r0, #26
100093dc:	47b8      	blx	r7
100093de:	e00d      	b.n	100093fc <ble_pair_done_handler+0x9c>
100093e0:	227c      	movs	r2, #124	; 0x7c
100093e2:	4353      	muls	r3, r2
100093e4:	4a07      	ldr	r2, [pc, #28]	; (10009404 <ble_pair_done_handler+0xa4>)
100093e6:	2500      	movs	r5, #0
100093e8:	18d3      	adds	r3, r2, r3
100093ea:	3358      	adds	r3, #88	; 0x58
100093ec:	799b      	ldrb	r3, [r3, #6]
100093ee:	2b01      	cmp	r3, #1
100093f0:	d904      	bls.n	100093fc <ble_pair_done_handler+0x9c>
100093f2:	2113      	movs	r1, #19
100093f4:	4b05      	ldr	r3, [pc, #20]	; (1000940c <ble_pair_done_handler+0xac>)
100093f6:	4798      	blx	r3
100093f8:	1e05      	subs	r5, r0, #0
100093fa:	d1cb      	bne.n	10009394 <ble_pair_done_handler+0x34>
100093fc:	1c28      	adds	r0, r5, #0
100093fe:	bdfe      	pop	{r1, r2, r3, r4, r5, r6, r7, pc}
10009400:	1001064e 	.word	0x1001064e
10009404:	100105f0 	.word	0x100105f0
10009408:	1000f017 	.word	0x1000f017
1000940c:	1000b7b9 	.word	0x1000b7b9

10009410 <ble_conn_param_update_req>:
10009410:	2101      	movs	r1, #1
10009412:	b510      	push	{r4, lr}
10009414:	1c0a      	adds	r2, r1, #0
10009416:	2378      	movs	r3, #120	; 0x78
10009418:	4c02      	ldr	r4, [pc, #8]	; (10009424 <ble_conn_param_update_req+0x14>)
1000941a:	8800      	ldrh	r0, [r0, #0]
1000941c:	47a0      	blx	r4
1000941e:	2000      	movs	r0, #0
10009420:	bd10      	pop	{r4, pc}
10009422:	46c0      	nop			; (mov r8, r8)
10009424:	1000b7d9 	.word	0x1000b7d9

10009428 <ble_slave_security_request_handler>:
10009428:	b5f0      	push	{r4, r5, r6, r7, lr}
1000942a:	2500      	movs	r5, #0
1000942c:	b089      	sub	sp, #36	; 0x24
1000942e:	ac05      	add	r4, sp, #20
10009430:	9000      	str	r0, [sp, #0]
10009432:	2209      	movs	r2, #9
10009434:	4b51      	ldr	r3, [pc, #324]	; (1000957c <ble_slave_security_request_handler+0x154>)
10009436:	1c20      	adds	r0, r4, #0
10009438:	2100      	movs	r1, #0
1000943a:	4798      	blx	r3
1000943c:	9b00      	ldr	r3, [sp, #0]
1000943e:	881a      	ldrh	r2, [r3, #0]
10009440:	217c      	movs	r1, #124	; 0x7c
10009442:	4369      	muls	r1, r5
10009444:	4e4e      	ldr	r6, [pc, #312]	; (10009580 <ble_slave_security_request_handler+0x158>)
10009446:	198b      	adds	r3, r1, r6
10009448:	891f      	ldrh	r7, [r3, #8]
1000944a:	1c30      	adds	r0, r6, #0
1000944c:	4297      	cmp	r7, r2
1000944e:	d10c      	bne.n	1000946a <ble_slave_security_request_handler+0x42>
10009450:	1c1f      	adds	r7, r3, #0
10009452:	375e      	adds	r7, #94	; 0x5e
10009454:	783f      	ldrb	r7, [r7, #0]
10009456:	2f02      	cmp	r7, #2
10009458:	d107      	bne.n	1000946a <ble_slave_security_request_handler+0x42>
1000945a:	1c1a      	adds	r2, r3, #0
1000945c:	3704      	adds	r7, #4
1000945e:	3258      	adds	r2, #88	; 0x58
10009460:	7197      	strb	r7, [r2, #6]
10009462:	7d1a      	ldrb	r2, [r3, #20]
10009464:	07d3      	lsls	r3, r2, #31
10009466:	d404      	bmi.n	10009472 <ble_slave_security_request_handler+0x4a>
10009468:	e013      	b.n	10009492 <ble_slave_security_request_handler+0x6a>
1000946a:	3501      	adds	r5, #1
1000946c:	2d05      	cmp	r5, #5
1000946e:	d1e7      	bne.n	10009440 <ble_slave_security_request_handler+0x18>
10009470:	e015      	b.n	1000949e <ble_slave_security_request_handler+0x76>
10009472:	9b00      	ldr	r3, [sp, #0]
10009474:	78db      	ldrb	r3, [r3, #3]
10009476:	2b00      	cmp	r3, #0
10009478:	d00b      	beq.n	10009492 <ble_slave_security_request_handler+0x6a>
1000947a:	9b00      	ldr	r3, [sp, #0]
1000947c:	1871      	adds	r1, r6, r1
1000947e:	8818      	ldrh	r0, [r3, #0]
10009480:	311a      	adds	r1, #26
10009482:	4b40      	ldr	r3, [pc, #256]	; (10009584 <ble_slave_security_request_handler+0x15c>)
10009484:	4798      	blx	r3
10009486:	2800      	cmp	r0, #0
10009488:	d101      	bne.n	1000948e <ble_slave_security_request_handler+0x66>
1000948a:	2000      	movs	r0, #0
1000948c:	e074      	b.n	10009578 <ble_slave_security_request_handler+0x150>
1000948e:	20e2      	movs	r0, #226	; 0xe2
10009490:	e072      	b.n	10009578 <ble_slave_security_request_handler+0x150>
10009492:	237c      	movs	r3, #124	; 0x7c
10009494:	2202      	movs	r2, #2
10009496:	436b      	muls	r3, r5
10009498:	18c3      	adds	r3, r0, r3
1000949a:	3358      	adds	r3, #88	; 0x58
1000949c:	719a      	strb	r2, [r3, #6]
1000949e:	2200      	movs	r2, #0
100094a0:	9b00      	ldr	r3, [sp, #0]
100094a2:	8819      	ldrh	r1, [r3, #0]
100094a4:	b2d3      	uxtb	r3, r2
100094a6:	9301      	str	r3, [sp, #4]
100094a8:	237c      	movs	r3, #124	; 0x7c
100094aa:	4353      	muls	r3, r2
100094ac:	18c3      	adds	r3, r0, r3
100094ae:	891d      	ldrh	r5, [r3, #8]
100094b0:	428d      	cmp	r5, r1
100094b2:	d108      	bne.n	100094c6 <ble_slave_security_request_handler+0x9e>
100094b4:	1c1d      	adds	r5, r3, #0
100094b6:	355e      	adds	r5, #94	; 0x5e
100094b8:	782d      	ldrb	r5, [r5, #0]
100094ba:	2d02      	cmp	r5, #2
100094bc:	d103      	bne.n	100094c6 <ble_slave_security_request_handler+0x9e>
100094be:	2203      	movs	r2, #3
100094c0:	3358      	adds	r3, #88	; 0x58
100094c2:	719a      	strb	r2, [r3, #6]
100094c4:	e003      	b.n	100094ce <ble_slave_security_request_handler+0xa6>
100094c6:	3201      	adds	r2, #1
100094c8:	2a05      	cmp	r2, #5
100094ca:	d1eb      	bne.n	100094a4 <ble_slave_security_request_handler+0x7c>
100094cc:	9201      	str	r2, [sp, #4]
100094ce:	2302      	movs	r3, #2
100094d0:	2204      	movs	r2, #4
100094d2:	7223      	strb	r3, [r4, #8]
100094d4:	9b00      	ldr	r3, [sp, #0]
100094d6:	9901      	ldr	r1, [sp, #4]
100094d8:	78db      	ldrb	r3, [r3, #3]
100094da:	7022      	strb	r2, [r4, #0]
100094dc:	70a3      	strb	r3, [r4, #2]
100094de:	2301      	movs	r3, #1
100094e0:	3278      	adds	r2, #120	; 0x78
100094e2:	434a      	muls	r2, r1
100094e4:	5c82      	ldrb	r2, [r0, r2]
100094e6:	7063      	strb	r3, [r4, #1]
100094e8:	2a02      	cmp	r2, #2
100094ea:	d100      	bne.n	100094ee <ble_slave_security_request_handler+0xc6>
100094ec:	3302      	adds	r3, #2
100094ee:	71a3      	strb	r3, [r4, #6]
100094f0:	71e3      	strb	r3, [r4, #7]
100094f2:	2310      	movs	r3, #16
100094f4:	9a01      	ldr	r2, [sp, #4]
100094f6:	7163      	strb	r3, [r4, #5]
100094f8:	7123      	strb	r3, [r4, #4]
100094fa:	336c      	adds	r3, #108	; 0x6c
100094fc:	435a      	muls	r2, r3
100094fe:	9202      	str	r2, [sp, #8]
10009500:	1883      	adds	r3, r0, r2
10009502:	7e1b      	ldrb	r3, [r3, #24]
10009504:	2b40      	cmp	r3, #64	; 0x40
10009506:	d12a      	bne.n	1000955e <ble_slave_security_request_handler+0x136>
10009508:	1c13      	adds	r3, r2, #0
1000950a:	1c15      	adds	r5, r2, #0
1000950c:	3368      	adds	r3, #104	; 0x68
1000950e:	3560      	adds	r5, #96	; 0x60
10009510:	18c3      	adds	r3, r0, r3
10009512:	1945      	adds	r5, r0, r5
10009514:	9303      	str	r3, [sp, #12]
10009516:	4f1c      	ldr	r7, [pc, #112]	; (10009588 <ble_slave_security_request_handler+0x160>)
10009518:	47b8      	blx	r7
1000951a:	260f      	movs	r6, #15
1000951c:	4030      	ands	r0, r6
1000951e:	7028      	strb	r0, [r5, #0]
10009520:	47b8      	blx	r7
10009522:	9b03      	ldr	r3, [sp, #12]
10009524:	4006      	ands	r6, r0
10009526:	74ae      	strb	r6, [r5, #18]
10009528:	3501      	adds	r5, #1
1000952a:	429d      	cmp	r5, r3
1000952c:	d1f3      	bne.n	10009516 <ble_slave_security_request_handler+0xee>
1000952e:	2500      	movs	r5, #0
10009530:	4e15      	ldr	r6, [pc, #84]	; (10009588 <ble_slave_security_request_handler+0x160>)
10009532:	47b0      	blx	r6
10009534:	220f      	movs	r2, #15
10009536:	9b02      	ldr	r3, [sp, #8]
10009538:	4f11      	ldr	r7, [pc, #68]	; (10009580 <ble_slave_security_request_handler+0x158>)
1000953a:	18eb      	adds	r3, r5, r3
1000953c:	3368      	adds	r3, #104	; 0x68
1000953e:	4010      	ands	r0, r2
10009540:	3501      	adds	r5, #1
10009542:	54f8      	strb	r0, [r7, r3]
10009544:	2d08      	cmp	r5, #8
10009546:	d1f3      	bne.n	10009530 <ble_slave_security_request_handler+0x108>
10009548:	47b0      	blx	r6
1000954a:	237c      	movs	r3, #124	; 0x7c
1000954c:	9a01      	ldr	r2, [sp, #4]
1000954e:	4353      	muls	r3, r2
10009550:	18ff      	adds	r7, r7, r3
10009552:	1c3b      	adds	r3, r7, #0
10009554:	3370      	adds	r3, #112	; 0x70
10009556:	8018      	strh	r0, [r3, #0]
10009558:	2310      	movs	r3, #16
1000955a:	3778      	adds	r7, #120	; 0x78
1000955c:	70bb      	strb	r3, [r7, #2]
1000955e:	227c      	movs	r2, #124	; 0x7c
10009560:	9b00      	ldr	r3, [sp, #0]
10009562:	1c21      	adds	r1, r4, #0
10009564:	8818      	ldrh	r0, [r3, #0]
10009566:	9b01      	ldr	r3, [sp, #4]
10009568:	4c08      	ldr	r4, [pc, #32]	; (1000958c <ble_slave_security_request_handler+0x164>)
1000956a:	435a      	muls	r2, r3
1000956c:	4b04      	ldr	r3, [pc, #16]	; (10009580 <ble_slave_security_request_handler+0x158>)
1000956e:	3260      	adds	r2, #96	; 0x60
10009570:	18d2      	adds	r2, r2, r3
10009572:	2300      	movs	r3, #0
10009574:	47a0      	blx	r4
10009576:	e786      	b.n	10009486 <ble_slave_security_request_handler+0x5e>
10009578:	b009      	add	sp, #36	; 0x24
1000957a:	bdf0      	pop	{r4, r5, r6, r7, pc}
1000957c:	1000f029 	.word	0x1000f029
10009580:	100105f0 	.word	0x100105f0
10009584:	1000c385 	.word	0x1000c385
10009588:	1000f111 	.word	0x1000f111
1000958c:	1000c199 	.word	0x1000c199

10009590 <ble_pair_request_handler>:
10009590:	2100      	movs	r1, #0
10009592:	b5f0      	push	{r4, r5, r6, r7, lr}
10009594:	b089      	sub	sp, #36	; 0x24
10009596:	9002      	str	r0, [sp, #8]
10009598:	8800      	ldrh	r0, [r0, #0]
1000959a:	237c      	movs	r3, #124	; 0x7c
1000959c:	434b      	muls	r3, r1
1000959e:	4a37      	ldr	r2, [pc, #220]	; (1000967c <ble_pair_request_handler+0xec>)
100095a0:	b2cd      	uxtb	r5, r1
100095a2:	189b      	adds	r3, r3, r2
100095a4:	891c      	ldrh	r4, [r3, #8]
100095a6:	9200      	str	r2, [sp, #0]
100095a8:	4284      	cmp	r4, r0
100095aa:	d108      	bne.n	100095be <ble_pair_request_handler+0x2e>
100095ac:	1c1a      	adds	r2, r3, #0
100095ae:	325e      	adds	r2, #94	; 0x5e
100095b0:	7812      	ldrb	r2, [r2, #0]
100095b2:	2a02      	cmp	r2, #2
100095b4:	d103      	bne.n	100095be <ble_pair_request_handler+0x2e>
100095b6:	3358      	adds	r3, #88	; 0x58
100095b8:	3201      	adds	r2, #1
100095ba:	719a      	strb	r2, [r3, #6]
100095bc:	e003      	b.n	100095c6 <ble_pair_request_handler+0x36>
100095be:	3101      	adds	r1, #1
100095c0:	2905      	cmp	r1, #5
100095c2:	d1ea      	bne.n	1000959a <ble_pair_request_handler+0xa>
100095c4:	1c0d      	adds	r5, r1, #0
100095c6:	2100      	movs	r1, #0
100095c8:	2202      	movs	r2, #2
100095ca:	ab05      	add	r3, sp, #20
100095cc:	7019      	strb	r1, [r3, #0]
100095ce:	70d9      	strb	r1, [r3, #3]
100095d0:	317c      	adds	r1, #124	; 0x7c
100095d2:	4369      	muls	r1, r5
100095d4:	9800      	ldr	r0, [sp, #0]
100095d6:	721a      	strb	r2, [r3, #8]
100095d8:	5c41      	ldrb	r1, [r0, r1]
100095da:	3a01      	subs	r2, #1
100095dc:	709a      	strb	r2, [r3, #2]
100095de:	705a      	strb	r2, [r3, #1]
100095e0:	2902      	cmp	r1, #2
100095e2:	d100      	bne.n	100095e6 <ble_pair_request_handler+0x56>
100095e4:	3202      	adds	r2, #2
100095e6:	719a      	strb	r2, [r3, #6]
100095e8:	71da      	strb	r2, [r3, #7]
100095ea:	2210      	movs	r2, #16
100095ec:	715a      	strb	r2, [r3, #5]
100095ee:	711a      	strb	r2, [r3, #4]
100095f0:	237c      	movs	r3, #124	; 0x7c
100095f2:	436b      	muls	r3, r5
100095f4:	9301      	str	r3, [sp, #4]
100095f6:	9a01      	ldr	r2, [sp, #4]
100095f8:	9b00      	ldr	r3, [sp, #0]
100095fa:	189b      	adds	r3, r3, r2
100095fc:	7e1b      	ldrb	r3, [r3, #24]
100095fe:	2b40      	cmp	r3, #64	; 0x40
10009600:	d12b      	bne.n	1000965a <ble_pair_request_handler+0xca>
10009602:	1c14      	adds	r4, r2, #0
10009604:	9b00      	ldr	r3, [sp, #0]
10009606:	3460      	adds	r4, #96	; 0x60
10009608:	191c      	adds	r4, r3, r4
1000960a:	1c13      	adds	r3, r2, #0
1000960c:	9a00      	ldr	r2, [sp, #0]
1000960e:	3368      	adds	r3, #104	; 0x68
10009610:	18d3      	adds	r3, r2, r3
10009612:	9303      	str	r3, [sp, #12]
10009614:	4f1a      	ldr	r7, [pc, #104]	; (10009680 <ble_pair_request_handler+0xf0>)
10009616:	47b8      	blx	r7
10009618:	260f      	movs	r6, #15
1000961a:	4030      	ands	r0, r6
1000961c:	7020      	strb	r0, [r4, #0]
1000961e:	47b8      	blx	r7
10009620:	9b03      	ldr	r3, [sp, #12]
10009622:	4006      	ands	r6, r0
10009624:	74a6      	strb	r6, [r4, #18]
10009626:	3401      	adds	r4, #1
10009628:	429c      	cmp	r4, r3
1000962a:	d1f3      	bne.n	10009614 <ble_pair_request_handler+0x84>
1000962c:	2400      	movs	r4, #0
1000962e:	4e14      	ldr	r6, [pc, #80]	; (10009680 <ble_pair_request_handler+0xf0>)
10009630:	47b0      	blx	r6
10009632:	220f      	movs	r2, #15
10009634:	9b01      	ldr	r3, [sp, #4]
10009636:	4f11      	ldr	r7, [pc, #68]	; (1000967c <ble_pair_request_handler+0xec>)
10009638:	18e3      	adds	r3, r4, r3
1000963a:	3368      	adds	r3, #104	; 0x68
1000963c:	4010      	ands	r0, r2
1000963e:	3401      	adds	r4, #1
10009640:	54f8      	strb	r0, [r7, r3]
10009642:	2c08      	cmp	r4, #8
10009644:	d1f3      	bne.n	1000962e <ble_pair_request_handler+0x9e>
10009646:	47b0      	blx	r6
10009648:	237c      	movs	r3, #124	; 0x7c
1000964a:	436b      	muls	r3, r5
1000964c:	18ff      	adds	r7, r7, r3
1000964e:	1c3b      	adds	r3, r7, #0
10009650:	3370      	adds	r3, #112	; 0x70
10009652:	8018      	strh	r0, [r3, #0]
10009654:	2310      	movs	r3, #16
10009656:	3778      	adds	r7, #120	; 0x78
10009658:	70bb      	strb	r3, [r7, #2]
1000965a:	227c      	movs	r2, #124	; 0x7c
1000965c:	4355      	muls	r5, r2
1000965e:	9b02      	ldr	r3, [sp, #8]
10009660:	3560      	adds	r5, #96	; 0x60
10009662:	8818      	ldrh	r0, [r3, #0]
10009664:	9b00      	ldr	r3, [sp, #0]
10009666:	a905      	add	r1, sp, #20
10009668:	195a      	adds	r2, r3, r5
1000966a:	4c06      	ldr	r4, [pc, #24]	; (10009684 <ble_pair_request_handler+0xf4>)
1000966c:	2300      	movs	r3, #0
1000966e:	47a0      	blx	r4
10009670:	2800      	cmp	r0, #0
10009672:	d000      	beq.n	10009676 <ble_pair_request_handler+0xe6>
10009674:	20e2      	movs	r0, #226	; 0xe2
10009676:	b009      	add	sp, #36	; 0x24
10009678:	bdf0      	pop	{r4, r5, r6, r7, pc}
1000967a:	46c0      	nop			; (mov r8, r8)
1000967c:	100105f0 	.word	0x100105f0
10009680:	1000f111 	.word	0x1000f111
10009684:	1000c199 	.word	0x1000c199

10009688 <ble_encryption_request_handler>:
10009688:	b5f7      	push	{r0, r1, r2, r4, r5, r6, r7, lr}
1000968a:	1c07      	adds	r7, r0, #0
1000968c:	2200      	movs	r2, #0
1000968e:	8801      	ldrh	r1, [r0, #0]
10009690:	b2d3      	uxtb	r3, r2
10009692:	9300      	str	r3, [sp, #0]
10009694:	237c      	movs	r3, #124	; 0x7c
10009696:	4353      	muls	r3, r2
10009698:	4c1b      	ldr	r4, [pc, #108]	; (10009708 <ble_encryption_request_handler+0x80>)
1000969a:	1c1d      	adds	r5, r3, #0
1000969c:	191e      	adds	r6, r3, r4
1000969e:	8933      	ldrh	r3, [r6, #8]
100096a0:	428b      	cmp	r3, r1
100096a2:	d10d      	bne.n	100096c0 <ble_encryption_request_handler+0x38>
100096a4:	1c33      	adds	r3, r6, #0
100096a6:	335e      	adds	r3, #94	; 0x5e
100096a8:	781b      	ldrb	r3, [r3, #0]
100096aa:	2b01      	cmp	r3, #1
100096ac:	d908      	bls.n	100096c0 <ble_encryption_request_handler+0x38>
100096ae:	1c33      	adds	r3, r6, #0
100096b0:	2206      	movs	r2, #6
100096b2:	3358      	adds	r3, #88	; 0x58
100096b4:	719a      	strb	r2, [r3, #6]
100096b6:	8b1a      	ldrh	r2, [r3, #24]
100096b8:	887b      	ldrh	r3, [r7, #2]
100096ba:	429a      	cmp	r2, r3
100096bc:	d10e      	bne.n	100096dc <ble_encryption_request_handler+0x54>
100096be:	e004      	b.n	100096ca <ble_encryption_request_handler+0x42>
100096c0:	3201      	adds	r2, #1
100096c2:	2a05      	cmp	r2, #5
100096c4:	d1e4      	bne.n	10009690 <ble_encryption_request_handler+0x8>
100096c6:	9200      	str	r2, [sp, #0]
100096c8:	e008      	b.n	100096dc <ble_encryption_request_handler+0x54>
100096ca:	1961      	adds	r1, r4, r5
100096cc:	1d38      	adds	r0, r7, #4
100096ce:	3172      	adds	r1, #114	; 0x72
100096d0:	2208      	movs	r2, #8
100096d2:	4b0e      	ldr	r3, [pc, #56]	; (1000970c <ble_encryption_request_handler+0x84>)
100096d4:	4798      	blx	r3
100096d6:	9001      	str	r0, [sp, #4]
100096d8:	2800      	cmp	r0, #0
100096da:	d00a      	beq.n	100096f2 <ble_encryption_request_handler+0x6a>
100096dc:	237c      	movs	r3, #124	; 0x7c
100096de:	9a00      	ldr	r2, [sp, #0]
100096e0:	2105      	movs	r1, #5
100096e2:	4353      	muls	r3, r2
100096e4:	4a08      	ldr	r2, [pc, #32]	; (10009708 <ble_encryption_request_handler+0x80>)
100096e6:	18d3      	adds	r3, r2, r3
100096e8:	8918      	ldrh	r0, [r3, #8]
100096ea:	4b09      	ldr	r3, [pc, #36]	; (10009710 <ble_encryption_request_handler+0x88>)
100096ec:	4798      	blx	r3
100096ee:	20e2      	movs	r0, #226	; 0xe2
100096f0:	e008      	b.n	10009704 <ble_encryption_request_handler+0x7c>
100096f2:	1c2b      	adds	r3, r5, #0
100096f4:	3360      	adds	r3, #96	; 0x60
100096f6:	191b      	adds	r3, r3, r4
100096f8:	8838      	ldrh	r0, [r7, #0]
100096fa:	7d31      	ldrb	r1, [r6, #20]
100096fc:	2201      	movs	r2, #1
100096fe:	4c05      	ldr	r4, [pc, #20]	; (10009714 <ble_encryption_request_handler+0x8c>)
10009700:	47a0      	blx	r4
10009702:	9801      	ldr	r0, [sp, #4]
10009704:	bdfe      	pop	{r1, r2, r3, r4, r5, r6, r7, pc}
10009706:	46c0      	nop			; (mov r8, r8)
10009708:	100105f0 	.word	0x100105f0
1000970c:	1000eff9 	.word	0x1000eff9
10009710:	1000b7b9 	.word	0x1000b7b9
10009714:	1000c3fd 	.word	0x1000c3fd

10009718 <ble_scan_info_handler>:
10009718:	b510      	push	{r4, lr}
1000971a:	4c0b      	ldr	r4, [pc, #44]	; (10009748 <ble_scan_info_handler+0x30>)
1000971c:	1c01      	adds	r1, r0, #0
1000971e:	7823      	ldrb	r3, [r4, #0]
10009720:	2b13      	cmp	r3, #19
10009722:	d80d      	bhi.n	10009740 <ble_scan_info_handler+0x28>
10009724:	2229      	movs	r2, #41	; 0x29
10009726:	7820      	ldrb	r0, [r4, #0]
10009728:	4b08      	ldr	r3, [pc, #32]	; (1000974c <ble_scan_info_handler+0x34>)
1000972a:	4350      	muls	r0, r2
1000972c:	1818      	adds	r0, r3, r0
1000972e:	4b08      	ldr	r3, [pc, #32]	; (10009750 <ble_scan_info_handler+0x38>)
10009730:	4798      	blx	r3
10009732:	7823      	ldrb	r3, [r4, #0]
10009734:	7823      	ldrb	r3, [r4, #0]
10009736:	2000      	movs	r0, #0
10009738:	3301      	adds	r3, #1
1000973a:	b2db      	uxtb	r3, r3
1000973c:	7023      	strb	r3, [r4, #0]
1000973e:	e002      	b.n	10009746 <ble_scan_info_handler+0x2e>
10009740:	4b04      	ldr	r3, [pc, #16]	; (10009754 <ble_scan_info_handler+0x3c>)
10009742:	4798      	blx	r3
10009744:	20e2      	movs	r0, #226	; 0xe2
10009746:	bd10      	pop	{r4, pc}
10009748:	100102f8 	.word	0x100102f8
1000974c:	100108c4 	.word	0x100108c4
10009750:	1000f017 	.word	0x1000f017
10009754:	1000b799 	.word	0x1000b799

10009758 <ble_pair_key_request_handler>:
10009758:	b5f0      	push	{r4, r5, r6, r7, lr}
1000975a:	1c07      	adds	r7, r0, #0
1000975c:	b087      	sub	sp, #28
1000975e:	ae04      	add	r6, sp, #16
10009760:	491a      	ldr	r1, [pc, #104]	; (100097cc <ble_pair_key_request_handler+0x74>)
10009762:	2206      	movs	r2, #6
10009764:	4d1a      	ldr	r5, [pc, #104]	; (100097d0 <ble_pair_key_request_handler+0x78>)
10009766:	ac03      	add	r4, sp, #12
10009768:	1c30      	adds	r0, r6, #0
1000976a:	47a8      	blx	r5
1000976c:	1c20      	adds	r0, r4, #0
1000976e:	1c39      	adds	r1, r7, #0
10009770:	2204      	movs	r2, #4
10009772:	47a8      	blx	r5
10009774:	78e3      	ldrb	r3, [r4, #3]
10009776:	9301      	str	r3, [sp, #4]
10009778:	2b00      	cmp	r3, #0
1000977a:	d005      	beq.n	10009788 <ble_pair_key_request_handler+0x30>
1000977c:	2380      	movs	r3, #128	; 0x80
1000977e:	8862      	ldrh	r2, [r4, #2]
10009780:	005b      	lsls	r3, r3, #1
10009782:	429a      	cmp	r2, r3
10009784:	d116      	bne.n	100097b4 <ble_pair_key_request_handler+0x5c>
10009786:	e019      	b.n	100097bc <ble_pair_key_request_handler+0x64>
10009788:	9d01      	ldr	r5, [sp, #4]
1000978a:	2d06      	cmp	r5, #6
1000978c:	d0f6      	beq.n	1000977c <ble_pair_key_request_handler+0x24>
1000978e:	201e      	movs	r0, #30
10009790:	4b10      	ldr	r3, [pc, #64]	; (100097d4 <ble_pair_key_request_handler+0x7c>)
10009792:	4798      	blx	r3
10009794:	b2c0      	uxtb	r0, r0
10009796:	2800      	cmp	r0, #0
10009798:	d105      	bne.n	100097a6 <ble_pair_key_request_handler+0x4e>
1000979a:	8838      	ldrh	r0, [r7, #0]
1000979c:	2113      	movs	r1, #19
1000979e:	4b0e      	ldr	r3, [pc, #56]	; (100097d8 <ble_pair_key_request_handler+0x80>)
100097a0:	4798      	blx	r3
100097a2:	20e2      	movs	r0, #226	; 0xe2
100097a4:	e010      	b.n	100097c8 <ble_pair_key_request_handler+0x70>
100097a6:	1c03      	adds	r3, r0, #0
100097a8:	3b30      	subs	r3, #48	; 0x30
100097aa:	2b09      	cmp	r3, #9
100097ac:	d8ed      	bhi.n	1000978a <ble_pair_key_request_handler+0x32>
100097ae:	5570      	strb	r0, [r6, r5]
100097b0:	3501      	adds	r5, #1
100097b2:	e7ea      	b.n	1000978a <ble_pair_key_request_handler+0x32>
100097b4:	2000      	movs	r0, #0
100097b6:	9b01      	ldr	r3, [sp, #4]
100097b8:	4283      	cmp	r3, r0
100097ba:	d105      	bne.n	100097c8 <ble_pair_key_request_handler+0x70>
100097bc:	8838      	ldrh	r0, [r7, #0]
100097be:	78a1      	ldrb	r1, [r4, #2]
100097c0:	1c32      	adds	r2, r6, #0
100097c2:	4b06      	ldr	r3, [pc, #24]	; (100097dc <ble_pair_key_request_handler+0x84>)
100097c4:	4798      	blx	r3
100097c6:	2000      	movs	r0, #0
100097c8:	b007      	add	sp, #28
100097ca:	bdf0      	pop	{r4, r5, r6, r7, pc}
100097cc:	1000fb48 	.word	0x1000fb48
100097d0:	1000f017 	.word	0x1000f017
100097d4:	10009f39 	.word	0x10009f39
100097d8:	1000b7b9 	.word	0x1000b7b9
100097dc:	1000c2c9 	.word	0x1000c2c9

100097e0 <ble_set_device_name>:
100097e0:	b508      	push	{r3, lr}
100097e2:	1c03      	adds	r3, r0, #0
100097e4:	20cf      	movs	r0, #207	; 0xcf
100097e6:	2b00      	cmp	r3, #0
100097e8:	d004      	beq.n	100097f4 <ble_set_device_name+0x14>
100097ea:	2900      	cmp	r1, #0
100097ec:	d002      	beq.n	100097f4 <ble_set_device_name+0x14>
100097ee:	1c18      	adds	r0, r3, #0
100097f0:	4b01      	ldr	r3, [pc, #4]	; (100097f8 <ble_set_device_name+0x18>)
100097f2:	4798      	blx	r3
100097f4:	bd08      	pop	{r3, pc}
100097f6:	46c0      	nop			; (mov r8, r8)
100097f8:	1000b305 	.word	0x1000b305

100097fc <ble_mgr_events_callback_handler>:
100097fc:	b530      	push	{r4, r5, lr}
100097fe:	1c05      	adds	r5, r0, #0
10009800:	1e10      	subs	r0, r2, #0
10009802:	d027      	beq.n	10009854 <ble_mgr_events_callback_handler+0x58>
10009804:	2000      	movs	r0, #0
10009806:	2906      	cmp	r1, #6
10009808:	d824      	bhi.n	10009854 <ble_mgr_events_callback_handler+0x58>
1000980a:	4b13      	ldr	r3, [pc, #76]	; (10009858 <ble_mgr_events_callback_handler+0x5c>)
1000980c:	5c5c      	ldrb	r4, [r3, r1]
1000980e:	4b13      	ldr	r3, [pc, #76]	; (1000985c <ble_mgr_events_callback_handler+0x60>)
10009810:	0089      	lsls	r1, r1, #2
10009812:	58cb      	ldr	r3, [r1, r3]
10009814:	4285      	cmp	r5, r0
10009816:	d10c      	bne.n	10009832 <ble_mgr_events_callback_handler+0x36>
10009818:	00a4      	lsls	r4, r4, #2
1000981a:	191c      	adds	r4, r3, r4
1000981c:	42a3      	cmp	r3, r4
1000981e:	d018      	beq.n	10009852 <ble_mgr_events_callback_handler+0x56>
10009820:	1c19      	adds	r1, r3, #0
10009822:	3304      	adds	r3, #4
10009824:	1f18      	subs	r0, r3, #4
10009826:	6800      	ldr	r0, [r0, #0]
10009828:	2800      	cmp	r0, #0
1000982a:	d1f7      	bne.n	1000981c <ble_mgr_events_callback_handler+0x20>
1000982c:	600a      	str	r2, [r1, #0]
1000982e:	3001      	adds	r0, #1
10009830:	e010      	b.n	10009854 <ble_mgr_events_callback_handler+0x58>
10009832:	2d01      	cmp	r5, #1
10009834:	d10e      	bne.n	10009854 <ble_mgr_events_callback_handler+0x58>
10009836:	00a4      	lsls	r4, r4, #2
10009838:	191c      	adds	r4, r3, r4
1000983a:	42a3      	cmp	r3, r4
1000983c:	d009      	beq.n	10009852 <ble_mgr_events_callback_handler+0x56>
1000983e:	1c19      	adds	r1, r3, #0
10009840:	3304      	adds	r3, #4
10009842:	1f18      	subs	r0, r3, #4
10009844:	6800      	ldr	r0, [r0, #0]
10009846:	4290      	cmp	r0, r2
10009848:	d1f7      	bne.n	1000983a <ble_mgr_events_callback_handler+0x3e>
1000984a:	2300      	movs	r3, #0
1000984c:	2001      	movs	r0, #1
1000984e:	600b      	str	r3, [r1, #0]
10009850:	e000      	b.n	10009854 <ble_mgr_events_callback_handler+0x58>
10009852:	2000      	movs	r0, #0
10009854:	bd30      	pop	{r4, r5, pc}
10009856:	46c0      	nop			; (mov r8, r8)
10009858:	1000fbe0 	.word	0x1000fbe0
1000985c:	1000fbe8 	.word	0x1000fbe8

10009860 <ble_device_init>:
10009860:	b5f0      	push	{r4, r5, r6, r7, lr}
10009862:	2400      	movs	r4, #0
10009864:	4b4c      	ldr	r3, [pc, #304]	; (10009998 <ble_device_init+0x138>)
10009866:	4d4d      	ldr	r5, [pc, #308]	; (1000999c <ble_device_init+0x13c>)
10009868:	b08f      	sub	sp, #60	; 0x3c
1000986a:	1c21      	adds	r1, r4, #0
1000986c:	2207      	movs	r2, #7
1000986e:	1c06      	adds	r6, r0, #0
10009870:	484b      	ldr	r0, [pc, #300]	; (100099a0 <ble_device_init+0x140>)
10009872:	601c      	str	r4, [r3, #0]
10009874:	47a8      	blx	r5
10009876:	1c21      	adds	r1, r4, #0
10009878:	2212      	movs	r2, #18
1000987a:	484a      	ldr	r0, [pc, #296]	; (100099a4 <ble_device_init+0x144>)
1000987c:	47a8      	blx	r5
1000987e:	4f4a      	ldr	r7, [pc, #296]	; (100099a8 <ble_device_init+0x148>)
10009880:	1c21      	adds	r1, r4, #0
10009882:	4a4a      	ldr	r2, [pc, #296]	; (100099ac <ble_device_init+0x14c>)
10009884:	1c38      	adds	r0, r7, #0
10009886:	47a8      	blx	r5
10009888:	22cd      	movs	r2, #205	; 0xcd
1000988a:	4b49      	ldr	r3, [pc, #292]	; (100099b0 <ble_device_init+0x150>)
1000988c:	1c21      	adds	r1, r4, #0
1000988e:	0092      	lsls	r2, r2, #2
10009890:	4848      	ldr	r0, [pc, #288]	; (100099b4 <ble_device_init+0x154>)
10009892:	701c      	strb	r4, [r3, #0]
10009894:	47a8      	blx	r5
10009896:	2283      	movs	r2, #131	; 0x83
10009898:	4b47      	ldr	r3, [pc, #284]	; (100099b8 <ble_device_init+0x158>)
1000989a:	1c21      	adds	r1, r4, #0
1000989c:	0092      	lsls	r2, r2, #2
1000989e:	4847      	ldr	r0, [pc, #284]	; (100099bc <ble_device_init+0x15c>)
100098a0:	701c      	strb	r4, [r3, #0]
100098a2:	47a8      	blx	r5
100098a4:	1c21      	adds	r1, r4, #0
100098a6:	4846      	ldr	r0, [pc, #280]	; (100099c0 <ble_device_init+0x160>)
100098a8:	220c      	movs	r2, #12
100098aa:	47a8      	blx	r5
100098ac:	4b45      	ldr	r3, [pc, #276]	; (100099c4 <ble_device_init+0x164>)
100098ae:	9501      	str	r5, [sp, #4]
100098b0:	601c      	str	r4, [r3, #0]
100098b2:	605c      	str	r4, [r3, #4]
100098b4:	609c      	str	r4, [r3, #8]
100098b6:	60dc      	str	r4, [r3, #12]
100098b8:	611c      	str	r4, [r3, #16]
100098ba:	4b43      	ldr	r3, [pc, #268]	; (100099c8 <ble_device_init+0x168>)
100098bc:	4d40      	ldr	r5, [pc, #256]	; (100099c0 <ble_device_init+0x160>)
100098be:	601c      	str	r4, [r3, #0]
100098c0:	605c      	str	r4, [r3, #4]
100098c2:	609c      	str	r4, [r3, #8]
100098c4:	60dc      	str	r4, [r3, #12]
100098c6:	611c      	str	r4, [r3, #16]
100098c8:	4b40      	ldr	r3, [pc, #256]	; (100099cc <ble_device_init+0x16c>)
100098ca:	601c      	str	r4, [r3, #0]
100098cc:	605c      	str	r4, [r3, #4]
100098ce:	609c      	str	r4, [r3, #8]
100098d0:	60dc      	str	r4, [r3, #12]
100098d2:	611c      	str	r4, [r3, #16]
100098d4:	4b3e      	ldr	r3, [pc, #248]	; (100099d0 <ble_device_init+0x170>)
100098d6:	601c      	str	r4, [r3, #0]
100098d8:	4b3e      	ldr	r3, [pc, #248]	; (100099d4 <ble_device_init+0x174>)
100098da:	601c      	str	r4, [r3, #0]
100098dc:	4b3e      	ldr	r3, [pc, #248]	; (100099d8 <ble_device_init+0x178>)
100098de:	601c      	str	r4, [r3, #0]
100098e0:	605c      	str	r4, [r3, #4]
100098e2:	609c      	str	r4, [r3, #8]
100098e4:	60dc      	str	r4, [r3, #12]
100098e6:	611c      	str	r4, [r3, #16]
100098e8:	4b3c      	ldr	r3, [pc, #240]	; (100099dc <ble_device_init+0x17c>)
100098ea:	601c      	str	r4, [r3, #0]
100098ec:	4c3c      	ldr	r4, [pc, #240]	; (100099e0 <ble_device_init+0x180>)
100098ee:	1c20      	adds	r0, r4, #0
100098f0:	2100      	movs	r1, #0
100098f2:	227c      	movs	r2, #124	; 0x7c
100098f4:	9b01      	ldr	r3, [sp, #4]
100098f6:	385e      	subs	r0, #94	; 0x5e
100098f8:	4798      	blx	r3
100098fa:	1c22      	adds	r2, r4, #0
100098fc:	2300      	movs	r3, #0
100098fe:	2140      	movs	r1, #64	; 0x40
10009900:	3a46      	subs	r2, #70	; 0x46
10009902:	7023      	strb	r3, [r4, #0]
10009904:	7011      	strb	r1, [r2, #0]
10009906:	4a37      	ldr	r2, [pc, #220]	; (100099e4 <ble_device_init+0x184>)
10009908:	347c      	adds	r4, #124	; 0x7c
1000990a:	4294      	cmp	r4, r2
1000990c:	d1ef      	bne.n	100098ee <ble_device_init+0x8e>
1000990e:	4a36      	ldr	r2, [pc, #216]	; (100099e8 <ble_device_init+0x188>)
10009910:	1c28      	adds	r0, r5, #0
10009912:	7013      	strb	r3, [r2, #0]
10009914:	4b25      	ldr	r3, [pc, #148]	; (100099ac <ble_device_init+0x14c>)
10009916:	602f      	str	r7, [r5, #0]
10009918:	606b      	str	r3, [r5, #4]
1000991a:	4b34      	ldr	r3, [pc, #208]	; (100099ec <ble_device_init+0x18c>)
1000991c:	4798      	blx	r3
1000991e:	1e05      	subs	r5, r0, #0
10009920:	d000      	beq.n	10009924 <ble_device_init+0xc4>
10009922:	e7fe      	b.n	10009922 <ble_device_init+0xc2>
10009924:	4c32      	ldr	r4, [pc, #200]	; (100099f0 <ble_device_init+0x190>)
10009926:	1c29      	adds	r1, r5, #0
10009928:	4a32      	ldr	r2, [pc, #200]	; (100099f4 <ble_device_init+0x194>)
1000992a:	47a0      	blx	r4
1000992c:	4a32      	ldr	r2, [pc, #200]	; (100099f8 <ble_device_init+0x198>)
1000992e:	2102      	movs	r1, #2
10009930:	1c28      	adds	r0, r5, #0
10009932:	47a0      	blx	r4
10009934:	4b31      	ldr	r3, [pc, #196]	; (100099fc <ble_device_init+0x19c>)
10009936:	2109      	movs	r1, #9
10009938:	4831      	ldr	r0, [pc, #196]	; (10009a00 <ble_device_init+0x1a0>)
1000993a:	4798      	blx	r3
1000993c:	4931      	ldr	r1, [pc, #196]	; (10009a04 <ble_device_init+0x1a4>)
1000993e:	2207      	movs	r2, #7
10009940:	3106      	adds	r1, #6
10009942:	a802      	add	r0, sp, #8
10009944:	4f30      	ldr	r7, [pc, #192]	; (10009a08 <ble_device_init+0x1a8>)
10009946:	ac04      	add	r4, sp, #16
10009948:	47b8      	blx	r7
1000994a:	1c20      	adds	r0, r4, #0
1000994c:	1c29      	adds	r1, r5, #0
1000994e:	2226      	movs	r2, #38	; 0x26
10009950:	9b01      	ldr	r3, [sp, #4]
10009952:	4798      	blx	r3
10009954:	2e00      	cmp	r6, #0
10009956:	d103      	bne.n	10009960 <ble_device_init+0x100>
10009958:	a802      	add	r0, sp, #8
1000995a:	4b2c      	ldr	r3, [pc, #176]	; (10009a0c <ble_device_init+0x1ac>)
1000995c:	4798      	blx	r3
1000995e:	ae02      	add	r6, sp, #8
10009960:	230a      	movs	r3, #10
10009962:	7023      	strb	r3, [r4, #0]
10009964:	4b2a      	ldr	r3, [pc, #168]	; (10009a10 <ble_device_init+0x1b0>)
10009966:	1c31      	adds	r1, r6, #0
10009968:	2207      	movs	r2, #7
1000996a:	a805      	add	r0, sp, #20
1000996c:	8063      	strh	r3, [r4, #2]
1000996e:	47b8      	blx	r7
10009970:	2300      	movs	r3, #0
10009972:	76e3      	strb	r3, [r4, #27]
10009974:	7723      	strb	r3, [r4, #28]
10009976:	7763      	strb	r3, [r4, #29]
10009978:	77a3      	strb	r3, [r4, #30]
1000997a:	77e3      	strb	r3, [r4, #31]
1000997c:	8423      	strh	r3, [r4, #32]
1000997e:	8463      	strh	r3, [r4, #34]	; 0x22
10009980:	2380      	movs	r3, #128	; 0x80
10009982:	009b      	lsls	r3, r3, #2
10009984:	84a3      	strh	r3, [r4, #36]	; 0x24
10009986:	1c20      	adds	r0, r4, #0
10009988:	4b22      	ldr	r3, [pc, #136]	; (10009a14 <ble_device_init+0x1b4>)
1000998a:	4798      	blx	r3
1000998c:	1c30      	adds	r0, r6, #0
1000998e:	4b22      	ldr	r3, [pc, #136]	; (10009a18 <ble_device_init+0x1b8>)
10009990:	4798      	blx	r3
10009992:	b00f      	add	sp, #60	; 0x3c
10009994:	bdf0      	pop	{r4, r5, r6, r7, pc}
10009996:	46c0      	nop			; (mov r8, r8)
10009998:	100102f4 	.word	0x100102f4
1000999c:	1000f029 	.word	0x1000f029
100099a0:	100102f9 	.word	0x100102f9
100099a4:	1001089c 	.word	0x1001089c
100099a8:	1000fe14 	.word	0x1000fe14
100099ac:	000004e2 	.word	0x000004e2
100099b0:	100102f8 	.word	0x100102f8
100099b4:	100108c4 	.word	0x100108c4
100099b8:	100108bc 	.word	0x100108bc
100099bc:	10010bf8 	.word	0x10010bf8
100099c0:	100108b0 	.word	0x100108b0
100099c4:	10010874 	.word	0x10010874
100099c8:	10010888 	.word	0x10010888
100099cc:	100105dc 	.word	0x100105dc
100099d0:	100108c0 	.word	0x100108c0
100099d4:	100105d8 	.word	0x100105d8
100099d8:	10010860 	.word	0x10010860
100099dc:	10010e04 	.word	0x10010e04
100099e0:	1001064e 	.word	0x1001064e
100099e4:	100108ba 	.word	0x100108ba
100099e8:	1001085c 	.word	0x1001085c
100099ec:	1000b3ed 	.word	0x1000b3ed
100099f0:	100097fd 	.word	0x100097fd
100099f4:	1000fb94 	.word	0x1000fb94
100099f8:	1000fb60 	.word	0x1000fb60
100099fc:	100097e1 	.word	0x100097e1
10009a00:	1000fb88 	.word	0x1000fb88
10009a04:	1000fb48 	.word	0x1000fb48
10009a08:	1000f017 	.word	0x1000f017
10009a0c:	1000b339 	.word	0x1000b339
10009a10:	00003a98 	.word	0x00003a98
10009a14:	1000b35d 	.word	0x1000b35d
10009a18:	1000b585 	.word	0x1000b585

10009a1c <ble_send_slave_sec_request>:
10009a1c:	2101      	movs	r1, #1
10009a1e:	b508      	push	{r3, lr}
10009a20:	1c0a      	adds	r2, r1, #0
10009a22:	4b03      	ldr	r3, [pc, #12]	; (10009a30 <ble_send_slave_sec_request+0x14>)
10009a24:	4798      	blx	r3
10009a26:	2800      	cmp	r0, #0
10009a28:	d000      	beq.n	10009a2c <ble_send_slave_sec_request+0x10>
10009a2a:	20e2      	movs	r0, #226	; 0xe2
10009a2c:	bd08      	pop	{r3, pc}
10009a2e:	46c0      	nop			; (mov r8, r8)
10009a30:	1000c345 	.word	0x1000c345

10009a34 <ble_connected_state_handler>:
10009a34:	b5f0      	push	{r4, r5, r6, r7, lr}
10009a36:	7a84      	ldrb	r4, [r0, #10]
10009a38:	b097      	sub	sp, #92	; 0x5c
10009a3a:	2c00      	cmp	r4, #0
10009a3c:	d001      	beq.n	10009a42 <ble_connected_state_handler+0xe>
10009a3e:	2400      	movs	r4, #0
10009a40:	e097      	b.n	10009b72 <ble_connected_state_handler+0x13e>
10009a42:	1c05      	adds	r5, r0, #0
10009a44:	2212      	movs	r2, #18
10009a46:	1c29      	adds	r1, r5, #0
10009a48:	4e4b      	ldr	r6, [pc, #300]	; (10009b78 <ble_connected_state_handler+0x144>)
10009a4a:	484c      	ldr	r0, [pc, #304]	; (10009b7c <ble_connected_state_handler+0x148>)
10009a4c:	47b0      	blx	r6
10009a4e:	484c      	ldr	r0, [pc, #304]	; (10009b80 <ble_connected_state_handler+0x14c>)
10009a50:	1c29      	adds	r1, r5, #0
10009a52:	2207      	movs	r2, #7
10009a54:	4b4b      	ldr	r3, [pc, #300]	; (10009b84 <ble_connected_state_handler+0x150>)
10009a56:	4798      	blx	r3
10009a58:	9601      	str	r6, [sp, #4]
10009a5a:	2800      	cmp	r0, #0
10009a5c:	d023      	beq.n	10009aa6 <ble_connected_state_handler+0x72>
10009a5e:	782b      	ldrb	r3, [r5, #0]
10009a60:	2b02      	cmp	r3, #2
10009a62:	d120      	bne.n	10009aa6 <ble_connected_state_handler+0x72>
10009a64:	a802      	add	r0, sp, #8
10009a66:	1c21      	adds	r1, r4, #0
10009a68:	2250      	movs	r2, #80	; 0x50
10009a6a:	4b47      	ldr	r3, [pc, #284]	; (10009b88 <ble_connected_state_handler+0x154>)
10009a6c:	4798      	blx	r3
10009a6e:	1c20      	adds	r0, r4, #0
10009a70:	227c      	movs	r2, #124	; 0x7c
10009a72:	2300      	movs	r3, #0
10009a74:	4342      	muls	r2, r0
10009a76:	0106      	lsls	r6, r0, #4
10009a78:	b2b6      	uxth	r6, r6
10009a7a:	189c      	adds	r4, r3, r2
10009a7c:	4f43      	ldr	r7, [pc, #268]	; (10009b8c <ble_connected_state_handler+0x158>)
10009a7e:	3446      	adds	r4, #70	; 0x46
10009a80:	18f1      	adds	r1, r6, r3
10009a82:	5d3c      	ldrb	r4, [r7, r4]
10009a84:	b289      	uxth	r1, r1
10009a86:	af02      	add	r7, sp, #8
10009a88:	3301      	adds	r3, #1
10009a8a:	547c      	strb	r4, [r7, r1]
10009a8c:	2b10      	cmp	r3, #16
10009a8e:	d1f4      	bne.n	10009a7a <ble_connected_state_handler+0x46>
10009a90:	3001      	adds	r0, #1
10009a92:	2805      	cmp	r0, #5
10009a94:	d1ec      	bne.n	10009a70 <ble_connected_state_handler+0x3c>
10009a96:	1c29      	adds	r1, r5, #0
10009a98:	aa02      	add	r2, sp, #8
10009a9a:	4b3d      	ldr	r3, [pc, #244]	; (10009b90 <ble_connected_state_handler+0x15c>)
10009a9c:	4798      	blx	r3
10009a9e:	1e04      	subs	r4, r0, #0
10009aa0:	d067      	beq.n	10009b72 <ble_connected_state_handler+0x13e>
10009aa2:	24e2      	movs	r4, #226	; 0xe2
10009aa4:	e065      	b.n	10009b72 <ble_connected_state_handler+0x13e>
10009aa6:	4b3b      	ldr	r3, [pc, #236]	; (10009b94 <ble_connected_state_handler+0x160>)
10009aa8:	781a      	ldrb	r2, [r3, #0]
10009aaa:	2a04      	cmp	r2, #4
10009aac:	d84c      	bhi.n	10009b48 <ble_connected_state_handler+0x114>
10009aae:	2700      	movs	r7, #0
10009ab0:	237c      	movs	r3, #124	; 0x7c
10009ab2:	437b      	muls	r3, r7
10009ab4:	4a35      	ldr	r2, [pc, #212]	; (10009b8c <ble_connected_state_handler+0x158>)
10009ab6:	1c29      	adds	r1, r5, #0
10009ab8:	189b      	adds	r3, r3, r2
10009aba:	9300      	str	r3, [sp, #0]
10009abc:	1c18      	adds	r0, r3, #0
10009abe:	2207      	movs	r2, #7
10009ac0:	4b30      	ldr	r3, [pc, #192]	; (10009b84 <ble_connected_state_handler+0x150>)
10009ac2:	4798      	blx	r3
10009ac4:	b2fe      	uxtb	r6, r7
10009ac6:	4a31      	ldr	r2, [pc, #196]	; (10009b8c <ble_connected_state_handler+0x158>)
10009ac8:	2800      	cmp	r0, #0
10009aca:	d104      	bne.n	10009ad6 <ble_connected_state_handler+0xa2>
10009acc:	2202      	movs	r2, #2
10009ace:	9b00      	ldr	r3, [sp, #0]
10009ad0:	3358      	adds	r3, #88	; 0x58
10009ad2:	719a      	strb	r2, [r3, #6]
10009ad4:	e01e      	b.n	10009b14 <ble_connected_state_handler+0xe0>
10009ad6:	3701      	adds	r7, #1
10009ad8:	2f05      	cmp	r7, #5
10009ada:	d1e9      	bne.n	10009ab0 <ble_connected_state_handler+0x7c>
10009adc:	2300      	movs	r3, #0
10009ade:	277c      	movs	r7, #124	; 0x7c
10009ae0:	435f      	muls	r7, r3
10009ae2:	1c39      	adds	r1, r7, #0
10009ae4:	315e      	adds	r1, #94	; 0x5e
10009ae6:	5c51      	ldrb	r1, [r2, r1]
10009ae8:	b2de      	uxtb	r6, r3
10009aea:	2900      	cmp	r1, #0
10009aec:	d10e      	bne.n	10009b0c <ble_connected_state_handler+0xd8>
10009aee:	19d7      	adds	r7, r2, r7
10009af0:	1c38      	adds	r0, r7, #0
10009af2:	2212      	movs	r2, #18
10009af4:	9b01      	ldr	r3, [sp, #4]
10009af6:	1c29      	adds	r1, r5, #0
10009af8:	4798      	blx	r3
10009afa:	4a26      	ldr	r2, [pc, #152]	; (10009b94 <ble_connected_state_handler+0x160>)
10009afc:	3758      	adds	r7, #88	; 0x58
10009afe:	7813      	ldrb	r3, [r2, #0]
10009b00:	3301      	adds	r3, #1
10009b02:	b2db      	uxtb	r3, r3
10009b04:	7013      	strb	r3, [r2, #0]
10009b06:	2302      	movs	r3, #2
10009b08:	71bb      	strb	r3, [r7, #6]
10009b0a:	e003      	b.n	10009b14 <ble_connected_state_handler+0xe0>
10009b0c:	3301      	adds	r3, #1
10009b0e:	2b05      	cmp	r3, #5
10009b10:	d1e5      	bne.n	10009ade <ble_connected_state_handler+0xaa>
10009b12:	1c1e      	adds	r6, r3, #0
10009b14:	4f1a      	ldr	r7, [pc, #104]	; (10009b80 <ble_connected_state_handler+0x14c>)
10009b16:	1c29      	adds	r1, r5, #0
10009b18:	2207      	movs	r2, #7
10009b1a:	4b1a      	ldr	r3, [pc, #104]	; (10009b84 <ble_connected_state_handler+0x150>)
10009b1c:	1c38      	adds	r0, r7, #0
10009b1e:	4798      	blx	r3
10009b20:	237c      	movs	r3, #124	; 0x7c
10009b22:	4373      	muls	r3, r6
10009b24:	4919      	ldr	r1, [pc, #100]	; (10009b8c <ble_connected_state_handler+0x158>)
10009b26:	1c3a      	adds	r2, r7, #0
10009b28:	18cb      	adds	r3, r1, r3
10009b2a:	2800      	cmp	r0, #0
10009b2c:	d103      	bne.n	10009b36 <ble_connected_state_handler+0x102>
10009b2e:	2105      	movs	r1, #5
10009b30:	1c07      	adds	r7, r0, #0
10009b32:	7499      	strb	r1, [r3, #18]
10009b34:	e002      	b.n	10009b3c <ble_connected_state_handler+0x108>
10009b36:	210a      	movs	r1, #10
10009b38:	2701      	movs	r7, #1
10009b3a:	7499      	strb	r1, [r3, #18]
10009b3c:	1c10      	adds	r0, r2, #0
10009b3e:	2100      	movs	r1, #0
10009b40:	2207      	movs	r2, #7
10009b42:	4b11      	ldr	r3, [pc, #68]	; (10009b88 <ble_connected_state_handler+0x154>)
10009b44:	4798      	blx	r3
10009b46:	e006      	b.n	10009b56 <ble_connected_state_handler+0x122>
10009b48:	2700      	movs	r7, #0
10009b4a:	781b      	ldrb	r3, [r3, #0]
10009b4c:	8928      	ldrh	r0, [r5, #8]
10009b4e:	2113      	movs	r1, #19
10009b50:	4b11      	ldr	r3, [pc, #68]	; (10009b98 <ble_connected_state_handler+0x164>)
10009b52:	4798      	blx	r3
10009b54:	1c3e      	adds	r6, r7, #0
10009b56:	237c      	movs	r3, #124	; 0x7c
10009b58:	435e      	muls	r6, r3
10009b5a:	4b0c      	ldr	r3, [pc, #48]	; (10009b8c <ble_connected_state_handler+0x158>)
10009b5c:	199e      	adds	r6, r3, r6
10009b5e:	7cb3      	ldrb	r3, [r6, #18]
10009b60:	2b0a      	cmp	r3, #10
10009b62:	d000      	beq.n	10009b66 <ble_connected_state_handler+0x132>
10009b64:	e76b      	b.n	10009a3e <ble_connected_state_handler+0xa>
10009b66:	2f00      	cmp	r7, #0
10009b68:	d100      	bne.n	10009b6c <ble_connected_state_handler+0x138>
10009b6a:	e768      	b.n	10009a3e <ble_connected_state_handler+0xa>
10009b6c:	8928      	ldrh	r0, [r5, #8]
10009b6e:	4b0b      	ldr	r3, [pc, #44]	; (10009b9c <ble_connected_state_handler+0x168>)
10009b70:	4798      	blx	r3
10009b72:	1c20      	adds	r0, r4, #0
10009b74:	b017      	add	sp, #92	; 0x5c
10009b76:	bdf0      	pop	{r4, r5, r6, r7, pc}
10009b78:	1000f017 	.word	0x1000f017
10009b7c:	1001089c 	.word	0x1001089c
10009b80:	100102f9 	.word	0x100102f9
10009b84:	1000eff9 	.word	0x1000eff9
10009b88:	1000f029 	.word	0x1000f029
10009b8c:	100105f0 	.word	0x100105f0
10009b90:	1000b7e5 	.word	0x1000b7e5
10009b94:	1001085c 	.word	0x1001085c
10009b98:	1000b7b9 	.word	0x1000b7b9
10009b9c:	10009a1d 	.word	0x10009a1d

10009ba0 <ble_resolv_rand_addr_handler>:
10009ba0:	b5f7      	push	{r0, r1, r2, r4, r5, r6, r7, lr}
10009ba2:	7804      	ldrb	r4, [r0, #0]
10009ba4:	1c07      	adds	r7, r0, #0
10009ba6:	2c00      	cmp	r4, #0
10009ba8:	d110      	bne.n	10009bcc <ble_resolv_rand_addr_handler+0x2c>
10009baa:	267c      	movs	r6, #124	; 0x7c
10009bac:	4366      	muls	r6, r4
10009bae:	1c31      	adds	r1, r6, #0
10009bb0:	9601      	str	r6, [sp, #4]
10009bb2:	4e26      	ldr	r6, [pc, #152]	; (10009c4c <ble_resolv_rand_addr_handler+0xac>)
10009bb4:	3146      	adds	r1, #70	; 0x46
10009bb6:	1c78      	adds	r0, r7, #1
10009bb8:	1989      	adds	r1, r1, r6
10009bba:	2210      	movs	r2, #16
10009bbc:	4b24      	ldr	r3, [pc, #144]	; (10009c50 <ble_resolv_rand_addr_handler+0xb0>)
10009bbe:	b2e5      	uxtb	r5, r4
10009bc0:	4798      	blx	r3
10009bc2:	2800      	cmp	r0, #0
10009bc4:	d031      	beq.n	10009c2a <ble_resolv_rand_addr_handler+0x8a>
10009bc6:	3401      	adds	r4, #1
10009bc8:	2c05      	cmp	r4, #5
10009bca:	d1ee      	bne.n	10009baa <ble_resolv_rand_addr_handler+0xa>
10009bcc:	2300      	movs	r3, #0
10009bce:	247c      	movs	r4, #124	; 0x7c
10009bd0:	435c      	muls	r4, r3
10009bd2:	1c21      	adds	r1, r4, #0
10009bd4:	4a1d      	ldr	r2, [pc, #116]	; (10009c4c <ble_resolv_rand_addr_handler+0xac>)
10009bd6:	315e      	adds	r1, #94	; 0x5e
10009bd8:	5c51      	ldrb	r1, [r2, r1]
10009bda:	b2dd      	uxtb	r5, r3
10009bdc:	2900      	cmp	r1, #0
10009bde:	d111      	bne.n	10009c04 <ble_resolv_rand_addr_handler+0x64>
10009be0:	1914      	adds	r4, r2, r4
10009be2:	4b1c      	ldr	r3, [pc, #112]	; (10009c54 <ble_resolv_rand_addr_handler+0xb4>)
10009be4:	2212      	movs	r2, #18
10009be6:	1c20      	adds	r0, r4, #0
10009be8:	491b      	ldr	r1, [pc, #108]	; (10009c58 <ble_resolv_rand_addr_handler+0xb8>)
10009bea:	4798      	blx	r3
10009bec:	4a1b      	ldr	r2, [pc, #108]	; (10009c5c <ble_resolv_rand_addr_handler+0xbc>)
10009bee:	7813      	ldrb	r3, [r2, #0]
10009bf0:	3301      	adds	r3, #1
10009bf2:	b2db      	uxtb	r3, r3
10009bf4:	7013      	strb	r3, [r2, #0]
10009bf6:	1c23      	adds	r3, r4, #0
10009bf8:	2202      	movs	r2, #2
10009bfa:	3358      	adds	r3, #88	; 0x58
10009bfc:	719a      	strb	r2, [r3, #6]
10009bfe:	230a      	movs	r3, #10
10009c00:	74a3      	strb	r3, [r4, #18]
10009c02:	e01e      	b.n	10009c42 <ble_resolv_rand_addr_handler+0xa2>
10009c04:	3301      	adds	r3, #1
10009c06:	2b05      	cmp	r3, #5
10009c08:	d1e1      	bne.n	10009bce <ble_resolv_rand_addr_handler+0x2e>
10009c0a:	2200      	movs	r2, #0
10009c0c:	1c1d      	adds	r5, r3, #0
10009c0e:	237c      	movs	r3, #124	; 0x7c
10009c10:	435d      	muls	r5, r3
10009c12:	4b0e      	ldr	r3, [pc, #56]	; (10009c4c <ble_resolv_rand_addr_handler+0xac>)
10009c14:	195d      	adds	r5, r3, r5
10009c16:	7cab      	ldrb	r3, [r5, #18]
10009c18:	2b0a      	cmp	r3, #10
10009c1a:	d114      	bne.n	10009c46 <ble_resolv_rand_addr_handler+0xa6>
10009c1c:	2a00      	cmp	r2, #0
10009c1e:	d012      	beq.n	10009c46 <ble_resolv_rand_addr_handler+0xa6>
10009c20:	4b0d      	ldr	r3, [pc, #52]	; (10009c58 <ble_resolv_rand_addr_handler+0xb8>)
10009c22:	8918      	ldrh	r0, [r3, #8]
10009c24:	4b0e      	ldr	r3, [pc, #56]	; (10009c60 <ble_resolv_rand_addr_handler+0xc0>)
10009c26:	4798      	blx	r3
10009c28:	e00d      	b.n	10009c46 <ble_resolv_rand_addr_handler+0xa6>
10009c2a:	9b01      	ldr	r3, [sp, #4]
10009c2c:	2202      	movs	r2, #2
10009c2e:	18f0      	adds	r0, r6, r3
10009c30:	1c03      	adds	r3, r0, #0
10009c32:	3358      	adds	r3, #88	; 0x58
10009c34:	719a      	strb	r2, [r3, #6]
10009c36:	230a      	movs	r3, #10
10009c38:	4907      	ldr	r1, [pc, #28]	; (10009c58 <ble_resolv_rand_addr_handler+0xb8>)
10009c3a:	7483      	strb	r3, [r0, #18]
10009c3c:	3210      	adds	r2, #16
10009c3e:	4b05      	ldr	r3, [pc, #20]	; (10009c54 <ble_resolv_rand_addr_handler+0xb4>)
10009c40:	4798      	blx	r3
10009c42:	2201      	movs	r2, #1
10009c44:	e7e3      	b.n	10009c0e <ble_resolv_rand_addr_handler+0x6e>
10009c46:	2000      	movs	r0, #0
10009c48:	bdfe      	pop	{r1, r2, r3, r4, r5, r6, r7, pc}
10009c4a:	46c0      	nop			; (mov r8, r8)
10009c4c:	100105f0 	.word	0x100105f0
10009c50:	1000eff9 	.word	0x1000eff9
10009c54:	1000f017 	.word	0x1000f017
10009c58:	1001089c 	.word	0x1001089c
10009c5c:	1001085c 	.word	0x1001085c
10009c60:	10009a1d 	.word	0x10009a1d

10009c64 <ble_event_manager>:
10009c64:	b570      	push	{r4, r5, r6, lr}
10009c66:	1c0d      	adds	r5, r1, #0
10009c68:	282c      	cmp	r0, #44	; 0x2c
10009c6a:	d808      	bhi.n	10009c7e <ble_event_manager+0x1a>
10009c6c:	2827      	cmp	r0, #39	; 0x27
10009c6e:	d243      	bcs.n	10009cf8 <ble_event_manager+0x94>
10009c70:	281c      	cmp	r0, #28
10009c72:	d830      	bhi.n	10009cd6 <ble_event_manager+0x72>
10009c74:	2813      	cmp	r0, #19
10009c76:	d21d      	bcs.n	10009cb4 <ble_event_manager+0x50>
10009c78:	0084      	lsls	r4, r0, #2
10009c7a:	2600      	movs	r6, #0
10009c7c:	e015      	b.n	10009caa <ble_event_manager+0x46>
10009c7e:	2837      	cmp	r0, #55	; 0x37
10009c80:	d805      	bhi.n	10009c8e <ble_event_manager+0x2a>
10009c82:	2836      	cmp	r0, #54	; 0x36
10009c84:	d23c      	bcs.n	10009d00 <ble_event_manager+0x9c>
10009c86:	382d      	subs	r0, #45	; 0x2d
10009c88:	b2c0      	uxtb	r0, r0
10009c8a:	4b2f      	ldr	r3, [pc, #188]	; (10009d48 <ble_event_manager+0xe4>)
10009c8c:	e04c      	b.n	10009d28 <ble_event_manager+0xc4>
10009c8e:	283a      	cmp	r0, #58	; 0x3a
10009c90:	d054      	beq.n	10009d3c <ble_event_manager+0xd8>
10009c92:	d346      	bcc.n	10009d22 <ble_event_manager+0xbe>
10009c94:	283b      	cmp	r0, #59	; 0x3b
10009c96:	d044      	beq.n	10009d22 <ble_event_manager+0xbe>
10009c98:	e055      	b.n	10009d46 <ble_event_manager+0xe2>
10009c9a:	591b      	ldr	r3, [r3, r4]
10009c9c:	2b00      	cmp	r3, #0
10009c9e:	d001      	beq.n	10009ca4 <ble_event_manager+0x40>
10009ca0:	1c28      	adds	r0, r5, #0
10009ca2:	4798      	blx	r3
10009ca4:	3604      	adds	r6, #4
10009ca6:	2e14      	cmp	r6, #20
10009ca8:	d04d      	beq.n	10009d46 <ble_event_manager+0xe2>
10009caa:	4b28      	ldr	r3, [pc, #160]	; (10009d4c <ble_event_manager+0xe8>)
10009cac:	599b      	ldr	r3, [r3, r6]
10009cae:	2b00      	cmp	r3, #0
10009cb0:	d1f3      	bne.n	10009c9a <ble_event_manager+0x36>
10009cb2:	e7f7      	b.n	10009ca4 <ble_event_manager+0x40>
10009cb4:	2600      	movs	r6, #0
10009cb6:	3813      	subs	r0, #19
10009cb8:	b2c4      	uxtb	r4, r0
10009cba:	00a4      	lsls	r4, r4, #2
10009cbc:	4b24      	ldr	r3, [pc, #144]	; (10009d50 <ble_event_manager+0xec>)
10009cbe:	599b      	ldr	r3, [r3, r6]
10009cc0:	2b00      	cmp	r3, #0
10009cc2:	d004      	beq.n	10009cce <ble_event_manager+0x6a>
10009cc4:	591b      	ldr	r3, [r3, r4]
10009cc6:	2b00      	cmp	r3, #0
10009cc8:	d001      	beq.n	10009cce <ble_event_manager+0x6a>
10009cca:	1c28      	adds	r0, r5, #0
10009ccc:	4798      	blx	r3
10009cce:	3604      	adds	r6, #4
10009cd0:	2e14      	cmp	r6, #20
10009cd2:	d1f3      	bne.n	10009cbc <ble_event_manager+0x58>
10009cd4:	e037      	b.n	10009d46 <ble_event_manager+0xe2>
10009cd6:	2600      	movs	r6, #0
10009cd8:	381d      	subs	r0, #29
10009cda:	b2c4      	uxtb	r4, r0
10009cdc:	00a4      	lsls	r4, r4, #2
10009cde:	4b1d      	ldr	r3, [pc, #116]	; (10009d54 <ble_event_manager+0xf0>)
10009ce0:	599b      	ldr	r3, [r3, r6]
10009ce2:	2b00      	cmp	r3, #0
10009ce4:	d004      	beq.n	10009cf0 <ble_event_manager+0x8c>
10009ce6:	591b      	ldr	r3, [r3, r4]
10009ce8:	2b00      	cmp	r3, #0
10009cea:	d001      	beq.n	10009cf0 <ble_event_manager+0x8c>
10009cec:	1c28      	adds	r0, r5, #0
10009cee:	4798      	blx	r3
10009cf0:	3604      	adds	r6, #4
10009cf2:	2e14      	cmp	r6, #20
10009cf4:	d1f3      	bne.n	10009cde <ble_event_manager+0x7a>
10009cf6:	e026      	b.n	10009d46 <ble_event_manager+0xe2>
10009cf8:	3827      	subs	r0, #39	; 0x27
10009cfa:	b2c0      	uxtb	r0, r0
10009cfc:	4b16      	ldr	r3, [pc, #88]	; (10009d58 <ble_event_manager+0xf4>)
10009cfe:	e013      	b.n	10009d28 <ble_event_manager+0xc4>
10009d00:	2600      	movs	r6, #0
10009d02:	3836      	subs	r0, #54	; 0x36
10009d04:	b2c4      	uxtb	r4, r0
10009d06:	00a4      	lsls	r4, r4, #2
10009d08:	4b14      	ldr	r3, [pc, #80]	; (10009d5c <ble_event_manager+0xf8>)
10009d0a:	599b      	ldr	r3, [r3, r6]
10009d0c:	2b00      	cmp	r3, #0
10009d0e:	d004      	beq.n	10009d1a <ble_event_manager+0xb6>
10009d10:	591b      	ldr	r3, [r3, r4]
10009d12:	2b00      	cmp	r3, #0
10009d14:	d001      	beq.n	10009d1a <ble_event_manager+0xb6>
10009d16:	1c28      	adds	r0, r5, #0
10009d18:	4798      	blx	r3
10009d1a:	3604      	adds	r6, #4
10009d1c:	2e14      	cmp	r6, #20
10009d1e:	d1f3      	bne.n	10009d08 <ble_event_manager+0xa4>
10009d20:	e011      	b.n	10009d46 <ble_event_manager+0xe2>
10009d22:	3838      	subs	r0, #56	; 0x38
10009d24:	4b0e      	ldr	r3, [pc, #56]	; (10009d60 <ble_event_manager+0xfc>)
10009d26:	b2c0      	uxtb	r0, r0
10009d28:	681b      	ldr	r3, [r3, #0]
10009d2a:	2b00      	cmp	r3, #0
10009d2c:	d00b      	beq.n	10009d46 <ble_event_manager+0xe2>
10009d2e:	0080      	lsls	r0, r0, #2
10009d30:	58c3      	ldr	r3, [r0, r3]
10009d32:	2b00      	cmp	r3, #0
10009d34:	d007      	beq.n	10009d46 <ble_event_manager+0xe2>
10009d36:	1c28      	adds	r0, r5, #0
10009d38:	4798      	blx	r3
10009d3a:	e004      	b.n	10009d46 <ble_event_manager+0xe2>
10009d3c:	4b09      	ldr	r3, [pc, #36]	; (10009d64 <ble_event_manager+0x100>)
10009d3e:	681b      	ldr	r3, [r3, #0]
10009d40:	2b00      	cmp	r3, #0
10009d42:	d000      	beq.n	10009d46 <ble_event_manager+0xe2>
10009d44:	4798      	blx	r3
10009d46:	bd70      	pop	{r4, r5, r6, pc}
10009d48:	100105d8 	.word	0x100105d8
10009d4c:	10010874 	.word	0x10010874
10009d50:	10010888 	.word	0x10010888
10009d54:	100105dc 	.word	0x100105dc
10009d58:	100108c0 	.word	0x100108c0
10009d5c:	10010860 	.word	0x10010860
10009d60:	10010e04 	.word	0x10010e04
10009d64:	100102f4 	.word	0x100102f4

10009d68 <ble_event_task>:
10009d68:	b570      	push	{r4, r5, r6, lr}
10009d6a:	4e07      	ldr	r6, [pc, #28]	; (10009d88 <ble_event_task+0x20>)
10009d6c:	4d07      	ldr	r5, [pc, #28]	; (10009d8c <ble_event_task+0x24>)
10009d6e:	1c02      	adds	r2, r0, #0
10009d70:	1c29      	adds	r1, r5, #0
10009d72:	1c30      	adds	r0, r6, #0
10009d74:	4b06      	ldr	r3, [pc, #24]	; (10009d90 <ble_event_task+0x28>)
10009d76:	4798      	blx	r3
10009d78:	1e04      	subs	r4, r0, #0
10009d7a:	d103      	bne.n	10009d84 <ble_event_task+0x1c>
10009d7c:	7830      	ldrb	r0, [r6, #0]
10009d7e:	1c29      	adds	r1, r5, #0
10009d80:	4b04      	ldr	r3, [pc, #16]	; (10009d94 <ble_event_task+0x2c>)
10009d82:	4798      	blx	r3
10009d84:	1c20      	adds	r0, r4, #0
10009d86:	bd70      	pop	{r4, r5, r6, pc}
10009d88:	100108bc 	.word	0x100108bc
10009d8c:	10010bf8 	.word	0x10010bf8
10009d90:	1000ac45 	.word	0x1000ac45
10009d94:	10009c65 	.word	0x10009c65

10009d98 <ble_advertisement_data_set>:
10009d98:	b530      	push	{r4, r5, lr}
10009d9a:	b091      	sub	sp, #68	; 0x44
10009d9c:	2303      	movs	r3, #3
10009d9e:	466a      	mov	r2, sp
10009da0:	4669      	mov	r1, sp
10009da2:	7053      	strb	r3, [r2, #1]
10009da4:	220f      	movs	r2, #15
10009da6:	2409      	movs	r4, #9
10009da8:	708a      	strb	r2, [r1, #2]
10009daa:	700b      	strb	r3, [r1, #0]
10009dac:	3209      	adds	r2, #9
10009dae:	3307      	adds	r3, #7
10009db0:	70ca      	strb	r2, [r1, #3]
10009db2:	710b      	strb	r3, [r1, #4]
10009db4:	714c      	strb	r4, [r1, #5]
10009db6:	1c22      	adds	r2, r4, #0
10009db8:	4d0b      	ldr	r5, [pc, #44]	; (10009de8 <ble_advertisement_data_set+0x50>)
10009dba:	1d88      	adds	r0, r1, #6
10009dbc:	490b      	ldr	r1, [pc, #44]	; (10009dec <ble_advertisement_data_set+0x54>)
10009dbe:	47a8      	blx	r5
10009dc0:	466b      	mov	r3, sp
10009dc2:	466a      	mov	r2, sp
10009dc4:	73dc      	strb	r4, [r3, #15]
10009dc6:	2011      	movs	r0, #17
10009dc8:	23ff      	movs	r3, #255	; 0xff
10009dca:	4909      	ldr	r1, [pc, #36]	; (10009df0 <ble_advertisement_data_set+0x58>)
10009dcc:	7413      	strb	r3, [r2, #16]
10009dce:	4468      	add	r0, sp
10009dd0:	310d      	adds	r1, #13
10009dd2:	2208      	movs	r2, #8
10009dd4:	47a8      	blx	r5
10009dd6:	4668      	mov	r0, sp
10009dd8:	2119      	movs	r1, #25
10009dda:	aa08      	add	r2, sp, #32
10009ddc:	2300      	movs	r3, #0
10009dde:	4c05      	ldr	r4, [pc, #20]	; (10009df4 <ble_advertisement_data_set+0x5c>)
10009de0:	47a0      	blx	r4
10009de2:	2000      	movs	r0, #0
10009de4:	b011      	add	sp, #68	; 0x44
10009de6:	bd30      	pop	{r4, r5, pc}
10009de8:	1000f017 	.word	0x1000f017
10009dec:	1000fb88 	.word	0x1000fb88
10009df0:	1000fb48 	.word	0x1000fb48
10009df4:	1000b5d9 	.word	0x1000b5d9

10009df8 <register_ble_user_event_cb>:
10009df8:	4b01      	ldr	r3, [pc, #4]	; (10009e00 <register_ble_user_event_cb+0x8>)
10009dfa:	6018      	str	r0, [r3, #0]
10009dfc:	4770      	bx	lr
10009dfe:	46c0      	nop			; (mov r8, r8)
10009e00:	100102f4 	.word	0x100102f4

10009e04 <uart_read_complete_callback>:
10009e04:	2201      	movs	r2, #1
10009e06:	4b01      	ldr	r3, [pc, #4]	; (10009e0c <uart_read_complete_callback+0x8>)
10009e08:	701a      	strb	r2, [r3, #0]
10009e0a:	4770      	bx	lr
10009e0c:	10010300 	.word	0x10010300

10009e10 <usart_serial_getchar>:
10009e10:	b538      	push	{r3, r4, r5, lr}
10009e12:	1c05      	adds	r5, r0, #0
10009e14:	1c0c      	adds	r4, r1, #0
10009e16:	1c28      	adds	r0, r5, #0
10009e18:	1c21      	adds	r1, r4, #0
10009e1a:	4b02      	ldr	r3, [pc, #8]	; (10009e24 <usart_serial_getchar+0x14>)
10009e1c:	4798      	blx	r3
10009e1e:	2800      	cmp	r0, #0
10009e20:	d1f9      	bne.n	10009e16 <usart_serial_getchar+0x6>
10009e22:	bd38      	pop	{r3, r4, r5, pc}
10009e24:	10009117 	.word	0x10009117

10009e28 <usart_serial_putchar>:
10009e28:	b538      	push	{r3, r4, r5, lr}
10009e2a:	1c05      	adds	r5, r0, #0
10009e2c:	1c0c      	adds	r4, r1, #0
10009e2e:	1c28      	adds	r0, r5, #0
10009e30:	1c21      	adds	r1, r4, #0
10009e32:	4b02      	ldr	r3, [pc, #8]	; (10009e3c <usart_serial_putchar+0x14>)
10009e34:	4798      	blx	r3
10009e36:	2800      	cmp	r0, #0
10009e38:	d1f9      	bne.n	10009e2e <usart_serial_putchar+0x6>
10009e3a:	bd38      	pop	{r3, r4, r5, pc}
10009e3c:	10009109 	.word	0x10009109

10009e40 <serial_console_init>:
10009e40:	2000      	movs	r0, #0
10009e42:	b538      	push	{r3, r4, r5, lr}
10009e44:	1c01      	adds	r1, r0, #0
10009e46:	4b16      	ldr	r3, [pc, #88]	; (10009ea0 <serial_console_init+0x60>)
10009e48:	4798      	blx	r3
10009e4a:	4c16      	ldr	r4, [pc, #88]	; (10009ea4 <serial_console_init+0x64>)
10009e4c:	4b16      	ldr	r3, [pc, #88]	; (10009ea8 <serial_console_init+0x68>)
10009e4e:	1c20      	adds	r0, r4, #0
10009e50:	4798      	blx	r3
10009e52:	23e1      	movs	r3, #225	; 0xe1
10009e54:	025b      	lsls	r3, r3, #9
10009e56:	6023      	str	r3, [r4, #0]
10009e58:	2203      	movs	r2, #3
10009e5a:	2302      	movs	r3, #2
10009e5c:	60e2      	str	r2, [r4, #12]
10009e5e:	60a3      	str	r3, [r4, #8]
10009e60:	61a3      	str	r3, [r4, #24]
10009e62:	61e3      	str	r3, [r4, #28]
10009e64:	6223      	str	r3, [r4, #32]
10009e66:	6263      	str	r3, [r4, #36]	; 0x24
10009e68:	3201      	adds	r2, #1
10009e6a:	4b10      	ldr	r3, [pc, #64]	; (10009eac <serial_console_init+0x6c>)
10009e6c:	4810      	ldr	r0, [pc, #64]	; (10009eb0 <serial_console_init+0x70>)
10009e6e:	6122      	str	r2, [r4, #16]
10009e70:	3201      	adds	r2, #1
10009e72:	6018      	str	r0, [r3, #0]
10009e74:	6162      	str	r2, [r4, #20]
10009e76:	4b0f      	ldr	r3, [pc, #60]	; (10009eb4 <serial_console_init+0x74>)
10009e78:	4a0f      	ldr	r2, [pc, #60]	; (10009eb8 <serial_console_init+0x78>)
10009e7a:	4910      	ldr	r1, [pc, #64]	; (10009ebc <serial_console_init+0x7c>)
10009e7c:	601a      	str	r2, [r3, #0]
10009e7e:	4a10      	ldr	r2, [pc, #64]	; (10009ec0 <serial_console_init+0x80>)
10009e80:	4b10      	ldr	r3, [pc, #64]	; (10009ec4 <serial_console_init+0x84>)
10009e82:	601a      	str	r2, [r3, #0]
10009e84:	1c22      	adds	r2, r4, #0
10009e86:	4b10      	ldr	r3, [pc, #64]	; (10009ec8 <serial_console_init+0x88>)
10009e88:	4798      	blx	r3
10009e8a:	4d10      	ldr	r5, [pc, #64]	; (10009ecc <serial_console_init+0x8c>)
10009e8c:	4c10      	ldr	r4, [pc, #64]	; (10009ed0 <serial_console_init+0x90>)
10009e8e:	682b      	ldr	r3, [r5, #0]
10009e90:	2100      	movs	r1, #0
10009e92:	6898      	ldr	r0, [r3, #8]
10009e94:	47a0      	blx	r4
10009e96:	682b      	ldr	r3, [r5, #0]
10009e98:	2100      	movs	r1, #0
10009e9a:	6858      	ldr	r0, [r3, #4]
10009e9c:	47a0      	blx	r4
10009e9e:	bd38      	pop	{r3, r4, r5, pc}
10009ea0:	10008751 	.word	0x10008751
10009ea4:	10010e2c 	.word	0x10010e2c
10009ea8:	10008f81 	.word	0x10008f81
10009eac:	100105d4 	.word	0x100105d4
10009eb0:	10010e08 	.word	0x10010e08
10009eb4:	100105d0 	.word	0x100105d0
10009eb8:	10009e29 	.word	0x10009e29
10009ebc:	40004000 	.word	0x40004000
10009ec0:	10009e11 	.word	0x10009e11
10009ec4:	100105cc 	.word	0x100105cc
10009ec8:	10008fad 	.word	0x10008fad
10009ecc:	1000fde8 	.word	0x1000fde8
10009ed0:	1000f189 	.word	0x1000f189

10009ed4 <_time_start>:
10009ed4:	b5f7      	push	{r0, r1, r2, r4, r5, r6, r7, lr}
10009ed6:	4c0d      	ldr	r4, [pc, #52]	; (10009f0c <_time_start+0x38>)
10009ed8:	9001      	str	r0, [sp, #4]
10009eda:	47a0      	blx	r4
10009edc:	47a0      	blx	r4
10009ede:	4c0c      	ldr	r4, [pc, #48]	; (10009f10 <_time_start+0x3c>)
10009ee0:	47a0      	blx	r4
10009ee2:	4d0c      	ldr	r5, [pc, #48]	; (10009f14 <_time_start+0x40>)
10009ee4:	4a0c      	ldr	r2, [pc, #48]	; (10009f18 <_time_start+0x44>)
10009ee6:	4b0d      	ldr	r3, [pc, #52]	; (10009f1c <_time_start+0x48>)
10009ee8:	47a8      	blx	r5
10009eea:	1c06      	adds	r6, r0, #0
10009eec:	20fa      	movs	r0, #250	; 0xfa
10009eee:	9b01      	ldr	r3, [sp, #4]
10009ef0:	0080      	lsls	r0, r0, #2
10009ef2:	4358      	muls	r0, r3
10009ef4:	1c0f      	adds	r7, r1, #0
10009ef6:	47a0      	blx	r4
10009ef8:	1c02      	adds	r2, r0, #0
10009efa:	1c0b      	adds	r3, r1, #0
10009efc:	1c30      	adds	r0, r6, #0
10009efe:	1c39      	adds	r1, r7, #0
10009f00:	47a8      	blx	r5
10009f02:	4b07      	ldr	r3, [pc, #28]	; (10009f20 <_time_start+0x4c>)
10009f04:	4798      	blx	r3
10009f06:	4b07      	ldr	r3, [pc, #28]	; (10009f24 <_time_start+0x50>)
10009f08:	6018      	str	r0, [r3, #0]
10009f0a:	bdf7      	pop	{r0, r1, r2, r4, r5, r6, r7, pc}
10009f0c:	100087c9 	.word	0x100087c9
10009f10:	1000ec5d 	.word	0x1000ec5d
10009f14:	1000dfc9 	.word	0x1000dfc9
10009f18:	19feaec7 	.word	0x19feaec7
10009f1c:	3f09d8ef 	.word	0x3f09d8ef
10009f20:	1000df8d 	.word	0x1000df8d
10009f24:	10010304 	.word	0x10010304

10009f28 <_time_done>:
10009f28:	4b02      	ldr	r3, [pc, #8]	; (10009f34 <_time_done+0xc>)
10009f2a:	681a      	ldr	r2, [r3, #0]
10009f2c:	1e50      	subs	r0, r2, #1
10009f2e:	6018      	str	r0, [r3, #0]
10009f30:	4770      	bx	lr
10009f32:	46c0      	nop			; (mov r8, r8)
10009f34:	10010304 	.word	0x10010304

10009f38 <getchar_b11_timeout>:
10009f38:	b570      	push	{r4, r5, r6, lr}
10009f3a:	2400      	movs	r4, #0
10009f3c:	4e15      	ldr	r6, [pc, #84]	; (10009f94 <getchar_b11_timeout+0x5c>)
10009f3e:	4b16      	ldr	r3, [pc, #88]	; (10009f98 <getchar_b11_timeout+0x60>)
10009f40:	7034      	strb	r4, [r6, #0]
10009f42:	4798      	blx	r3
10009f44:	4d15      	ldr	r5, [pc, #84]	; (10009f9c <getchar_b11_timeout+0x64>)
10009f46:	2202      	movs	r2, #2
10009f48:	702c      	strb	r4, [r5, #0]
10009f4a:	4c15      	ldr	r4, [pc, #84]	; (10009fa0 <getchar_b11_timeout+0x68>)
10009f4c:	4915      	ldr	r1, [pc, #84]	; (10009fa4 <getchar_b11_timeout+0x6c>)
10009f4e:	1c20      	adds	r0, r4, #0
10009f50:	4b15      	ldr	r3, [pc, #84]	; (10009fa8 <getchar_b11_timeout+0x70>)
10009f52:	4798      	blx	r3
10009f54:	1c20      	adds	r0, r4, #0
10009f56:	2102      	movs	r1, #2
10009f58:	4b14      	ldr	r3, [pc, #80]	; (10009fac <getchar_b11_timeout+0x74>)
10009f5a:	4798      	blx	r3
10009f5c:	1c20      	adds	r0, r4, #0
10009f5e:	1c29      	adds	r1, r5, #0
10009f60:	2201      	movs	r2, #1
10009f62:	4b13      	ldr	r3, [pc, #76]	; (10009fb0 <getchar_b11_timeout+0x78>)
10009f64:	4798      	blx	r3
10009f66:	7833      	ldrb	r3, [r6, #0]
10009f68:	2b00      	cmp	r3, #0
10009f6a:	d00c      	beq.n	10009f86 <getchar_b11_timeout+0x4e>
10009f6c:	4b11      	ldr	r3, [pc, #68]	; (10009fb4 <getchar_b11_timeout+0x7c>)
10009f6e:	681b      	ldr	r3, [r3, #0]
10009f70:	2b00      	cmp	r3, #0
10009f72:	d10d      	bne.n	10009f90 <getchar_b11_timeout+0x58>
10009f74:	1c20      	adds	r0, r4, #0
10009f76:	2102      	movs	r1, #2
10009f78:	4b0f      	ldr	r3, [pc, #60]	; (10009fb8 <getchar_b11_timeout+0x80>)
10009f7a:	4798      	blx	r3
10009f7c:	1c20      	adds	r0, r4, #0
10009f7e:	2102      	movs	r1, #2
10009f80:	4b0e      	ldr	r3, [pc, #56]	; (10009fbc <getchar_b11_timeout+0x84>)
10009f82:	4798      	blx	r3
10009f84:	e004      	b.n	10009f90 <getchar_b11_timeout+0x58>
10009f86:	4b0e      	ldr	r3, [pc, #56]	; (10009fc0 <getchar_b11_timeout+0x88>)
10009f88:	4798      	blx	r3
10009f8a:	2800      	cmp	r0, #0
10009f8c:	d1eb      	bne.n	10009f66 <getchar_b11_timeout+0x2e>
10009f8e:	e7ed      	b.n	10009f6c <getchar_b11_timeout+0x34>
10009f90:	7828      	ldrb	r0, [r5, #0]
10009f92:	bd70      	pop	{r4, r5, r6, pc}
10009f94:	10010300 	.word	0x10010300
10009f98:	10009ed5 	.word	0x10009ed5
10009f9c:	10010308 	.word	0x10010308
10009fa0:	10010e08 	.word	0x10010e08
10009fa4:	10009e05 	.word	0x10009e05
10009fa8:	1000914d 	.word	0x1000914d
10009fac:	1000917b 	.word	0x1000917b
10009fb0:	10009127 	.word	0x10009127
10009fb4:	10010304 	.word	0x10010304
10009fb8:	10009163 	.word	0x10009163
10009fbc:	10009199 	.word	0x10009199
10009fc0:	10009f29 	.word	0x10009f29

10009fc4 <dualtimer_callback2>:
10009fc4:	b508      	push	{r3, lr}
10009fc6:	4802      	ldr	r0, [pc, #8]	; (10009fd0 <dualtimer_callback2+0xc>)
10009fc8:	4b02      	ldr	r3, [pc, #8]	; (10009fd4 <dualtimer_callback2+0x10>)
10009fca:	4798      	blx	r3
10009fcc:	bd08      	pop	{r3, pc}
10009fce:	46c0      	nop			; (mov r8, r8)
10009fd0:	1000fc04 	.word	0x1000fc04
10009fd4:	1000f0fd 	.word	0x1000f0fd

10009fd8 <hw_timer_init>:
10009fd8:	b500      	push	{lr}
10009fda:	b089      	sub	sp, #36	; 0x24
10009fdc:	a801      	add	r0, sp, #4
10009fde:	4b05      	ldr	r3, [pc, #20]	; (10009ff4 <hw_timer_init+0x1c>)
10009fe0:	4798      	blx	r3
10009fe2:	4b05      	ldr	r3, [pc, #20]	; (10009ff8 <hw_timer_init+0x20>)
10009fe4:	a801      	add	r0, sp, #4
10009fe6:	9303      	str	r3, [sp, #12]
10009fe8:	4b04      	ldr	r3, [pc, #16]	; (10009ffc <hw_timer_init+0x24>)
10009fea:	9306      	str	r3, [sp, #24]
10009fec:	4b04      	ldr	r3, [pc, #16]	; (1000a000 <hw_timer_init+0x28>)
10009fee:	4798      	blx	r3
10009ff0:	b009      	add	sp, #36	; 0x24
10009ff2:	bd00      	pop	{pc}
10009ff4:	100080fd 	.word	0x100080fd
10009ff8:	018cba80 	.word	0x018cba80
10009ffc:	03197500 	.word	0x03197500
1000a000:	1000816d 	.word	0x1000816d

1000a004 <hw_timer_register_callback>:
1000a004:	b510      	push	{r4, lr}
1000a006:	1c01      	adds	r1, r0, #0
1000a008:	4c07      	ldr	r4, [pc, #28]	; (1000a028 <hw_timer_register_callback+0x24>)
1000a00a:	2000      	movs	r0, #0
1000a00c:	47a0      	blx	r4
1000a00e:	4907      	ldr	r1, [pc, #28]	; (1000a02c <hw_timer_register_callback+0x28>)
1000a010:	2001      	movs	r0, #1
1000a012:	47a0      	blx	r4
1000a014:	4c06      	ldr	r4, [pc, #24]	; (1000a030 <hw_timer_register_callback+0x2c>)
1000a016:	2000      	movs	r0, #0
1000a018:	47a0      	blx	r4
1000a01a:	2001      	movs	r0, #1
1000a01c:	47a0      	blx	r4
1000a01e:	2280      	movs	r2, #128	; 0x80
1000a020:	4b04      	ldr	r3, [pc, #16]	; (1000a034 <hw_timer_register_callback+0x30>)
1000a022:	01d2      	lsls	r2, r2, #7
1000a024:	601a      	str	r2, [r3, #0]
1000a026:	bd10      	pop	{r4, pc}
1000a028:	10008279 	.word	0x10008279
1000a02c:	10009fc5 	.word	0x10009fc5
1000a030:	10008149 	.word	0x10008149
1000a034:	e000e100 	.word	0xe000e100

1000a038 <platform_event_free>:
1000a038:	4b02      	ldr	r3, [pc, #8]	; (1000a044 <platform_event_free+0xc>)
1000a03a:	681a      	ldr	r2, [r3, #0]
1000a03c:	6018      	str	r0, [r3, #0]
1000a03e:	6002      	str	r2, [r0, #0]
1000a040:	4770      	bx	lr
1000a042:	46c0      	nop			; (mov r8, r8)
1000a044:	10010310 	.word	0x10010310

1000a048 <platform_event_post>:
1000a048:	b530      	push	{r4, r5, lr}
1000a04a:	4c0c      	ldr	r4, [pc, #48]	; (1000a07c <platform_event_post+0x34>)
1000a04c:	6823      	ldr	r3, [r4, #0]
1000a04e:	2b00      	cmp	r3, #0
1000a050:	d012      	beq.n	1000a078 <platform_event_post+0x30>
1000a052:	681d      	ldr	r5, [r3, #0]
1000a054:	6099      	str	r1, [r3, #8]
1000a056:	6025      	str	r5, [r4, #0]
1000a058:	2400      	movs	r4, #0
1000a05a:	4909      	ldr	r1, [pc, #36]	; (1000a080 <platform_event_post+0x38>)
1000a05c:	80da      	strh	r2, [r3, #6]
1000a05e:	680a      	ldr	r2, [r1, #0]
1000a060:	601c      	str	r4, [r3, #0]
1000a062:	8098      	strh	r0, [r3, #4]
1000a064:	42a2      	cmp	r2, r4
1000a066:	d101      	bne.n	1000a06c <platform_event_post+0x24>
1000a068:	600b      	str	r3, [r1, #0]
1000a06a:	e005      	b.n	1000a078 <platform_event_post+0x30>
1000a06c:	6811      	ldr	r1, [r2, #0]
1000a06e:	2900      	cmp	r1, #0
1000a070:	d001      	beq.n	1000a076 <platform_event_post+0x2e>
1000a072:	1c0a      	adds	r2, r1, #0
1000a074:	e7fa      	b.n	1000a06c <platform_event_post+0x24>
1000a076:	6013      	str	r3, [r2, #0]
1000a078:	bd30      	pop	{r4, r5, pc}
1000a07a:	46c0      	nop			; (mov r8, r8)
1000a07c:	10010310 	.word	0x10010310
1000a080:	1001030c 	.word	0x1001030c

1000a084 <platform_event_init>:
1000a084:	b510      	push	{r4, lr}
1000a086:	2400      	movs	r4, #0
1000a088:	4b05      	ldr	r3, [pc, #20]	; (1000a0a0 <platform_event_init+0x1c>)
1000a08a:	601c      	str	r4, [r3, #0]
1000a08c:	4b05      	ldr	r3, [pc, #20]	; (1000a0a4 <platform_event_init+0x20>)
1000a08e:	601c      	str	r4, [r3, #0]
1000a090:	4805      	ldr	r0, [pc, #20]	; (1000a0a8 <platform_event_init+0x24>)
1000a092:	4b06      	ldr	r3, [pc, #24]	; (1000a0ac <platform_event_init+0x28>)
1000a094:	1900      	adds	r0, r0, r4
1000a096:	340c      	adds	r4, #12
1000a098:	4798      	blx	r3
1000a09a:	2c78      	cmp	r4, #120	; 0x78
1000a09c:	d1f8      	bne.n	1000a090 <platform_event_init+0xc>
1000a09e:	bd10      	pop	{r4, pc}
1000a0a0:	10010310 	.word	0x10010310
1000a0a4:	1001030c 	.word	0x1001030c
1000a0a8:	10010314 	.word	0x10010314
1000a0ac:	1000a039 	.word	0x1000a039

1000a0b0 <samb11_plf_resume_callback>:
1000a0b0:	b508      	push	{r3, lr}
1000a0b2:	4b06      	ldr	r3, [pc, #24]	; (1000a0cc <samb11_plf_resume_callback+0x1c>)
1000a0b4:	4a06      	ldr	r2, [pc, #24]	; (1000a0d0 <samb11_plf_resume_callback+0x20>)
1000a0b6:	6819      	ldr	r1, [r3, #0]
1000a0b8:	6011      	str	r1, [r2, #0]
1000a0ba:	685a      	ldr	r2, [r3, #4]
1000a0bc:	4b05      	ldr	r3, [pc, #20]	; (1000a0d4 <samb11_plf_resume_callback+0x24>)
1000a0be:	601a      	str	r2, [r3, #0]
1000a0c0:	4b05      	ldr	r3, [pc, #20]	; (1000a0d8 <samb11_plf_resume_callback+0x28>)
1000a0c2:	681b      	ldr	r3, [r3, #0]
1000a0c4:	2b00      	cmp	r3, #0
1000a0c6:	d000      	beq.n	1000a0ca <samb11_plf_resume_callback+0x1a>
1000a0c8:	4798      	blx	r3
1000a0ca:	bd08      	pop	{r3, pc}
1000a0cc:	10010e54 	.word	0x10010e54
1000a0d0:	4000b00c 	.word	0x4000b00c
1000a0d4:	4000b010 	.word	0x4000b010
1000a0d8:	10011128 	.word	0x10011128

1000a0dc <at_ke_msg_send>:
1000a0dc:	b510      	push	{r4, lr}
1000a0de:	4b11      	ldr	r3, [pc, #68]	; (1000a124 <at_ke_msg_send+0x48>)
1000a0e0:	681c      	ldr	r4, [r3, #0]
1000a0e2:	4b11      	ldr	r3, [pc, #68]	; (1000a128 <at_ke_msg_send+0x4c>)
1000a0e4:	681b      	ldr	r3, [r3, #0]
1000a0e6:	4798      	blx	r3
1000a0e8:	07e3      	lsls	r3, r4, #31
1000a0ea:	d414      	bmi.n	1000a116 <at_ke_msg_send+0x3a>
1000a0ec:	4b0f      	ldr	r3, [pc, #60]	; (1000a12c <at_ke_msg_send+0x50>)
1000a0ee:	2002      	movs	r0, #2
1000a0f0:	681b      	ldr	r3, [r3, #0]
1000a0f2:	4798      	blx	r3
1000a0f4:	4b0e      	ldr	r3, [pc, #56]	; (1000a130 <at_ke_msg_send+0x54>)
1000a0f6:	681b      	ldr	r3, [r3, #0]
1000a0f8:	4798      	blx	r3
1000a0fa:	4b0e      	ldr	r3, [pc, #56]	; (1000a134 <at_ke_msg_send+0x58>)
1000a0fc:	2003      	movs	r0, #3
1000a0fe:	681b      	ldr	r3, [r3, #0]
1000a100:	4798      	blx	r3
1000a102:	2800      	cmp	r0, #0
1000a104:	d1f9      	bne.n	1000a0fa <at_ke_msg_send+0x1e>
1000a106:	4b0c      	ldr	r3, [pc, #48]	; (1000a138 <at_ke_msg_send+0x5c>)
1000a108:	3002      	adds	r0, #2
1000a10a:	681b      	ldr	r3, [r3, #0]
1000a10c:	4798      	blx	r3
1000a10e:	2201      	movs	r2, #1
1000a110:	4b0a      	ldr	r3, [pc, #40]	; (1000a13c <at_ke_msg_send+0x60>)
1000a112:	601a      	str	r2, [r3, #0]
1000a114:	e004      	b.n	1000a120 <at_ke_msg_send+0x44>
1000a116:	4b0a      	ldr	r3, [pc, #40]	; (1000a140 <at_ke_msg_send+0x64>)
1000a118:	4a0a      	ldr	r2, [pc, #40]	; (1000a144 <at_ke_msg_send+0x68>)
1000a11a:	681b      	ldr	r3, [r3, #0]
1000a11c:	6810      	ldr	r0, [r2, #0]
1000a11e:	4798      	blx	r3
1000a120:	bd10      	pop	{r4, pc}
1000a122:	46c0      	nop			; (mov r8, r8)
1000a124:	4000b1ec 	.word	0x4000b1ec
1000a128:	100103c0 	.word	0x100103c0
1000a12c:	100103b8 	.word	0x100103b8
1000a130:	100103c8 	.word	0x100103c8
1000a134:	100103a0 	.word	0x100103a0
1000a138:	100103a8 	.word	0x100103a8
1000a13c:	4000b020 	.word	0x4000b020
1000a140:	10010398 	.word	0x10010398
1000a144:	100103ac 	.word	0x100103ac

1000a148 <init_port_list>:
1000a148:	b538      	push	{r3, r4, r5, lr}
1000a14a:	4c0f      	ldr	r4, [pc, #60]	; (1000a188 <init_port_list+0x40>)
1000a14c:	4b0f      	ldr	r3, [pc, #60]	; (1000a18c <init_port_list+0x44>)
1000a14e:	1c20      	adds	r0, r4, #0
1000a150:	2100      	movs	r1, #0
1000a152:	2232      	movs	r2, #50	; 0x32
1000a154:	4798      	blx	r3
1000a156:	2300      	movs	r3, #0
1000a158:	1c20      	adds	r0, r4, #0
1000a15a:	2401      	movs	r4, #1
1000a15c:	2502      	movs	r5, #2
1000a15e:	005a      	lsls	r2, r3, #1
1000a160:	5483      	strb	r3, [r0, r2]
1000a162:	1882      	adds	r2, r0, r2
1000a164:	7851      	ldrb	r1, [r2, #1]
1000a166:	191b      	adds	r3, r3, r4
1000a168:	4321      	orrs	r1, r4
1000a16a:	43a9      	bics	r1, r5
1000a16c:	7051      	strb	r1, [r2, #1]
1000a16e:	2b19      	cmp	r3, #25
1000a170:	d1f3      	bne.n	1000a15a <init_port_list+0x12>
1000a172:	7843      	ldrb	r3, [r0, #1]
1000a174:	43a3      	bics	r3, r4
1000a176:	7043      	strb	r3, [r0, #1]
1000a178:	78c3      	ldrb	r3, [r0, #3]
1000a17a:	43a3      	bics	r3, r4
1000a17c:	70c3      	strb	r3, [r0, #3]
1000a17e:	7f43      	ldrb	r3, [r0, #29]
1000a180:	43a3      	bics	r3, r4
1000a182:	7743      	strb	r3, [r0, #29]
1000a184:	bd38      	pop	{r3, r4, r5, pc}
1000a186:	46c0      	nop			; (mov r8, r8)
1000a188:	10010e6c 	.word	0x10010e6c
1000a18c:	1000f029 	.word	0x1000f029

1000a190 <init_clock>:
1000a190:	4a06      	ldr	r2, [pc, #24]	; (1000a1ac <init_clock+0x1c>)
1000a192:	4b07      	ldr	r3, [pc, #28]	; (1000a1b0 <init_clock+0x20>)
1000a194:	6811      	ldr	r1, [r2, #0]
1000a196:	400b      	ands	r3, r1
1000a198:	6013      	str	r3, [r2, #0]
1000a19a:	4a06      	ldr	r2, [pc, #24]	; (1000a1b4 <init_clock+0x24>)
1000a19c:	4906      	ldr	r1, [pc, #24]	; (1000a1b8 <init_clock+0x28>)
1000a19e:	6013      	str	r3, [r2, #0]
1000a1a0:	6808      	ldr	r0, [r1, #0]
1000a1a2:	4b06      	ldr	r3, [pc, #24]	; (1000a1bc <init_clock+0x2c>)
1000a1a4:	4003      	ands	r3, r0
1000a1a6:	600b      	str	r3, [r1, #0]
1000a1a8:	6053      	str	r3, [r2, #4]
1000a1aa:	4770      	bx	lr
1000a1ac:	4000b00c 	.word	0x4000b00c
1000a1b0:	fffe0fd3 	.word	0xfffe0fd3
1000a1b4:	10010e54 	.word	0x10010e54
1000a1b8:	4000b010 	.word	0x4000b010
1000a1bc:	ffffe7c0 	.word	0xffffe7c0

1000a1c0 <platform_driver_init>:
1000a1c0:	b5f8      	push	{r3, r4, r5, r6, r7, lr}
1000a1c2:	4b42      	ldr	r3, [pc, #264]	; (1000a2cc <platform_driver_init+0x10c>)
1000a1c4:	781a      	ldrb	r2, [r3, #0]
1000a1c6:	2a00      	cmp	r2, #0
1000a1c8:	d003      	beq.n	1000a1d2 <platform_driver_init+0x12>
1000a1ca:	7818      	ldrb	r0, [r3, #0]
1000a1cc:	b2c0      	uxtb	r0, r0
1000a1ce:	2801      	cmp	r0, #1
1000a1d0:	d079      	beq.n	1000a2c6 <platform_driver_init+0x106>
1000a1d2:	4b3f      	ldr	r3, [pc, #252]	; (1000a2d0 <platform_driver_init+0x110>)
1000a1d4:	4798      	blx	r3
1000a1d6:	2400      	movs	r4, #0
1000a1d8:	4b3e      	ldr	r3, [pc, #248]	; (1000a2d4 <platform_driver_init+0x114>)
1000a1da:	4798      	blx	r3
1000a1dc:	2280      	movs	r2, #128	; 0x80
1000a1de:	4b3e      	ldr	r3, [pc, #248]	; (1000a2d8 <platform_driver_init+0x118>)
1000a1e0:	0412      	lsls	r2, r2, #16
1000a1e2:	601c      	str	r4, [r3, #0]
1000a1e4:	4b3d      	ldr	r3, [pc, #244]	; (1000a2dc <platform_driver_init+0x11c>)
1000a1e6:	4d3e      	ldr	r5, [pc, #248]	; (1000a2e0 <platform_driver_init+0x120>)
1000a1e8:	67da      	str	r2, [r3, #124]	; 0x7c
1000a1ea:	2280      	movs	r2, #128	; 0x80
1000a1ec:	0452      	lsls	r2, r2, #17
1000a1ee:	67da      	str	r2, [r3, #124]	; 0x7c
1000a1f0:	4b3c      	ldr	r3, [pc, #240]	; (1000a2e4 <platform_driver_init+0x124>)
1000a1f2:	4a3d      	ldr	r2, [pc, #244]	; (1000a2e8 <platform_driver_init+0x128>)
1000a1f4:	602b      	str	r3, [r5, #0]
1000a1f6:	4b3d      	ldr	r3, [pc, #244]	; (1000a2ec <platform_driver_init+0x12c>)
1000a1f8:	493d      	ldr	r1, [pc, #244]	; (1000a2f0 <platform_driver_init+0x130>)
1000a1fa:	6013      	str	r3, [r2, #0]
1000a1fc:	4a3d      	ldr	r2, [pc, #244]	; (1000a2f4 <platform_driver_init+0x134>)
1000a1fe:	4e3e      	ldr	r6, [pc, #248]	; (1000a2f8 <platform_driver_init+0x138>)
1000a200:	6011      	str	r1, [r2, #0]
1000a202:	4a3e      	ldr	r2, [pc, #248]	; (1000a2fc <platform_driver_init+0x13c>)
1000a204:	2028      	movs	r0, #40	; 0x28
1000a206:	6811      	ldr	r1, [r2, #0]
1000a208:	4a3d      	ldr	r2, [pc, #244]	; (1000a300 <platform_driver_init+0x140>)
1000a20a:	4f3e      	ldr	r7, [pc, #248]	; (1000a304 <platform_driver_init+0x144>)
1000a20c:	6011      	str	r1, [r2, #0]
1000a20e:	4a3e      	ldr	r2, [pc, #248]	; (1000a308 <platform_driver_init+0x148>)
1000a210:	6811      	ldr	r1, [r2, #0]
1000a212:	4a3e      	ldr	r2, [pc, #248]	; (1000a30c <platform_driver_init+0x14c>)
1000a214:	6011      	str	r1, [r2, #0]
1000a216:	4a3e      	ldr	r2, [pc, #248]	; (1000a310 <platform_driver_init+0x150>)
1000a218:	493e      	ldr	r1, [pc, #248]	; (1000a314 <platform_driver_init+0x154>)
1000a21a:	6011      	str	r1, [r2, #0]
1000a21c:	4a3e      	ldr	r2, [pc, #248]	; (1000a318 <platform_driver_init+0x158>)
1000a21e:	493f      	ldr	r1, [pc, #252]	; (1000a31c <platform_driver_init+0x15c>)
1000a220:	6011      	str	r1, [r2, #0]
1000a222:	4a3f      	ldr	r2, [pc, #252]	; (1000a320 <platform_driver_init+0x160>)
1000a224:	493f      	ldr	r1, [pc, #252]	; (1000a324 <platform_driver_init+0x164>)
1000a226:	6032      	str	r2, [r6, #0]
1000a228:	4a3f      	ldr	r2, [pc, #252]	; (1000a328 <platform_driver_init+0x168>)
1000a22a:	6011      	str	r1, [r2, #0]
1000a22c:	4a3f      	ldr	r2, [pc, #252]	; (1000a32c <platform_driver_init+0x16c>)
1000a22e:	4940      	ldr	r1, [pc, #256]	; (1000a330 <platform_driver_init+0x170>)
1000a230:	6011      	str	r1, [r2, #0]
1000a232:	4a40      	ldr	r2, [pc, #256]	; (1000a334 <platform_driver_init+0x174>)
1000a234:	4940      	ldr	r1, [pc, #256]	; (1000a338 <platform_driver_init+0x178>)
1000a236:	6011      	str	r1, [r2, #0]
1000a238:	4a40      	ldr	r2, [pc, #256]	; (1000a33c <platform_driver_init+0x17c>)
1000a23a:	4941      	ldr	r1, [pc, #260]	; (1000a340 <platform_driver_init+0x180>)
1000a23c:	6011      	str	r1, [r2, #0]
1000a23e:	4a41      	ldr	r2, [pc, #260]	; (1000a344 <platform_driver_init+0x184>)
1000a240:	4941      	ldr	r1, [pc, #260]	; (1000a348 <platform_driver_init+0x188>)
1000a242:	6011      	str	r1, [r2, #0]
1000a244:	4a41      	ldr	r2, [pc, #260]	; (1000a34c <platform_driver_init+0x18c>)
1000a246:	4942      	ldr	r1, [pc, #264]	; (1000a350 <platform_driver_init+0x190>)
1000a248:	6011      	str	r1, [r2, #0]
1000a24a:	4798      	blx	r3
1000a24c:	4941      	ldr	r1, [pc, #260]	; (1000a354 <platform_driver_init+0x194>)
1000a24e:	682b      	ldr	r3, [r5, #0]
1000a250:	2028      	movs	r0, #40	; 0x28
1000a252:	4798      	blx	r3
1000a254:	682b      	ldr	r3, [r5, #0]
1000a256:	4940      	ldr	r1, [pc, #256]	; (1000a358 <platform_driver_init+0x198>)
1000a258:	2027      	movs	r0, #39	; 0x27
1000a25a:	4798      	blx	r3
1000a25c:	4b3f      	ldr	r3, [pc, #252]	; (1000a35c <platform_driver_init+0x19c>)
1000a25e:	1c21      	adds	r1, r4, #0
1000a260:	681a      	ldr	r2, [r3, #0]
1000a262:	4b3f      	ldr	r3, [pc, #252]	; (1000a360 <platform_driver_init+0x1a0>)
1000a264:	483f      	ldr	r0, [pc, #252]	; (1000a364 <platform_driver_init+0x1a4>)
1000a266:	601a      	str	r2, [r3, #0]
1000a268:	4b3f      	ldr	r3, [pc, #252]	; (1000a368 <platform_driver_init+0x1a8>)
1000a26a:	4a40      	ldr	r2, [pc, #256]	; (1000a36c <platform_driver_init+0x1ac>)
1000a26c:	601a      	str	r2, [r3, #0]
1000a26e:	4b40      	ldr	r3, [pc, #256]	; (1000a370 <platform_driver_init+0x1b0>)
1000a270:	4a40      	ldr	r2, [pc, #256]	; (1000a374 <platform_driver_init+0x1b4>)
1000a272:	601a      	str	r2, [r3, #0]
1000a274:	4b40      	ldr	r3, [pc, #256]	; (1000a378 <platform_driver_init+0x1b8>)
1000a276:	4a41      	ldr	r2, [pc, #260]	; (1000a37c <platform_driver_init+0x1bc>)
1000a278:	601a      	str	r2, [r3, #0]
1000a27a:	4b41      	ldr	r3, [pc, #260]	; (1000a380 <platform_driver_init+0x1c0>)
1000a27c:	4a41      	ldr	r2, [pc, #260]	; (1000a384 <platform_driver_init+0x1c4>)
1000a27e:	601a      	str	r2, [r3, #0]
1000a280:	4b41      	ldr	r3, [pc, #260]	; (1000a388 <platform_driver_init+0x1c8>)
1000a282:	4a42      	ldr	r2, [pc, #264]	; (1000a38c <platform_driver_init+0x1cc>)
1000a284:	601a      	str	r2, [r3, #0]
1000a286:	4b42      	ldr	r3, [pc, #264]	; (1000a390 <platform_driver_init+0x1d0>)
1000a288:	4a42      	ldr	r2, [pc, #264]	; (1000a394 <platform_driver_init+0x1d4>)
1000a28a:	601a      	str	r2, [r3, #0]
1000a28c:	4b42      	ldr	r3, [pc, #264]	; (1000a398 <platform_driver_init+0x1d8>)
1000a28e:	4a43      	ldr	r2, [pc, #268]	; (1000a39c <platform_driver_init+0x1dc>)
1000a290:	601a      	str	r2, [r3, #0]
1000a292:	22a0      	movs	r2, #160	; 0xa0
1000a294:	4b42      	ldr	r3, [pc, #264]	; (1000a3a0 <platform_driver_init+0x1e0>)
1000a296:	0092      	lsls	r2, r2, #2
1000a298:	4798      	blx	r3
1000a29a:	2280      	movs	r2, #128	; 0x80
1000a29c:	4b41      	ldr	r3, [pc, #260]	; (1000a3a4 <platform_driver_init+0x1e4>)
1000a29e:	0092      	lsls	r2, r2, #2
1000a2a0:	801a      	strh	r2, [r3, #0]
1000a2a2:	4b41      	ldr	r3, [pc, #260]	; (1000a3a8 <platform_driver_init+0x1e8>)
1000a2a4:	4798      	blx	r3
1000a2a6:	2380      	movs	r3, #128	; 0x80
1000a2a8:	041b      	lsls	r3, r3, #16
1000a2aa:	603b      	str	r3, [r7, #0]
1000a2ac:	2380      	movs	r3, #128	; 0x80
1000a2ae:	045b      	lsls	r3, r3, #17
1000a2b0:	603b      	str	r3, [r7, #0]
1000a2b2:	4b3e      	ldr	r3, [pc, #248]	; (1000a3ac <platform_driver_init+0x1ec>)
1000a2b4:	4a3e      	ldr	r2, [pc, #248]	; (1000a3b0 <platform_driver_init+0x1f0>)
1000a2b6:	601c      	str	r4, [r3, #0]
1000a2b8:	6833      	ldr	r3, [r6, #0]
1000a2ba:	1c20      	adds	r0, r4, #0
1000a2bc:	601a      	str	r2, [r3, #0]
1000a2be:	2201      	movs	r2, #1
1000a2c0:	4b02      	ldr	r3, [pc, #8]	; (1000a2cc <platform_driver_init+0x10c>)
1000a2c2:	701a      	strb	r2, [r3, #0]
1000a2c4:	e000      	b.n	1000a2c8 <platform_driver_init+0x108>
1000a2c6:	7018      	strb	r0, [r3, #0]
1000a2c8:	bdf8      	pop	{r3, r4, r5, r6, r7, pc}
1000a2ca:	46c0      	nop			; (mov r8, r8)
1000a2cc:	100103a4 	.word	0x100103a4
1000a2d0:	1000a149 	.word	0x1000a149
1000a2d4:	1000a191 	.word	0x1000a191
1000a2d8:	100103c4 	.word	0x100103c4
1000a2dc:	e000e104 	.word	0xe000e104
1000a2e0:	10011120 	.word	0x10011120
1000a2e4:	000007d7 	.word	0x000007d7
1000a2e8:	10010e60 	.word	0x10010e60
1000a2ec:	000007bd 	.word	0x000007bd
1000a2f0:	0001bc51 	.word	0x0001bc51
1000a2f4:	10011124 	.word	0x10011124
1000a2f8:	10011130 	.word	0x10011130
1000a2fc:	100400bc 	.word	0x100400bc
1000a300:	10010394 	.word	0x10010394
1000a304:	e000e100 	.word	0xe000e100
1000a308:	100400b8 	.word	0x100400b8
1000a30c:	10010390 	.word	0x10010390
1000a310:	10010e5c 	.word	0x10010e5c
1000a314:	0001b99f 	.word	0x0001b99f
1000a318:	10010e64 	.word	0x10010e64
1000a31c:	0001b9db 	.word	0x0001b9db
1000a320:	1004003c 	.word	0x1004003c
1000a324:	10041fc0 	.word	0x10041fc0
1000a328:	10010e68 	.word	0x10010e68
1000a32c:	1001112c 	.word	0x1001112c
1000a330:	10041fc4 	.word	0x10041fc4
1000a334:	100103b8 	.word	0x100103b8
1000a338:	0001cbe9 	.word	0x0001cbe9
1000a33c:	100103a8 	.word	0x100103a8
1000a340:	0001cd8f 	.word	0x0001cd8f
1000a344:	100103c8 	.word	0x100103c8
1000a348:	0001cea3 	.word	0x0001cea3
1000a34c:	100103a0 	.word	0x100103a0
1000a350:	0001cbcf 	.word	0x0001cbcf
1000a354:	1000a7b9 	.word	0x1000a7b9
1000a358:	1000a761 	.word	0x1000a761
1000a35c:	100400e4 	.word	0x100400e4
1000a360:	100103c0 	.word	0x100103c0
1000a364:	10010e9e 	.word	0x10010e9e
1000a368:	100103cc 	.word	0x100103cc
1000a36c:	00019fe9 	.word	0x00019fe9
1000a370:	10010398 	.word	0x10010398
1000a374:	0001dbdd 	.word	0x0001dbdd
1000a378:	100103b0 	.word	0x100103b0
1000a37c:	0001dc5b 	.word	0x0001dc5b
1000a380:	100103ac 	.word	0x100103ac
1000a384:	100405ec 	.word	0x100405ec
1000a388:	100103bc 	.word	0x100103bc
1000a38c:	0001d5e3 	.word	0x0001d5e3
1000a390:	100103d0 	.word	0x100103d0
1000a394:	10040c20 	.word	0x10040c20
1000a398:	1001038c 	.word	0x1001038c
1000a39c:	00019f09 	.word	0x00019f09
1000a3a0:	1000f029 	.word	0x1000f029
1000a3a4:	10011134 	.word	0x10011134
1000a3a8:	1000a085 	.word	0x1000a085
1000a3ac:	10011128 	.word	0x10011128
1000a3b0:	1000a0b1 	.word	0x1000a0b1

1000a3b4 <platform_register_ble_msg_handler>:
1000a3b4:	4b04      	ldr	r3, [pc, #16]	; (1000a3c8 <platform_register_ble_msg_handler+0x14>)
1000a3b6:	781a      	ldrb	r2, [r3, #0]
1000a3b8:	2305      	movs	r3, #5
1000a3ba:	2a01      	cmp	r2, #1
1000a3bc:	d102      	bne.n	1000a3c4 <platform_register_ble_msg_handler+0x10>
1000a3be:	4b03      	ldr	r3, [pc, #12]	; (1000a3cc <platform_register_ble_msg_handler+0x18>)
1000a3c0:	6018      	str	r0, [r3, #0]
1000a3c2:	2300      	movs	r3, #0
1000a3c4:	1c18      	adds	r0, r3, #0
1000a3c6:	4770      	bx	lr
1000a3c8:	100103a4 	.word	0x100103a4
1000a3cc:	100103c4 	.word	0x100103c4

1000a3d0 <platform_interface_send>:
1000a3d0:	b570      	push	{r4, r5, r6, lr}
1000a3d2:	4b0d      	ldr	r3, [pc, #52]	; (1000a408 <platform_interface_send+0x38>)
1000a3d4:	1c04      	adds	r4, r0, #0
1000a3d6:	681b      	ldr	r3, [r3, #0]
1000a3d8:	8840      	ldrh	r0, [r0, #2]
1000a3da:	2b00      	cmp	r3, #0
1000a3dc:	d001      	beq.n	1000a3e2 <platform_interface_send+0x12>
1000a3de:	4798      	blx	r3
1000a3e0:	8060      	strh	r0, [r4, #2]
1000a3e2:	4d0a      	ldr	r5, [pc, #40]	; (1000a40c <platform_interface_send+0x3c>)
1000a3e4:	88a2      	ldrh	r2, [r4, #4]
1000a3e6:	682d      	ldr	r5, [r5, #0]
1000a3e8:	8820      	ldrh	r0, [r4, #0]
1000a3ea:	8861      	ldrh	r1, [r4, #2]
1000a3ec:	88e3      	ldrh	r3, [r4, #6]
1000a3ee:	47a8      	blx	r5
1000a3f0:	88e2      	ldrh	r2, [r4, #6]
1000a3f2:	1c05      	adds	r5, r0, #0
1000a3f4:	4e06      	ldr	r6, [pc, #24]	; (1000a410 <platform_interface_send+0x40>)
1000a3f6:	2a00      	cmp	r2, #0
1000a3f8:	d003      	beq.n	1000a402 <platform_interface_send+0x32>
1000a3fa:	1c21      	adds	r1, r4, #0
1000a3fc:	4b05      	ldr	r3, [pc, #20]	; (1000a414 <platform_interface_send+0x44>)
1000a3fe:	3108      	adds	r1, #8
1000a400:	4798      	blx	r3
1000a402:	1c28      	adds	r0, r5, #0
1000a404:	47b0      	blx	r6
1000a406:	bd70      	pop	{r4, r5, r6, pc}
1000a408:	10010394 	.word	0x10010394
1000a40c:	100103cc 	.word	0x100103cc
1000a410:	1000a0dd 	.word	0x1000a0dd
1000a414:	1000f017 	.word	0x1000f017

1000a418 <send_plf_int_msg_ind>:
1000a418:	b5f8      	push	{r3, r4, r5, r6, r7, lr}
1000a41a:	1c1d      	adds	r5, r3, #0
1000a41c:	1c16      	adds	r6, r2, #0
1000a41e:	4b0f      	ldr	r3, [pc, #60]	; (1000a45c <send_plf_int_msg_ind+0x44>)
1000a420:	4a0f      	ldr	r2, [pc, #60]	; (1000a460 <send_plf_int_msg_ind+0x48>)
1000a422:	1c04      	adds	r4, r0, #0
1000a424:	1c0f      	adds	r7, r1, #0
1000a426:	681b      	ldr	r3, [r3, #0]
1000a428:	6810      	ldr	r0, [r2, #0]
1000a42a:	4798      	blx	r3
1000a42c:	20a0      	movs	r0, #160	; 0xa0
1000a42e:	4b0d      	ldr	r3, [pc, #52]	; (1000a464 <send_plf_int_msg_ind+0x4c>)
1000a430:	023a      	lsls	r2, r7, #8
1000a432:	4322      	orrs	r2, r4
1000a434:	00c0      	lsls	r0, r0, #3
1000a436:	681c      	ldr	r4, [r3, #0]
1000a438:	2105      	movs	r1, #5
1000a43a:	1c2b      	adds	r3, r5, #0
1000a43c:	47a0      	blx	r4
1000a43e:	1e04      	subs	r4, r0, #0
1000a440:	d00a      	beq.n	1000a458 <send_plf_int_msg_ind+0x40>
1000a442:	2d00      	cmp	r5, #0
1000a444:	d005      	beq.n	1000a452 <send_plf_int_msg_ind+0x3a>
1000a446:	2e00      	cmp	r6, #0
1000a448:	d003      	beq.n	1000a452 <send_plf_int_msg_ind+0x3a>
1000a44a:	1c31      	adds	r1, r6, #0
1000a44c:	1c2a      	adds	r2, r5, #0
1000a44e:	4b06      	ldr	r3, [pc, #24]	; (1000a468 <send_plf_int_msg_ind+0x50>)
1000a450:	4798      	blx	r3
1000a452:	1c20      	adds	r0, r4, #0
1000a454:	4b05      	ldr	r3, [pc, #20]	; (1000a46c <send_plf_int_msg_ind+0x54>)
1000a456:	4798      	blx	r3
1000a458:	bdf8      	pop	{r3, r4, r5, r6, r7, pc}
1000a45a:	46c0      	nop			; (mov r8, r8)
1000a45c:	10010398 	.word	0x10010398
1000a460:	100103ac 	.word	0x100103ac
1000a464:	100103cc 	.word	0x100103cc
1000a468:	1000f017 	.word	0x1000f017
1000a46c:	1000a0dd 	.word	0x1000a0dd

1000a470 <platform_event_wait>:
1000a470:	2300      	movs	r3, #0
1000a472:	b5f0      	push	{r4, r5, r6, r7, lr}
1000a474:	1e44      	subs	r4, r0, #1
1000a476:	b089      	sub	sp, #36	; 0x24
1000a478:	9302      	str	r3, [sp, #8]
1000a47a:	1ce3      	adds	r3, r4, #3
1000a47c:	d81b      	bhi.n	1000a4b6 <platform_event_wait+0x46>
1000a47e:	2100      	movs	r1, #0
1000a480:	220d      	movs	r2, #13
1000a482:	4b6c      	ldr	r3, [pc, #432]	; (1000a634 <platform_event_wait+0x1c4>)
1000a484:	a804      	add	r0, sp, #16
1000a486:	4798      	blx	r3
1000a488:	2319      	movs	r3, #25
1000a48a:	aa04      	add	r2, sp, #16
1000a48c:	7013      	strb	r3, [r2, #0]
1000a48e:	3b16      	subs	r3, #22
1000a490:	7053      	strb	r3, [r2, #1]
1000a492:	7093      	strb	r3, [r2, #2]
1000a494:	3302      	adds	r3, #2
1000a496:	7113      	strb	r3, [r2, #4]
1000a498:	7193      	strb	r3, [r2, #6]
1000a49a:	0a23      	lsrs	r3, r4, #8
1000a49c:	7214      	strb	r4, [r2, #8]
1000a49e:	7253      	strb	r3, [r2, #9]
1000a4a0:	0c23      	lsrs	r3, r4, #16
1000a4a2:	0e24      	lsrs	r4, r4, #24
1000a4a4:	72d4      	strb	r4, [r2, #11]
1000a4a6:	2401      	movs	r4, #1
1000a4a8:	7293      	strb	r3, [r2, #10]
1000a4aa:	1c10      	adds	r0, r2, #0
1000a4ac:	210d      	movs	r1, #13
1000a4ae:	4b62      	ldr	r3, [pc, #392]	; (1000a638 <platform_event_wait+0x1c8>)
1000a4b0:	7314      	strb	r4, [r2, #12]
1000a4b2:	4798      	blx	r3
1000a4b4:	9402      	str	r4, [sp, #8]
1000a4b6:	2400      	movs	r4, #0
1000a4b8:	9401      	str	r4, [sp, #4]
1000a4ba:	4d60      	ldr	r5, [pc, #384]	; (1000a63c <platform_event_wait+0x1cc>)
1000a4bc:	4b60      	ldr	r3, [pc, #384]	; (1000a640 <platform_event_wait+0x1d0>)
1000a4be:	4a61      	ldr	r2, [pc, #388]	; (1000a644 <platform_event_wait+0x1d4>)
1000a4c0:	1c29      	adds	r1, r5, #0
1000a4c2:	681b      	ldr	r3, [r3, #0]
1000a4c4:	6810      	ldr	r0, [r2, #0]
1000a4c6:	4798      	blx	r3
1000a4c8:	1e01      	subs	r1, r0, #0
1000a4ca:	d000      	beq.n	1000a4ce <platform_event_wait+0x5e>
1000a4cc:	e07b      	b.n	1000a5c6 <platform_event_wait+0x156>
1000a4ce:	682c      	ldr	r4, [r5, #0]
1000a4d0:	8923      	ldrh	r3, [r4, #8]
1000a4d2:	88a5      	ldrh	r5, [r4, #4]
1000a4d4:	9303      	str	r3, [sp, #12]
1000a4d6:	23cd      	movs	r3, #205	; 0xcd
1000a4d8:	8967      	ldrh	r7, [r4, #10]
1000a4da:	009b      	lsls	r3, r3, #2
1000a4dc:	429d      	cmp	r5, r3
1000a4de:	d035      	beq.n	1000a54c <platform_event_wait+0xdc>
1000a4e0:	9b02      	ldr	r3, [sp, #8]
1000a4e2:	2b00      	cmp	r3, #0
1000a4e4:	d010      	beq.n	1000a508 <platform_event_wait+0x98>
1000a4e6:	220d      	movs	r2, #13
1000a4e8:	4b52      	ldr	r3, [pc, #328]	; (1000a634 <platform_event_wait+0x1c4>)
1000a4ea:	a804      	add	r0, sp, #16
1000a4ec:	4798      	blx	r3
1000a4ee:	2319      	movs	r3, #25
1000a4f0:	aa04      	add	r2, sp, #16
1000a4f2:	7013      	strb	r3, [r2, #0]
1000a4f4:	3b16      	subs	r3, #22
1000a4f6:	7053      	strb	r3, [r2, #1]
1000a4f8:	7093      	strb	r3, [r2, #2]
1000a4fa:	3302      	adds	r3, #2
1000a4fc:	7113      	strb	r3, [r2, #4]
1000a4fe:	7193      	strb	r3, [r2, #6]
1000a500:	1c10      	adds	r0, r2, #0
1000a502:	210d      	movs	r1, #13
1000a504:	4b4c      	ldr	r3, [pc, #304]	; (1000a638 <platform_event_wait+0x1c8>)
1000a506:	4798      	blx	r3
1000a508:	23a0      	movs	r3, #160	; 0xa0
1000a50a:	00db      	lsls	r3, r3, #3
1000a50c:	429d      	cmp	r5, r3
1000a50e:	d11d      	bne.n	1000a54c <platform_event_wait+0xdc>
1000a510:	22a0      	movs	r2, #160	; 0xa0
1000a512:	4d4d      	ldr	r5, [pc, #308]	; (1000a648 <platform_event_wait+0x1d8>)
1000a514:	0092      	lsls	r2, r2, #2
1000a516:	882b      	ldrh	r3, [r5, #0]
1000a518:	19db      	adds	r3, r3, r7
1000a51a:	4293      	cmp	r3, r2
1000a51c:	dd02      	ble.n	1000a524 <platform_event_wait+0xb4>
1000a51e:	2380      	movs	r3, #128	; 0x80
1000a520:	009b      	lsls	r3, r3, #2
1000a522:	802b      	strh	r3, [r5, #0]
1000a524:	1c21      	adds	r1, r4, #0
1000a526:	4b49      	ldr	r3, [pc, #292]	; (1000a64c <platform_event_wait+0x1dc>)
1000a528:	882e      	ldrh	r6, [r5, #0]
1000a52a:	1c3a      	adds	r2, r7, #0
1000a52c:	18f6      	adds	r6, r6, r3
1000a52e:	310c      	adds	r1, #12
1000a530:	4b47      	ldr	r3, [pc, #284]	; (1000a650 <platform_event_wait+0x1e0>)
1000a532:	1c30      	adds	r0, r6, #0
1000a534:	4798      	blx	r3
1000a536:	1c3a      	adds	r2, r7, #0
1000a538:	4b46      	ldr	r3, [pc, #280]	; (1000a654 <platform_event_wait+0x1e4>)
1000a53a:	9803      	ldr	r0, [sp, #12]
1000a53c:	1c31      	adds	r1, r6, #0
1000a53e:	4798      	blx	r3
1000a540:	882b      	ldrh	r3, [r5, #0]
1000a542:	2400      	movs	r4, #0
1000a544:	18ff      	adds	r7, r7, r3
1000a546:	802f      	strh	r7, [r5, #0]
1000a548:	2302      	movs	r3, #2
1000a54a:	e035      	b.n	1000a5b8 <platform_event_wait+0x148>
1000a54c:	4f42      	ldr	r7, [pc, #264]	; (1000a658 <platform_event_wait+0x1e8>)
1000a54e:	683c      	ldr	r4, [r7, #0]
1000a550:	2c00      	cmp	r4, #0
1000a552:	d032      	beq.n	1000a5ba <platform_event_wait+0x14a>
1000a554:	21cd      	movs	r1, #205	; 0xcd
1000a556:	4d39      	ldr	r5, [pc, #228]	; (1000a63c <platform_event_wait+0x1cc>)
1000a558:	0089      	lsls	r1, r1, #2
1000a55a:	682a      	ldr	r2, [r5, #0]
1000a55c:	8893      	ldrh	r3, [r2, #4]
1000a55e:	428b      	cmp	r3, r1
1000a560:	d106      	bne.n	1000a570 <platform_event_wait+0x100>
1000a562:	9b02      	ldr	r3, [sp, #8]
1000a564:	2401      	movs	r4, #1
1000a566:	2b00      	cmp	r3, #0
1000a568:	d027      	beq.n	1000a5ba <platform_event_wait+0x14a>
1000a56a:	2400      	movs	r4, #0
1000a56c:	23d0      	movs	r3, #208	; 0xd0
1000a56e:	e023      	b.n	1000a5b8 <platform_event_wait+0x148>
1000a570:	4c36      	ldr	r4, [pc, #216]	; (1000a64c <platform_event_wait+0x1dc>)
1000a572:	4e3a      	ldr	r6, [pc, #232]	; (1000a65c <platform_event_wait+0x1ec>)
1000a574:	7023      	strb	r3, [r4, #0]
1000a576:	0a1b      	lsrs	r3, r3, #8
1000a578:	7063      	strb	r3, [r4, #1]
1000a57a:	4b39      	ldr	r3, [pc, #228]	; (1000a660 <platform_event_wait+0x1f0>)
1000a57c:	6034      	str	r4, [r6, #0]
1000a57e:	8910      	ldrh	r0, [r2, #8]
1000a580:	681b      	ldr	r3, [r3, #0]
1000a582:	4798      	blx	r3
1000a584:	682b      	ldr	r3, [r5, #0]
1000a586:	7120      	strb	r0, [r4, #4]
1000a588:	0a00      	lsrs	r0, r0, #8
1000a58a:	7160      	strb	r0, [r4, #5]
1000a58c:	88db      	ldrh	r3, [r3, #6]
1000a58e:	6830      	ldr	r0, [r6, #0]
1000a590:	8043      	strh	r3, [r0, #2]
1000a592:	682d      	ldr	r5, [r5, #0]
1000a594:	896b      	ldrh	r3, [r5, #10]
1000a596:	80c3      	strh	r3, [r0, #6]
1000a598:	3008      	adds	r0, #8
1000a59a:	6030      	str	r0, [r6, #0]
1000a59c:	896a      	ldrh	r2, [r5, #10]
1000a59e:	2a00      	cmp	r2, #0
1000a5a0:	d003      	beq.n	1000a5aa <platform_event_wait+0x13a>
1000a5a2:	1c29      	adds	r1, r5, #0
1000a5a4:	4b2a      	ldr	r3, [pc, #168]	; (1000a650 <platform_event_wait+0x1e0>)
1000a5a6:	310c      	adds	r1, #12
1000a5a8:	4798      	blx	r3
1000a5aa:	8969      	ldrh	r1, [r5, #10]
1000a5ac:	683b      	ldr	r3, [r7, #0]
1000a5ae:	1c20      	adds	r0, r4, #0
1000a5b0:	3108      	adds	r1, #8
1000a5b2:	4798      	blx	r3
1000a5b4:	2400      	movs	r4, #0
1000a5b6:	2303      	movs	r3, #3
1000a5b8:	9301      	str	r3, [sp, #4]
1000a5ba:	4a20      	ldr	r2, [pc, #128]	; (1000a63c <platform_event_wait+0x1cc>)
1000a5bc:	4b29      	ldr	r3, [pc, #164]	; (1000a664 <platform_event_wait+0x1f4>)
1000a5be:	6810      	ldr	r0, [r2, #0]
1000a5c0:	681b      	ldr	r3, [r3, #0]
1000a5c2:	4798      	blx	r3
1000a5c4:	e001      	b.n	1000a5ca <platform_event_wait+0x15a>
1000a5c6:	2307      	movs	r3, #7
1000a5c8:	9301      	str	r3, [sp, #4]
1000a5ca:	2c00      	cmp	r4, #0
1000a5cc:	d000      	beq.n	1000a5d0 <platform_event_wait+0x160>
1000a5ce:	e774      	b.n	1000a4ba <platform_event_wait+0x4a>
1000a5d0:	9b02      	ldr	r3, [sp, #8]
1000a5d2:	2b00      	cmp	r3, #0
1000a5d4:	d02b      	beq.n	1000a62e <platform_event_wait+0x1be>
1000a5d6:	4b1b      	ldr	r3, [pc, #108]	; (1000a644 <platform_event_wait+0x1d4>)
1000a5d8:	681e      	ldr	r6, [r3, #0]
1000a5da:	2e00      	cmp	r6, #0
1000a5dc:	d101      	bne.n	1000a5e2 <platform_event_wait+0x172>
1000a5de:	6a23      	ldr	r3, [r4, #32]
1000a5e0:	deff      	udf	#255	; 0xff
1000a5e2:	1c37      	adds	r7, r6, #0
1000a5e4:	4b20      	ldr	r3, [pc, #128]	; (1000a668 <platform_event_wait+0x1f8>)
1000a5e6:	3714      	adds	r7, #20
1000a5e8:	681b      	ldr	r3, [r3, #0]
1000a5ea:	1c38      	adds	r0, r7, #0
1000a5ec:	6a35      	ldr	r5, [r6, #32]
1000a5ee:	4798      	blx	r3
1000a5f0:	2d00      	cmp	r5, #0
1000a5f2:	d018      	beq.n	1000a626 <platform_event_wait+0x1b6>
1000a5f4:	22cd      	movs	r2, #205	; 0xcd
1000a5f6:	682b      	ldr	r3, [r5, #0]
1000a5f8:	0092      	lsls	r2, r2, #2
1000a5fa:	8899      	ldrh	r1, [r3, #4]
1000a5fc:	68ab      	ldr	r3, [r5, #8]
1000a5fe:	4291      	cmp	r1, r2
1000a600:	d10e      	bne.n	1000a620 <platform_event_wait+0x1b0>
1000a602:	4a18      	ldr	r2, [pc, #96]	; (1000a664 <platform_event_wait+0x1f4>)
1000a604:	2c00      	cmp	r4, #0
1000a606:	d005      	beq.n	1000a614 <platform_event_wait+0x1a4>
1000a608:	60a3      	str	r3, [r4, #8]
1000a60a:	1c28      	adds	r0, r5, #0
1000a60c:	6813      	ldr	r3, [r2, #0]
1000a60e:	4798      	blx	r3
1000a610:	68a5      	ldr	r5, [r4, #8]
1000a612:	e7ed      	b.n	1000a5f0 <platform_event_wait+0x180>
1000a614:	6233      	str	r3, [r6, #32]
1000a616:	1c28      	adds	r0, r5, #0
1000a618:	6813      	ldr	r3, [r2, #0]
1000a61a:	4798      	blx	r3
1000a61c:	6a35      	ldr	r5, [r6, #32]
1000a61e:	e7e7      	b.n	1000a5f0 <platform_event_wait+0x180>
1000a620:	1c2c      	adds	r4, r5, #0
1000a622:	1c1d      	adds	r5, r3, #0
1000a624:	e7e4      	b.n	1000a5f0 <platform_event_wait+0x180>
1000a626:	4b11      	ldr	r3, [pc, #68]	; (1000a66c <platform_event_wait+0x1fc>)
1000a628:	1c38      	adds	r0, r7, #0
1000a62a:	681b      	ldr	r3, [r3, #0]
1000a62c:	4798      	blx	r3
1000a62e:	9801      	ldr	r0, [sp, #4]
1000a630:	b009      	add	sp, #36	; 0x24
1000a632:	bdf0      	pop	{r4, r5, r6, r7, pc}
1000a634:	1000f029 	.word	0x1000f029
1000a638:	1000a3d1 	.word	0x1000a3d1
1000a63c:	100103b4 	.word	0x100103b4
1000a640:	100103bc 	.word	0x100103bc
1000a644:	100103d0 	.word	0x100103d0
1000a648:	10011134 	.word	0x10011134
1000a64c:	10010e9e 	.word	0x10010e9e
1000a650:	1000f017 	.word	0x1000f017
1000a654:	1000a049 	.word	0x1000a049
1000a658:	100103c4 	.word	0x100103c4
1000a65c:	1001039c 	.word	0x1001039c
1000a660:	10010390 	.word	0x10010390
1000a664:	1001038c 	.word	0x1001038c
1000a668:	100103b0 	.word	0x100103b0
1000a66c:	10010398 	.word	0x10010398

1000a670 <acquire_sleep_lock>:
1000a670:	2080      	movs	r0, #128	; 0x80
1000a672:	b510      	push	{r4, lr}
1000a674:	4b11      	ldr	r3, [pc, #68]	; (1000a6bc <acquire_sleep_lock+0x4c>)
1000a676:	0200      	lsls	r0, r0, #8
1000a678:	681c      	ldr	r4, [r3, #0]
1000a67a:	4b11      	ldr	r3, [pc, #68]	; (1000a6c0 <acquire_sleep_lock+0x50>)
1000a67c:	681b      	ldr	r3, [r3, #0]
1000a67e:	4798      	blx	r3
1000a680:	07e3      	lsls	r3, r4, #31
1000a682:	d414      	bmi.n	1000a6ae <acquire_sleep_lock+0x3e>
1000a684:	4b0f      	ldr	r3, [pc, #60]	; (1000a6c4 <acquire_sleep_lock+0x54>)
1000a686:	2002      	movs	r0, #2
1000a688:	681b      	ldr	r3, [r3, #0]
1000a68a:	4798      	blx	r3
1000a68c:	4b0e      	ldr	r3, [pc, #56]	; (1000a6c8 <acquire_sleep_lock+0x58>)
1000a68e:	681b      	ldr	r3, [r3, #0]
1000a690:	4798      	blx	r3
1000a692:	4b0e      	ldr	r3, [pc, #56]	; (1000a6cc <acquire_sleep_lock+0x5c>)
1000a694:	2003      	movs	r0, #3
1000a696:	681b      	ldr	r3, [r3, #0]
1000a698:	4798      	blx	r3
1000a69a:	2800      	cmp	r0, #0
1000a69c:	d1f9      	bne.n	1000a692 <acquire_sleep_lock+0x22>
1000a69e:	4b0c      	ldr	r3, [pc, #48]	; (1000a6d0 <acquire_sleep_lock+0x60>)
1000a6a0:	3002      	adds	r0, #2
1000a6a2:	681b      	ldr	r3, [r3, #0]
1000a6a4:	4798      	blx	r3
1000a6a6:	2201      	movs	r2, #1
1000a6a8:	4b0a      	ldr	r3, [pc, #40]	; (1000a6d4 <acquire_sleep_lock+0x64>)
1000a6aa:	601a      	str	r2, [r3, #0]
1000a6ac:	e004      	b.n	1000a6b8 <acquire_sleep_lock+0x48>
1000a6ae:	4b0a      	ldr	r3, [pc, #40]	; (1000a6d8 <acquire_sleep_lock+0x68>)
1000a6b0:	4a0a      	ldr	r2, [pc, #40]	; (1000a6dc <acquire_sleep_lock+0x6c>)
1000a6b2:	681b      	ldr	r3, [r3, #0]
1000a6b4:	6810      	ldr	r0, [r2, #0]
1000a6b6:	4798      	blx	r3
1000a6b8:	2008      	movs	r0, #8
1000a6ba:	bd10      	pop	{r4, pc}
1000a6bc:	4000b1ec 	.word	0x4000b1ec
1000a6c0:	10010e5c 	.word	0x10010e5c
1000a6c4:	100103b8 	.word	0x100103b8
1000a6c8:	100103c8 	.word	0x100103c8
1000a6cc:	100103a0 	.word	0x100103a0
1000a6d0:	100103a8 	.word	0x100103a8
1000a6d4:	4000b020 	.word	0x4000b020
1000a6d8:	10010398 	.word	0x10010398
1000a6dc:	100103ac 	.word	0x100103ac

1000a6e0 <release_sleep_lock>:
1000a6e0:	2080      	movs	r0, #128	; 0x80
1000a6e2:	b508      	push	{r3, lr}
1000a6e4:	4b02      	ldr	r3, [pc, #8]	; (1000a6f0 <release_sleep_lock+0x10>)
1000a6e6:	0200      	lsls	r0, r0, #8
1000a6e8:	681b      	ldr	r3, [r3, #0]
1000a6ea:	4798      	blx	r3
1000a6ec:	2000      	movs	r0, #0
1000a6ee:	bd08      	pop	{r3, pc}
1000a6f0:	10010e64 	.word	0x10010e64

1000a6f4 <register_resume_callback>:
1000a6f4:	2309      	movs	r3, #9
1000a6f6:	2800      	cmp	r0, #0
1000a6f8:	d002      	beq.n	1000a700 <register_resume_callback+0xc>
1000a6fa:	4b02      	ldr	r3, [pc, #8]	; (1000a704 <register_resume_callback+0x10>)
1000a6fc:	6018      	str	r0, [r3, #0]
1000a6fe:	2300      	movs	r3, #0
1000a700:	1c18      	adds	r0, r3, #0
1000a702:	4770      	bx	lr
1000a704:	10011128 	.word	0x10011128

1000a708 <gpio1_combined_isr_handler>:
1000a708:	4a12      	ldr	r2, [pc, #72]	; (1000a754 <gpio1_combined_isr_handler+0x4c>)
1000a70a:	4913      	ldr	r1, [pc, #76]	; (1000a758 <gpio1_combined_isr_handler+0x50>)
1000a70c:	8f13      	ldrh	r3, [r2, #56]	; 0x38
1000a70e:	8d10      	ldrh	r0, [r2, #40]	; 0x28
1000a710:	b29b      	uxth	r3, r3
1000a712:	4308      	orrs	r0, r1
1000a714:	b280      	uxth	r0, r0
1000a716:	8510      	strh	r0, [r2, #40]	; 0x28
1000a718:	05db      	lsls	r3, r3, #23
1000a71a:	0ddb      	lsrs	r3, r3, #23
1000a71c:	d00b      	beq.n	1000a736 <gpio1_combined_isr_handler+0x2e>
1000a71e:	b2db      	uxtb	r3, r3
1000a720:	4258      	negs	r0, r3
1000a722:	4003      	ands	r3, r0
1000a724:	2000      	movs	r0, #0
1000a726:	2b01      	cmp	r3, #1
1000a728:	d003      	beq.n	1000a732 <gpio1_combined_isr_handler+0x2a>
1000a72a:	3001      	adds	r0, #1
1000a72c:	085b      	lsrs	r3, r3, #1
1000a72e:	b2c0      	uxtb	r0, r0
1000a730:	e7f9      	b.n	1000a726 <gpio1_combined_isr_handler+0x1e>
1000a732:	4083      	lsls	r3, r0
1000a734:	e001      	b.n	1000a73a <gpio1_combined_isr_handler+0x32>
1000a736:	8f13      	ldrh	r3, [r2, #56]	; 0x38
1000a738:	430b      	orrs	r3, r1
1000a73a:	b29b      	uxth	r3, r3
1000a73c:	8713      	strh	r3, [r2, #56]	; 0x38
1000a73e:	8f13      	ldrh	r3, [r2, #56]	; 0x38
1000a740:	05db      	lsls	r3, r3, #23
1000a742:	0ddb      	lsrs	r3, r3, #23
1000a744:	d1e8      	bne.n	1000a718 <gpio1_combined_isr_handler+0x10>
1000a746:	2180      	movs	r1, #128	; 0x80
1000a748:	4a04      	ldr	r2, [pc, #16]	; (1000a75c <gpio1_combined_isr_handler+0x54>)
1000a74a:	3381      	adds	r3, #129	; 0x81
1000a74c:	0049      	lsls	r1, r1, #1
1000a74e:	33ff      	adds	r3, #255	; 0xff
1000a750:	50d1      	str	r1, [r2, r3]
1000a752:	4770      	bx	lr
1000a754:	40011000 	.word	0x40011000
1000a758:	ffff8000 	.word	0xffff8000
1000a75c:	e000e100 	.word	0xe000e100

1000a760 <gpio0_combined_isr_handler>:
1000a760:	4a12      	ldr	r2, [pc, #72]	; (1000a7ac <gpio0_combined_isr_handler+0x4c>)
1000a762:	4913      	ldr	r1, [pc, #76]	; (1000a7b0 <gpio0_combined_isr_handler+0x50>)
1000a764:	8f13      	ldrh	r3, [r2, #56]	; 0x38
1000a766:	8d10      	ldrh	r0, [r2, #40]	; 0x28
1000a768:	b29b      	uxth	r3, r3
1000a76a:	4308      	orrs	r0, r1
1000a76c:	b280      	uxth	r0, r0
1000a76e:	8510      	strh	r0, [r2, #40]	; 0x28
1000a770:	05db      	lsls	r3, r3, #23
1000a772:	0ddb      	lsrs	r3, r3, #23
1000a774:	d00b      	beq.n	1000a78e <gpio0_combined_isr_handler+0x2e>
1000a776:	b2db      	uxtb	r3, r3
1000a778:	4258      	negs	r0, r3
1000a77a:	4003      	ands	r3, r0
1000a77c:	2000      	movs	r0, #0
1000a77e:	2b01      	cmp	r3, #1
1000a780:	d003      	beq.n	1000a78a <gpio0_combined_isr_handler+0x2a>
1000a782:	3001      	adds	r0, #1
1000a784:	085b      	lsrs	r3, r3, #1
1000a786:	b2c0      	uxtb	r0, r0
1000a788:	e7f9      	b.n	1000a77e <gpio0_combined_isr_handler+0x1e>
1000a78a:	4083      	lsls	r3, r0
1000a78c:	e001      	b.n	1000a792 <gpio0_combined_isr_handler+0x32>
1000a78e:	8f13      	ldrh	r3, [r2, #56]	; 0x38
1000a790:	430b      	orrs	r3, r1
1000a792:	b29b      	uxth	r3, r3
1000a794:	8713      	strh	r3, [r2, #56]	; 0x38
1000a796:	8f13      	ldrh	r3, [r2, #56]	; 0x38
1000a798:	05db      	lsls	r3, r3, #23
1000a79a:	0ddb      	lsrs	r3, r3, #23
1000a79c:	d1e8      	bne.n	1000a770 <gpio0_combined_isr_handler+0x10>
1000a79e:	2180      	movs	r1, #128	; 0x80
1000a7a0:	4a04      	ldr	r2, [pc, #16]	; (1000a7b4 <gpio0_combined_isr_handler+0x54>)
1000a7a2:	3381      	adds	r3, #129	; 0x81
1000a7a4:	33ff      	adds	r3, #255	; 0xff
1000a7a6:	50d1      	str	r1, [r2, r3]
1000a7a8:	4770      	bx	lr
1000a7aa:	46c0      	nop			; (mov r8, r8)
1000a7ac:	40010000 	.word	0x40010000
1000a7b0:	ffff8000 	.word	0xffff8000
1000a7b4:	e000e100 	.word	0xe000e100

1000a7b8 <PORT1_COMB_Handler>:
1000a7b8:	b510      	push	{r4, lr}
1000a7ba:	4c0b      	ldr	r4, [pc, #44]	; (1000a7e8 <PORT1_COMB_Handler+0x30>)
1000a7bc:	8f23      	ldrh	r3, [r4, #56]	; 0x38
1000a7be:	0b5b      	lsrs	r3, r3, #13
1000a7c0:	d00f      	beq.n	1000a7e2 <PORT1_COMB_Handler+0x2a>
1000a7c2:	4b0a      	ldr	r3, [pc, #40]	; (1000a7ec <PORT1_COMB_Handler+0x34>)
1000a7c4:	681b      	ldr	r3, [r3, #0]
1000a7c6:	4798      	blx	r3
1000a7c8:	8f23      	ldrh	r3, [r4, #56]	; 0x38
1000a7ca:	8f22      	ldrh	r2, [r4, #56]	; 0x38
1000a7cc:	0b5b      	lsrs	r3, r3, #13
1000a7ce:	035b      	lsls	r3, r3, #13
1000a7d0:	4313      	orrs	r3, r2
1000a7d2:	8723      	strh	r3, [r4, #56]	; 0x38
1000a7d4:	2180      	movs	r1, #128	; 0x80
1000a7d6:	23c0      	movs	r3, #192	; 0xc0
1000a7d8:	4a05      	ldr	r2, [pc, #20]	; (1000a7f0 <PORT1_COMB_Handler+0x38>)
1000a7da:	0049      	lsls	r1, r1, #1
1000a7dc:	005b      	lsls	r3, r3, #1
1000a7de:	50d1      	str	r1, [r2, r3]
1000a7e0:	e001      	b.n	1000a7e6 <PORT1_COMB_Handler+0x2e>
1000a7e2:	4b04      	ldr	r3, [pc, #16]	; (1000a7f4 <PORT1_COMB_Handler+0x3c>)
1000a7e4:	4798      	blx	r3
1000a7e6:	bd10      	pop	{r4, pc}
1000a7e8:	40011000 	.word	0x40011000
1000a7ec:	10011124 	.word	0x10011124
1000a7f0:	e000e100 	.word	0xe000e100
1000a7f4:	1000a709 	.word	0x1000a709

1000a7f8 <sms_gpio_0_callback>:
1000a7f8:	2200      	movs	r2, #0
1000a7fa:	b510      	push	{r4, lr}
1000a7fc:	201f      	movs	r0, #31
1000a7fe:	2102      	movs	r1, #2
1000a800:	1c13      	adds	r3, r2, #0
1000a802:	4c01      	ldr	r4, [pc, #4]	; (1000a808 <sms_gpio_0_callback+0x10>)
1000a804:	47a0      	blx	r4
1000a806:	bd10      	pop	{r4, pc}
1000a808:	1000a419 	.word	0x1000a419

1000a80c <sms_button_cb>:
1000a80c:	b510      	push	{r4, lr}
1000a80e:	4b06      	ldr	r3, [pc, #24]	; (1000a828 <sms_button_cb+0x1c>)
1000a810:	781b      	ldrb	r3, [r3, #0]
1000a812:	2b00      	cmp	r3, #0
1000a814:	d007      	beq.n	1000a826 <sms_button_cb+0x1a>
1000a816:	2101      	movs	r1, #1
1000a818:	2200      	movs	r2, #0
1000a81a:	4b04      	ldr	r3, [pc, #16]	; (1000a82c <sms_button_cb+0x20>)
1000a81c:	2041      	movs	r0, #65	; 0x41
1000a81e:	7019      	strb	r1, [r3, #0]
1000a820:	4c03      	ldr	r4, [pc, #12]	; (1000a830 <sms_button_cb+0x24>)
1000a822:	1c13      	adds	r3, r2, #0
1000a824:	47a0      	blx	r4
1000a826:	bd10      	pop	{r4, pc}
1000a828:	100103d5 	.word	0x100103d5
1000a82c:	100103d7 	.word	0x100103d7
1000a830:	1000a419 	.word	0x1000a419

1000a834 <sms_gpio_init>:
1000a834:	b5f7      	push	{r0, r1, r2, r4, r5, r6, r7, lr}
1000a836:	ac01      	add	r4, sp, #4
1000a838:	4f11      	ldr	r7, [pc, #68]	; (1000a880 <sms_gpio_init+0x4c>)
1000a83a:	1c20      	adds	r0, r4, #0
1000a83c:	47b8      	blx	r7
1000a83e:	2301      	movs	r3, #1
1000a840:	4e10      	ldr	r6, [pc, #64]	; (1000a884 <sms_gpio_init+0x50>)
1000a842:	4d11      	ldr	r5, [pc, #68]	; (1000a888 <sms_gpio_init+0x54>)
1000a844:	1c21      	adds	r1, r4, #0
1000a846:	7830      	ldrb	r0, [r6, #0]
1000a848:	7023      	strb	r3, [r4, #0]
1000a84a:	47a8      	blx	r5
1000a84c:	4b0f      	ldr	r3, [pc, #60]	; (1000a88c <sms_gpio_init+0x58>)
1000a84e:	7830      	ldrb	r0, [r6, #0]
1000a850:	7819      	ldrb	r1, [r3, #0]
1000a852:	4b0f      	ldr	r3, [pc, #60]	; (1000a890 <sms_gpio_init+0x5c>)
1000a854:	b2c9      	uxtb	r1, r1
1000a856:	4798      	blx	r3
1000a858:	1c20      	adds	r0, r4, #0
1000a85a:	47b8      	blx	r7
1000a85c:	2302      	movs	r3, #2
1000a85e:	2600      	movs	r6, #0
1000a860:	1c21      	adds	r1, r4, #0
1000a862:	7063      	strb	r3, [r4, #1]
1000a864:	201f      	movs	r0, #31
1000a866:	3b01      	subs	r3, #1
1000a868:	70e3      	strb	r3, [r4, #3]
1000a86a:	7026      	strb	r6, [r4, #0]
1000a86c:	47a8      	blx	r5
1000a86e:	1c20      	adds	r0, r4, #0
1000a870:	47b8      	blx	r7
1000a872:	1c21      	adds	r1, r4, #0
1000a874:	2017      	movs	r0, #23
1000a876:	7026      	strb	r6, [r4, #0]
1000a878:	7066      	strb	r6, [r4, #1]
1000a87a:	47a8      	blx	r5
1000a87c:	bdf7      	pop	{r0, r1, r2, r4, r5, r6, r7, pc}
1000a87e:	46c0      	nop			; (mov r8, r8)
1000a880:	10008355 	.word	0x10008355
1000a884:	1000fd80 	.word	0x1000fd80
1000a888:	10008365 	.word	0x10008365
1000a88c:	100103d4 	.word	0x100103d4
1000a890:	100084b5 	.word	0x100084b5

1000a894 <sms_service_init>:
1000a894:	2202      	movs	r2, #2
1000a896:	7002      	strb	r2, [r0, #0]
1000a898:	3255      	adds	r2, #85	; 0x55
1000a89a:	70c2      	strb	r2, [r0, #3]
1000a89c:	3a3b      	subs	r2, #59	; 0x3b
1000a89e:	7102      	strb	r2, [r0, #4]
1000a8a0:	32a2      	adds	r2, #162	; 0xa2
1000a8a2:	71c2      	strb	r2, [r0, #7]
1000a8a4:	3a64      	subs	r2, #100	; 0x64
1000a8a6:	7202      	strb	r2, [r0, #8]
1000a8a8:	3a2a      	subs	r2, #42	; 0x2a
1000a8aa:	72c2      	strb	r2, [r0, #11]
1000a8ac:	3220      	adds	r2, #32
1000a8ae:	7302      	strb	r2, [r0, #12]
1000a8b0:	326b      	adds	r2, #107	; 0x6b
1000a8b2:	73c2      	strb	r2, [r0, #15]
1000a8b4:	7402      	strb	r2, [r0, #16]
1000a8b6:	3aa9      	subs	r2, #169	; 0xa9
1000a8b8:	8502      	strh	r2, [r0, #40]	; 0x28
1000a8ba:	3a11      	subs	r2, #17
1000a8bc:	8602      	strh	r2, [r0, #48]	; 0x30
1000a8be:	8642      	strh	r2, [r0, #50]	; 0x32
1000a8c0:	1c02      	adds	r2, r0, #0
1000a8c2:	2300      	movs	r3, #0
1000a8c4:	62c1      	str	r1, [r0, #44]	; 0x2c
1000a8c6:	2111      	movs	r1, #17
1000a8c8:	3234      	adds	r2, #52	; 0x34
1000a8ca:	8243      	strh	r3, [r0, #18]
1000a8cc:	7043      	strb	r3, [r0, #1]
1000a8ce:	7083      	strb	r3, [r0, #2]
1000a8d0:	7143      	strb	r3, [r0, #5]
1000a8d2:	7183      	strb	r3, [r0, #6]
1000a8d4:	7243      	strb	r3, [r0, #9]
1000a8d6:	7283      	strb	r3, [r0, #10]
1000a8d8:	7343      	strb	r3, [r0, #13]
1000a8da:	7383      	strb	r3, [r0, #14]
1000a8dc:	7011      	strb	r1, [r2, #0]
1000a8de:	6383      	str	r3, [r0, #56]	; 0x38
1000a8e0:	8783      	strh	r3, [r0, #60]	; 0x3c
1000a8e2:	87c3      	strh	r3, [r0, #62]	; 0x3e
1000a8e4:	7413      	strb	r3, [r2, #16]
1000a8e6:	7453      	strb	r3, [r2, #17]
1000a8e8:	7493      	strb	r3, [r2, #18]
1000a8ea:	3212      	adds	r2, #18
1000a8ec:	8053      	strh	r3, [r2, #2]
1000a8ee:	8093      	strh	r3, [r2, #4]
1000a8f0:	80d3      	strh	r3, [r2, #6]
1000a8f2:	6403      	str	r3, [r0, #64]	; 0x40
1000a8f4:	4770      	bx	lr
	...

1000a8f8 <sms_button_primary_service_define>:
1000a8f8:	1c03      	adds	r3, r0, #0
1000a8fa:	b513      	push	{r0, r1, r4, lr}
1000a8fc:	3314      	adds	r3, #20
1000a8fe:	9300      	str	r3, [sp, #0]
1000a900:	2200      	movs	r2, #0
1000a902:	1c01      	adds	r1, r0, #0
1000a904:	2301      	movs	r3, #1
1000a906:	3112      	adds	r1, #18
1000a908:	9301      	str	r3, [sp, #4]
1000a90a:	4c02      	ldr	r4, [pc, #8]	; (1000a914 <sms_button_primary_service_define+0x1c>)
1000a90c:	1c13      	adds	r3, r2, #0
1000a90e:	47a0      	blx	r4
1000a910:	bd16      	pop	{r1, r2, r4, pc}
1000a912:	46c0      	nop			; (mov r8, r8)
1000a914:	1000bee9 	.word	0x1000bee9

1000a918 <sms_service_advertise>:
1000a918:	b530      	push	{r4, r5, lr}
1000a91a:	4b0b      	ldr	r3, [pc, #44]	; (1000a948 <sms_service_advertise+0x30>)
1000a91c:	b085      	sub	sp, #20
1000a91e:	4798      	blx	r3
1000a920:	1e04      	subs	r4, r0, #0
1000a922:	d10d      	bne.n	1000a940 <sms_service_advertise+0x28>
1000a924:	23c8      	movs	r3, #200	; 0xc8
1000a926:	00db      	lsls	r3, r3, #3
1000a928:	9300      	str	r3, [sp, #0]
1000a92a:	4b08      	ldr	r3, [pc, #32]	; (1000a94c <sms_service_advertise+0x34>)
1000a92c:	9002      	str	r0, [sp, #8]
1000a92e:	9301      	str	r3, [sp, #4]
1000a930:	2101      	movs	r1, #1
1000a932:	1c22      	adds	r2, r4, #0
1000a934:	1c23      	adds	r3, r4, #0
1000a936:	4d06      	ldr	r5, [pc, #24]	; (1000a950 <sms_service_advertise+0x38>)
1000a938:	47a8      	blx	r5
1000a93a:	2800      	cmp	r0, #0
1000a93c:	d000      	beq.n	1000a940 <sms_service_advertise+0x28>
1000a93e:	34e2      	adds	r4, #226	; 0xe2
1000a940:	1c20      	adds	r0, r4, #0
1000a942:	b005      	add	sp, #20
1000a944:	bd30      	pop	{r4, r5, pc}
1000a946:	46c0      	nop			; (mov r8, r8)
1000a948:	10009d99 	.word	0x10009d99
1000a94c:	0000028f 	.word	0x0000028f
1000a950:	1000b65d 	.word	0x1000b65d

1000a954 <sms_gpio_register_callback>:
1000a954:	b510      	push	{r4, lr}
1000a956:	4b07      	ldr	r3, [pc, #28]	; (1000a974 <sms_gpio_register_callback+0x20>)
1000a958:	4798      	blx	r3
1000a95a:	4907      	ldr	r1, [pc, #28]	; (1000a978 <sms_gpio_register_callback+0x24>)
1000a95c:	2202      	movs	r2, #2
1000a95e:	4c07      	ldr	r4, [pc, #28]	; (1000a97c <sms_gpio_register_callback+0x28>)
1000a960:	2017      	movs	r0, #23
1000a962:	47a0      	blx	r4
1000a964:	4b06      	ldr	r3, [pc, #24]	; (1000a980 <sms_gpio_register_callback+0x2c>)
1000a966:	2017      	movs	r0, #23
1000a968:	4798      	blx	r3
1000a96a:	201f      	movs	r0, #31
1000a96c:	4905      	ldr	r1, [pc, #20]	; (1000a984 <sms_gpio_register_callback+0x30>)
1000a96e:	2202      	movs	r2, #2
1000a970:	47a0      	blx	r4
1000a972:	bd10      	pop	{r4, pc}
1000a974:	100086ed 	.word	0x100086ed
1000a978:	1000a80d 	.word	0x1000a80d
1000a97c:	10008601 	.word	0x10008601
1000a980:	100086bd 	.word	0x100086bd
1000a984:	1000a7f9 	.word	0x1000a7f9

1000a988 <ble_connected_app_event>:
1000a988:	8902      	ldrh	r2, [r0, #8]
1000a98a:	4b03      	ldr	r3, [pc, #12]	; (1000a998 <ble_connected_app_event+0x10>)
1000a98c:	2000      	movs	r0, #0
1000a98e:	801a      	strh	r2, [r3, #0]
1000a990:	2201      	movs	r2, #1
1000a992:	4b02      	ldr	r3, [pc, #8]	; (1000a99c <ble_connected_app_event+0x14>)
1000a994:	701a      	strb	r2, [r3, #0]
1000a996:	4770      	bx	lr
1000a998:	10011188 	.word	0x10011188
1000a99c:	100103d5 	.word	0x100103d5

1000a9a0 <ble_notification_confirmed_app_event>:
1000a9a0:	78c0      	ldrb	r0, [r0, #3]
1000a9a2:	2800      	cmp	r0, #0
1000a9a4:	d000      	beq.n	1000a9a8 <ble_notification_confirmed_app_event+0x8>
1000a9a6:	20e2      	movs	r0, #226	; 0xe2
1000a9a8:	4770      	bx	lr

1000a9aa <ble_char_changed_app_event>:
1000a9aa:	2000      	movs	r0, #0
1000a9ac:	4770      	bx	lr
	...

1000a9b0 <sms_platform_interrupt>:
1000a9b0:	b508      	push	{r3, lr}
1000a9b2:	4b03      	ldr	r3, [pc, #12]	; (1000a9c0 <sms_platform_interrupt+0x10>)
1000a9b4:	4798      	blx	r3
1000a9b6:	2201      	movs	r2, #1
1000a9b8:	4b02      	ldr	r3, [pc, #8]	; (1000a9c4 <sms_platform_interrupt+0x14>)
1000a9ba:	2000      	movs	r0, #0
1000a9bc:	701a      	strb	r2, [r3, #0]
1000a9be:	bd08      	pop	{r3, pc}
1000a9c0:	1000a671 	.word	0x1000a671
1000a9c4:	100103d8 	.word	0x100103d8

1000a9c8 <ble_disconnected_app_event>:
1000a9c8:	b510      	push	{r4, lr}
1000a9ca:	2400      	movs	r4, #0
1000a9cc:	4b02      	ldr	r3, [pc, #8]	; (1000a9d8 <ble_disconnected_app_event+0x10>)
1000a9ce:	701c      	strb	r4, [r3, #0]
1000a9d0:	4b02      	ldr	r3, [pc, #8]	; (1000a9dc <ble_disconnected_app_event+0x14>)
1000a9d2:	4798      	blx	r3
1000a9d4:	1c20      	adds	r0, r4, #0
1000a9d6:	bd10      	pop	{r4, pc}
1000a9d8:	100103d5 	.word	0x100103d5
1000a9dc:	1000a919 	.word	0x1000a919

1000a9e0 <ble_paired_app_event>:
1000a9e0:	b508      	push	{r3, lr}
1000a9e2:	201f      	movs	r0, #31
1000a9e4:	4b02      	ldr	r3, [pc, #8]	; (1000a9f0 <ble_paired_app_event+0x10>)
1000a9e6:	4798      	blx	r3
1000a9e8:	4b02      	ldr	r3, [pc, #8]	; (1000a9f4 <ble_paired_app_event+0x14>)
1000a9ea:	4798      	blx	r3
1000a9ec:	2000      	movs	r0, #0
1000a9ee:	bd08      	pop	{r3, pc}
1000a9f0:	100086bd 	.word	0x100086bd
1000a9f4:	1000a6e1 	.word	0x1000a6e1

1000a9f8 <resume_cb>:
1000a9f8:	b508      	push	{r3, lr}
1000a9fa:	4b02      	ldr	r3, [pc, #8]	; (1000aa04 <resume_cb+0xc>)
1000a9fc:	4798      	blx	r3
1000a9fe:	4b02      	ldr	r3, [pc, #8]	; (1000aa08 <resume_cb+0x10>)
1000aa00:	4798      	blx	r3
1000aa02:	bd08      	pop	{r3, pc}
1000aa04:	1000a149 	.word	0x1000a149
1000aa08:	10009e41 	.word	0x10009e41

1000aa0c <timer_callback_fn>:
1000aa0c:	2101      	movs	r1, #1
1000aa0e:	2200      	movs	r2, #0
1000aa10:	b510      	push	{r4, lr}
1000aa12:	4b03      	ldr	r3, [pc, #12]	; (1000aa20 <timer_callback_fn+0x14>)
1000aa14:	2041      	movs	r0, #65	; 0x41
1000aa16:	7019      	strb	r1, [r3, #0]
1000aa18:	4c02      	ldr	r4, [pc, #8]	; (1000aa24 <timer_callback_fn+0x18>)
1000aa1a:	1c13      	adds	r3, r2, #0
1000aa1c:	47a0      	blx	r4
1000aa1e:	bd10      	pop	{r4, pc}
1000aa20:	10011136 	.word	0x10011136
1000aa24:	1000a419 	.word	0x1000a419

1000aa28 <main>:
1000aa28:	b573      	push	{r0, r1, r4, r5, r6, lr}
1000aa2a:	2500      	movs	r5, #0
1000aa2c:	466b      	mov	r3, sp
1000aa2e:	1dde      	adds	r6, r3, #7
1000aa30:	71dd      	strb	r5, [r3, #7]
1000aa32:	4b28      	ldr	r3, [pc, #160]	; (1000aad4 <main+0xac>)
1000aa34:	701d      	strb	r5, [r3, #0]
1000aa36:	4b28      	ldr	r3, [pc, #160]	; (1000aad8 <main+0xb0>)
1000aa38:	4798      	blx	r3
1000aa3a:	4b28      	ldr	r3, [pc, #160]	; (1000aadc <main+0xb4>)
1000aa3c:	4798      	blx	r3
1000aa3e:	4b28      	ldr	r3, [pc, #160]	; (1000aae0 <main+0xb8>)
1000aa40:	4798      	blx	r3
1000aa42:	4b28      	ldr	r3, [pc, #160]	; (1000aae4 <main+0xbc>)
1000aa44:	4798      	blx	r3
1000aa46:	4b28      	ldr	r3, [pc, #160]	; (1000aae8 <main+0xc0>)
1000aa48:	4798      	blx	r3
1000aa4a:	1c28      	adds	r0, r5, #0
1000aa4c:	4b27      	ldr	r3, [pc, #156]	; (1000aaec <main+0xc4>)
1000aa4e:	4798      	blx	r3
1000aa50:	4827      	ldr	r0, [pc, #156]	; (1000aaf0 <main+0xc8>)
1000aa52:	4b28      	ldr	r3, [pc, #160]	; (1000aaf4 <main+0xcc>)
1000aa54:	4798      	blx	r3
1000aa56:	4b28      	ldr	r3, [pc, #160]	; (1000aaf8 <main+0xd0>)
1000aa58:	4798      	blx	r3
1000aa5a:	4b28      	ldr	r3, [pc, #160]	; (1000aafc <main+0xd4>)
1000aa5c:	4828      	ldr	r0, [pc, #160]	; (1000ab00 <main+0xd8>)
1000aa5e:	4798      	blx	r3
1000aa60:	4c28      	ldr	r4, [pc, #160]	; (1000ab04 <main+0xdc>)
1000aa62:	1c31      	adds	r1, r6, #0
1000aa64:	1c20      	adds	r0, r4, #0
1000aa66:	4b28      	ldr	r3, [pc, #160]	; (1000ab08 <main+0xe0>)
1000aa68:	4798      	blx	r3
1000aa6a:	4b28      	ldr	r3, [pc, #160]	; (1000ab0c <main+0xe4>)
1000aa6c:	1c20      	adds	r0, r4, #0
1000aa6e:	4798      	blx	r3
1000aa70:	1c29      	adds	r1, r5, #0
1000aa72:	4a27      	ldr	r2, [pc, #156]	; (1000ab10 <main+0xe8>)
1000aa74:	4e27      	ldr	r6, [pc, #156]	; (1000ab14 <main+0xec>)
1000aa76:	1c28      	adds	r0, r5, #0
1000aa78:	47b0      	blx	r6
1000aa7a:	2102      	movs	r1, #2
1000aa7c:	4a26      	ldr	r2, [pc, #152]	; (1000ab18 <main+0xf0>)
1000aa7e:	1c28      	adds	r0, r5, #0
1000aa80:	47b0      	blx	r6
1000aa82:	4b26      	ldr	r3, [pc, #152]	; (1000ab1c <main+0xf4>)
1000aa84:	4826      	ldr	r0, [pc, #152]	; (1000ab20 <main+0xf8>)
1000aa86:	4798      	blx	r3
1000aa88:	4b26      	ldr	r3, [pc, #152]	; (1000ab24 <main+0xfc>)
1000aa8a:	4798      	blx	r3
1000aa8c:	2001      	movs	r0, #1
1000aa8e:	4b26      	ldr	r3, [pc, #152]	; (1000ab28 <main+0x100>)
1000aa90:	4240      	negs	r0, r0
1000aa92:	4798      	blx	r3
1000aa94:	4b25      	ldr	r3, [pc, #148]	; (1000ab2c <main+0x104>)
1000aa96:	781a      	ldrb	r2, [r3, #0]
1000aa98:	2a00      	cmp	r2, #0
1000aa9a:	d002      	beq.n	1000aaa2 <main+0x7a>
1000aa9c:	2200      	movs	r2, #0
1000aa9e:	701a      	strb	r2, [r3, #0]
1000aaa0:	e7f4      	b.n	1000aa8c <main+0x64>
1000aaa2:	4d23      	ldr	r5, [pc, #140]	; (1000ab30 <main+0x108>)
1000aaa4:	782b      	ldrb	r3, [r5, #0]
1000aaa6:	2b00      	cmp	r3, #0
1000aaa8:	d0f0      	beq.n	1000aa8c <main+0x64>
1000aaaa:	4922      	ldr	r1, [pc, #136]	; (1000ab34 <main+0x10c>)
1000aaac:	780b      	ldrb	r3, [r1, #0]
1000aaae:	425a      	negs	r2, r3
1000aab0:	4153      	adcs	r3, r2
1000aab2:	700b      	strb	r3, [r1, #0]
1000aab4:	8aa0      	ldrh	r0, [r4, #20]
1000aab6:	2201      	movs	r2, #1
1000aab8:	4b1f      	ldr	r3, [pc, #124]	; (1000ab38 <main+0x110>)
1000aaba:	4798      	blx	r3
1000aabc:	2800      	cmp	r0, #0
1000aabe:	d104      	bne.n	1000aaca <main+0xa2>
1000aac0:	4b1e      	ldr	r3, [pc, #120]	; (1000ab3c <main+0x114>)
1000aac2:	8aa1      	ldrh	r1, [r4, #20]
1000aac4:	8818      	ldrh	r0, [r3, #0]
1000aac6:	4b1e      	ldr	r3, [pc, #120]	; (1000ab40 <main+0x118>)
1000aac8:	4798      	blx	r3
1000aaca:	2300      	movs	r3, #0
1000aacc:	702b      	strb	r3, [r5, #0]
1000aace:	4b1d      	ldr	r3, [pc, #116]	; (1000ab44 <main+0x11c>)
1000aad0:	e7db      	b.n	1000aa8a <main+0x62>
1000aad2:	46c0      	nop			; (mov r8, r8)
1000aad4:	10011136 	.word	0x10011136
1000aad8:	1000a1c1 	.word	0x1000a1c1
1000aadc:	1000a671 	.word	0x1000a671
1000aae0:	10009e41 	.word	0x10009e41
1000aae4:	10009fd9 	.word	0x10009fd9
1000aae8:	1000a835 	.word	0x1000a835
1000aaec:	10009861 	.word	0x10009861
1000aaf0:	1000aa0d 	.word	0x1000aa0d
1000aaf4:	1000a005 	.word	0x1000a005
1000aaf8:	1000a955 	.word	0x1000a955
1000aafc:	1000a6f5 	.word	0x1000a6f5
1000ab00:	1000a9f9 	.word	0x1000a9f9
1000ab04:	10011138 	.word	0x10011138
1000ab08:	1000a895 	.word	0x1000a895
1000ab0c:	1000a8f9 	.word	0x1000a8f9
1000ab10:	1000fc18 	.word	0x1000fc18
1000ab14:	100097fd 	.word	0x100097fd
1000ab18:	1000fc64 	.word	0x1000fc64
1000ab1c:	10009df9 	.word	0x10009df9
1000ab20:	1000a9b1 	.word	0x1000a9b1
1000ab24:	1000a919 	.word	0x1000a919
1000ab28:	10009d69 	.word	0x10009d69
1000ab2c:	100103d7 	.word	0x100103d7
1000ab30:	100103d8 	.word	0x100103d8
1000ab34:	100103d6 	.word	0x100103d6
1000ab38:	1000bf1d 	.word	0x1000bf1d
1000ab3c:	10011188 	.word	0x10011188
1000ab40:	1000c0bd 	.word	0x1000c0bd
1000ab44:	1000a6e1 	.word	0x1000a6e1

1000ab48 <internal_event_post>:
1000ab48:	b570      	push	{r4, r5, r6, lr}
1000ab4a:	4d0c      	ldr	r5, [pc, #48]	; (1000ab7c <internal_event_post+0x34>)
1000ab4c:	682c      	ldr	r4, [r5, #0]
1000ab4e:	2c00      	cmp	r4, #0
1000ab50:	d013      	beq.n	1000ab7a <internal_event_post+0x32>
1000ab52:	6826      	ldr	r6, [r4, #0]
1000ab54:	60e2      	str	r2, [r4, #12]
1000ab56:	602e      	str	r6, [r5, #0]
1000ab58:	2500      	movs	r5, #0
1000ab5a:	4a09      	ldr	r2, [pc, #36]	; (1000ab80 <internal_event_post+0x38>)
1000ab5c:	8123      	strh	r3, [r4, #8]
1000ab5e:	6813      	ldr	r3, [r2, #0]
1000ab60:	6025      	str	r5, [r4, #0]
1000ab62:	80a0      	strh	r0, [r4, #4]
1000ab64:	80e1      	strh	r1, [r4, #6]
1000ab66:	42ab      	cmp	r3, r5
1000ab68:	d101      	bne.n	1000ab6e <internal_event_post+0x26>
1000ab6a:	6014      	str	r4, [r2, #0]
1000ab6c:	e005      	b.n	1000ab7a <internal_event_post+0x32>
1000ab6e:	681a      	ldr	r2, [r3, #0]
1000ab70:	2a00      	cmp	r2, #0
1000ab72:	d001      	beq.n	1000ab78 <internal_event_post+0x30>
1000ab74:	1c13      	adds	r3, r2, #0
1000ab76:	e7fa      	b.n	1000ab6e <internal_event_post+0x26>
1000ab78:	601c      	str	r4, [r3, #0]
1000ab7a:	bd70      	pop	{r4, r5, r6, pc}
1000ab7c:	10010480 	.word	0x10010480
1000ab80:	1001047c 	.word	0x1001047c

1000ab84 <internal_event_init>:
1000ab84:	4b08      	ldr	r3, [pc, #32]	; (1000aba8 <internal_event_init+0x24>)
1000ab86:	2200      	movs	r2, #0
1000ab88:	1c19      	adds	r1, r3, #0
1000ab8a:	b510      	push	{r4, lr}
1000ab8c:	6818      	ldr	r0, [r3, #0]
1000ab8e:	4b07      	ldr	r3, [pc, #28]	; (1000abac <internal_event_init+0x28>)
1000ab90:	189c      	adds	r4, r3, r2
1000ab92:	50d0      	str	r0, [r2, r3]
1000ab94:	3210      	adds	r2, #16
1000ab96:	1c20      	adds	r0, r4, #0
1000ab98:	2aa0      	cmp	r2, #160	; 0xa0
1000ab9a:	d1f8      	bne.n	1000ab8e <internal_event_init+0xa>
1000ab9c:	2200      	movs	r2, #0
1000ab9e:	3390      	adds	r3, #144	; 0x90
1000aba0:	600b      	str	r3, [r1, #0]
1000aba2:	4b03      	ldr	r3, [pc, #12]	; (1000abb0 <internal_event_init+0x2c>)
1000aba4:	601a      	str	r2, [r3, #0]
1000aba6:	bd10      	pop	{r4, pc}
1000aba8:	10010480 	.word	0x10010480
1000abac:	100103dc 	.word	0x100103dc
1000abb0:	1001047c 	.word	0x1001047c

1000abb4 <special_events_handler>:
1000abb4:	b538      	push	{r3, r4, r5, lr}
1000abb6:	4c1b      	ldr	r4, [pc, #108]	; (1000ac24 <special_events_handler+0x70>)
1000abb8:	1c03      	adds	r3, r0, #0
1000abba:	8825      	ldrh	r5, [r4, #0]
1000abbc:	1c08      	adds	r0, r1, #0
1000abbe:	1c21      	adds	r1, r4, #0
1000abc0:	429d      	cmp	r5, r3
1000abc2:	d107      	bne.n	1000abd4 <special_events_handler+0x20>
1000abc4:	88a5      	ldrh	r5, [r4, #4]
1000abc6:	4285      	cmp	r5, r0
1000abc8:	d104      	bne.n	1000abd4 <special_events_handler+0x20>
1000abca:	2301      	movs	r3, #1
1000abcc:	425b      	negs	r3, r3
1000abce:	8023      	strh	r3, [r4, #0]
1000abd0:	60a2      	str	r2, [r4, #8]
1000abd2:	e009      	b.n	1000abe8 <special_events_handler+0x34>
1000abd4:	884c      	ldrh	r4, [r1, #2]
1000abd6:	429c      	cmp	r4, r3
1000abd8:	d10a      	bne.n	1000abf0 <special_events_handler+0x3c>
1000abda:	888c      	ldrh	r4, [r1, #4]
1000abdc:	4284      	cmp	r4, r0
1000abde:	d107      	bne.n	1000abf0 <special_events_handler+0x3c>
1000abe0:	2301      	movs	r3, #1
1000abe2:	425b      	negs	r3, r3
1000abe4:	804b      	strh	r3, [r1, #2]
1000abe6:	608a      	str	r2, [r1, #8]
1000abe8:	4b0f      	ldr	r3, [pc, #60]	; (1000ac28 <special_events_handler+0x74>)
1000abea:	4798      	blx	r3
1000abec:	2001      	movs	r0, #1
1000abee:	e017      	b.n	1000ac20 <special_events_handler+0x6c>
1000abf0:	490e      	ldr	r1, [pc, #56]	; (1000ac2c <special_events_handler+0x78>)
1000abf2:	428b      	cmp	r3, r1
1000abf4:	d00e      	beq.n	1000ac14 <special_events_handler+0x60>
1000abf6:	490e      	ldr	r1, [pc, #56]	; (1000ac30 <special_events_handler+0x7c>)
1000abf8:	428b      	cmp	r3, r1
1000abfa:	d007      	beq.n	1000ac0c <special_events_handler+0x58>
1000abfc:	490d      	ldr	r1, [pc, #52]	; (1000ac34 <special_events_handler+0x80>)
1000abfe:	2000      	movs	r0, #0
1000ac00:	428b      	cmp	r3, r1
1000ac02:	d10d      	bne.n	1000ac20 <special_events_handler+0x6c>
1000ac04:	1c10      	adds	r0, r2, #0
1000ac06:	4b0c      	ldr	r3, [pc, #48]	; (1000ac38 <special_events_handler+0x84>)
1000ac08:	4798      	blx	r3
1000ac0a:	e7ef      	b.n	1000abec <special_events_handler+0x38>
1000ac0c:	1c11      	adds	r1, r2, #0
1000ac0e:	4b0b      	ldr	r3, [pc, #44]	; (1000ac3c <special_events_handler+0x88>)
1000ac10:	2200      	movs	r2, #0
1000ac12:	e002      	b.n	1000ac1a <special_events_handler+0x66>
1000ac14:	1c11      	adds	r1, r2, #0
1000ac16:	2200      	movs	r2, #0
1000ac18:	4b09      	ldr	r3, [pc, #36]	; (1000ac40 <special_events_handler+0x8c>)
1000ac1a:	4798      	blx	r3
1000ac1c:	4243      	negs	r3, r0
1000ac1e:	4158      	adcs	r0, r3
1000ac20:	bd38      	pop	{r3, r4, r5, pc}
1000ac22:	46c0      	nop			; (mov r8, r8)
1000ac24:	100111dc 	.word	0x100111dc
1000ac28:	1000c509 	.word	0x1000c509
1000ac2c:	00000e13 	.word	0x00000e13
1000ac30:	00000e15 	.word	0x00000e15
1000ac34:	00000e01 	.word	0x00000e01
1000ac38:	1000c879 	.word	0x1000c879
1000ac3c:	1000ca39 	.word	0x1000ca39
1000ac40:	1000cb11 	.word	0x1000cb11

1000ac44 <at_ble_event_get>:
1000ac44:	2300      	movs	r3, #0
1000ac46:	b5f0      	push	{r4, r5, r6, r7, lr}
1000ac48:	b085      	sub	sp, #20
1000ac4a:	9202      	str	r2, [sp, #8]
1000ac4c:	7003      	strb	r3, [r0, #0]
1000ac4e:	9b02      	ldr	r3, [sp, #8]
1000ac50:	9001      	str	r0, [sp, #4]
1000ac52:	3b01      	subs	r3, #1
1000ac54:	1c0d      	adds	r5, r1, #0
1000ac56:	9303      	str	r3, [sp, #12]
1000ac58:	3303      	adds	r3, #3
1000ac5a:	d802      	bhi.n	1000ac62 <at_ble_event_get+0x1e>
1000ac5c:	9802      	ldr	r0, [sp, #8]
1000ac5e:	4bad      	ldr	r3, [pc, #692]	; (1000af14 <at_ble_event_get+0x2d0>)
1000ac60:	4798      	blx	r3
1000ac62:	9b03      	ldr	r3, [sp, #12]
1000ac64:	4fac      	ldr	r7, [pc, #688]	; (1000af18 <at_ble_event_get+0x2d4>)
1000ac66:	2400      	movs	r4, #0
1000ac68:	3303      	adds	r3, #3
1000ac6a:	d812      	bhi.n	1000ac92 <at_ble_event_get+0x4e>
1000ac6c:	683b      	ldr	r3, [r7, #0]
1000ac6e:	2b00      	cmp	r3, #0
1000ac70:	d112      	bne.n	1000ac98 <at_ble_event_get+0x54>
1000ac72:	2cd0      	cmp	r4, #208	; 0xd0
1000ac74:	d100      	bne.n	1000ac78 <at_ble_event_get+0x34>
1000ac76:	e29c      	b.n	1000b1b2 <at_ble_event_get+0x56e>
1000ac78:	9802      	ldr	r0, [sp, #8]
1000ac7a:	4ba8      	ldr	r3, [pc, #672]	; (1000af1c <at_ble_event_get+0x2d8>)
1000ac7c:	4798      	blx	r3
1000ac7e:	1e04      	subs	r4, r0, #0
1000ac80:	2c02      	cmp	r4, #2
1000ac82:	d1f3      	bne.n	1000ac6c <at_ble_event_get+0x28>
1000ac84:	e025      	b.n	1000acd2 <at_ble_event_get+0x8e>
1000ac86:	9802      	ldr	r0, [sp, #8]
1000ac88:	4ba4      	ldr	r3, [pc, #656]	; (1000af1c <at_ble_event_get+0x2d8>)
1000ac8a:	4798      	blx	r3
1000ac8c:	1e04      	subs	r4, r0, #0
1000ac8e:	2c02      	cmp	r4, #2
1000ac90:	d01f      	beq.n	1000acd2 <at_ble_event_get+0x8e>
1000ac92:	683b      	ldr	r3, [r7, #0]
1000ac94:	2b00      	cmp	r3, #0
1000ac96:	d0f6      	beq.n	1000ac86 <at_ble_event_get+0x42>
1000ac98:	2cd0      	cmp	r4, #208	; 0xd0
1000ac9a:	d100      	bne.n	1000ac9e <at_ble_event_get+0x5a>
1000ac9c:	e289      	b.n	1000b1b2 <at_ble_event_get+0x56e>
1000ac9e:	1ee3      	subs	r3, r4, #3
1000aca0:	1e5a      	subs	r2, r3, #1
1000aca2:	4193      	sbcs	r3, r2
1000aca4:	6838      	ldr	r0, [r7, #0]
1000aca6:	425b      	negs	r3, r3
1000aca8:	401c      	ands	r4, r3
1000acaa:	2800      	cmp	r0, #0
1000acac:	d100      	bne.n	1000acb0 <at_ble_event_get+0x6c>
1000acae:	e286      	b.n	1000b1be <at_ble_event_get+0x57a>
1000acb0:	6803      	ldr	r3, [r0, #0]
1000acb2:	68c1      	ldr	r1, [r0, #12]
1000acb4:	603b      	str	r3, [r7, #0]
1000acb6:	4f9a      	ldr	r7, [pc, #616]	; (1000af20 <at_ble_event_get+0x2dc>)
1000acb8:	88c2      	ldrh	r2, [r0, #6]
1000acba:	683e      	ldr	r6, [r7, #0]
1000acbc:	8883      	ldrh	r3, [r0, #4]
1000acbe:	6006      	str	r6, [r0, #0]
1000acc0:	6038      	str	r0, [r7, #0]
1000acc2:	2c00      	cmp	r4, #0
1000acc4:	d112      	bne.n	1000acec <at_ble_event_get+0xa8>
1000acc6:	4897      	ldr	r0, [pc, #604]	; (1000af24 <at_ble_event_get+0x2e0>)
1000acc8:	4283      	cmp	r3, r0
1000acca:	d008      	beq.n	1000acde <at_ble_event_get+0x9a>
1000accc:	4896      	ldr	r0, [pc, #600]	; (1000af28 <at_ble_event_get+0x2e4>)
1000acce:	4283      	cmp	r3, r0
1000acd0:	d11d      	bne.n	1000ad0e <at_ble_event_get+0xca>
1000acd2:	233a      	movs	r3, #58	; 0x3a
1000acd4:	2400      	movs	r4, #0
1000acd6:	9a01      	ldr	r2, [sp, #4]
1000acd8:	1c25      	adds	r5, r4, #0
1000acda:	7013      	strb	r3, [r2, #0]
1000acdc:	e006      	b.n	1000acec <at_ble_event_get+0xa8>
1000acde:	429a      	cmp	r2, r3
1000ace0:	d000      	beq.n	1000ace4 <at_ble_event_get+0xa0>
1000ace2:	e268      	b.n	1000b1b6 <at_ble_event_get+0x572>
1000ace4:	2338      	movs	r3, #56	; 0x38
1000ace6:	9a01      	ldr	r2, [sp, #4]
1000ace8:	7013      	strb	r3, [r2, #0]
1000acea:	6029      	str	r1, [r5, #0]
1000acec:	9b01      	ldr	r3, [sp, #4]
1000acee:	781b      	ldrb	r3, [r3, #0]
1000acf0:	2b3b      	cmp	r3, #59	; 0x3b
1000acf2:	d003      	beq.n	1000acfc <at_ble_event_get+0xb8>
1000acf4:	9b03      	ldr	r3, [sp, #12]
1000acf6:	3303      	adds	r3, #3
1000acf8:	d903      	bls.n	1000ad02 <at_ble_event_get+0xbe>
1000acfa:	e264      	b.n	1000b1c6 <at_ble_event_get+0x582>
1000acfc:	2c00      	cmp	r4, #0
1000acfe:	d0b0      	beq.n	1000ac62 <at_ble_event_get+0x1e>
1000ad00:	e7f8      	b.n	1000acf4 <at_ble_event_get+0xb0>
1000ad02:	2cd0      	cmp	r4, #208	; 0xd0
1000ad04:	d100      	bne.n	1000ad08 <at_ble_event_get+0xc4>
1000ad06:	e25e      	b.n	1000b1c6 <at_ble_event_get+0x582>
1000ad08:	4b88      	ldr	r3, [pc, #544]	; (1000af2c <at_ble_event_get+0x2e8>)
1000ad0a:	4798      	blx	r3
1000ad0c:	e25b      	b.n	1000b1c6 <at_ble_event_get+0x582>
1000ad0e:	2abb      	cmp	r2, #187	; 0xbb
1000ad10:	d123      	bne.n	1000ad5a <at_ble_event_get+0x116>
1000ad12:	2bbb      	cmp	r3, #187	; 0xbb
1000ad14:	d121      	bne.n	1000ad5a <at_ble_event_get+0x116>
1000ad16:	80ac      	strh	r4, [r5, #4]
1000ad18:	788b      	ldrb	r3, [r1, #2]
1000ad1a:	784a      	ldrb	r2, [r1, #1]
1000ad1c:	021b      	lsls	r3, r3, #8
1000ad1e:	78cf      	ldrb	r7, [r1, #3]
1000ad20:	7908      	ldrb	r0, [r1, #4]
1000ad22:	4313      	orrs	r3, r2
1000ad24:	794a      	ldrb	r2, [r1, #5]
1000ad26:	4982      	ldr	r1, [pc, #520]	; (1000af30 <at_ble_event_get+0x2ec>)
1000ad28:	70af      	strb	r7, [r5, #2]
1000ad2a:	802b      	strh	r3, [r5, #0]
1000ad2c:	428b      	cmp	r3, r1
1000ad2e:	d806      	bhi.n	1000ad3e <at_ble_event_get+0xfa>
1000ad30:	4a80      	ldr	r2, [pc, #512]	; (1000af34 <at_ble_event_get+0x2f0>)
1000ad32:	4293      	cmp	r3, r2
1000ad34:	d20b      	bcs.n	1000ad4e <at_ble_event_get+0x10a>
1000ad36:	4a80      	ldr	r2, [pc, #512]	; (1000af38 <at_ble_event_get+0x2f4>)
1000ad38:	4293      	cmp	r3, r2
1000ad3a:	d008      	beq.n	1000ad4e <at_ble_event_get+0x10a>
1000ad3c:	e009      	b.n	1000ad52 <at_ble_event_get+0x10e>
1000ad3e:	497f      	ldr	r1, [pc, #508]	; (1000af3c <at_ble_event_get+0x2f8>)
1000ad40:	428b      	cmp	r3, r1
1000ad42:	d106      	bne.n	1000ad52 <at_ble_event_get+0x10e>
1000ad44:	0213      	lsls	r3, r2, #8
1000ad46:	4303      	orrs	r3, r0
1000ad48:	80ab      	strh	r3, [r5, #4]
1000ad4a:	2337      	movs	r3, #55	; 0x37
1000ad4c:	e002      	b.n	1000ad54 <at_ble_event_get+0x110>
1000ad4e:	2336      	movs	r3, #54	; 0x36
1000ad50:	e000      	b.n	1000ad54 <at_ble_event_get+0x110>
1000ad52:	2300      	movs	r3, #0
1000ad54:	9a01      	ldr	r2, [sp, #4]
1000ad56:	7013      	strb	r3, [r2, #0]
1000ad58:	e7c8      	b.n	1000acec <at_ble_event_get+0xa8>
1000ad5a:	4879      	ldr	r0, [pc, #484]	; (1000af40 <at_ble_event_get+0x2fc>)
1000ad5c:	4283      	cmp	r3, r0
1000ad5e:	d100      	bne.n	1000ad62 <at_ble_event_get+0x11e>
1000ad60:	e14c      	b.n	1000affc <at_ble_event_get+0x3b8>
1000ad62:	d864      	bhi.n	1000ae2e <at_ble_event_get+0x1ea>
1000ad64:	4877      	ldr	r0, [pc, #476]	; (1000af44 <at_ble_event_get+0x300>)
1000ad66:	4283      	cmp	r3, r0
1000ad68:	d100      	bne.n	1000ad6c <at_ble_event_get+0x128>
1000ad6a:	e1cd      	b.n	1000b108 <at_ble_event_get+0x4c4>
1000ad6c:	d82f      	bhi.n	1000adce <at_ble_event_get+0x18a>
1000ad6e:	4876      	ldr	r0, [pc, #472]	; (1000af48 <at_ble_event_get+0x304>)
1000ad70:	4283      	cmp	r3, r0
1000ad72:	d100      	bne.n	1000ad76 <at_ble_event_get+0x132>
1000ad74:	e1d6      	b.n	1000b124 <at_ble_event_get+0x4e0>
1000ad76:	d813      	bhi.n	1000ada0 <at_ble_event_get+0x15c>
1000ad78:	4874      	ldr	r0, [pc, #464]	; (1000af4c <at_ble_event_get+0x308>)
1000ad7a:	4283      	cmp	r3, r0
1000ad7c:	d100      	bne.n	1000ad80 <at_ble_event_get+0x13c>
1000ad7e:	e19f      	b.n	1000b0c0 <at_ble_event_get+0x47c>
1000ad80:	d804      	bhi.n	1000ad8c <at_ble_event_get+0x148>
1000ad82:	2438      	movs	r4, #56	; 0x38
1000ad84:	42a3      	cmp	r3, r4
1000ad86:	d100      	bne.n	1000ad8a <at_ble_event_get+0x146>
1000ad88:	e20f      	b.n	1000b1aa <at_ble_event_get+0x566>
1000ad8a:	e0b6      	b.n	1000aefa <at_ble_event_get+0x2b6>
1000ad8c:	4870      	ldr	r0, [pc, #448]	; (1000af50 <at_ble_event_get+0x30c>)
1000ad8e:	4283      	cmp	r3, r0
1000ad90:	d100      	bne.n	1000ad94 <at_ble_event_get+0x150>
1000ad92:	e19b      	b.n	1000b0cc <at_ble_event_get+0x488>
1000ad94:	30fe      	adds	r0, #254	; 0xfe
1000ad96:	30ff      	adds	r0, #255	; 0xff
1000ad98:	4283      	cmp	r3, r0
1000ad9a:	d100      	bne.n	1000ad9e <at_ble_event_get+0x15a>
1000ad9c:	e1c8      	b.n	1000b130 <at_ble_event_get+0x4ec>
1000ad9e:	e0ac      	b.n	1000aefa <at_ble_event_get+0x2b6>
1000ada0:	486c      	ldr	r0, [pc, #432]	; (1000af54 <at_ble_event_get+0x310>)
1000ada2:	4283      	cmp	r3, r0
1000ada4:	d100      	bne.n	1000ada8 <at_ble_event_get+0x164>
1000ada6:	e1a3      	b.n	1000b0f0 <at_ble_event_get+0x4ac>
1000ada8:	d808      	bhi.n	1000adbc <at_ble_event_get+0x178>
1000adaa:	486b      	ldr	r0, [pc, #428]	; (1000af58 <at_ble_event_get+0x314>)
1000adac:	4283      	cmp	r3, r0
1000adae:	d100      	bne.n	1000adb2 <at_ble_event_get+0x16e>
1000adb0:	e192      	b.n	1000b0d8 <at_ble_event_get+0x494>
1000adb2:	486a      	ldr	r0, [pc, #424]	; (1000af5c <at_ble_event_get+0x318>)
1000adb4:	4283      	cmp	r3, r0
1000adb6:	d100      	bne.n	1000adba <at_ble_event_get+0x176>
1000adb8:	e194      	b.n	1000b0e4 <at_ble_event_get+0x4a0>
1000adba:	e09e      	b.n	1000aefa <at_ble_event_get+0x2b6>
1000adbc:	4868      	ldr	r0, [pc, #416]	; (1000af60 <at_ble_event_get+0x31c>)
1000adbe:	4283      	cmp	r3, r0
1000adc0:	d100      	bne.n	1000adc4 <at_ble_event_get+0x180>
1000adc2:	e19b      	b.n	1000b0fc <at_ble_event_get+0x4b8>
1000adc4:	4867      	ldr	r0, [pc, #412]	; (1000af64 <at_ble_event_get+0x320>)
1000adc6:	4283      	cmp	r3, r0
1000adc8:	d100      	bne.n	1000adcc <at_ble_event_get+0x188>
1000adca:	e1c5      	b.n	1000b158 <at_ble_event_get+0x514>
1000adcc:	e095      	b.n	1000aefa <at_ble_event_get+0x2b6>
1000adce:	4866      	ldr	r0, [pc, #408]	; (1000af68 <at_ble_event_get+0x324>)
1000add0:	4283      	cmp	r3, r0
1000add2:	d100      	bne.n	1000add6 <at_ble_event_get+0x192>
1000add4:	e1ba      	b.n	1000b14c <at_ble_event_get+0x508>
1000add6:	d812      	bhi.n	1000adfe <at_ble_event_get+0x1ba>
1000add8:	4864      	ldr	r0, [pc, #400]	; (1000af6c <at_ble_event_get+0x328>)
1000adda:	4283      	cmp	r3, r0
1000addc:	d100      	bne.n	1000ade0 <at_ble_event_get+0x19c>
1000adde:	e1c1      	b.n	1000b164 <at_ble_event_get+0x520>
1000ade0:	d804      	bhi.n	1000adec <at_ble_event_get+0x1a8>
1000ade2:	4863      	ldr	r0, [pc, #396]	; (1000af70 <at_ble_event_get+0x32c>)
1000ade4:	4283      	cmp	r3, r0
1000ade6:	d100      	bne.n	1000adea <at_ble_event_get+0x1a6>
1000ade8:	e192      	b.n	1000b110 <at_ble_event_get+0x4cc>
1000adea:	e086      	b.n	1000aefa <at_ble_event_get+0x2b6>
1000adec:	4861      	ldr	r0, [pc, #388]	; (1000af74 <at_ble_event_get+0x330>)
1000adee:	4283      	cmp	r3, r0
1000adf0:	d100      	bne.n	1000adf4 <at_ble_event_get+0x1b0>
1000adf2:	e1a1      	b.n	1000b138 <at_ble_event_get+0x4f4>
1000adf4:	4860      	ldr	r0, [pc, #384]	; (1000af78 <at_ble_event_get+0x334>)
1000adf6:	4283      	cmp	r3, r0
1000adf8:	d100      	bne.n	1000adfc <at_ble_event_get+0x1b8>
1000adfa:	e1a3      	b.n	1000b144 <at_ble_event_get+0x500>
1000adfc:	e07d      	b.n	1000aefa <at_ble_event_get+0x2b6>
1000adfe:	4a5f      	ldr	r2, [pc, #380]	; (1000af7c <at_ble_event_get+0x338>)
1000ae00:	4293      	cmp	r3, r2
1000ae02:	d100      	bne.n	1000ae06 <at_ble_event_get+0x1c2>
1000ae04:	e07f      	b.n	1000af06 <at_ble_event_get+0x2c2>
1000ae06:	d808      	bhi.n	1000ae1a <at_ble_event_get+0x1d6>
1000ae08:	3a08      	subs	r2, #8
1000ae0a:	4293      	cmp	r3, r2
1000ae0c:	d077      	beq.n	1000aefe <at_ble_event_get+0x2ba>
1000ae0e:	4a5c      	ldr	r2, [pc, #368]	; (1000af80 <at_ble_event_get+0x33c>)
1000ae10:	2439      	movs	r4, #57	; 0x39
1000ae12:	4293      	cmp	r3, r2
1000ae14:	d100      	bne.n	1000ae18 <at_ble_event_get+0x1d4>
1000ae16:	e1c8      	b.n	1000b1aa <at_ble_event_get+0x566>
1000ae18:	e06f      	b.n	1000aefa <at_ble_event_get+0x2b6>
1000ae1a:	22d1      	movs	r2, #209	; 0xd1
1000ae1c:	0112      	lsls	r2, r2, #4
1000ae1e:	4293      	cmp	r3, r2
1000ae20:	d100      	bne.n	1000ae24 <at_ble_event_get+0x1e0>
1000ae22:	e0df      	b.n	1000afe4 <at_ble_event_get+0x3a0>
1000ae24:	4a57      	ldr	r2, [pc, #348]	; (1000af84 <at_ble_event_get+0x340>)
1000ae26:	4293      	cmp	r3, r2
1000ae28:	d100      	bne.n	1000ae2c <at_ble_event_get+0x1e8>
1000ae2a:	e0e1      	b.n	1000aff0 <at_ble_event_get+0x3ac>
1000ae2c:	e065      	b.n	1000aefa <at_ble_event_get+0x2b6>
1000ae2e:	4856      	ldr	r0, [pc, #344]	; (1000af88 <at_ble_event_get+0x344>)
1000ae30:	4283      	cmp	r3, r0
1000ae32:	d100      	bne.n	1000ae36 <at_ble_event_get+0x1f2>
1000ae34:	e118      	b.n	1000b068 <at_ble_event_get+0x424>
1000ae36:	d82e      	bhi.n	1000ae96 <at_ble_event_get+0x252>
1000ae38:	4854      	ldr	r0, [pc, #336]	; (1000af8c <at_ble_event_get+0x348>)
1000ae3a:	4283      	cmp	r3, r0
1000ae3c:	d100      	bne.n	1000ae40 <at_ble_event_get+0x1fc>
1000ae3e:	e13b      	b.n	1000b0b8 <at_ble_event_get+0x474>
1000ae40:	d812      	bhi.n	1000ae68 <at_ble_event_get+0x224>
1000ae42:	4853      	ldr	r0, [pc, #332]	; (1000af90 <at_ble_event_get+0x34c>)
1000ae44:	4283      	cmp	r3, r0
1000ae46:	d100      	bne.n	1000ae4a <at_ble_event_get+0x206>
1000ae48:	e0ee      	b.n	1000b028 <at_ble_event_get+0x3e4>
1000ae4a:	d804      	bhi.n	1000ae56 <at_ble_event_get+0x212>
1000ae4c:	3803      	subs	r0, #3
1000ae4e:	4283      	cmp	r3, r0
1000ae50:	d100      	bne.n	1000ae54 <at_ble_event_get+0x210>
1000ae52:	e0d9      	b.n	1000b008 <at_ble_event_get+0x3c4>
1000ae54:	e051      	b.n	1000aefa <at_ble_event_get+0x2b6>
1000ae56:	484f      	ldr	r0, [pc, #316]	; (1000af94 <at_ble_event_get+0x350>)
1000ae58:	4283      	cmp	r3, r0
1000ae5a:	d100      	bne.n	1000ae5e <at_ble_event_get+0x21a>
1000ae5c:	e0d8      	b.n	1000b010 <at_ble_event_get+0x3cc>
1000ae5e:	484e      	ldr	r0, [pc, #312]	; (1000af98 <at_ble_event_get+0x354>)
1000ae60:	4283      	cmp	r3, r0
1000ae62:	d100      	bne.n	1000ae66 <at_ble_event_get+0x222>
1000ae64:	e0fb      	b.n	1000b05e <at_ble_event_get+0x41a>
1000ae66:	e048      	b.n	1000aefa <at_ble_event_get+0x2b6>
1000ae68:	484c      	ldr	r0, [pc, #304]	; (1000af9c <at_ble_event_get+0x358>)
1000ae6a:	4283      	cmp	r3, r0
1000ae6c:	d100      	bne.n	1000ae70 <at_ble_event_get+0x22c>
1000ae6e:	e0e1      	b.n	1000b034 <at_ble_event_get+0x3f0>
1000ae70:	d808      	bhi.n	1000ae84 <at_ble_event_get+0x240>
1000ae72:	484b      	ldr	r0, [pc, #300]	; (1000afa0 <at_ble_event_get+0x35c>)
1000ae74:	4283      	cmp	r3, r0
1000ae76:	d100      	bne.n	1000ae7a <at_ble_event_get+0x236>
1000ae78:	e11a      	b.n	1000b0b0 <at_ble_event_get+0x46c>
1000ae7a:	484a      	ldr	r0, [pc, #296]	; (1000afa4 <at_ble_event_get+0x360>)
1000ae7c:	4283      	cmp	r3, r0
1000ae7e:	d100      	bne.n	1000ae82 <at_ble_event_get+0x23e>
1000ae80:	e0dd      	b.n	1000b03e <at_ble_event_get+0x3fa>
1000ae82:	e03a      	b.n	1000aefa <at_ble_event_get+0x2b6>
1000ae84:	4848      	ldr	r0, [pc, #288]	; (1000afa8 <at_ble_event_get+0x364>)
1000ae86:	4283      	cmp	r3, r0
1000ae88:	d100      	bne.n	1000ae8c <at_ble_event_get+0x248>
1000ae8a:	e0dc      	b.n	1000b046 <at_ble_event_get+0x402>
1000ae8c:	4847      	ldr	r0, [pc, #284]	; (1000afac <at_ble_event_get+0x368>)
1000ae8e:	4283      	cmp	r3, r0
1000ae90:	d100      	bne.n	1000ae94 <at_ble_event_get+0x250>
1000ae92:	e0de      	b.n	1000b052 <at_ble_event_get+0x40e>
1000ae94:	e031      	b.n	1000aefa <at_ble_event_get+0x2b6>
1000ae96:	4846      	ldr	r0, [pc, #280]	; (1000afb0 <at_ble_event_get+0x36c>)
1000ae98:	4283      	cmp	r3, r0
1000ae9a:	d100      	bne.n	1000ae9e <at_ble_event_get+0x25a>
1000ae9c:	e0f6      	b.n	1000b08c <at_ble_event_get+0x448>
1000ae9e:	d816      	bhi.n	1000aece <at_ble_event_get+0x28a>
1000aea0:	4844      	ldr	r0, [pc, #272]	; (1000afb4 <at_ble_event_get+0x370>)
1000aea2:	4283      	cmp	r3, r0
1000aea4:	d100      	bne.n	1000aea8 <at_ble_event_get+0x264>
1000aea6:	e0f7      	b.n	1000b098 <at_ble_event_get+0x454>
1000aea8:	d808      	bhi.n	1000aebc <at_ble_event_get+0x278>
1000aeaa:	4843      	ldr	r0, [pc, #268]	; (1000afb8 <at_ble_event_get+0x374>)
1000aeac:	4283      	cmp	r3, r0
1000aeae:	d100      	bne.n	1000aeb2 <at_ble_event_get+0x26e>
1000aeb0:	e0e0      	b.n	1000b074 <at_ble_event_get+0x430>
1000aeb2:	4842      	ldr	r0, [pc, #264]	; (1000afbc <at_ble_event_get+0x378>)
1000aeb4:	4283      	cmp	r3, r0
1000aeb6:	d100      	bne.n	1000aeba <at_ble_event_get+0x276>
1000aeb8:	e0b0      	b.n	1000b01c <at_ble_event_get+0x3d8>
1000aeba:	e01e      	b.n	1000aefa <at_ble_event_get+0x2b6>
1000aebc:	4a40      	ldr	r2, [pc, #256]	; (1000afc0 <at_ble_event_get+0x37c>)
1000aebe:	4293      	cmp	r3, r2
1000aec0:	d100      	bne.n	1000aec4 <at_ble_event_get+0x280>
1000aec2:	e0dd      	b.n	1000b080 <at_ble_event_get+0x43c>
1000aec4:	4a3f      	ldr	r2, [pc, #252]	; (1000afc4 <at_ble_event_get+0x380>)
1000aec6:	4293      	cmp	r3, r2
1000aec8:	d100      	bne.n	1000aecc <at_ble_event_get+0x288>
1000aeca:	e0eb      	b.n	1000b0a4 <at_ble_event_get+0x460>
1000aecc:	e015      	b.n	1000aefa <at_ble_event_get+0x2b6>
1000aece:	483e      	ldr	r0, [pc, #248]	; (1000afc8 <at_ble_event_get+0x384>)
1000aed0:	4283      	cmp	r3, r0
1000aed2:	d100      	bne.n	1000aed6 <at_ble_event_get+0x292>
1000aed4:	e158      	b.n	1000b188 <at_ble_event_get+0x544>
1000aed6:	d808      	bhi.n	1000aeea <at_ble_event_get+0x2a6>
1000aed8:	483c      	ldr	r0, [pc, #240]	; (1000afcc <at_ble_event_get+0x388>)
1000aeda:	4283      	cmp	r3, r0
1000aedc:	d100      	bne.n	1000aee0 <at_ble_event_get+0x29c>
1000aede:	e147      	b.n	1000b170 <at_ble_event_get+0x52c>
1000aee0:	483b      	ldr	r0, [pc, #236]	; (1000afd0 <at_ble_event_get+0x38c>)
1000aee2:	4283      	cmp	r3, r0
1000aee4:	d100      	bne.n	1000aee8 <at_ble_event_get+0x2a4>
1000aee6:	e149      	b.n	1000b17c <at_ble_event_get+0x538>
1000aee8:	e007      	b.n	1000aefa <at_ble_event_get+0x2b6>
1000aeea:	483a      	ldr	r0, [pc, #232]	; (1000afd4 <at_ble_event_get+0x390>)
1000aeec:	4283      	cmp	r3, r0
1000aeee:	d100      	bne.n	1000aef2 <at_ble_event_get+0x2ae>
1000aef0:	e150      	b.n	1000b194 <at_ble_event_get+0x550>
1000aef2:	4839      	ldr	r0, [pc, #228]	; (1000afd8 <at_ble_event_get+0x394>)
1000aef4:	4283      	cmp	r3, r0
1000aef6:	d100      	bne.n	1000aefa <at_ble_event_get+0x2b6>
1000aef8:	e152      	b.n	1000b1a0 <at_ble_event_get+0x55c>
1000aefa:	2400      	movs	r4, #0
1000aefc:	e155      	b.n	1000b1aa <at_ble_event_get+0x566>
1000aefe:	1c08      	adds	r0, r1, #0
1000af00:	4b36      	ldr	r3, [pc, #216]	; (1000afdc <at_ble_event_get+0x398>)
1000af02:	1c29      	adds	r1, r5, #0
1000af04:	e07d      	b.n	1000b002 <at_ble_event_get+0x3be>
1000af06:	1c08      	adds	r0, r1, #0
1000af08:	4b35      	ldr	r3, [pc, #212]	; (1000afe0 <at_ble_event_get+0x39c>)
1000af0a:	1c29      	adds	r1, r5, #0
1000af0c:	4798      	blx	r3
1000af0e:	2404      	movs	r4, #4
1000af10:	e14b      	b.n	1000b1aa <at_ble_event_get+0x566>
1000af12:	46c0      	nop			; (mov r8, r8)
1000af14:	1000c541 	.word	0x1000c541
1000af18:	1001047c 	.word	0x1001047c
1000af1c:	1000a471 	.word	0x1000a471
1000af20:	10010480 	.word	0x10010480
1000af24:	0000ffff 	.word	0x0000ffff
1000af28:	0000fffe 	.word	0x0000fffe
1000af2c:	1000c543 	.word	0x1000c543
1000af30:	0000201e 	.word	0x0000201e
1000af34:	0000201d 	.word	0x0000201d
1000af38:	00000c03 	.word	0x00000c03
1000af3c:	0000201f 	.word	0x0000201f
1000af40:	00000d1c 	.word	0x00000d1c
1000af44:	00000c0c 	.word	0x00000c0c
1000af48:	00000c02 	.word	0x00000c02
1000af4c:	00000a02 	.word	0x00000a02
1000af50:	00000a03 	.word	0x00000a03
1000af54:	00000c06 	.word	0x00000c06
1000af58:	00000c04 	.word	0x00000c04
1000af5c:	00000c05 	.word	0x00000c05
1000af60:	00000c07 	.word	0x00000c07
1000af64:	00000c09 	.word	0x00000c09
1000af68:	00000c17 	.word	0x00000c17
1000af6c:	00000c12 	.word	0x00000c12
1000af70:	00000c0d 	.word	0x00000c0d
1000af74:	00000c13 	.word	0x00000c13
1000af78:	00000c15 	.word	0x00000c15
1000af7c:	00000d08 	.word	0x00000d08
1000af80:	00000d01 	.word	0x00000d01
1000af84:	00000d15 	.word	0x00000d15
1000af88:	00000e1b 	.word	0x00000e1b
1000af8c:	00000e0f 	.word	0x00000e0f
1000af90:	00000e03 	.word	0x00000e03
1000af94:	00000e06 	.word	0x00000e06
1000af98:	00000e0a 	.word	0x00000e0a
1000af9c:	00000e15 	.word	0x00000e15
1000afa0:	00000e11 	.word	0x00000e11
1000afa4:	00000e13 	.word	0x00000e13
1000afa8:	00000e17 	.word	0x00000e17
1000afac:	00000e19 	.word	0x00000e19
1000afb0:	00000e27 	.word	0x00000e27
1000afb4:	00000e21 	.word	0x00000e21
1000afb8:	00000e1c 	.word	0x00000e1c
1000afbc:	00000e1d 	.word	0x00000e1d
1000afc0:	00000e22 	.word	0x00000e22
1000afc4:	00000e25 	.word	0x00000e25
1000afc8:	00001b05 	.word	0x00001b05
1000afcc:	00001b01 	.word	0x00001b01
1000afd0:	00001b03 	.word	0x00001b03
1000afd4:	00001b06 	.word	0x00001b06
1000afd8:	00001b08 	.word	0x00001b08
1000afdc:	1000d36d 	.word	0x1000d36d
1000afe0:	1000d351 	.word	0x1000d351
1000afe4:	1c08      	adds	r0, r1, #0
1000afe6:	4b79      	ldr	r3, [pc, #484]	; (1000b1cc <at_ble_event_get+0x588>)
1000afe8:	1c29      	adds	r1, r5, #0
1000afea:	4798      	blx	r3
1000afec:	2401      	movs	r4, #1
1000afee:	e0dc      	b.n	1000b1aa <at_ble_event_get+0x566>
1000aff0:	1c08      	adds	r0, r1, #0
1000aff2:	4b77      	ldr	r3, [pc, #476]	; (1000b1d0 <at_ble_event_get+0x58c>)
1000aff4:	1c29      	adds	r1, r5, #0
1000aff6:	4798      	blx	r3
1000aff8:	240f      	movs	r4, #15
1000affa:	e0d6      	b.n	1000b1aa <at_ble_event_get+0x566>
1000affc:	1c08      	adds	r0, r1, #0
1000affe:	1c29      	adds	r1, r5, #0
1000b000:	4b74      	ldr	r3, [pc, #464]	; (1000b1d4 <at_ble_event_get+0x590>)
1000b002:	4798      	blx	r3
1000b004:	1c04      	adds	r4, r0, #0
1000b006:	e0d0      	b.n	1000b1aa <at_ble_event_get+0x566>
1000b008:	1c10      	adds	r0, r2, #0
1000b00a:	4b73      	ldr	r3, [pc, #460]	; (1000b1d8 <at_ble_event_get+0x594>)
1000b00c:	1c2a      	adds	r2, r5, #0
1000b00e:	e014      	b.n	1000b03a <at_ble_event_get+0x3f6>
1000b010:	1c10      	adds	r0, r2, #0
1000b012:	4b72      	ldr	r3, [pc, #456]	; (1000b1dc <at_ble_event_get+0x598>)
1000b014:	1c2a      	adds	r2, r5, #0
1000b016:	4798      	blx	r3
1000b018:	2411      	movs	r4, #17
1000b01a:	e0c6      	b.n	1000b1aa <at_ble_event_get+0x566>
1000b01c:	1c10      	adds	r0, r2, #0
1000b01e:	4b70      	ldr	r3, [pc, #448]	; (1000b1e0 <at_ble_event_get+0x59c>)
1000b020:	1c2a      	adds	r2, r5, #0
1000b022:	4798      	blx	r3
1000b024:	2412      	movs	r4, #18
1000b026:	e0c0      	b.n	1000b1aa <at_ble_event_get+0x566>
1000b028:	1c08      	adds	r0, r1, #0
1000b02a:	4b6e      	ldr	r3, [pc, #440]	; (1000b1e4 <at_ble_event_get+0x5a0>)
1000b02c:	1c29      	adds	r1, r5, #0
1000b02e:	4798      	blx	r3
1000b030:	2406      	movs	r4, #6
1000b032:	e0ba      	b.n	1000b1aa <at_ble_event_get+0x566>
1000b034:	1c10      	adds	r0, r2, #0
1000b036:	1c2a      	adds	r2, r5, #0
1000b038:	4b6b      	ldr	r3, [pc, #428]	; (1000b1e8 <at_ble_event_get+0x5a4>)
1000b03a:	4798      	blx	r3
1000b03c:	e7e2      	b.n	1000b004 <at_ble_event_get+0x3c0>
1000b03e:	1c10      	adds	r0, r2, #0
1000b040:	4b6a      	ldr	r3, [pc, #424]	; (1000b1ec <at_ble_event_get+0x5a8>)
1000b042:	1c2a      	adds	r2, r5, #0
1000b044:	e7f9      	b.n	1000b03a <at_ble_event_get+0x3f6>
1000b046:	1c10      	adds	r0, r2, #0
1000b048:	4b69      	ldr	r3, [pc, #420]	; (1000b1f0 <at_ble_event_get+0x5ac>)
1000b04a:	1c2a      	adds	r2, r5, #0
1000b04c:	4798      	blx	r3
1000b04e:	240d      	movs	r4, #13
1000b050:	e0ab      	b.n	1000b1aa <at_ble_event_get+0x566>
1000b052:	1c10      	adds	r0, r2, #0
1000b054:	4b67      	ldr	r3, [pc, #412]	; (1000b1f4 <at_ble_event_get+0x5b0>)
1000b056:	1c2a      	adds	r2, r5, #0
1000b058:	4798      	blx	r3
1000b05a:	240e      	movs	r4, #14
1000b05c:	e0a5      	b.n	1000b1aa <at_ble_event_get+0x566>
1000b05e:	1c10      	adds	r0, r2, #0
1000b060:	4b65      	ldr	r3, [pc, #404]	; (1000b1f8 <at_ble_event_get+0x5b4>)
1000b062:	1c2a      	adds	r2, r5, #0
1000b064:	4798      	blx	r3
1000b066:	e075      	b.n	1000b154 <at_ble_event_get+0x510>
1000b068:	1c10      	adds	r0, r2, #0
1000b06a:	4b64      	ldr	r3, [pc, #400]	; (1000b1fc <at_ble_event_get+0x5b8>)
1000b06c:	1c2a      	adds	r2, r5, #0
1000b06e:	4798      	blx	r3
1000b070:	240b      	movs	r4, #11
1000b072:	e09a      	b.n	1000b1aa <at_ble_event_get+0x566>
1000b074:	1c10      	adds	r0, r2, #0
1000b076:	4b62      	ldr	r3, [pc, #392]	; (1000b200 <at_ble_event_get+0x5bc>)
1000b078:	1c2a      	adds	r2, r5, #0
1000b07a:	4798      	blx	r3
1000b07c:	2410      	movs	r4, #16
1000b07e:	e094      	b.n	1000b1aa <at_ble_event_get+0x566>
1000b080:	1c08      	adds	r0, r1, #0
1000b082:	4b60      	ldr	r3, [pc, #384]	; (1000b204 <at_ble_event_get+0x5c0>)
1000b084:	1c29      	adds	r1, r5, #0
1000b086:	4798      	blx	r3
1000b088:	2428      	movs	r4, #40	; 0x28
1000b08a:	e08e      	b.n	1000b1aa <at_ble_event_get+0x566>
1000b08c:	1c08      	adds	r0, r1, #0
1000b08e:	4b5e      	ldr	r3, [pc, #376]	; (1000b208 <at_ble_event_get+0x5c4>)
1000b090:	1c29      	adds	r1, r5, #0
1000b092:	4798      	blx	r3
1000b094:	2429      	movs	r4, #41	; 0x29
1000b096:	e088      	b.n	1000b1aa <at_ble_event_get+0x566>
1000b098:	1c08      	adds	r0, r1, #0
1000b09a:	4b5c      	ldr	r3, [pc, #368]	; (1000b20c <at_ble_event_get+0x5c8>)
1000b09c:	1c29      	adds	r1, r5, #0
1000b09e:	4798      	blx	r3
1000b0a0:	2427      	movs	r4, #39	; 0x27
1000b0a2:	e082      	b.n	1000b1aa <at_ble_event_get+0x566>
1000b0a4:	1c08      	adds	r0, r1, #0
1000b0a6:	4b5a      	ldr	r3, [pc, #360]	; (1000b210 <at_ble_event_get+0x5cc>)
1000b0a8:	1c29      	adds	r1, r5, #0
1000b0aa:	4798      	blx	r3
1000b0ac:	242a      	movs	r4, #42	; 0x2a
1000b0ae:	e07c      	b.n	1000b1aa <at_ble_event_get+0x566>
1000b0b0:	1c10      	adds	r0, r2, #0
1000b0b2:	4b58      	ldr	r3, [pc, #352]	; (1000b214 <at_ble_event_get+0x5d0>)
1000b0b4:	1c2a      	adds	r2, r5, #0
1000b0b6:	e7c0      	b.n	1000b03a <at_ble_event_get+0x3f6>
1000b0b8:	1c10      	adds	r0, r2, #0
1000b0ba:	4b57      	ldr	r3, [pc, #348]	; (1000b218 <at_ble_event_get+0x5d4>)
1000b0bc:	1c2a      	adds	r2, r5, #0
1000b0be:	e7bc      	b.n	1000b03a <at_ble_event_get+0x3f6>
1000b0c0:	1c08      	adds	r0, r1, #0
1000b0c2:	4b56      	ldr	r3, [pc, #344]	; (1000b21c <at_ble_event_get+0x5d8>)
1000b0c4:	1c29      	adds	r1, r5, #0
1000b0c6:	4798      	blx	r3
1000b0c8:	242b      	movs	r4, #43	; 0x2b
1000b0ca:	e06e      	b.n	1000b1aa <at_ble_event_get+0x566>
1000b0cc:	1c08      	adds	r0, r1, #0
1000b0ce:	4b54      	ldr	r3, [pc, #336]	; (1000b220 <at_ble_event_get+0x5dc>)
1000b0d0:	1c29      	adds	r1, r5, #0
1000b0d2:	4798      	blx	r3
1000b0d4:	242c      	movs	r4, #44	; 0x2c
1000b0d6:	e068      	b.n	1000b1aa <at_ble_event_get+0x566>
1000b0d8:	1c10      	adds	r0, r2, #0
1000b0da:	4b52      	ldr	r3, [pc, #328]	; (1000b224 <at_ble_event_get+0x5e0>)
1000b0dc:	1c2a      	adds	r2, r5, #0
1000b0de:	4798      	blx	r3
1000b0e0:	2413      	movs	r4, #19
1000b0e2:	e062      	b.n	1000b1aa <at_ble_event_get+0x566>
1000b0e4:	1c10      	adds	r0, r2, #0
1000b0e6:	4b50      	ldr	r3, [pc, #320]	; (1000b228 <at_ble_event_get+0x5e4>)
1000b0e8:	1c2a      	adds	r2, r5, #0
1000b0ea:	4798      	blx	r3
1000b0ec:	2414      	movs	r4, #20
1000b0ee:	e05c      	b.n	1000b1aa <at_ble_event_get+0x566>
1000b0f0:	1c10      	adds	r0, r2, #0
1000b0f2:	4b4e      	ldr	r3, [pc, #312]	; (1000b22c <at_ble_event_get+0x5e8>)
1000b0f4:	1c2a      	adds	r2, r5, #0
1000b0f6:	4798      	blx	r3
1000b0f8:	2415      	movs	r4, #21
1000b0fa:	e056      	b.n	1000b1aa <at_ble_event_get+0x566>
1000b0fc:	1c10      	adds	r0, r2, #0
1000b0fe:	4b4c      	ldr	r3, [pc, #304]	; (1000b230 <at_ble_event_get+0x5ec>)
1000b100:	1c2a      	adds	r2, r5, #0
1000b102:	4798      	blx	r3
1000b104:	2416      	movs	r4, #22
1000b106:	e050      	b.n	1000b1aa <at_ble_event_get+0x566>
1000b108:	1c10      	adds	r0, r2, #0
1000b10a:	4b4a      	ldr	r3, [pc, #296]	; (1000b234 <at_ble_event_get+0x5f0>)
1000b10c:	1c2a      	adds	r2, r5, #0
1000b10e:	e794      	b.n	1000b03a <at_ble_event_get+0x3f6>
1000b110:	1c10      	adds	r0, r2, #0
1000b112:	4b48      	ldr	r3, [pc, #288]	; (1000b234 <at_ble_event_get+0x5f0>)
1000b114:	1c2a      	adds	r2, r5, #0
1000b116:	4798      	blx	r3
1000b118:	88a9      	ldrh	r1, [r5, #4]
1000b11a:	1c04      	adds	r4, r0, #0
1000b11c:	4b46      	ldr	r3, [pc, #280]	; (1000b238 <at_ble_event_get+0x5f4>)
1000b11e:	8828      	ldrh	r0, [r5, #0]
1000b120:	4798      	blx	r3
1000b122:	e042      	b.n	1000b1aa <at_ble_event_get+0x566>
1000b124:	1c10      	adds	r0, r2, #0
1000b126:	4b45      	ldr	r3, [pc, #276]	; (1000b23c <at_ble_event_get+0x5f8>)
1000b128:	1c2a      	adds	r2, r5, #0
1000b12a:	4798      	blx	r3
1000b12c:	2423      	movs	r4, #35	; 0x23
1000b12e:	e03c      	b.n	1000b1aa <at_ble_event_get+0x566>
1000b130:	1c10      	adds	r0, r2, #0
1000b132:	4b43      	ldr	r3, [pc, #268]	; (1000b240 <at_ble_event_get+0x5fc>)
1000b134:	1c2a      	adds	r2, r5, #0
1000b136:	e780      	b.n	1000b03a <at_ble_event_get+0x3f6>
1000b138:	0a12      	lsrs	r2, r2, #8
1000b13a:	1c08      	adds	r0, r1, #0
1000b13c:	802a      	strh	r2, [r5, #0]
1000b13e:	1c29      	adds	r1, r5, #0
1000b140:	4b40      	ldr	r3, [pc, #256]	; (1000b244 <at_ble_event_get+0x600>)
1000b142:	e75e      	b.n	1000b002 <at_ble_event_get+0x3be>
1000b144:	1c10      	adds	r0, r2, #0
1000b146:	4b40      	ldr	r3, [pc, #256]	; (1000b248 <at_ble_event_get+0x604>)
1000b148:	1c2a      	adds	r2, r5, #0
1000b14a:	e776      	b.n	1000b03a <at_ble_event_get+0x3f6>
1000b14c:	1c08      	adds	r0, r1, #0
1000b14e:	4b3f      	ldr	r3, [pc, #252]	; (1000b24c <at_ble_event_get+0x608>)
1000b150:	1c29      	adds	r1, r5, #0
1000b152:	4798      	blx	r3
1000b154:	243b      	movs	r4, #59	; 0x3b
1000b156:	e028      	b.n	1000b1aa <at_ble_event_get+0x566>
1000b158:	1c10      	adds	r0, r2, #0
1000b15a:	4b3d      	ldr	r3, [pc, #244]	; (1000b250 <at_ble_event_get+0x60c>)
1000b15c:	1c2a      	adds	r2, r5, #0
1000b15e:	4798      	blx	r3
1000b160:	2418      	movs	r4, #24
1000b162:	e022      	b.n	1000b1aa <at_ble_event_get+0x566>
1000b164:	1c10      	adds	r0, r2, #0
1000b166:	4b3b      	ldr	r3, [pc, #236]	; (1000b254 <at_ble_event_get+0x610>)
1000b168:	1c2a      	adds	r2, r5, #0
1000b16a:	4798      	blx	r3
1000b16c:	2420      	movs	r4, #32
1000b16e:	e01c      	b.n	1000b1aa <at_ble_event_get+0x566>
1000b170:	1c10      	adds	r0, r2, #0
1000b172:	4b39      	ldr	r3, [pc, #228]	; (1000b258 <at_ble_event_get+0x614>)
1000b174:	1c2a      	adds	r2, r5, #0
1000b176:	4798      	blx	r3
1000b178:	2433      	movs	r4, #51	; 0x33
1000b17a:	e016      	b.n	1000b1aa <at_ble_event_get+0x566>
1000b17c:	1c10      	adds	r0, r2, #0
1000b17e:	4b37      	ldr	r3, [pc, #220]	; (1000b25c <at_ble_event_get+0x618>)
1000b180:	1c2a      	adds	r2, r5, #0
1000b182:	4798      	blx	r3
1000b184:	2430      	movs	r4, #48	; 0x30
1000b186:	e010      	b.n	1000b1aa <at_ble_event_get+0x566>
1000b188:	1c10      	adds	r0, r2, #0
1000b18a:	4b35      	ldr	r3, [pc, #212]	; (1000b260 <at_ble_event_get+0x61c>)
1000b18c:	1c2a      	adds	r2, r5, #0
1000b18e:	4798      	blx	r3
1000b190:	2434      	movs	r4, #52	; 0x34
1000b192:	e00a      	b.n	1000b1aa <at_ble_event_get+0x566>
1000b194:	1c10      	adds	r0, r2, #0
1000b196:	4b33      	ldr	r3, [pc, #204]	; (1000b264 <at_ble_event_get+0x620>)
1000b198:	1c2a      	adds	r2, r5, #0
1000b19a:	4798      	blx	r3
1000b19c:	2435      	movs	r4, #53	; 0x35
1000b19e:	e004      	b.n	1000b1aa <at_ble_event_get+0x566>
1000b1a0:	1c10      	adds	r0, r2, #0
1000b1a2:	4b31      	ldr	r3, [pc, #196]	; (1000b268 <at_ble_event_get+0x624>)
1000b1a4:	1c2a      	adds	r2, r5, #0
1000b1a6:	4798      	blx	r3
1000b1a8:	2432      	movs	r4, #50	; 0x32
1000b1aa:	9b01      	ldr	r3, [sp, #4]
1000b1ac:	701c      	strb	r4, [r3, #0]
1000b1ae:	2400      	movs	r4, #0
1000b1b0:	e59c      	b.n	1000acec <at_ble_event_get+0xa8>
1000b1b2:	24d0      	movs	r4, #208	; 0xd0
1000b1b4:	e59a      	b.n	1000acec <at_ble_event_get+0xa8>
1000b1b6:	2abb      	cmp	r2, #187	; 0xbb
1000b1b8:	d000      	beq.n	1000b1bc <at_ble_event_get+0x578>
1000b1ba:	e69e      	b.n	1000aefa <at_ble_event_get+0x2b6>
1000b1bc:	e7f5      	b.n	1000b1aa <at_ble_event_get+0x566>
1000b1be:	2c00      	cmp	r4, #0
1000b1c0:	d000      	beq.n	1000b1c4 <at_ble_event_get+0x580>
1000b1c2:	e593      	b.n	1000acec <at_ble_event_get+0xa8>
1000b1c4:	e699      	b.n	1000aefa <at_ble_event_get+0x2b6>
1000b1c6:	1c20      	adds	r0, r4, #0
1000b1c8:	b005      	add	sp, #20
1000b1ca:	bdf0      	pop	{r4, r5, r6, r7, pc}
1000b1cc:	1000d5ed 	.word	0x1000d5ed
1000b1d0:	1000d6dd 	.word	0x1000d6dd
1000b1d4:	1000d701 	.word	0x1000d701
1000b1d8:	1000c6e5 	.word	0x1000c6e5
1000b1dc:	1000cf65 	.word	0x1000cf65
1000b1e0:	1000cfe1 	.word	0x1000cfe1
1000b1e4:	1000c99d 	.word	0x1000c99d
1000b1e8:	1000ca39 	.word	0x1000ca39
1000b1ec:	1000cb11 	.word	0x1000cb11
1000b1f0:	1000cd99 	.word	0x1000cd99
1000b1f4:	1000ce39 	.word	0x1000ce39
1000b1f8:	1000cef1 	.word	0x1000cef1
1000b1fc:	1000cf19 	.word	0x1000cf19
1000b200:	1000cf2f 	.word	0x1000cf2f
1000b204:	1000cff9 	.word	0x1000cff9
1000b208:	1000d027 	.word	0x1000d027
1000b20c:	1000d03d 	.word	0x1000d03d
1000b210:	1000d067 	.word	0x1000d067
1000b214:	1000ce95 	.word	0x1000ce95
1000b218:	1000cebf 	.word	0x1000cebf
1000b21c:	1000c13d 	.word	0x1000c13d
1000b220:	1000c169 	.word	0x1000c169
1000b224:	1000d921 	.word	0x1000d921
1000b228:	1000d95d 	.word	0x1000d95d
1000b22c:	1000d9a5 	.word	0x1000d9a5
1000b230:	1000d9e9 	.word	0x1000d9e9
1000b234:	1000da1d 	.word	0x1000da1d
1000b238:	1000d8e1 	.word	0x1000d8e1
1000b23c:	1000dae9 	.word	0x1000dae9
1000b240:	1000da71 	.word	0x1000da71
1000b244:	1000c021 	.word	0x1000c021
1000b248:	1000c08d 	.word	0x1000c08d
1000b24c:	1000c051 	.word	0x1000c051
1000b250:	1000daf9 	.word	0x1000daf9
1000b254:	1000db39 	.word	0x1000db39
1000b258:	1000de01 	.word	0x1000de01
1000b25c:	1000de0b 	.word	0x1000de0b
1000b260:	1000de11 	.word	0x1000de11
1000b264:	1000de17 	.word	0x1000de17
1000b268:	1000de23 	.word	0x1000de23

1000b26c <internal_event_flush>:
1000b26c:	b5f7      	push	{r0, r1, r2, r4, r5, r6, r7, lr}
1000b26e:	490e      	ldr	r1, [pc, #56]	; (1000b2a8 <internal_event_flush+0x3c>)
1000b270:	2400      	movs	r4, #0
1000b272:	680b      	ldr	r3, [r1, #0]
1000b274:	1c0f      	adds	r7, r1, #0
1000b276:	1c1e      	adds	r6, r3, #0
1000b278:	4a0c      	ldr	r2, [pc, #48]	; (1000b2ac <internal_event_flush+0x40>)
1000b27a:	6815      	ldr	r5, [r2, #0]
1000b27c:	9201      	str	r2, [sp, #4]
1000b27e:	2b00      	cmp	r3, #0
1000b280:	d00e      	beq.n	1000b2a0 <internal_event_flush+0x34>
1000b282:	889a      	ldrh	r2, [r3, #4]
1000b284:	6819      	ldr	r1, [r3, #0]
1000b286:	4282      	cmp	r2, r0
1000b288:	d107      	bne.n	1000b29a <internal_event_flush+0x2e>
1000b28a:	2c00      	cmp	r4, #0
1000b28c:	d001      	beq.n	1000b292 <internal_event_flush+0x26>
1000b28e:	6021      	str	r1, [r4, #0]
1000b290:	e000      	b.n	1000b294 <internal_event_flush+0x28>
1000b292:	1c0e      	adds	r6, r1, #0
1000b294:	601d      	str	r5, [r3, #0]
1000b296:	1c1d      	adds	r5, r3, #0
1000b298:	1c23      	adds	r3, r4, #0
1000b29a:	1c1c      	adds	r4, r3, #0
1000b29c:	1c0b      	adds	r3, r1, #0
1000b29e:	e7ee      	b.n	1000b27e <internal_event_flush+0x12>
1000b2a0:	9b01      	ldr	r3, [sp, #4]
1000b2a2:	603e      	str	r6, [r7, #0]
1000b2a4:	601d      	str	r5, [r3, #0]
1000b2a6:	bdf7      	pop	{r0, r1, r2, r4, r5, r6, r7, pc}
1000b2a8:	1001047c 	.word	0x1001047c
1000b2ac:	10010480 	.word	0x10010480

1000b2b0 <internal_conn_flush>:
1000b2b0:	b5f7      	push	{r0, r1, r2, r4, r5, r6, r7, lr}
1000b2b2:	4a12      	ldr	r2, [pc, #72]	; (1000b2fc <internal_conn_flush+0x4c>)
1000b2b4:	9000      	str	r0, [sp, #0]
1000b2b6:	6813      	ldr	r3, [r2, #0]
1000b2b8:	4811      	ldr	r0, [pc, #68]	; (1000b300 <internal_conn_flush+0x50>)
1000b2ba:	1c1f      	adds	r7, r3, #0
1000b2bc:	2100      	movs	r1, #0
1000b2be:	4684      	mov	ip, r0
1000b2c0:	6804      	ldr	r4, [r0, #0]
1000b2c2:	9201      	str	r2, [sp, #4]
1000b2c4:	2b00      	cmp	r3, #0
1000b2c6:	d014      	beq.n	1000b2f2 <internal_conn_flush+0x42>
1000b2c8:	88d8      	ldrh	r0, [r3, #6]
1000b2ca:	9a00      	ldr	r2, [sp, #0]
1000b2cc:	681d      	ldr	r5, [r3, #0]
1000b2ce:	0a06      	lsrs	r6, r0, #8
1000b2d0:	4296      	cmp	r6, r2
1000b2d2:	d10b      	bne.n	1000b2ec <internal_conn_flush+0x3c>
1000b2d4:	26fd      	movs	r6, #253	; 0xfd
1000b2d6:	4006      	ands	r6, r0
1000b2d8:	2e0c      	cmp	r6, #12
1000b2da:	d107      	bne.n	1000b2ec <internal_conn_flush+0x3c>
1000b2dc:	2900      	cmp	r1, #0
1000b2de:	d001      	beq.n	1000b2e4 <internal_conn_flush+0x34>
1000b2e0:	600d      	str	r5, [r1, #0]
1000b2e2:	e000      	b.n	1000b2e6 <internal_conn_flush+0x36>
1000b2e4:	1c2f      	adds	r7, r5, #0
1000b2e6:	601c      	str	r4, [r3, #0]
1000b2e8:	1c1c      	adds	r4, r3, #0
1000b2ea:	1c0b      	adds	r3, r1, #0
1000b2ec:	1c19      	adds	r1, r3, #0
1000b2ee:	1c2b      	adds	r3, r5, #0
1000b2f0:	e7e8      	b.n	1000b2c4 <internal_conn_flush+0x14>
1000b2f2:	9b01      	ldr	r3, [sp, #4]
1000b2f4:	601f      	str	r7, [r3, #0]
1000b2f6:	4663      	mov	r3, ip
1000b2f8:	601c      	str	r4, [r3, #0]
1000b2fa:	bdf7      	pop	{r0, r1, r2, r4, r5, r6, r7, pc}
1000b2fc:	1001047c 	.word	0x1001047c
1000b300:	10010480 	.word	0x10010480

1000b304 <at_ble_device_name_set>:
1000b304:	b530      	push	{r4, r5, lr}
1000b306:	23cf      	movs	r3, #207	; 0xcf
1000b308:	2800      	cmp	r0, #0
1000b30a:	d010      	beq.n	1000b32e <at_ble_device_name_set+0x2a>
1000b30c:	1e4a      	subs	r2, r1, #1
1000b30e:	2a1f      	cmp	r2, #31
1000b310:	d80d      	bhi.n	1000b32e <at_ble_device_name_set+0x2a>
1000b312:	4a08      	ldr	r2, [pc, #32]	; (1000b334 <at_ble_device_name_set+0x30>)
1000b314:	1c13      	adds	r3, r2, #0
1000b316:	33aa      	adds	r3, #170	; 0xaa
1000b318:	8019      	strh	r1, [r3, #0]
1000b31a:	2300      	movs	r3, #0
1000b31c:	1c1c      	adds	r4, r3, #0
1000b31e:	5cc5      	ldrb	r5, [r0, r3]
1000b320:	34ac      	adds	r4, #172	; 0xac
1000b322:	3301      	adds	r3, #1
1000b324:	5515      	strb	r5, [r2, r4]
1000b326:	b2dc      	uxtb	r4, r3
1000b328:	428c      	cmp	r4, r1
1000b32a:	d3f7      	bcc.n	1000b31c <at_ble_device_name_set+0x18>
1000b32c:	2300      	movs	r3, #0
1000b32e:	1c18      	adds	r0, r3, #0
1000b330:	bd30      	pop	{r4, r5, pc}
1000b332:	46c0      	nop			; (mov r8, r8)
1000b334:	1001127a 	.word	0x1001127a

1000b338 <at_ble_addr_get>:
1000b338:	b510      	push	{r4, lr}
1000b33a:	1c04      	adds	r4, r0, #0
1000b33c:	20cf      	movs	r0, #207	; 0xcf
1000b33e:	2c00      	cmp	r4, #0
1000b340:	d006      	beq.n	1000b350 <at_ble_addr_get+0x18>
1000b342:	4b04      	ldr	r3, [pc, #16]	; (1000b354 <at_ble_addr_get+0x1c>)
1000b344:	38ce      	subs	r0, #206	; 0xce
1000b346:	1c21      	adds	r1, r4, #0
1000b348:	4798      	blx	r3
1000b34a:	4b03      	ldr	r3, [pc, #12]	; (1000b358 <at_ble_addr_get+0x20>)
1000b34c:	791b      	ldrb	r3, [r3, #4]
1000b34e:	7023      	strb	r3, [r4, #0]
1000b350:	bd10      	pop	{r4, pc}
1000b352:	46c0      	nop			; (mov r8, r8)
1000b354:	1000d201 	.word	0x1000d201
1000b358:	1001127a 	.word	0x1001127a

1000b35c <at_ble_set_dev_config>:
1000b35c:	b5f0      	push	{r4, r5, r6, r7, lr}
1000b35e:	7906      	ldrb	r6, [r0, #4]
1000b360:	b089      	sub	sp, #36	; 0x24
1000b362:	25cf      	movs	r5, #207	; 0xcf
1000b364:	2e03      	cmp	r6, #3
1000b366:	d838      	bhi.n	1000b3da <at_ble_set_dev_config+0x7e>
1000b368:	7803      	ldrb	r3, [r0, #0]
1000b36a:	3511      	adds	r5, #17
1000b36c:	2b0f      	cmp	r3, #15
1000b36e:	d834      	bhi.n	1000b3da <at_ble_set_dev_config+0x7e>
1000b370:	2380      	movs	r3, #128	; 0x80
1000b372:	8c87      	ldrh	r7, [r0, #36]	; 0x24
1000b374:	3d11      	subs	r5, #17
1000b376:	009b      	lsls	r3, r3, #2
1000b378:	429f      	cmp	r7, r3
1000b37a:	d82e      	bhi.n	1000b3da <at_ble_set_dev_config+0x7e>
1000b37c:	7fc5      	ldrb	r5, [r0, #31]
1000b37e:	7f83      	ldrb	r3, [r0, #30]
1000b380:	01ad      	lsls	r5, r5, #6
1000b382:	015b      	lsls	r3, r3, #5
1000b384:	431d      	orrs	r5, r3
1000b386:	7ec3      	ldrb	r3, [r0, #27]
1000b388:	431d      	orrs	r5, r3
1000b38a:	7f43      	ldrb	r3, [r0, #29]
1000b38c:	011b      	lsls	r3, r3, #4
1000b38e:	431d      	orrs	r5, r3
1000b390:	7f03      	ldrb	r3, [r0, #28]
1000b392:	009b      	lsls	r3, r3, #2
1000b394:	431d      	orrs	r5, r3
1000b396:	4b12      	ldr	r3, [pc, #72]	; (1000b3e0 <at_ble_set_dev_config+0x84>)
1000b398:	b2ed      	uxtb	r5, r5
1000b39a:	711e      	strb	r6, [r3, #4]
1000b39c:	7903      	ldrb	r3, [r0, #4]
1000b39e:	3b02      	subs	r3, #2
1000b3a0:	2b01      	cmp	r3, #1
1000b3a2:	d801      	bhi.n	1000b3a8 <at_ble_set_dev_config+0x4c>
1000b3a4:	2302      	movs	r3, #2
1000b3a6:	7103      	strb	r3, [r0, #4]
1000b3a8:	1c04      	adds	r4, r0, #0
1000b3aa:	1c23      	adds	r3, r4, #0
1000b3ac:	330b      	adds	r3, #11
1000b3ae:	8861      	ldrh	r1, [r4, #2]
1000b3b0:	9307      	str	r3, [sp, #28]
1000b3b2:	7923      	ldrb	r3, [r4, #4]
1000b3b4:	7800      	ldrb	r0, [r0, #0]
1000b3b6:	9300      	str	r3, [sp, #0]
1000b3b8:	9501      	str	r5, [sp, #4]
1000b3ba:	8c25      	ldrh	r5, [r4, #32]
1000b3bc:	1d62      	adds	r2, r4, #5
1000b3be:	9502      	str	r5, [sp, #8]
1000b3c0:	8c65      	ldrh	r5, [r4, #34]	; 0x22
1000b3c2:	9b07      	ldr	r3, [sp, #28]
1000b3c4:	9503      	str	r5, [sp, #12]
1000b3c6:	9704      	str	r7, [sp, #16]
1000b3c8:	4d06      	ldr	r5, [pc, #24]	; (1000b3e4 <at_ble_set_dev_config+0x88>)
1000b3ca:	47a8      	blx	r5
1000b3cc:	7126      	strb	r6, [r4, #4]
1000b3ce:	1c05      	adds	r5, r0, #0
1000b3d0:	1c21      	adds	r1, r4, #0
1000b3d2:	4803      	ldr	r0, [pc, #12]	; (1000b3e0 <at_ble_set_dev_config+0x84>)
1000b3d4:	2226      	movs	r2, #38	; 0x26
1000b3d6:	4b04      	ldr	r3, [pc, #16]	; (1000b3e8 <at_ble_set_dev_config+0x8c>)
1000b3d8:	4798      	blx	r3
1000b3da:	1c28      	adds	r0, r5, #0
1000b3dc:	b009      	add	sp, #36	; 0x24
1000b3de:	bdf0      	pop	{r4, r5, r6, r7, pc}
1000b3e0:	1001127a 	.word	0x1001127a
1000b3e4:	1000d0f9 	.word	0x1000d0f9
1000b3e8:	1000f017 	.word	0x1000f017

1000b3ec <at_ble_init>:
1000b3ec:	b5f0      	push	{r4, r5, r6, r7, lr}
1000b3ee:	b087      	sub	sp, #28
1000b3f0:	af03      	add	r7, sp, #12
1000b3f2:	494d      	ldr	r1, [pc, #308]	; (1000b528 <at_ble_init+0x13c>)
1000b3f4:	1c04      	adds	r4, r0, #0
1000b3f6:	220b      	movs	r2, #11
1000b3f8:	4b4c      	ldr	r3, [pc, #304]	; (1000b52c <at_ble_init+0x140>)
1000b3fa:	1c38      	adds	r0, r7, #0
1000b3fc:	4798      	blx	r3
1000b3fe:	2205      	movs	r2, #5
1000b400:	4b4b      	ldr	r3, [pc, #300]	; (1000b530 <at_ble_init+0x144>)
1000b402:	801a      	strh	r2, [r3, #0]
1000b404:	2300      	movs	r3, #0
1000b406:	4a4b      	ldr	r2, [pc, #300]	; (1000b534 <at_ble_init+0x148>)
1000b408:	6013      	str	r3, [r2, #0]
1000b40a:	4a4b      	ldr	r2, [pc, #300]	; (1000b538 <at_ble_init+0x14c>)
1000b40c:	7013      	strb	r3, [r2, #0]
1000b40e:	4a4b      	ldr	r2, [pc, #300]	; (1000b53c <at_ble_init+0x150>)
1000b410:	7013      	strb	r3, [r2, #0]
1000b412:	4b4b      	ldr	r3, [pc, #300]	; (1000b540 <at_ble_init+0x154>)
1000b414:	4798      	blx	r3
1000b416:	4b4b      	ldr	r3, [pc, #300]	; (1000b544 <at_ble_init+0x158>)
1000b418:	4798      	blx	r3
1000b41a:	4b4b      	ldr	r3, [pc, #300]	; (1000b548 <at_ble_init+0x15c>)
1000b41c:	4798      	blx	r3
1000b41e:	4b4b      	ldr	r3, [pc, #300]	; (1000b54c <at_ble_init+0x160>)
1000b420:	4798      	blx	r3
1000b422:	2c00      	cmp	r4, #0
1000b424:	d009      	beq.n	1000b43a <at_ble_init+0x4e>
1000b426:	6820      	ldr	r0, [r4, #0]
1000b428:	2800      	cmp	r0, #0
1000b42a:	d006      	beq.n	1000b43a <at_ble_init+0x4e>
1000b42c:	6861      	ldr	r1, [r4, #4]
1000b42e:	2900      	cmp	r1, #0
1000b430:	d101      	bne.n	1000b436 <at_ble_init+0x4a>
1000b432:	26e2      	movs	r6, #226	; 0xe2
1000b434:	e075      	b.n	1000b522 <at_ble_init+0x136>
1000b436:	4b46      	ldr	r3, [pc, #280]	; (1000b550 <at_ble_init+0x164>)
1000b438:	4798      	blx	r3
1000b43a:	4b46      	ldr	r3, [pc, #280]	; (1000b554 <at_ble_init+0x168>)
1000b43c:	4798      	blx	r3
1000b43e:	2801      	cmp	r0, #1
1000b440:	d8f7      	bhi.n	1000b432 <at_ble_init+0x46>
1000b442:	4845      	ldr	r0, [pc, #276]	; (1000b558 <at_ble_init+0x16c>)
1000b444:	4b45      	ldr	r3, [pc, #276]	; (1000b55c <at_ble_init+0x170>)
1000b446:	4798      	blx	r3
1000b448:	2800      	cmp	r0, #0
1000b44a:	d1f2      	bne.n	1000b432 <at_ble_init+0x46>
1000b44c:	4b44      	ldr	r3, [pc, #272]	; (1000b560 <at_ble_init+0x174>)
1000b44e:	4798      	blx	r3
1000b450:	4b44      	ldr	r3, [pc, #272]	; (1000b564 <at_ble_init+0x178>)
1000b452:	4798      	blx	r3
1000b454:	466b      	mov	r3, sp
1000b456:	2201      	movs	r2, #1
1000b458:	1cdc      	adds	r4, r3, #3
1000b45a:	1c20      	adds	r0, r4, #0
1000b45c:	a901      	add	r1, sp, #4
1000b45e:	4252      	negs	r2, r2
1000b460:	4b41      	ldr	r3, [pc, #260]	; (1000b568 <at_ble_init+0x17c>)
1000b462:	4798      	blx	r3
1000b464:	2800      	cmp	r0, #0
1000b466:	d102      	bne.n	1000b46e <at_ble_init+0x82>
1000b468:	7823      	ldrb	r3, [r4, #0]
1000b46a:	2b39      	cmp	r3, #57	; 0x39
1000b46c:	d1f2      	bne.n	1000b454 <at_ble_init+0x68>
1000b46e:	4b3f      	ldr	r3, [pc, #252]	; (1000b56c <at_ble_init+0x180>)
1000b470:	4798      	blx	r3
1000b472:	1e06      	subs	r6, r0, #0
1000b474:	d155      	bne.n	1000b522 <at_ble_init+0x136>
1000b476:	1c03      	adds	r3, r0, #0
1000b478:	2101      	movs	r1, #1
1000b47a:	4a3d      	ldr	r2, [pc, #244]	; (1000b570 <at_ble_init+0x184>)
1000b47c:	4249      	negs	r1, r1
1000b47e:	189a      	adds	r2, r3, r2
1000b480:	3312      	adds	r3, #18
1000b482:	8151      	strh	r1, [r2, #10]
1000b484:	2b90      	cmp	r3, #144	; 0x90
1000b486:	d1f7      	bne.n	1000b478 <at_ble_init+0x8c>
1000b488:	4c3a      	ldr	r4, [pc, #232]	; (1000b574 <at_ble_init+0x188>)
1000b48a:	3b81      	subs	r3, #129	; 0x81
1000b48c:	7023      	strb	r3, [r4, #0]
1000b48e:	4b3a      	ldr	r3, [pc, #232]	; (1000b578 <at_ble_init+0x18c>)
1000b490:	4a3a      	ldr	r2, [pc, #232]	; (1000b57c <at_ble_init+0x190>)
1000b492:	8063      	strh	r3, [r4, #2]
1000b494:	2300      	movs	r3, #0
1000b496:	7123      	strb	r3, [r4, #4]
1000b498:	3301      	adds	r3, #1
1000b49a:	1e58      	subs	r0, r3, #1
1000b49c:	0119      	lsls	r1, r3, #4
1000b49e:	4301      	orrs	r1, r0
1000b4a0:	3302      	adds	r3, #2
1000b4a2:	7011      	strb	r1, [r2, #0]
1000b4a4:	3201      	adds	r2, #1
1000b4a6:	2b21      	cmp	r3, #33	; 0x21
1000b4a8:	d1f7      	bne.n	1000b49a <at_ble_init+0xae>
1000b4aa:	33e0      	adds	r3, #224	; 0xe0
1000b4ac:	33ff      	adds	r3, #255	; 0xff
1000b4ae:	84a3      	strh	r3, [r4, #36]	; 0x24
1000b4b0:	1c23      	adds	r3, r4, #0
1000b4b2:	2500      	movs	r5, #0
1000b4b4:	3373      	adds	r3, #115	; 0x73
1000b4b6:	701d      	strb	r5, [r3, #0]
1000b4b8:	1c23      	adds	r3, r4, #0
1000b4ba:	3372      	adds	r3, #114	; 0x72
1000b4bc:	701d      	strb	r5, [r3, #0]
1000b4be:	1c23      	adds	r3, r4, #0
1000b4c0:	3376      	adds	r3, #118	; 0x76
1000b4c2:	701d      	strb	r5, [r3, #0]
1000b4c4:	1c23      	adds	r3, r4, #0
1000b4c6:	33cc      	adds	r3, #204	; 0xcc
1000b4c8:	801d      	strh	r5, [r3, #0]
1000b4ca:	1c22      	adds	r2, r4, #0
1000b4cc:	23a0      	movs	r3, #160	; 0xa0
1000b4ce:	32d0      	adds	r2, #208	; 0xd0
1000b4d0:	005b      	lsls	r3, r3, #1
1000b4d2:	8013      	strh	r3, [r2, #0]
1000b4d4:	1c22      	adds	r2, r4, #0
1000b4d6:	32ce      	adds	r2, #206	; 0xce
1000b4d8:	8013      	strh	r3, [r2, #0]
1000b4da:	1c23      	adds	r3, r4, #0
1000b4dc:	33d2      	adds	r3, #210	; 0xd2
1000b4de:	801d      	strh	r5, [r3, #0]
1000b4e0:	22fa      	movs	r2, #250	; 0xfa
1000b4e2:	1c23      	adds	r3, r4, #0
1000b4e4:	0052      	lsls	r2, r2, #1
1000b4e6:	33d4      	adds	r3, #212	; 0xd4
1000b4e8:	801a      	strh	r2, [r3, #0]
1000b4ea:	1c23      	adds	r3, r4, #0
1000b4ec:	33d6      	adds	r3, #214	; 0xd6
1000b4ee:	701d      	strb	r5, [r3, #0]
1000b4f0:	1c20      	adds	r0, r4, #0
1000b4f2:	4b23      	ldr	r3, [pc, #140]	; (1000b580 <at_ble_init+0x194>)
1000b4f4:	76e5      	strb	r5, [r4, #27]
1000b4f6:	7725      	strb	r5, [r4, #28]
1000b4f8:	7765      	strb	r5, [r4, #29]
1000b4fa:	77a5      	strb	r5, [r4, #30]
1000b4fc:	77e5      	strb	r5, [r4, #31]
1000b4fe:	8425      	strh	r5, [r4, #32]
1000b500:	8465      	strh	r5, [r4, #34]	; 0x22
1000b502:	4798      	blx	r3
1000b504:	1c23      	adds	r3, r4, #0
1000b506:	2207      	movs	r2, #7
1000b508:	3374      	adds	r3, #116	; 0x74
1000b50a:	701a      	strb	r2, [r3, #0]
1000b50c:	1c23      	adds	r3, r4, #0
1000b50e:	3204      	adds	r2, #4
1000b510:	33aa      	adds	r3, #170	; 0xaa
1000b512:	801a      	strh	r2, [r3, #0]
1000b514:	1c2b      	adds	r3, r5, #0
1000b516:	5d7a      	ldrb	r2, [r7, r5]
1000b518:	33ac      	adds	r3, #172	; 0xac
1000b51a:	3501      	adds	r5, #1
1000b51c:	54e2      	strb	r2, [r4, r3]
1000b51e:	2d0b      	cmp	r5, #11
1000b520:	d1f8      	bne.n	1000b514 <at_ble_init+0x128>
1000b522:	1c30      	adds	r0, r6, #0
1000b524:	b007      	add	sp, #28
1000b526:	bdf0      	pop	{r4, r5, r6, r7, pc}
1000b528:	1000fc8c 	.word	0x1000fc8c
1000b52c:	1000f017 	.word	0x1000f017
1000b530:	100111e8 	.word	0x100111e8
1000b534:	10010524 	.word	0x10010524
1000b538:	1001048c 	.word	0x1001048c
1000b53c:	1000fd81 	.word	0x1000fd81
1000b540:	1000db49 	.word	0x1000db49
1000b544:	1000b835 	.word	0x1000b835
1000b548:	1000be71 	.word	0x1000be71
1000b54c:	1000c131 	.word	0x1000c131
1000b550:	1000bea5 	.word	0x1000bea5
1000b554:	1000a1c1 	.word	0x1000a1c1
1000b558:	1000c431 	.word	0x1000c431
1000b55c:	1000a3b5 	.word	0x1000a3b5
1000b560:	1000c4c9 	.word	0x1000c4c9
1000b564:	1000ab85 	.word	0x1000ab85
1000b568:	1000ac45 	.word	0x1000ac45
1000b56c:	1000d089 	.word	0x1000d089
1000b570:	100111ea 	.word	0x100111ea
1000b574:	1001127a 	.word	0x1001127a
1000b578:	00003a98 	.word	0x00003a98
1000b57c:	10011285 	.word	0x10011285
1000b580:	1000b35d 	.word	0x1000b35d

1000b584 <at_ble_addr_set>:
1000b584:	b538      	push	{r3, r4, r5, lr}
1000b586:	1c45      	adds	r5, r0, #1
1000b588:	1c03      	adds	r3, r0, #0
1000b58a:	20cf      	movs	r0, #207	; 0xcf
1000b58c:	2d00      	cmp	r5, #0
1000b58e:	d018      	beq.n	1000b5c2 <at_ble_addr_set+0x3e>
1000b590:	781a      	ldrb	r2, [r3, #0]
1000b592:	2a03      	cmp	r2, #3
1000b594:	d815      	bhi.n	1000b5c2 <at_ble_addr_set+0x3e>
1000b596:	2a01      	cmp	r2, #1
1000b598:	d102      	bne.n	1000b5a0 <at_ble_addr_set+0x1c>
1000b59a:	785a      	ldrb	r2, [r3, #1]
1000b59c:	2a00      	cmp	r2, #0
1000b59e:	d010      	beq.n	1000b5c2 <at_ble_addr_set+0x3e>
1000b5a0:	1c1c      	adds	r4, r3, #0
1000b5a2:	1c29      	adds	r1, r5, #0
1000b5a4:	2206      	movs	r2, #6
1000b5a6:	4b07      	ldr	r3, [pc, #28]	; (1000b5c4 <at_ble_addr_set+0x40>)
1000b5a8:	4807      	ldr	r0, [pc, #28]	; (1000b5c8 <at_ble_addr_set+0x44>)
1000b5aa:	4798      	blx	r3
1000b5ac:	7823      	ldrb	r3, [r4, #0]
1000b5ae:	4807      	ldr	r0, [pc, #28]	; (1000b5cc <at_ble_addr_set+0x48>)
1000b5b0:	7103      	strb	r3, [r0, #4]
1000b5b2:	4b07      	ldr	r3, [pc, #28]	; (1000b5d0 <at_ble_addr_set+0x4c>)
1000b5b4:	4798      	blx	r3
1000b5b6:	7823      	ldrb	r3, [r4, #0]
1000b5b8:	2b00      	cmp	r3, #0
1000b5ba:	d102      	bne.n	1000b5c2 <at_ble_addr_set+0x3e>
1000b5bc:	1c28      	adds	r0, r5, #0
1000b5be:	4b05      	ldr	r3, [pc, #20]	; (1000b5d4 <at_ble_addr_set+0x50>)
1000b5c0:	4798      	blx	r3
1000b5c2:	bd38      	pop	{r3, r4, r5, pc}
1000b5c4:	1000f017 	.word	0x1000f017
1000b5c8:	1001127f 	.word	0x1001127f
1000b5cc:	1001127a 	.word	0x1001127a
1000b5d0:	1000b35d 	.word	0x1000b35d
1000b5d4:	1000c545 	.word	0x1000c545

1000b5d8 <at_ble_adv_data_set>:
1000b5d8:	b5f8      	push	{r3, r4, r5, r6, r7, lr}
1000b5da:	4684      	mov	ip, r0
1000b5dc:	1c0f      	adds	r7, r1, #0
1000b5de:	1c16      	adds	r6, r2, #0
1000b5e0:	1c1c      	adds	r4, r3, #0
1000b5e2:	2800      	cmp	r0, #0
1000b5e4:	d102      	bne.n	1000b5ec <at_ble_adv_data_set+0x14>
1000b5e6:	20e2      	movs	r0, #226	; 0xe2
1000b5e8:	2a00      	cmp	r2, #0
1000b5ea:	d02b      	beq.n	1000b644 <at_ble_adv_data_set+0x6c>
1000b5ec:	20cf      	movs	r0, #207	; 0xcf
1000b5ee:	2f1f      	cmp	r7, #31
1000b5f0:	d828      	bhi.n	1000b644 <at_ble_adv_data_set+0x6c>
1000b5f2:	2c1f      	cmp	r4, #31
1000b5f4:	d826      	bhi.n	1000b644 <at_ble_adv_data_set+0x6c>
1000b5f6:	4663      	mov	r3, ip
1000b5f8:	2b00      	cmp	r3, #0
1000b5fa:	d00e      	beq.n	1000b61a <at_ble_adv_data_set+0x42>
1000b5fc:	4812      	ldr	r0, [pc, #72]	; (1000b648 <at_ble_adv_data_set+0x70>)
1000b5fe:	4d13      	ldr	r5, [pc, #76]	; (1000b64c <at_ble_adv_data_set+0x74>)
1000b600:	2f00      	cmp	r7, #0
1000b602:	d104      	bne.n	1000b60e <at_ble_adv_data_set+0x36>
1000b604:	1c39      	adds	r1, r7, #0
1000b606:	221f      	movs	r2, #31
1000b608:	4b11      	ldr	r3, [pc, #68]	; (1000b650 <at_ble_adv_data_set+0x78>)
1000b60a:	4798      	blx	r3
1000b60c:	e003      	b.n	1000b616 <at_ble_adv_data_set+0x3e>
1000b60e:	4661      	mov	r1, ip
1000b610:	1c3a      	adds	r2, r7, #0
1000b612:	4b10      	ldr	r3, [pc, #64]	; (1000b654 <at_ble_adv_data_set+0x7c>)
1000b614:	4798      	blx	r3
1000b616:	3572      	adds	r5, #114	; 0x72
1000b618:	702f      	strb	r7, [r5, #0]
1000b61a:	1e30      	subs	r0, r6, #0
1000b61c:	d012      	beq.n	1000b644 <at_ble_adv_data_set+0x6c>
1000b61e:	4d0b      	ldr	r5, [pc, #44]	; (1000b64c <at_ble_adv_data_set+0x74>)
1000b620:	480d      	ldr	r0, [pc, #52]	; (1000b658 <at_ble_adv_data_set+0x80>)
1000b622:	2c00      	cmp	r4, #0
1000b624:	d107      	bne.n	1000b636 <at_ble_adv_data_set+0x5e>
1000b626:	1c21      	adds	r1, r4, #0
1000b628:	221f      	movs	r2, #31
1000b62a:	4b09      	ldr	r3, [pc, #36]	; (1000b650 <at_ble_adv_data_set+0x78>)
1000b62c:	3573      	adds	r5, #115	; 0x73
1000b62e:	4798      	blx	r3
1000b630:	702c      	strb	r4, [r5, #0]
1000b632:	1c20      	adds	r0, r4, #0
1000b634:	e006      	b.n	1000b644 <at_ble_adv_data_set+0x6c>
1000b636:	1c31      	adds	r1, r6, #0
1000b638:	1c22      	adds	r2, r4, #0
1000b63a:	4b06      	ldr	r3, [pc, #24]	; (1000b654 <at_ble_adv_data_set+0x7c>)
1000b63c:	4798      	blx	r3
1000b63e:	2000      	movs	r0, #0
1000b640:	3573      	adds	r5, #115	; 0x73
1000b642:	702c      	strb	r4, [r5, #0]
1000b644:	bdf8      	pop	{r3, r4, r5, r6, r7, pc}
1000b646:	46c0      	nop			; (mov r8, r8)
1000b648:	100112ae 	.word	0x100112ae
1000b64c:	1001127a 	.word	0x1001127a
1000b650:	1000f029 	.word	0x1000f029
1000b654:	1000f017 	.word	0x1000f017
1000b658:	100112cd 	.word	0x100112cd

1000b65c <at_ble_adv_start>:
1000b65c:	b5f0      	push	{r4, r5, r6, r7, lr}
1000b65e:	b091      	sub	sp, #68	; 0x44
1000b660:	1c1f      	adds	r7, r3, #0
1000b662:	ab16      	add	r3, sp, #88	; 0x58
1000b664:	881d      	ldrh	r5, [r3, #0]
1000b666:	ab17      	add	r3, sp, #92	; 0x5c
1000b668:	881b      	ldrh	r3, [r3, #0]
1000b66a:	910d      	str	r1, [sp, #52]	; 0x34
1000b66c:	930e      	str	r3, [sp, #56]	; 0x38
1000b66e:	ab18      	add	r3, sp, #96	; 0x60
1000b670:	781b      	ldrb	r3, [r3, #0]
1000b672:	1c04      	adds	r4, r0, #0
1000b674:	930f      	str	r3, [sp, #60]	; 0x3c
1000b676:	4b42      	ldr	r3, [pc, #264]	; (1000b780 <at_ble_adv_start+0x124>)
1000b678:	1c16      	adds	r6, r2, #0
1000b67a:	3373      	adds	r3, #115	; 0x73
1000b67c:	781b      	ldrb	r3, [r3, #0]
1000b67e:	20cf      	movs	r0, #207	; 0xcf
1000b680:	930c      	str	r3, [sp, #48]	; 0x30
1000b682:	2c01      	cmp	r4, #1
1000b684:	d103      	bne.n	1000b68e <at_ble_adv_start+0x32>
1000b686:	9b0e      	ldr	r3, [sp, #56]	; 0x38
1000b688:	2b00      	cmp	r3, #0
1000b68a:	d176      	bne.n	1000b77a <at_ble_adv_start+0x11e>
1000b68c:	e024      	b.n	1000b6d8 <at_ble_adv_start+0x7c>
1000b68e:	2c04      	cmp	r4, #4
1000b690:	d873      	bhi.n	1000b77a <at_ble_adv_start+0x11e>
1000b692:	2380      	movs	r3, #128	; 0x80
1000b694:	01db      	lsls	r3, r3, #7
1000b696:	429d      	cmp	r5, r3
1000b698:	d86f      	bhi.n	1000b77a <at_ble_adv_start+0x11e>
1000b69a:	2c00      	cmp	r4, #0
1000b69c:	d102      	bne.n	1000b6a4 <at_ble_adv_start+0x48>
1000b69e:	2d1f      	cmp	r5, #31
1000b6a0:	d96b      	bls.n	1000b77a <at_ble_adv_start+0x11e>
1000b6a2:	e003      	b.n	1000b6ac <at_ble_adv_start+0x50>
1000b6a4:	2d9f      	cmp	r5, #159	; 0x9f
1000b6a6:	d801      	bhi.n	1000b6ac <at_ble_adv_start+0x50>
1000b6a8:	2c01      	cmp	r4, #1
1000b6aa:	d166      	bne.n	1000b77a <at_ble_adv_start+0x11e>
1000b6ac:	2f00      	cmp	r7, #0
1000b6ae:	d009      	beq.n	1000b6c4 <at_ble_adv_start+0x68>
1000b6b0:	9b0d      	ldr	r3, [sp, #52]	; 0x34
1000b6b2:	20cf      	movs	r0, #207	; 0xcf
1000b6b4:	3b01      	subs	r3, #1
1000b6b6:	2b01      	cmp	r3, #1
1000b6b8:	d95f      	bls.n	1000b77a <at_ble_adv_start+0x11e>
1000b6ba:	2c01      	cmp	r4, #1
1000b6bc:	d102      	bne.n	1000b6c4 <at_ble_adv_start+0x68>
1000b6be:	2d00      	cmp	r5, #0
1000b6c0:	d100      	bne.n	1000b6c4 <at_ble_adv_start+0x68>
1000b6c2:	3520      	adds	r5, #32
1000b6c4:	4b2f      	ldr	r3, [pc, #188]	; (1000b784 <at_ble_adv_start+0x128>)
1000b6c6:	4798      	blx	r3
1000b6c8:	1c01      	adds	r1, r0, #0
1000b6ca:	2e00      	cmp	r6, #0
1000b6cc:	d043      	beq.n	1000b756 <at_ble_adv_start+0xfa>
1000b6ce:	7833      	ldrb	r3, [r6, #0]
1000b6d0:	1e60      	subs	r0, r4, #1
1000b6d2:	2b00      	cmp	r3, #0
1000b6d4:	d109      	bne.n	1000b6ea <at_ble_adv_start+0x8e>
1000b6d6:	e03b      	b.n	1000b750 <at_ble_adv_start+0xf4>
1000b6d8:	2380      	movs	r3, #128	; 0x80
1000b6da:	01db      	lsls	r3, r3, #7
1000b6dc:	429d      	cmp	r5, r3
1000b6de:	d84c      	bhi.n	1000b77a <at_ble_adv_start+0x11e>
1000b6e0:	2e00      	cmp	r6, #0
1000b6e2:	d04a      	beq.n	1000b77a <at_ble_adv_start+0x11e>
1000b6e4:	2f00      	cmp	r7, #0
1000b6e6:	d1e3      	bne.n	1000b6b0 <at_ble_adv_start+0x54>
1000b6e8:	e02b      	b.n	1000b742 <at_ble_adv_start+0xe6>
1000b6ea:	2301      	movs	r3, #1
1000b6ec:	2803      	cmp	r0, #3
1000b6ee:	d93a      	bls.n	1000b766 <at_ble_adv_start+0x10a>
1000b6f0:	200d      	movs	r0, #13
1000b6f2:	1c72      	adds	r2, r6, #1
1000b6f4:	e002      	b.n	1000b6fc <at_ble_adv_start+0xa0>
1000b6f6:	200e      	movs	r0, #14
1000b6f8:	1e32      	subs	r2, r6, #0
1000b6fa:	d1fa      	bne.n	1000b6f2 <at_ble_adv_start+0x96>
1000b6fc:	4c20      	ldr	r4, [pc, #128]	; (1000b780 <at_ble_adv_start+0x124>)
1000b6fe:	3474      	adds	r4, #116	; 0x74
1000b700:	7826      	ldrb	r6, [r4, #0]
1000b702:	2407      	movs	r4, #7
1000b704:	2e00      	cmp	r6, #0
1000b706:	d000      	beq.n	1000b70a <at_ble_adv_start+0xae>
1000b708:	1c34      	adds	r4, r6, #0
1000b70a:	9200      	str	r2, [sp, #0]
1000b70c:	9a0d      	ldr	r2, [sp, #52]	; 0x34
1000b70e:	9403      	str	r4, [sp, #12]
1000b710:	9204      	str	r2, [sp, #16]
1000b712:	4a1b      	ldr	r2, [pc, #108]	; (1000b780 <at_ble_adv_start+0x124>)
1000b714:	9501      	str	r5, [sp, #4]
1000b716:	9502      	str	r5, [sp, #8]
1000b718:	9705      	str	r7, [sp, #20]
1000b71a:	3272      	adds	r2, #114	; 0x72
1000b71c:	7812      	ldrb	r2, [r2, #0]
1000b71e:	9c0e      	ldr	r4, [sp, #56]	; 0x38
1000b720:	9206      	str	r2, [sp, #24]
1000b722:	4a19      	ldr	r2, [pc, #100]	; (1000b788 <at_ble_adv_start+0x12c>)
1000b724:	9207      	str	r2, [sp, #28]
1000b726:	9a0c      	ldr	r2, [sp, #48]	; 0x30
1000b728:	9208      	str	r2, [sp, #32]
1000b72a:	4a18      	ldr	r2, [pc, #96]	; (1000b78c <at_ble_adv_start+0x130>)
1000b72c:	9209      	str	r2, [sp, #36]	; 0x24
1000b72e:	2264      	movs	r2, #100	; 0x64
1000b730:	4362      	muls	r2, r4
1000b732:	b292      	uxth	r2, r2
1000b734:	920a      	str	r2, [sp, #40]	; 0x28
1000b736:	9a0f      	ldr	r2, [sp, #60]	; 0x3c
1000b738:	4c15      	ldr	r4, [pc, #84]	; (1000b790 <at_ble_adv_start+0x134>)
1000b73a:	920b      	str	r2, [sp, #44]	; 0x2c
1000b73c:	4a15      	ldr	r2, [pc, #84]	; (1000b794 <at_ble_adv_start+0x138>)
1000b73e:	47a0      	blx	r4
1000b740:	e01b      	b.n	1000b77a <at_ble_adv_start+0x11e>
1000b742:	2d00      	cmp	r5, #0
1000b744:	d1be      	bne.n	1000b6c4 <at_ble_adv_start+0x68>
1000b746:	4b0f      	ldr	r3, [pc, #60]	; (1000b784 <at_ble_adv_start+0x128>)
1000b748:	4798      	blx	r3
1000b74a:	2520      	movs	r5, #32
1000b74c:	1c01      	adds	r1, r0, #0
1000b74e:	e7be      	b.n	1000b6ce <at_ble_adv_start+0x72>
1000b750:	2803      	cmp	r0, #3
1000b752:	d8cd      	bhi.n	1000b6f0 <at_ble_adv_start+0x94>
1000b754:	e006      	b.n	1000b764 <at_ble_adv_start+0x108>
1000b756:	1e60      	subs	r0, r4, #1
1000b758:	2803      	cmp	r0, #3
1000b75a:	d903      	bls.n	1000b764 <at_ble_adv_start+0x108>
1000b75c:	1c33      	adds	r3, r6, #0
1000b75e:	200d      	movs	r0, #13
1000b760:	1c32      	adds	r2, r6, #0
1000b762:	e7cb      	b.n	1000b6fc <at_ble_adv_start+0xa0>
1000b764:	2300      	movs	r3, #0
1000b766:	f002 fb61 	bl	1000de2c <__gnu_thumb1_case_sqi>
1000b76a:	06c6      	.short	0x06c6
1000b76c:	0204      	.short	0x0204
1000b76e:	200f      	movs	r0, #15
1000b770:	e7c2      	b.n	1000b6f8 <at_ble_adv_start+0x9c>
1000b772:	2200      	movs	r2, #0
1000b774:	920c      	str	r2, [sp, #48]	; 0x30
1000b776:	200c      	movs	r0, #12
1000b778:	e7be      	b.n	1000b6f8 <at_ble_adv_start+0x9c>
1000b77a:	b011      	add	sp, #68	; 0x44
1000b77c:	bdf0      	pop	{r4, r5, r6, r7, pc}
1000b77e:	46c0      	nop			; (mov r8, r8)
1000b780:	1001127a 	.word	0x1001127a
1000b784:	1000d5d5 	.word	0x1000d5d5
1000b788:	100112ae 	.word	0x100112ae
1000b78c:	100112cd 	.word	0x100112cd
1000b790:	1000d4b5 	.word	0x1000d4b5
1000b794:	00003a98 	.word	0x00003a98

1000b798 <at_ble_scan_stop>:
1000b798:	b510      	push	{r4, lr}
1000b79a:	4b05      	ldr	r3, [pc, #20]	; (1000b7b0 <at_ble_scan_stop+0x18>)
1000b79c:	4798      	blx	r3
1000b79e:	1e04      	subs	r4, r0, #0
1000b7a0:	d103      	bne.n	1000b7aa <at_ble_scan_stop+0x12>
1000b7a2:	20d1      	movs	r0, #209	; 0xd1
1000b7a4:	4b03      	ldr	r3, [pc, #12]	; (1000b7b4 <at_ble_scan_stop+0x1c>)
1000b7a6:	0100      	lsls	r0, r0, #4
1000b7a8:	4798      	blx	r3
1000b7aa:	1c20      	adds	r0, r4, #0
1000b7ac:	bd10      	pop	{r4, pc}
1000b7ae:	46c0      	nop			; (mov r8, r8)
1000b7b0:	1000d2e1 	.word	0x1000d2e1
1000b7b4:	1000b26d 	.word	0x1000b26d

1000b7b8 <at_ble_disconnect>:
1000b7b8:	b538      	push	{r3, r4, r5, lr}
1000b7ba:	1c04      	adds	r4, r0, #0
1000b7bc:	4b04      	ldr	r3, [pc, #16]	; (1000b7d0 <at_ble_disconnect+0x18>)
1000b7be:	1c08      	adds	r0, r1, #0
1000b7c0:	1c21      	adds	r1, r4, #0
1000b7c2:	4798      	blx	r3
1000b7c4:	1c05      	adds	r5, r0, #0
1000b7c6:	4b03      	ldr	r3, [pc, #12]	; (1000b7d4 <at_ble_disconnect+0x1c>)
1000b7c8:	1c20      	adds	r0, r4, #0
1000b7ca:	4798      	blx	r3
1000b7cc:	1c28      	adds	r0, r5, #0
1000b7ce:	bd38      	pop	{r3, r4, r5, pc}
1000b7d0:	1000c959 	.word	0x1000c959
1000b7d4:	1000b2b1 	.word	0x1000b2b1

1000b7d8 <at_ble_conn_update_reply>:
1000b7d8:	b510      	push	{r4, lr}
1000b7da:	4c01      	ldr	r4, [pc, #4]	; (1000b7e0 <at_ble_conn_update_reply+0x8>)
1000b7dc:	47a0      	blx	r4
1000b7de:	bd10      	pop	{r4, pc}
1000b7e0:	1000ce49 	.word	0x1000ce49

1000b7e4 <at_ble_random_address_resolve>:
1000b7e4:	b510      	push	{r4, lr}
1000b7e6:	23cf      	movs	r3, #207	; 0xcf
1000b7e8:	2800      	cmp	r0, #0
1000b7ea:	d00a      	beq.n	1000b802 <at_ble_random_address_resolve+0x1e>
1000b7ec:	2900      	cmp	r1, #0
1000b7ee:	d008      	beq.n	1000b802 <at_ble_random_address_resolve+0x1e>
1000b7f0:	2a00      	cmp	r2, #0
1000b7f2:	d006      	beq.n	1000b802 <at_ble_random_address_resolve+0x1e>
1000b7f4:	780c      	ldrb	r4, [r1, #0]
1000b7f6:	2c02      	cmp	r4, #2
1000b7f8:	d103      	bne.n	1000b802 <at_ble_random_address_resolve+0x1e>
1000b7fa:	4b03      	ldr	r3, [pc, #12]	; (1000b808 <at_ble_random_address_resolve+0x24>)
1000b7fc:	3101      	adds	r1, #1
1000b7fe:	4798      	blx	r3
1000b800:	2300      	movs	r3, #0
1000b802:	1c18      	adds	r0, r3, #0
1000b804:	bd10      	pop	{r4, pc}
1000b806:	46c0      	nop			; (mov r8, r8)
1000b808:	1000d675 	.word	0x1000d675

1000b80c <at_ble_uuid_type2len>:
1000b80c:	23cf      	movs	r3, #207	; 0xcf
1000b80e:	2802      	cmp	r0, #2
1000b810:	d801      	bhi.n	1000b816 <at_ble_uuid_type2len+0xa>
1000b812:	4b02      	ldr	r3, [pc, #8]	; (1000b81c <at_ble_uuid_type2len+0x10>)
1000b814:	5c1b      	ldrb	r3, [r3, r0]
1000b816:	1c18      	adds	r0, r3, #0
1000b818:	4770      	bx	lr
1000b81a:	46c0      	nop			; (mov r8, r8)
1000b81c:	1000fca6 	.word	0x1000fca6

1000b820 <at_ble_uuid_len2type>:
1000b820:	1e83      	subs	r3, r0, #2
1000b822:	b2db      	uxtb	r3, r3
1000b824:	2003      	movs	r0, #3
1000b826:	2b0e      	cmp	r3, #14
1000b828:	d801      	bhi.n	1000b82e <at_ble_uuid_len2type+0xe>
1000b82a:	4a01      	ldr	r2, [pc, #4]	; (1000b830 <at_ble_uuid_len2type+0x10>)
1000b82c:	5cd0      	ldrb	r0, [r2, r3]
1000b82e:	4770      	bx	lr
1000b830:	1000fc97 	.word	0x1000fc97

1000b834 <init_gatt_client_module>:
1000b834:	2200      	movs	r2, #0
1000b836:	4b01      	ldr	r3, [pc, #4]	; (1000b83c <init_gatt_client_module+0x8>)
1000b838:	801a      	strh	r2, [r3, #0]
1000b83a:	4770      	bx	lr
1000b83c:	10010484 	.word	0x10010484

1000b840 <db_searchATT>:
1000b840:	b570      	push	{r4, r5, r6, lr}
1000b842:	1c05      	adds	r5, r0, #0
1000b844:	2400      	movs	r4, #0
1000b846:	4b0c      	ldr	r3, [pc, #48]	; (1000b878 <db_searchATT+0x38>)
1000b848:	6819      	ldr	r1, [r3, #0]
1000b84a:	4b0c      	ldr	r3, [pc, #48]	; (1000b87c <db_searchATT+0x3c>)
1000b84c:	681e      	ldr	r6, [r3, #0]
1000b84e:	428c      	cmp	r4, r1
1000b850:	dc10      	bgt.n	1000b874 <db_searchATT+0x34>
1000b852:	200c      	movs	r0, #12
1000b854:	1863      	adds	r3, r4, r1
1000b856:	0fda      	lsrs	r2, r3, #31
1000b858:	18d3      	adds	r3, r2, r3
1000b85a:	1c02      	adds	r2, r0, #0
1000b85c:	105b      	asrs	r3, r3, #1
1000b85e:	435a      	muls	r2, r3
1000b860:	18b0      	adds	r0, r6, r2
1000b862:	8802      	ldrh	r2, [r0, #0]
1000b864:	42aa      	cmp	r2, r5
1000b866:	d201      	bcs.n	1000b86c <db_searchATT+0x2c>
1000b868:	1e59      	subs	r1, r3, #1
1000b86a:	e7f0      	b.n	1000b84e <db_searchATT+0xe>
1000b86c:	42aa      	cmp	r2, r5
1000b86e:	d902      	bls.n	1000b876 <db_searchATT+0x36>
1000b870:	1c5c      	adds	r4, r3, #1
1000b872:	e7ec      	b.n	1000b84e <db_searchATT+0xe>
1000b874:	2000      	movs	r0, #0
1000b876:	bd70      	pop	{r4, r5, r6, pc}
1000b878:	10010498 	.word	0x10010498
1000b87c:	10010490 	.word	0x10010490

1000b880 <att_permissions>:
1000b880:	b530      	push	{r4, r5, lr}
1000b882:	2403      	movs	r4, #3
1000b884:	1c05      	adds	r5, r0, #0
1000b886:	2301      	movs	r3, #1
1000b888:	4025      	ands	r5, r4
1000b88a:	42a5      	cmp	r5, r4
1000b88c:	d009      	beq.n	1000b8a2 <att_permissions+0x22>
1000b88e:	1c23      	adds	r3, r4, #0
1000b890:	1924      	adds	r4, r4, r4
1000b892:	4220      	tst	r0, r4
1000b894:	d105      	bne.n	1000b8a2 <att_permissions+0x22>
1000b896:	3b02      	subs	r3, #2
1000b898:	4218      	tst	r0, r3
1000b89a:	d102      	bne.n	1000b8a2 <att_permissions+0x22>
1000b89c:	1e4b      	subs	r3, r1, #1
1000b89e:	4199      	sbcs	r1, r3
1000b8a0:	b28b      	uxth	r3, r1
1000b8a2:	2130      	movs	r1, #48	; 0x30
1000b8a4:	4001      	ands	r1, r0
1000b8a6:	2930      	cmp	r1, #48	; 0x30
1000b8a8:	d007      	beq.n	1000b8ba <att_permissions+0x3a>
1000b8aa:	0641      	lsls	r1, r0, #25
1000b8ac:	d401      	bmi.n	1000b8b2 <att_permissions+0x32>
1000b8ae:	0681      	lsls	r1, r0, #26
1000b8b0:	d501      	bpl.n	1000b8b6 <att_permissions+0x36>
1000b8b2:	4807      	ldr	r0, [pc, #28]	; (1000b8d0 <att_permissions+0x50>)
1000b8b4:	e009      	b.n	1000b8ca <att_permissions+0x4a>
1000b8b6:	06c1      	lsls	r1, r0, #27
1000b8b8:	d501      	bpl.n	1000b8be <att_permissions+0x3e>
1000b8ba:	4806      	ldr	r0, [pc, #24]	; (1000b8d4 <att_permissions+0x54>)
1000b8bc:	e005      	b.n	1000b8ca <att_permissions+0x4a>
1000b8be:	2a00      	cmp	r2, #0
1000b8c0:	d001      	beq.n	1000b8c6 <att_permissions+0x46>
1000b8c2:	2204      	movs	r2, #4
1000b8c4:	4313      	orrs	r3, r2
1000b8c6:	2080      	movs	r0, #128	; 0x80
1000b8c8:	0180      	lsls	r0, r0, #6
1000b8ca:	4318      	orrs	r0, r3
1000b8cc:	bd30      	pop	{r4, r5, pc}
1000b8ce:	46c0      	nop			; (mov r8, r8)
1000b8d0:	0000200c 	.word	0x0000200c
1000b8d4:	00002004 	.word	0x00002004

1000b8d8 <char_permissions>:
1000b8d8:	b530      	push	{r4, r5, lr}
1000b8da:	2300      	movs	r3, #0
1000b8dc:	0784      	lsls	r4, r0, #30
1000b8de:	d503      	bpl.n	1000b8e8 <char_permissions+0x10>
1000b8e0:	3301      	adds	r3, #1
1000b8e2:	4219      	tst	r1, r3
1000b8e4:	d100      	bne.n	1000b8e8 <char_permissions+0x10>
1000b8e6:	3302      	adds	r3, #2
1000b8e8:	0704      	lsls	r4, r0, #28
1000b8ea:	d508      	bpl.n	1000b8fe <char_permissions+0x26>
1000b8ec:	06cc      	lsls	r4, r1, #27
1000b8ee:	d501      	bpl.n	1000b8f4 <char_permissions+0x1c>
1000b8f0:	2404      	movs	r4, #4
1000b8f2:	e000      	b.n	1000b8f6 <char_permissions+0x1e>
1000b8f4:	240c      	movs	r4, #12
1000b8f6:	4323      	orrs	r3, r4
1000b8f8:	2480      	movs	r4, #128	; 0x80
1000b8fa:	01a4      	lsls	r4, r4, #6
1000b8fc:	4323      	orrs	r3, r4
1000b8fe:	0684      	lsls	r4, r0, #26
1000b900:	d506      	bpl.n	1000b910 <char_permissions+0x38>
1000b902:	2406      	movs	r4, #6
1000b904:	4221      	tst	r1, r4
1000b906:	d101      	bne.n	1000b90c <char_permissions+0x34>
1000b908:	340a      	adds	r4, #10
1000b90a:	e000      	b.n	1000b90e <char_permissions+0x36>
1000b90c:	2430      	movs	r4, #48	; 0x30
1000b90e:	4323      	orrs	r3, r4
1000b910:	06c4      	lsls	r4, r0, #27
1000b912:	d506      	bpl.n	1000b922 <char_permissions+0x4a>
1000b914:	2406      	movs	r4, #6
1000b916:	4221      	tst	r1, r4
1000b918:	d101      	bne.n	1000b91e <char_permissions+0x46>
1000b91a:	343a      	adds	r4, #58	; 0x3a
1000b91c:	e000      	b.n	1000b920 <char_permissions+0x48>
1000b91e:	24c0      	movs	r4, #192	; 0xc0
1000b920:	4323      	orrs	r3, r4
1000b922:	2480      	movs	r4, #128	; 0x80
1000b924:	0064      	lsls	r4, r4, #1
1000b926:	4220      	tst	r0, r4
1000b928:	d000      	beq.n	1000b92c <char_permissions+0x54>
1000b92a:	4323      	orrs	r3, r4
1000b92c:	07c4      	lsls	r4, r0, #31
1000b92e:	d502      	bpl.n	1000b936 <char_permissions+0x5e>
1000b930:	2480      	movs	r4, #128	; 0x80
1000b932:	00a4      	lsls	r4, r4, #2
1000b934:	4323      	orrs	r3, r4
1000b936:	2404      	movs	r4, #4
1000b938:	4220      	tst	r0, r4
1000b93a:	d006      	beq.n	1000b94a <char_permissions+0x72>
1000b93c:	06cd      	lsls	r5, r1, #27
1000b93e:	d400      	bmi.n	1000b942 <char_permissions+0x6a>
1000b940:	240c      	movs	r4, #12
1000b942:	4323      	orrs	r3, r4
1000b944:	2480      	movs	r4, #128	; 0x80
1000b946:	0124      	lsls	r4, r4, #4
1000b948:	4323      	orrs	r3, r4
1000b94a:	0644      	lsls	r4, r0, #25
1000b94c:	d501      	bpl.n	1000b952 <char_permissions+0x7a>
1000b94e:	4c08      	ldr	r4, [pc, #32]	; (1000b970 <char_permissions+0x98>)
1000b950:	4323      	orrs	r3, r4
1000b952:	0600      	lsls	r0, r0, #24
1000b954:	d507      	bpl.n	1000b966 <char_permissions+0x8e>
1000b956:	2004      	movs	r0, #4
1000b958:	06c9      	lsls	r1, r1, #27
1000b95a:	d400      	bmi.n	1000b95e <char_permissions+0x86>
1000b95c:	200c      	movs	r0, #12
1000b95e:	4303      	orrs	r3, r0
1000b960:	2084      	movs	r0, #132	; 0x84
1000b962:	0180      	lsls	r0, r0, #6
1000b964:	4303      	orrs	r3, r0
1000b966:	0390      	lsls	r0, r2, #14
1000b968:	4303      	orrs	r3, r0
1000b96a:	b298      	uxth	r0, r3
1000b96c:	bd30      	pop	{r4, r5, pc}
1000b96e:	46c0      	nop			; (mov r8, r8)
1000b970:	00001004 	.word	0x00001004

1000b974 <presentation_format_define>:
1000b974:	b507      	push	{r0, r1, r2, lr}
1000b976:	466a      	mov	r2, sp
1000b978:	780b      	ldrb	r3, [r1, #0]
1000b97a:	7013      	strb	r3, [r2, #0]
1000b97c:	784b      	ldrb	r3, [r1, #1]
1000b97e:	7053      	strb	r3, [r2, #1]
1000b980:	884b      	ldrh	r3, [r1, #2]
1000b982:	7093      	strb	r3, [r2, #2]
1000b984:	0a1b      	lsrs	r3, r3, #8
1000b986:	70d3      	strb	r3, [r2, #3]
1000b988:	790b      	ldrb	r3, [r1, #4]
1000b98a:	7113      	strb	r3, [r2, #4]
1000b98c:	88cb      	ldrh	r3, [r1, #6]
1000b98e:	2107      	movs	r1, #7
1000b990:	7153      	strb	r3, [r2, #5]
1000b992:	0a1b      	lsrs	r3, r3, #8
1000b994:	7193      	strb	r3, [r2, #6]
1000b996:	4b01      	ldr	r3, [pc, #4]	; (1000b99c <presentation_format_define+0x28>)
1000b998:	4798      	blx	r3
1000b99a:	bd0e      	pop	{r1, r2, r3, pc}
1000b99c:	1000dcd9 	.word	0x1000dcd9

1000b9a0 <db_addATT>:
1000b9a0:	b5f7      	push	{r0, r1, r2, r4, r5, r6, r7, lr}
1000b9a2:	4c29      	ldr	r4, [pc, #164]	; (1000ba48 <db_addATT+0xa8>)
1000b9a4:	1c1d      	adds	r5, r3, #0
1000b9a6:	6823      	ldr	r3, [r4, #0]
1000b9a8:	9001      	str	r0, [sp, #4]
1000b9aa:	26d3      	movs	r6, #211	; 0xd3
1000b9ac:	2b00      	cmp	r3, #0
1000b9ae:	d048      	beq.n	1000ba42 <db_addATT+0xa2>
1000b9b0:	1c1e      	adds	r6, r3, #0
1000b9b2:	3e0c      	subs	r6, #12
1000b9b4:	6026      	str	r6, [r4, #0]
1000b9b6:	2900      	cmp	r1, #0
1000b9b8:	d005      	beq.n	1000b9c6 <db_addATT+0x26>
1000b9ba:	4f24      	ldr	r7, [pc, #144]	; (1000ba4c <db_addATT+0xac>)
1000b9bc:	46bc      	mov	ip, r7
1000b9be:	4660      	mov	r0, ip
1000b9c0:	683f      	ldr	r7, [r7, #0]
1000b9c2:	18bf      	adds	r7, r7, r2
1000b9c4:	6007      	str	r7, [r0, #0]
1000b9c6:	4821      	ldr	r0, [pc, #132]	; (1000ba4c <db_addATT+0xac>)
1000b9c8:	6807      	ldr	r7, [r0, #0]
1000b9ca:	4684      	mov	ip, r0
1000b9cc:	42be      	cmp	r6, r7
1000b9ce:	d932      	bls.n	1000ba36 <db_addATT+0x96>
1000b9d0:	4668      	mov	r0, sp
1000b9d2:	8880      	ldrh	r0, [r0, #4]
1000b9d4:	3b0c      	subs	r3, #12
1000b9d6:	8018      	strh	r0, [r3, #0]
1000b9d8:	6823      	ldr	r3, [r4, #0]
1000b9da:	2900      	cmp	r1, #0
1000b9dc:	d009      	beq.n	1000b9f2 <db_addATT+0x52>
1000b9de:	2a00      	cmp	r2, #0
1000b9e0:	d007      	beq.n	1000b9f2 <db_addATT+0x52>
1000b9e2:	4660      	mov	r0, ip
1000b9e4:	6800      	ldr	r0, [r0, #0]
1000b9e6:	809a      	strh	r2, [r3, #4]
1000b9e8:	1a80      	subs	r0, r0, r2
1000b9ea:	6098      	str	r0, [r3, #8]
1000b9ec:	4b18      	ldr	r3, [pc, #96]	; (1000ba50 <db_addATT+0xb0>)
1000b9ee:	4798      	blx	r3
1000b9f0:	e002      	b.n	1000b9f8 <db_addATT+0x58>
1000b9f2:	2100      	movs	r1, #0
1000b9f4:	809a      	strh	r2, [r3, #4]
1000b9f6:	6099      	str	r1, [r3, #8]
1000b9f8:	2300      	movs	r3, #0
1000b9fa:	6822      	ldr	r2, [r4, #0]
1000b9fc:	7093      	strb	r3, [r2, #2]
1000b9fe:	3303      	adds	r3, #3
1000ba00:	402b      	ands	r3, r5
1000ba02:	2b03      	cmp	r3, #3
1000ba04:	d001      	beq.n	1000ba0a <db_addATT+0x6a>
1000ba06:	076b      	lsls	r3, r5, #29
1000ba08:	d504      	bpl.n	1000ba14 <db_addATT+0x74>
1000ba0a:	2101      	movs	r1, #1
1000ba0c:	6822      	ldr	r2, [r4, #0]
1000ba0e:	7893      	ldrb	r3, [r2, #2]
1000ba10:	430b      	orrs	r3, r1
1000ba12:	7093      	strb	r3, [r2, #2]
1000ba14:	2330      	movs	r3, #48	; 0x30
1000ba16:	402b      	ands	r3, r5
1000ba18:	2b30      	cmp	r3, #48	; 0x30
1000ba1a:	d001      	beq.n	1000ba20 <db_addATT+0x80>
1000ba1c:	066b      	lsls	r3, r5, #25
1000ba1e:	d504      	bpl.n	1000ba2a <db_addATT+0x8a>
1000ba20:	2102      	movs	r1, #2
1000ba22:	6822      	ldr	r2, [r4, #0]
1000ba24:	7893      	ldrb	r3, [r2, #2]
1000ba26:	430b      	orrs	r3, r1
1000ba28:	7093      	strb	r3, [r2, #2]
1000ba2a:	4a0a      	ldr	r2, [pc, #40]	; (1000ba54 <db_addATT+0xb4>)
1000ba2c:	2600      	movs	r6, #0
1000ba2e:	6813      	ldr	r3, [r2, #0]
1000ba30:	3301      	adds	r3, #1
1000ba32:	6013      	str	r3, [r2, #0]
1000ba34:	e005      	b.n	1000ba42 <db_addATT+0xa2>
1000ba36:	6023      	str	r3, [r4, #0]
1000ba38:	2611      	movs	r6, #17
1000ba3a:	2900      	cmp	r1, #0
1000ba3c:	d001      	beq.n	1000ba42 <db_addATT+0xa2>
1000ba3e:	1aba      	subs	r2, r7, r2
1000ba40:	6002      	str	r2, [r0, #0]
1000ba42:	1c30      	adds	r0, r6, #0
1000ba44:	bdfe      	pop	{r1, r2, r3, r4, r5, r6, r7, pc}
1000ba46:	46c0      	nop			; (mov r8, r8)
1000ba48:	10010490 	.word	0x10010490
1000ba4c:	10010494 	.word	0x10010494
1000ba50:	1000f017 	.word	0x1000f017
1000ba54:	10010498 	.word	0x10010498

1000ba58 <user_description_define>:
1000ba58:	b5f8      	push	{r3, r4, r5, r6, r7, lr}
1000ba5a:	1c05      	adds	r5, r0, #0
1000ba5c:	20cf      	movs	r0, #207	; 0xcf
1000ba5e:	2a00      	cmp	r2, #0
1000ba60:	d01c      	beq.n	1000ba9c <user_description_define+0x44>
1000ba62:	1c14      	adds	r4, r2, #0
1000ba64:	2203      	movs	r2, #3
1000ba66:	1c1e      	adds	r6, r3, #0
1000ba68:	400a      	ands	r2, r1
1000ba6a:	1c0b      	adds	r3, r1, #0
1000ba6c:	3a03      	subs	r2, #3
1000ba6e:	4251      	negs	r1, r2
1000ba70:	4151      	adcs	r1, r2
1000ba72:	075a      	lsls	r2, r3, #29
1000ba74:	0fd2      	lsrs	r2, r2, #31
1000ba76:	430a      	orrs	r2, r1
1000ba78:	03d2      	lsls	r2, r2, #15
1000ba7a:	4f09      	ldr	r7, [pc, #36]	; (1000baa0 <user_description_define+0x48>)
1000ba7c:	1c28      	adds	r0, r5, #0
1000ba7e:	2a00      	cmp	r2, #0
1000ba80:	d003      	beq.n	1000ba8a <user_description_define+0x32>
1000ba82:	1c21      	adds	r1, r4, #0
1000ba84:	1c32      	adds	r2, r6, #0
1000ba86:	47b8      	blx	r7
1000ba88:	e008      	b.n	1000ba9c <user_description_define+0x44>
1000ba8a:	1c11      	adds	r1, r2, #0
1000ba8c:	47b8      	blx	r7
1000ba8e:	2800      	cmp	r0, #0
1000ba90:	d104      	bne.n	1000ba9c <user_description_define+0x44>
1000ba92:	1c28      	adds	r0, r5, #0
1000ba94:	1c31      	adds	r1, r6, #0
1000ba96:	1c22      	adds	r2, r4, #0
1000ba98:	4b02      	ldr	r3, [pc, #8]	; (1000baa4 <user_description_define+0x4c>)
1000ba9a:	4798      	blx	r3
1000ba9c:	bdf8      	pop	{r3, r4, r5, r6, r7, pc}
1000ba9e:	46c0      	nop			; (mov r8, r8)
1000baa0:	1000b9a1 	.word	0x1000b9a1
1000baa4:	1000dcd9 	.word	0x1000dcd9

1000baa8 <at_ble_read_authorize_reply.part.2>:
1000baa8:	b537      	push	{r0, r1, r2, r4, r5, lr}
1000baaa:	4b09      	ldr	r3, [pc, #36]	; (1000bad0 <at_ble_read_authorize_reply.part.2+0x28>)
1000baac:	1c05      	adds	r5, r0, #0
1000baae:	1c08      	adds	r0, r1, #0
1000bab0:	1c0c      	adds	r4, r1, #0
1000bab2:	4798      	blx	r3
1000bab4:	2800      	cmp	r0, #0
1000bab6:	d009      	beq.n	1000bacc <at_ble_read_authorize_reply.part.2+0x24>
1000bab8:	6882      	ldr	r2, [r0, #8]
1000baba:	2a00      	cmp	r2, #0
1000babc:	d006      	beq.n	1000bacc <at_ble_read_authorize_reply.part.2+0x24>
1000babe:	8883      	ldrh	r3, [r0, #4]
1000bac0:	1c29      	adds	r1, r5, #0
1000bac2:	9200      	str	r2, [sp, #0]
1000bac4:	1c20      	adds	r0, r4, #0
1000bac6:	2200      	movs	r2, #0
1000bac8:	4c02      	ldr	r4, [pc, #8]	; (1000bad4 <at_ble_read_authorize_reply.part.2+0x2c>)
1000baca:	47a0      	blx	r4
1000bacc:	bd3e      	pop	{r1, r2, r3, r4, r5, pc}
1000bace:	46c0      	nop			; (mov r8, r8)
1000bad0:	1000b841 	.word	0x1000b841
1000bad4:	1000d771 	.word	0x1000d771

1000bad8 <internal_at_ble_service_define.part.1>:
1000bad8:	b5f0      	push	{r4, r5, r6, r7, lr}
1000bada:	2400      	movs	r4, #0
1000badc:	1c05      	adds	r5, r0, #0
1000bade:	b08b      	sub	sp, #44	; 0x2c
1000bae0:	9304      	str	r3, [sp, #16]
1000bae2:	ab10      	add	r3, sp, #64	; 0x40
1000bae4:	9202      	str	r2, [sp, #8]
1000bae6:	cb04      	ldmia	r3!, {r2}
1000bae8:	9106      	str	r1, [sp, #24]
1000baea:	881b      	ldrh	r3, [r3, #0]
1000baec:	1c21      	adds	r1, r4, #0
1000baee:	9305      	str	r3, [sp, #20]
1000baf0:	ab12      	add	r3, sp, #72	; 0x48
1000baf2:	781b      	ldrb	r3, [r3, #0]
1000baf4:	2210      	movs	r2, #16
1000baf6:	9303      	str	r3, [sp, #12]
1000baf8:	4bc5      	ldr	r3, [pc, #788]	; (1000be10 <internal_at_ble_service_define.part.1+0x338>)
1000bafa:	681e      	ldr	r6, [r3, #0]
1000bafc:	4bc5      	ldr	r3, [pc, #788]	; (1000be14 <internal_at_ble_service_define.part.1+0x33c>)
1000bafe:	8034      	strh	r4, [r6, #0]
1000bb00:	881b      	ldrh	r3, [r3, #0]
1000bb02:	1db7      	adds	r7, r6, #6
1000bb04:	8073      	strh	r3, [r6, #2]
1000bb06:	1c38      	adds	r0, r7, #0
1000bb08:	4bc3      	ldr	r3, [pc, #780]	; (1000be18 <internal_at_ble_service_define.part.1+0x340>)
1000bb0a:	4798      	blx	r3
1000bb0c:	4bc3      	ldr	r3, [pc, #780]	; (1000be1c <internal_at_ble_service_define.part.1+0x344>)
1000bb0e:	7828      	ldrb	r0, [r5, #0]
1000bb10:	4798      	blx	r3
1000bb12:	4bc3      	ldr	r3, [pc, #780]	; (1000be20 <internal_at_ble_service_define.part.1+0x348>)
1000bb14:	1c02      	adds	r2, r0, #0
1000bb16:	1c69      	adds	r1, r5, #1
1000bb18:	1c38      	adds	r0, r7, #0
1000bb1a:	4798      	blx	r3
1000bb1c:	2204      	movs	r2, #4
1000bb1e:	782b      	ldrb	r3, [r5, #0]
1000bb20:	7174      	strb	r4, [r6, #5]
1000bb22:	011b      	lsls	r3, r3, #4
1000bb24:	4313      	orrs	r3, r2
1000bb26:	9a03      	ldr	r2, [sp, #12]
1000bb28:	9c02      	ldr	r4, [sp, #8]
1000bb2a:	0192      	lsls	r2, r2, #6
1000bb2c:	4313      	orrs	r3, r2
1000bb2e:	7133      	strb	r3, [r6, #4]
1000bb30:	2316      	movs	r3, #22
1000bb32:	9a04      	ldr	r2, [sp, #16]
1000bb34:	3412      	adds	r4, #18
1000bb36:	4353      	muls	r3, r2
1000bb38:	9a02      	ldr	r2, [sp, #8]
1000bb3a:	3312      	adds	r3, #18
1000bb3c:	18d7      	adds	r7, r2, r3
1000bb3e:	42bc      	cmp	r4, r7
1000bb40:	d00f      	beq.n	1000bb62 <internal_at_ble_service_define.part.1+0x8a>
1000bb42:	4bb8      	ldr	r3, [pc, #736]	; (1000be24 <internal_at_ble_service_define.part.1+0x34c>)
1000bb44:	8821      	ldrh	r1, [r4, #0]
1000bb46:	9300      	str	r3, [sp, #0]
1000bb48:	230e      	movs	r3, #14
1000bb4a:	aa06      	add	r2, sp, #24
1000bb4c:	189b      	adds	r3, r3, r2
1000bb4e:	9301      	str	r3, [sp, #4]
1000bb50:	4db5      	ldr	r5, [pc, #724]	; (1000be28 <internal_at_ble_service_define.part.1+0x350>)
1000bb52:	1c30      	adds	r0, r6, #0
1000bb54:	2201      	movs	r2, #1
1000bb56:	2302      	movs	r3, #2
1000bb58:	47a8      	blx	r5
1000bb5a:	3416      	adds	r4, #22
1000bb5c:	1e05      	subs	r5, r0, #0
1000bb5e:	d0ee      	beq.n	1000bb3e <internal_at_ble_service_define.part.1+0x66>
1000bb60:	e183      	b.n	1000be6a <internal_at_ble_service_define.part.1+0x392>
1000bb62:	9f10      	ldr	r7, [sp, #64]	; 0x40
1000bb64:	2300      	movs	r3, #0
1000bb66:	3714      	adds	r7, #20
1000bb68:	1c3c      	adds	r4, r7, #0
1000bb6a:	9302      	str	r3, [sp, #8]
1000bb6c:	9b02      	ldr	r3, [sp, #8]
1000bb6e:	9a05      	ldr	r2, [sp, #20]
1000bb70:	4293      	cmp	r3, r2
1000bb72:	db00      	blt.n	1000bb76 <internal_at_ble_service_define.part.1+0x9e>
1000bb74:	e0bf      	b.n	1000bcf6 <internal_at_ble_service_define.part.1+0x21e>
1000bb76:	4bad      	ldr	r3, [pc, #692]	; (1000be2c <internal_at_ble_service_define.part.1+0x354>)
1000bb78:	aa06      	add	r2, sp, #24
1000bb7a:	9300      	str	r3, [sp, #0]
1000bb7c:	230e      	movs	r3, #14
1000bb7e:	189b      	adds	r3, r3, r2
1000bb80:	9301      	str	r3, [sp, #4]
1000bb82:	4da9      	ldr	r5, [pc, #676]	; (1000be28 <internal_at_ble_service_define.part.1+0x350>)
1000bb84:	1c30      	adds	r0, r6, #0
1000bb86:	2104      	movs	r1, #4
1000bb88:	2201      	movs	r2, #1
1000bb8a:	2302      	movs	r3, #2
1000bb8c:	47a8      	blx	r5
1000bb8e:	1e05      	subs	r5, r0, #0
1000bb90:	d000      	beq.n	1000bb94 <internal_at_ble_service_define.part.1+0xbc>
1000bb92:	e16a      	b.n	1000be6a <internal_at_ble_service_define.part.1+0x392>
1000bb94:	1c23      	adds	r3, r4, #0
1000bb96:	3b12      	subs	r3, #18
1000bb98:	7b25      	ldrb	r5, [r4, #12]
1000bb9a:	781b      	ldrb	r3, [r3, #0]
1000bb9c:	1c29      	adds	r1, r5, #0
1000bb9e:	1c1a      	adds	r2, r3, #0
1000bba0:	9303      	str	r3, [sp, #12]
1000bba2:	8820      	ldrh	r0, [r4, #0]
1000bba4:	4ba2      	ldr	r3, [pc, #648]	; (1000be30 <internal_at_ble_service_define.part.1+0x358>)
1000bba6:	4798      	blx	r3
1000bba8:	2303      	movs	r3, #3
1000bbaa:	402b      	ands	r3, r5
1000bbac:	3b03      	subs	r3, #3
1000bbae:	4259      	negs	r1, r3
1000bbb0:	4159      	adcs	r1, r3
1000bbb2:	2301      	movs	r3, #1
1000bbb4:	08ad      	lsrs	r5, r5, #2
1000bbb6:	401d      	ands	r5, r3
1000bbb8:	430d      	orrs	r5, r1
1000bbba:	8963      	ldrh	r3, [r4, #10]
1000bbbc:	03ed      	lsls	r5, r5, #15
1000bbbe:	431d      	orrs	r5, r3
1000bbc0:	9007      	str	r0, [sp, #28]
1000bbc2:	4b96      	ldr	r3, [pc, #600]	; (1000be1c <internal_at_ble_service_define.part.1+0x344>)
1000bbc4:	9803      	ldr	r0, [sp, #12]
1000bbc6:	4798      	blx	r3
1000bbc8:	1c22      	adds	r2, r4, #0
1000bbca:	3a11      	subs	r2, #17
1000bbcc:	9200      	str	r2, [sp, #0]
1000bbce:	3a03      	subs	r2, #3
1000bbd0:	1c03      	adds	r3, r0, #0
1000bbd2:	9201      	str	r2, [sp, #4]
1000bbd4:	1c29      	adds	r1, r5, #0
1000bbd6:	1c30      	adds	r0, r6, #0
1000bbd8:	4d93      	ldr	r5, [pc, #588]	; (1000be28 <internal_at_ble_service_define.part.1+0x350>)
1000bbda:	9a07      	ldr	r2, [sp, #28]
1000bbdc:	47a8      	blx	r5
1000bbde:	1e05      	subs	r5, r0, #0
1000bbe0:	d000      	beq.n	1000bbe4 <internal_at_ble_service_define.part.1+0x10c>
1000bbe2:	e142      	b.n	1000be6a <internal_at_ble_service_define.part.1+0x392>
1000bbe4:	22c0      	movs	r2, #192	; 0xc0
1000bbe6:	8823      	ldrh	r3, [r4, #0]
1000bbe8:	0052      	lsls	r2, r2, #1
1000bbea:	4213      	tst	r3, r2
1000bbec:	d104      	bne.n	1000bbf8 <internal_at_ble_service_define.part.1+0x120>
1000bbee:	8aa3      	ldrh	r3, [r4, #20]
1000bbf0:	9303      	str	r3, [sp, #12]
1000bbf2:	2b00      	cmp	r3, #0
1000bbf4:	d116      	bne.n	1000bc24 <internal_at_ble_service_define.part.1+0x14c>
1000bbf6:	e03a      	b.n	1000bc6e <internal_at_ble_service_define.part.1+0x196>
1000bbf8:	2201      	movs	r2, #1
1000bbfa:	09d9      	lsrs	r1, r3, #7
1000bbfc:	4011      	ands	r1, r2
1000bbfe:	05db      	lsls	r3, r3, #23
1000bc00:	d501      	bpl.n	1000bc06 <internal_at_ble_service_define.part.1+0x12e>
1000bc02:	2302      	movs	r3, #2
1000bc04:	4319      	orrs	r1, r3
1000bc06:	4b8b      	ldr	r3, [pc, #556]	; (1000be34 <internal_at_ble_service_define.part.1+0x35c>)
1000bc08:	aa06      	add	r2, sp, #24
1000bc0a:	9300      	str	r3, [sp, #0]
1000bc0c:	230e      	movs	r3, #14
1000bc0e:	189b      	adds	r3, r3, r2
1000bc10:	9301      	str	r3, [sp, #4]
1000bc12:	4d85      	ldr	r5, [pc, #532]	; (1000be28 <internal_at_ble_service_define.part.1+0x350>)
1000bc14:	0209      	lsls	r1, r1, #8
1000bc16:	1c30      	adds	r0, r6, #0
1000bc18:	2201      	movs	r2, #1
1000bc1a:	2302      	movs	r3, #2
1000bc1c:	47a8      	blx	r5
1000bc1e:	1e05      	subs	r5, r0, #0
1000bc20:	d0e5      	beq.n	1000bbee <internal_at_ble_service_define.part.1+0x116>
1000bc22:	e122      	b.n	1000be6a <internal_at_ble_service_define.part.1+0x392>
1000bc24:	2380      	movs	r3, #128	; 0x80
1000bc26:	8822      	ldrh	r2, [r4, #0]
1000bc28:	7f25      	ldrb	r5, [r4, #28]
1000bc2a:	005b      	lsls	r3, r3, #1
1000bc2c:	401a      	ands	r2, r3
1000bc2e:	1c28      	adds	r0, r5, #0
1000bc30:	2101      	movs	r1, #1
1000bc32:	2a00      	cmp	r2, #0
1000bc34:	d000      	beq.n	1000bc38 <internal_at_ble_service_define.part.1+0x160>
1000bc36:	1c0a      	adds	r2, r1, #0
1000bc38:	4b7f      	ldr	r3, [pc, #508]	; (1000be38 <internal_at_ble_service_define.part.1+0x360>)
1000bc3a:	4798      	blx	r3
1000bc3c:	2203      	movs	r2, #3
1000bc3e:	402a      	ands	r2, r5
1000bc40:	3a03      	subs	r2, #3
1000bc42:	4251      	negs	r1, r2
1000bc44:	4151      	adcs	r1, r2
1000bc46:	4b7d      	ldr	r3, [pc, #500]	; (1000be3c <internal_at_ble_service_define.part.1+0x364>)
1000bc48:	1c0a      	adds	r2, r1, #0
1000bc4a:	9300      	str	r3, [sp, #0]
1000bc4c:	1c23      	adds	r3, r4, #0
1000bc4e:	076d      	lsls	r5, r5, #29
1000bc50:	0fed      	lsrs	r5, r5, #31
1000bc52:	432a      	orrs	r2, r5
1000bc54:	03d2      	lsls	r2, r2, #15
1000bc56:	4310      	orrs	r0, r2
1000bc58:	3320      	adds	r3, #32
1000bc5a:	b282      	uxth	r2, r0
1000bc5c:	9301      	str	r3, [sp, #4]
1000bc5e:	4d72      	ldr	r5, [pc, #456]	; (1000be28 <internal_at_ble_service_define.part.1+0x350>)
1000bc60:	1c30      	adds	r0, r6, #0
1000bc62:	9903      	ldr	r1, [sp, #12]
1000bc64:	2302      	movs	r3, #2
1000bc66:	47a8      	blx	r5
1000bc68:	1e05      	subs	r5, r0, #0
1000bc6a:	d000      	beq.n	1000bc6e <internal_at_ble_service_define.part.1+0x196>
1000bc6c:	e0fd      	b.n	1000be6a <internal_at_ble_service_define.part.1+0x392>
1000bc6e:	2101      	movs	r1, #1
1000bc70:	8823      	ldrh	r3, [r4, #0]
1000bc72:	420b      	tst	r3, r1
1000bc74:	d011      	beq.n	1000bc9a <internal_at_ble_service_define.part.1+0x1c2>
1000bc76:	7fa0      	ldrb	r0, [r4, #30]
1000bc78:	4b6f      	ldr	r3, [pc, #444]	; (1000be38 <internal_at_ble_service_define.part.1+0x360>)
1000bc7a:	2200      	movs	r2, #0
1000bc7c:	4798      	blx	r3
1000bc7e:	4b70      	ldr	r3, [pc, #448]	; (1000be40 <internal_at_ble_service_define.part.1+0x368>)
1000bc80:	1c02      	adds	r2, r0, #0
1000bc82:	9300      	str	r3, [sp, #0]
1000bc84:	1c23      	adds	r3, r4, #0
1000bc86:	3324      	adds	r3, #36	; 0x24
1000bc88:	9301      	str	r3, [sp, #4]
1000bc8a:	4d67      	ldr	r5, [pc, #412]	; (1000be28 <internal_at_ble_service_define.part.1+0x350>)
1000bc8c:	1c30      	adds	r0, r6, #0
1000bc8e:	496d      	ldr	r1, [pc, #436]	; (1000be44 <internal_at_ble_service_define.part.1+0x36c>)
1000bc90:	2302      	movs	r3, #2
1000bc92:	47a8      	blx	r5
1000bc94:	1e05      	subs	r5, r0, #0
1000bc96:	d000      	beq.n	1000bc9a <internal_at_ble_service_define.part.1+0x1c2>
1000bc98:	e0e7      	b.n	1000be6a <internal_at_ble_service_define.part.1+0x392>
1000bc9a:	2330      	movs	r3, #48	; 0x30
1000bc9c:	8822      	ldrh	r2, [r4, #0]
1000bc9e:	421a      	tst	r2, r3
1000bca0:	d012      	beq.n	1000bcc8 <internal_at_ble_service_define.part.1+0x1f0>
1000bca2:	2101      	movs	r1, #1
1000bca4:	7f60      	ldrb	r0, [r4, #29]
1000bca6:	1c0a      	adds	r2, r1, #0
1000bca8:	4b63      	ldr	r3, [pc, #396]	; (1000be38 <internal_at_ble_service_define.part.1+0x360>)
1000bcaa:	4798      	blx	r3
1000bcac:	4b66      	ldr	r3, [pc, #408]	; (1000be48 <internal_at_ble_service_define.part.1+0x370>)
1000bcae:	1c02      	adds	r2, r0, #0
1000bcb0:	9300      	str	r3, [sp, #0]
1000bcb2:	1c23      	adds	r3, r4, #0
1000bcb4:	3322      	adds	r3, #34	; 0x22
1000bcb6:	9301      	str	r3, [sp, #4]
1000bcb8:	4d5b      	ldr	r5, [pc, #364]	; (1000be28 <internal_at_ble_service_define.part.1+0x350>)
1000bcba:	1c30      	adds	r0, r6, #0
1000bcbc:	4961      	ldr	r1, [pc, #388]	; (1000be44 <internal_at_ble_service_define.part.1+0x36c>)
1000bcbe:	2302      	movs	r3, #2
1000bcc0:	47a8      	blx	r5
1000bcc2:	1e05      	subs	r5, r0, #0
1000bcc4:	d000      	beq.n	1000bcc8 <internal_at_ble_service_define.part.1+0x1f0>
1000bcc6:	e0d0      	b.n	1000be6a <internal_at_ble_service_define.part.1+0x392>
1000bcc8:	69a3      	ldr	r3, [r4, #24]
1000bcca:	2b00      	cmp	r3, #0
1000bccc:	d00e      	beq.n	1000bcec <internal_at_ble_service_define.part.1+0x214>
1000bcce:	4b5f      	ldr	r3, [pc, #380]	; (1000be4c <internal_at_ble_service_define.part.1+0x374>)
1000bcd0:	aa06      	add	r2, sp, #24
1000bcd2:	9300      	str	r3, [sp, #0]
1000bcd4:	230e      	movs	r3, #14
1000bcd6:	189b      	adds	r3, r3, r2
1000bcd8:	9301      	str	r3, [sp, #4]
1000bcda:	4d53      	ldr	r5, [pc, #332]	; (1000be28 <internal_at_ble_service_define.part.1+0x350>)
1000bcdc:	1c30      	adds	r0, r6, #0
1000bcde:	2107      	movs	r1, #7
1000bce0:	2201      	movs	r2, #1
1000bce2:	2302      	movs	r3, #2
1000bce4:	47a8      	blx	r5
1000bce6:	1e05      	subs	r5, r0, #0
1000bce8:	d000      	beq.n	1000bcec <internal_at_ble_service_define.part.1+0x214>
1000bcea:	e0be      	b.n	1000be6a <internal_at_ble_service_define.part.1+0x392>
1000bcec:	9b02      	ldr	r3, [sp, #8]
1000bcee:	343c      	adds	r4, #60	; 0x3c
1000bcf0:	3301      	adds	r3, #1
1000bcf2:	9302      	str	r3, [sp, #8]
1000bcf4:	e73a      	b.n	1000bb6c <internal_at_ble_service_define.part.1+0x94>
1000bcf6:	1c30      	adds	r0, r6, #0
1000bcf8:	4b55      	ldr	r3, [pc, #340]	; (1000be50 <internal_at_ble_service_define.part.1+0x378>)
1000bcfa:	4798      	blx	r3
1000bcfc:	1e05      	subs	r5, r0, #0
1000bcfe:	d000      	beq.n	1000bd02 <internal_at_ble_service_define.part.1+0x22a>
1000bd00:	e0b3      	b.n	1000be6a <internal_at_ble_service_define.part.1+0x392>
1000bd02:	8833      	ldrh	r3, [r6, #0]
1000bd04:	9a06      	ldr	r2, [sp, #24]
1000bd06:	8013      	strh	r3, [r2, #0]
1000bd08:	8836      	ldrh	r6, [r6, #0]
1000bd0a:	9b04      	ldr	r3, [sp, #16]
1000bd0c:	9a05      	ldr	r2, [sp, #20]
1000bd0e:	18f6      	adds	r6, r6, r3
1000bd10:	b2b3      	uxth	r3, r6
1000bd12:	9302      	str	r3, [sp, #8]
1000bd14:	233c      	movs	r3, #60	; 0x3c
1000bd16:	4353      	muls	r3, r2
1000bd18:	9a10      	ldr	r2, [sp, #64]	; 0x40
1000bd1a:	3314      	adds	r3, #20
1000bd1c:	18d3      	adds	r3, r2, r3
1000bd1e:	9304      	str	r3, [sp, #16]
1000bd20:	9b04      	ldr	r3, [sp, #16]
1000bd22:	429f      	cmp	r7, r3
1000bd24:	d100      	bne.n	1000bd28 <internal_at_ble_service_define.part.1+0x250>
1000bd26:	e0a0      	b.n	1000be6a <internal_at_ble_service_define.part.1+0x392>
1000bd28:	9b02      	ldr	r3, [sp, #8]
1000bd2a:	1c9c      	adds	r4, r3, #2
1000bd2c:	1c3b      	adds	r3, r7, #0
1000bd2e:	b2a4      	uxth	r4, r4
1000bd30:	3b14      	subs	r3, #20
1000bd32:	801c      	strh	r4, [r3, #0]
1000bd34:	9303      	str	r3, [sp, #12]
1000bd36:	893b      	ldrh	r3, [r7, #8]
1000bd38:	2b00      	cmp	r3, #0
1000bd3a:	d108      	bne.n	1000bd4e <internal_at_ble_service_define.part.1+0x276>
1000bd3c:	23c0      	movs	r3, #192	; 0xc0
1000bd3e:	883a      	ldrh	r2, [r7, #0]
1000bd40:	005b      	lsls	r3, r3, #1
1000bd42:	421a      	tst	r2, r3
1000bd44:	d026      	beq.n	1000bd94 <internal_at_ble_service_define.part.1+0x2bc>
1000bd46:	9e02      	ldr	r6, [sp, #8]
1000bd48:	3603      	adds	r6, #3
1000bd4a:	b2b4      	uxth	r4, r6
1000bd4c:	e022      	b.n	1000bd94 <internal_at_ble_service_define.part.1+0x2bc>
1000bd4e:	2103      	movs	r1, #3
1000bd50:	7b3b      	ldrb	r3, [r7, #12]
1000bd52:	4019      	ands	r1, r3
1000bd54:	3903      	subs	r1, #3
1000bd56:	424a      	negs	r2, r1
1000bd58:	414a      	adcs	r2, r1
1000bd5a:	0759      	lsls	r1, r3, #29
1000bd5c:	0fc9      	lsrs	r1, r1, #31
1000bd5e:	4311      	orrs	r1, r2
1000bd60:	03c9      	lsls	r1, r1, #15
1000bd62:	897a      	ldrh	r2, [r7, #10]
1000bd64:	2900      	cmp	r1, #0
1000bd66:	d007      	beq.n	1000bd78 <internal_at_ble_service_define.part.1+0x2a0>
1000bd68:	6879      	ldr	r1, [r7, #4]
1000bd6a:	2900      	cmp	r1, #0
1000bd6c:	d100      	bne.n	1000bd70 <internal_at_ble_service_define.part.1+0x298>
1000bd6e:	4939      	ldr	r1, [pc, #228]	; (1000be54 <internal_at_ble_service_define.part.1+0x37c>)
1000bd70:	1c20      	adds	r0, r4, #0
1000bd72:	4e39      	ldr	r6, [pc, #228]	; (1000be58 <internal_at_ble_service_define.part.1+0x380>)
1000bd74:	47b0      	blx	r6
1000bd76:	e00a      	b.n	1000bd8e <internal_at_ble_service_define.part.1+0x2b6>
1000bd78:	1c20      	adds	r0, r4, #0
1000bd7a:	4e37      	ldr	r6, [pc, #220]	; (1000be58 <internal_at_ble_service_define.part.1+0x380>)
1000bd7c:	47b0      	blx	r6
1000bd7e:	2800      	cmp	r0, #0
1000bd80:	d172      	bne.n	1000be68 <internal_at_ble_service_define.part.1+0x390>
1000bd82:	9b03      	ldr	r3, [sp, #12]
1000bd84:	8939      	ldrh	r1, [r7, #8]
1000bd86:	8818      	ldrh	r0, [r3, #0]
1000bd88:	687a      	ldr	r2, [r7, #4]
1000bd8a:	4b34      	ldr	r3, [pc, #208]	; (1000be5c <internal_at_ble_service_define.part.1+0x384>)
1000bd8c:	4798      	blx	r3
1000bd8e:	2800      	cmp	r0, #0
1000bd90:	d0d4      	beq.n	1000bd3c <internal_at_ble_service_define.part.1+0x264>
1000bd92:	e069      	b.n	1000be68 <internal_at_ble_service_define.part.1+0x390>
1000bd94:	8abb      	ldrh	r3, [r7, #20]
1000bd96:	2b00      	cmp	r3, #0
1000bd98:	d00a      	beq.n	1000bdb0 <internal_at_ble_service_define.part.1+0x2d8>
1000bd9a:	3401      	adds	r4, #1
1000bd9c:	b2a4      	uxth	r4, r4
1000bd9e:	843c      	strh	r4, [r7, #32]
1000bda0:	7f39      	ldrb	r1, [r7, #28]
1000bda2:	8afb      	ldrh	r3, [r7, #22]
1000bda4:	1c20      	adds	r0, r4, #0
1000bda6:	693a      	ldr	r2, [r7, #16]
1000bda8:	4e2d      	ldr	r6, [pc, #180]	; (1000be60 <internal_at_ble_service_define.part.1+0x388>)
1000bdaa:	47b0      	blx	r6
1000bdac:	2800      	cmp	r0, #0
1000bdae:	d15b      	bne.n	1000be68 <internal_at_ble_service_define.part.1+0x390>
1000bdb0:	883b      	ldrh	r3, [r7, #0]
1000bdb2:	07db      	lsls	r3, r3, #31
1000bdb4:	d50d      	bpl.n	1000bdd2 <internal_at_ble_service_define.part.1+0x2fa>
1000bdb6:	2200      	movs	r2, #0
1000bdb8:	3401      	adds	r4, #1
1000bdba:	b2a4      	uxth	r4, r4
1000bdbc:	a909      	add	r1, sp, #36	; 0x24
1000bdbe:	84bc      	strh	r4, [r7, #36]	; 0x24
1000bdc0:	7fbb      	ldrb	r3, [r7, #30]
1000bdc2:	1c20      	adds	r0, r4, #0
1000bdc4:	700a      	strb	r2, [r1, #0]
1000bdc6:	704a      	strb	r2, [r1, #1]
1000bdc8:	4e23      	ldr	r6, [pc, #140]	; (1000be58 <internal_at_ble_service_define.part.1+0x380>)
1000bdca:	3202      	adds	r2, #2
1000bdcc:	47b0      	blx	r6
1000bdce:	2800      	cmp	r0, #0
1000bdd0:	d14a      	bne.n	1000be68 <internal_at_ble_service_define.part.1+0x390>
1000bdd2:	2330      	movs	r3, #48	; 0x30
1000bdd4:	883a      	ldrh	r2, [r7, #0]
1000bdd6:	421a      	tst	r2, r3
1000bdd8:	d00d      	beq.n	1000bdf6 <internal_at_ble_service_define.part.1+0x31e>
1000bdda:	2200      	movs	r2, #0
1000bddc:	3401      	adds	r4, #1
1000bdde:	b2a4      	uxth	r4, r4
1000bde0:	a909      	add	r1, sp, #36	; 0x24
1000bde2:	847c      	strh	r4, [r7, #34]	; 0x22
1000bde4:	7f7b      	ldrb	r3, [r7, #29]
1000bde6:	1c20      	adds	r0, r4, #0
1000bde8:	700a      	strb	r2, [r1, #0]
1000bdea:	704a      	strb	r2, [r1, #1]
1000bdec:	4e1a      	ldr	r6, [pc, #104]	; (1000be58 <internal_at_ble_service_define.part.1+0x380>)
1000bdee:	3202      	adds	r2, #2
1000bdf0:	47b0      	blx	r6
1000bdf2:	2800      	cmp	r0, #0
1000bdf4:	d138      	bne.n	1000be68 <internal_at_ble_service_define.part.1+0x390>
1000bdf6:	69b9      	ldr	r1, [r7, #24]
1000bdf8:	2900      	cmp	r1, #0
1000bdfa:	d006      	beq.n	1000be0a <internal_at_ble_service_define.part.1+0x332>
1000bdfc:	3401      	adds	r4, #1
1000bdfe:	b2a4      	uxth	r4, r4
1000be00:	1c20      	adds	r0, r4, #0
1000be02:	4b18      	ldr	r3, [pc, #96]	; (1000be64 <internal_at_ble_service_define.part.1+0x38c>)
1000be04:	4798      	blx	r3
1000be06:	2800      	cmp	r0, #0
1000be08:	d12e      	bne.n	1000be68 <internal_at_ble_service_define.part.1+0x390>
1000be0a:	373c      	adds	r7, #60	; 0x3c
1000be0c:	9402      	str	r4, [sp, #8]
1000be0e:	e787      	b.n	1000bd20 <internal_at_ble_service_define.part.1+0x248>
1000be10:	100104a0 	.word	0x100104a0
1000be14:	100111e8 	.word	0x100111e8
1000be18:	1000f029 	.word	0x1000f029
1000be1c:	1000b80d 	.word	0x1000b80d
1000be20:	1000f017 	.word	0x1000f017
1000be24:	1000fcb3 	.word	0x1000fcb3
1000be28:	1000dc69 	.word	0x1000dc69
1000be2c:	1000fcb5 	.word	0x1000fcb5
1000be30:	1000b8d9 	.word	0x1000b8d9
1000be34:	1000fcb1 	.word	0x1000fcb1
1000be38:	1000b881 	.word	0x1000b881
1000be3c:	1000fcad 	.word	0x1000fcad
1000be40:	1000fcaf 	.word	0x1000fcaf
1000be44:	00008002 	.word	0x00008002
1000be48:	1000fca9 	.word	0x1000fca9
1000be4c:	1000fcab 	.word	0x1000fcab
1000be50:	1000db5d 	.word	0x1000db5d
1000be54:	1001048c 	.word	0x1001048c
1000be58:	1000b9a1 	.word	0x1000b9a1
1000be5c:	1000dcd9 	.word	0x1000dcd9
1000be60:	1000ba59 	.word	0x1000ba59
1000be64:	1000b975 	.word	0x1000b975
1000be68:	1c05      	adds	r5, r0, #0
1000be6a:	1c28      	adds	r0, r5, #0
1000be6c:	b00b      	add	sp, #44	; 0x2c
1000be6e:	bdf0      	pop	{r4, r5, r6, r7, pc}

1000be70 <initi_gatt_server_module>:
1000be70:	2300      	movs	r3, #0
1000be72:	4a06      	ldr	r2, [pc, #24]	; (1000be8c <initi_gatt_server_module+0x1c>)
1000be74:	7013      	strb	r3, [r2, #0]
1000be76:	4a06      	ldr	r2, [pc, #24]	; (1000be90 <initi_gatt_server_module+0x20>)
1000be78:	6013      	str	r3, [r2, #0]
1000be7a:	4a06      	ldr	r2, [pc, #24]	; (1000be94 <initi_gatt_server_module+0x24>)
1000be7c:	6013      	str	r3, [r2, #0]
1000be7e:	4a06      	ldr	r2, [pc, #24]	; (1000be98 <initi_gatt_server_module+0x28>)
1000be80:	6013      	str	r3, [r2, #0]
1000be82:	4a06      	ldr	r2, [pc, #24]	; (1000be9c <initi_gatt_server_module+0x2c>)
1000be84:	6013      	str	r3, [r2, #0]
1000be86:	4a06      	ldr	r2, [pc, #24]	; (1000bea0 <initi_gatt_server_module+0x30>)
1000be88:	6013      	str	r3, [r2, #0]
1000be8a:	4770      	bx	lr
1000be8c:	1001048c 	.word	0x1001048c
1000be90:	1001049c 	.word	0x1001049c
1000be94:	10010498 	.word	0x10010498
1000be98:	10010488 	.word	0x10010488
1000be9c:	10010494 	.word	0x10010494
1000bea0:	10010490 	.word	0x10010490

1000bea4 <db_init>:
1000bea4:	4b0a      	ldr	r3, [pc, #40]	; (1000bed0 <db_init+0x2c>)
1000bea6:	4a0b      	ldr	r2, [pc, #44]	; (1000bed4 <db_init+0x30>)
1000bea8:	6018      	str	r0, [r3, #0]
1000beaa:	084b      	lsrs	r3, r1, #1
1000beac:	6013      	str	r3, [r2, #0]
1000beae:	4a0a      	ldr	r2, [pc, #40]	; (1000bed8 <db_init+0x34>)
1000beb0:	18c3      	adds	r3, r0, r3
1000beb2:	6013      	str	r3, [r2, #0]
1000beb4:	4a09      	ldr	r2, [pc, #36]	; (1000bedc <db_init+0x38>)
1000beb6:	1841      	adds	r1, r0, r1
1000beb8:	6013      	str	r3, [r2, #0]
1000beba:	2303      	movs	r3, #3
1000bebc:	2200      	movs	r2, #0
1000bebe:	3103      	adds	r1, #3
1000bec0:	4399      	bics	r1, r3
1000bec2:	4b07      	ldr	r3, [pc, #28]	; (1000bee0 <db_init+0x3c>)
1000bec4:	3904      	subs	r1, #4
1000bec6:	6019      	str	r1, [r3, #0]
1000bec8:	4b06      	ldr	r3, [pc, #24]	; (1000bee4 <db_init+0x40>)
1000beca:	601a      	str	r2, [r3, #0]
1000becc:	4770      	bx	lr
1000bece:	46c0      	nop			; (mov r8, r8)
1000bed0:	100104a0 	.word	0x100104a0
1000bed4:	1001049c 	.word	0x1001049c
1000bed8:	10010488 	.word	0x10010488
1000bedc:	10010494 	.word	0x10010494
1000bee0:	10010490 	.word	0x10010490
1000bee4:	10010498 	.word	0x10010498

1000bee8 <at_ble_primary_service_define>:
1000bee8:	b57f      	push	{r0, r1, r2, r3, r4, r5, r6, lr}
1000beea:	ac08      	add	r4, sp, #32
1000beec:	cc40      	ldmia	r4!, {r6}
1000beee:	1c05      	adds	r5, r0, #0
1000bef0:	8824      	ldrh	r4, [r4, #0]
1000bef2:	20cf      	movs	r0, #207	; 0xcf
1000bef4:	2d00      	cmp	r5, #0
1000bef6:	d00c      	beq.n	1000bf12 <at_ble_primary_service_define+0x2a>
1000bef8:	2900      	cmp	r1, #0
1000befa:	d00a      	beq.n	1000bf12 <at_ble_primary_service_define+0x2a>
1000befc:	2e00      	cmp	r6, #0
1000befe:	d008      	beq.n	1000bf12 <at_ble_primary_service_define+0x2a>
1000bf00:	2c00      	cmp	r4, #0
1000bf02:	d006      	beq.n	1000bf12 <at_ble_primary_service_define+0x2a>
1000bf04:	38ce      	subs	r0, #206	; 0xce
1000bf06:	9401      	str	r4, [sp, #4]
1000bf08:	9002      	str	r0, [sp, #8]
1000bf0a:	9600      	str	r6, [sp, #0]
1000bf0c:	1c28      	adds	r0, r5, #0
1000bf0e:	4c02      	ldr	r4, [pc, #8]	; (1000bf18 <at_ble_primary_service_define+0x30>)
1000bf10:	47a0      	blx	r4
1000bf12:	b004      	add	sp, #16
1000bf14:	bd70      	pop	{r4, r5, r6, pc}
1000bf16:	46c0      	nop			; (mov r8, r8)
1000bf18:	1000bad9 	.word	0x1000bad9

1000bf1c <at_ble_characteristic_value_set>:
1000bf1c:	b570      	push	{r4, r5, r6, lr}
1000bf1e:	4b0b      	ldr	r3, [pc, #44]	; (1000bf4c <at_ble_characteristic_value_set+0x30>)
1000bf20:	1c06      	adds	r6, r0, #0
1000bf22:	1c0c      	adds	r4, r1, #0
1000bf24:	1c15      	adds	r5, r2, #0
1000bf26:	4798      	blx	r3
1000bf28:	2800      	cmp	r0, #0
1000bf2a:	d008      	beq.n	1000bf3e <at_ble_characteristic_value_set+0x22>
1000bf2c:	6880      	ldr	r0, [r0, #8]
1000bf2e:	2800      	cmp	r0, #0
1000bf30:	d005      	beq.n	1000bf3e <at_ble_characteristic_value_set+0x22>
1000bf32:	1c21      	adds	r1, r4, #0
1000bf34:	1c2a      	adds	r2, r5, #0
1000bf36:	4b06      	ldr	r3, [pc, #24]	; (1000bf50 <at_ble_characteristic_value_set+0x34>)
1000bf38:	4798      	blx	r3
1000bf3a:	2000      	movs	r0, #0
1000bf3c:	e004      	b.n	1000bf48 <at_ble_characteristic_value_set+0x2c>
1000bf3e:	1c30      	adds	r0, r6, #0
1000bf40:	1c29      	adds	r1, r5, #0
1000bf42:	1c22      	adds	r2, r4, #0
1000bf44:	4b03      	ldr	r3, [pc, #12]	; (1000bf54 <at_ble_characteristic_value_set+0x38>)
1000bf46:	4798      	blx	r3
1000bf48:	bd70      	pop	{r4, r5, r6, pc}
1000bf4a:	46c0      	nop			; (mov r8, r8)
1000bf4c:	1000b841 	.word	0x1000b841
1000bf50:	1000f017 	.word	0x1000f017
1000bf54:	1000dcd9 	.word	0x1000dcd9

1000bf58 <at_ble_characteristic_value_get>:
1000bf58:	b570      	push	{r4, r5, r6, lr}
1000bf5a:	4b0c      	ldr	r3, [pc, #48]	; (1000bf8c <at_ble_characteristic_value_get+0x34>)
1000bf5c:	1c06      	adds	r6, r0, #0
1000bf5e:	1c0c      	adds	r4, r1, #0
1000bf60:	1c15      	adds	r5, r2, #0
1000bf62:	4798      	blx	r3
1000bf64:	2800      	cmp	r0, #0
1000bf66:	d00b      	beq.n	1000bf80 <at_ble_characteristic_value_get+0x28>
1000bf68:	6883      	ldr	r3, [r0, #8]
1000bf6a:	2b00      	cmp	r3, #0
1000bf6c:	d008      	beq.n	1000bf80 <at_ble_characteristic_value_get+0x28>
1000bf6e:	8883      	ldrh	r3, [r0, #4]
1000bf70:	802b      	strh	r3, [r5, #0]
1000bf72:	8882      	ldrh	r2, [r0, #4]
1000bf74:	6881      	ldr	r1, [r0, #8]
1000bf76:	4b06      	ldr	r3, [pc, #24]	; (1000bf90 <at_ble_characteristic_value_get+0x38>)
1000bf78:	1c20      	adds	r0, r4, #0
1000bf7a:	4798      	blx	r3
1000bf7c:	2000      	movs	r0, #0
1000bf7e:	e004      	b.n	1000bf8a <at_ble_characteristic_value_get+0x32>
1000bf80:	1c30      	adds	r0, r6, #0
1000bf82:	1c29      	adds	r1, r5, #0
1000bf84:	1c22      	adds	r2, r4, #0
1000bf86:	4b03      	ldr	r3, [pc, #12]	; (1000bf94 <at_ble_characteristic_value_get+0x3c>)
1000bf88:	4798      	blx	r3
1000bf8a:	bd70      	pop	{r4, r5, r6, pc}
1000bf8c:	1000b841 	.word	0x1000b841
1000bf90:	1000f017 	.word	0x1000f017
1000bf94:	1000dd65 	.word	0x1000dd65

1000bf98 <at_ble_write_authorize_reply>:
1000bf98:	b5f0      	push	{r4, r5, r6, r7, lr}
1000bf9a:	b085      	sub	sp, #20
1000bf9c:	1c04      	adds	r4, r0, #0
1000bf9e:	9101      	str	r1, [sp, #4]
1000bfa0:	2900      	cmp	r1, #0
1000bfa2:	d128      	bne.n	1000bff6 <at_ble_write_authorize_reply+0x5e>
1000bfa4:	8843      	ldrh	r3, [r0, #2]
1000bfa6:	1c27      	adds	r7, r4, #0
1000bfa8:	9300      	str	r3, [sp, #0]
1000bfaa:	1c18      	adds	r0, r3, #0
1000bfac:	4b16      	ldr	r3, [pc, #88]	; (1000c008 <at_ble_write_authorize_reply+0x70>)
1000bfae:	4798      	blx	r3
1000bfb0:	3708      	adds	r7, #8
1000bfb2:	2800      	cmp	r0, #0
1000bfb4:	d009      	beq.n	1000bfca <at_ble_write_authorize_reply+0x32>
1000bfb6:	6880      	ldr	r0, [r0, #8]
1000bfb8:	2800      	cmp	r0, #0
1000bfba:	d006      	beq.n	1000bfca <at_ble_write_authorize_reply+0x32>
1000bfbc:	88a3      	ldrh	r3, [r4, #4]
1000bfbe:	88e2      	ldrh	r2, [r4, #6]
1000bfc0:	18c0      	adds	r0, r0, r3
1000bfc2:	1c39      	adds	r1, r7, #0
1000bfc4:	4b11      	ldr	r3, [pc, #68]	; (1000c00c <at_ble_write_authorize_reply+0x74>)
1000bfc6:	4798      	blx	r3
1000bfc8:	e015      	b.n	1000bff6 <at_ble_write_authorize_reply+0x5e>
1000bfca:	ab02      	add	r3, sp, #8
1000bfcc:	1d9e      	adds	r6, r3, #6
1000bfce:	2300      	movs	r3, #0
1000bfd0:	4d0f      	ldr	r5, [pc, #60]	; (1000c010 <at_ble_write_authorize_reply+0x78>)
1000bfd2:	8033      	strh	r3, [r6, #0]
1000bfd4:	6829      	ldr	r1, [r5, #0]
1000bfd6:	1c32      	adds	r2, r6, #0
1000bfd8:	4b0e      	ldr	r3, [pc, #56]	; (1000c014 <at_ble_write_authorize_reply+0x7c>)
1000bfda:	9800      	ldr	r0, [sp, #0]
1000bfdc:	4798      	blx	r3
1000bfde:	682b      	ldr	r3, [r5, #0]
1000bfe0:	88a0      	ldrh	r0, [r4, #4]
1000bfe2:	88e2      	ldrh	r2, [r4, #6]
1000bfe4:	1818      	adds	r0, r3, r0
1000bfe6:	1c39      	adds	r1, r7, #0
1000bfe8:	4b08      	ldr	r3, [pc, #32]	; (1000c00c <at_ble_write_authorize_reply+0x74>)
1000bfea:	4798      	blx	r3
1000bfec:	8860      	ldrh	r0, [r4, #2]
1000bfee:	8832      	ldrh	r2, [r6, #0]
1000bff0:	6829      	ldr	r1, [r5, #0]
1000bff2:	4b09      	ldr	r3, [pc, #36]	; (1000c018 <at_ble_write_authorize_reply+0x80>)
1000bff4:	4798      	blx	r3
1000bff6:	8860      	ldrh	r0, [r4, #2]
1000bff8:	8821      	ldrh	r1, [r4, #0]
1000bffa:	9a01      	ldr	r2, [sp, #4]
1000bffc:	4b07      	ldr	r3, [pc, #28]	; (1000c01c <at_ble_write_authorize_reply+0x84>)
1000bffe:	4798      	blx	r3
1000c000:	2000      	movs	r0, #0
1000c002:	b005      	add	sp, #20
1000c004:	bdf0      	pop	{r4, r5, r6, r7, pc}
1000c006:	46c0      	nop			; (mov r8, r8)
1000c008:	1000b841 	.word	0x1000b841
1000c00c:	1000f017 	.word	0x1000f017
1000c010:	1000fd84 	.word	0x1000fd84
1000c014:	1000bf59 	.word	0x1000bf59
1000c018:	1000bf1d 	.word	0x1000bf1d
1000c01c:	1000d7dd 	.word	0x1000d7dd

1000c020 <gatts_handle_read_req>:
1000c020:	b538      	push	{r3, r4, r5, lr}
1000c022:	1c0c      	adds	r4, r1, #0
1000c024:	4b07      	ldr	r3, [pc, #28]	; (1000c044 <gatts_handle_read_req+0x24>)
1000c026:	4798      	blx	r3
1000c028:	8865      	ldrh	r5, [r4, #2]
1000c02a:	4b07      	ldr	r3, [pc, #28]	; (1000c048 <gatts_handle_read_req+0x28>)
1000c02c:	1c28      	adds	r0, r5, #0
1000c02e:	4798      	blx	r3
1000c030:	7883      	ldrb	r3, [r0, #2]
1000c032:	2026      	movs	r0, #38	; 0x26
1000c034:	07db      	lsls	r3, r3, #31
1000c036:	d404      	bmi.n	1000c042 <gatts_handle_read_req+0x22>
1000c038:	8820      	ldrh	r0, [r4, #0]
1000c03a:	1c29      	adds	r1, r5, #0
1000c03c:	4b03      	ldr	r3, [pc, #12]	; (1000c04c <gatts_handle_read_req+0x2c>)
1000c03e:	4798      	blx	r3
1000c040:	203b      	movs	r0, #59	; 0x3b
1000c042:	bd38      	pop	{r3, r4, r5, pc}
1000c044:	1000d721 	.word	0x1000d721
1000c048:	1000b841 	.word	0x1000b841
1000c04c:	1000baa9 	.word	0x1000baa9

1000c050 <gatts_handle_att_info_req>:
1000c050:	b538      	push	{r3, r4, r5, lr}
1000c052:	1c0d      	adds	r5, r1, #0
1000c054:	4b0a      	ldr	r3, [pc, #40]	; (1000c080 <gatts_handle_att_info_req+0x30>)
1000c056:	1c14      	adds	r4, r2, #0
1000c058:	4798      	blx	r3
1000c05a:	882d      	ldrh	r5, [r5, #0]
1000c05c:	4b09      	ldr	r3, [pc, #36]	; (1000c084 <gatts_handle_att_info_req+0x34>)
1000c05e:	1c28      	adds	r0, r5, #0
1000c060:	4798      	blx	r3
1000c062:	0a22      	lsrs	r2, r4, #8
1000c064:	1c03      	adds	r3, r0, #0
1000c066:	4c08      	ldr	r4, [pc, #32]	; (1000c088 <gatts_handle_att_info_req+0x38>)
1000c068:	b291      	uxth	r1, r2
1000c06a:	2800      	cmp	r0, #0
1000c06c:	d003      	beq.n	1000c076 <gatts_handle_att_info_req+0x26>
1000c06e:	8882      	ldrh	r2, [r0, #4]
1000c070:	2300      	movs	r3, #0
1000c072:	1c28      	adds	r0, r5, #0
1000c074:	e001      	b.n	1000c07a <gatts_handle_att_info_req+0x2a>
1000c076:	1c28      	adds	r0, r5, #0
1000c078:	2201      	movs	r2, #1
1000c07a:	47a0      	blx	r4
1000c07c:	203b      	movs	r0, #59	; 0x3b
1000c07e:	bd38      	pop	{r3, r4, r5, pc}
1000c080:	1000d765 	.word	0x1000d765
1000c084:	1000b841 	.word	0x1000b841
1000c088:	1000d821 	.word	0x1000d821

1000c08c <gatts_handle_write_req>:
1000c08c:	b510      	push	{r4, lr}
1000c08e:	1c14      	adds	r4, r2, #0
1000c090:	4b07      	ldr	r3, [pc, #28]	; (1000c0b0 <gatts_handle_write_req+0x24>)
1000c092:	4798      	blx	r3
1000c094:	4b07      	ldr	r3, [pc, #28]	; (1000c0b4 <gatts_handle_write_req+0x28>)
1000c096:	8860      	ldrh	r0, [r4, #2]
1000c098:	4798      	blx	r3
1000c09a:	2302      	movs	r3, #2
1000c09c:	7881      	ldrb	r1, [r0, #2]
1000c09e:	2022      	movs	r0, #34	; 0x22
1000c0a0:	4019      	ands	r1, r3
1000c0a2:	d103      	bne.n	1000c0ac <gatts_handle_write_req+0x20>
1000c0a4:	1c20      	adds	r0, r4, #0
1000c0a6:	4b04      	ldr	r3, [pc, #16]	; (1000c0b8 <gatts_handle_write_req+0x2c>)
1000c0a8:	4798      	blx	r3
1000c0aa:	201f      	movs	r0, #31
1000c0ac:	bd10      	pop	{r4, pc}
1000c0ae:	46c0      	nop			; (mov r8, r8)
1000c0b0:	1000d72d 	.word	0x1000d72d
1000c0b4:	1000b841 	.word	0x1000b841
1000c0b8:	1000bf99 	.word	0x1000bf99

1000c0bc <at_ble_notification_send>:
1000c0bc:	b5f0      	push	{r4, r5, r6, r7, lr}
1000c0be:	4d17      	ldr	r5, [pc, #92]	; (1000c11c <at_ble_notification_send+0x60>)
1000c0c0:	4c17      	ldr	r4, [pc, #92]	; (1000c120 <at_ble_notification_send+0x64>)
1000c0c2:	682a      	ldr	r2, [r5, #0]
1000c0c4:	44a5      	add	sp, r4
1000c0c6:	23d2      	movs	r3, #210	; 0xd2
1000c0c8:	2a04      	cmp	r2, #4
1000c0ca:	d822      	bhi.n	1000c112 <at_ble_notification_send+0x56>
1000c0cc:	1c06      	adds	r6, r0, #0
1000c0ce:	4b15      	ldr	r3, [pc, #84]	; (1000c124 <at_ble_notification_send+0x68>)
1000c0d0:	1c08      	adds	r0, r1, #0
1000c0d2:	1c0c      	adds	r4, r1, #0
1000c0d4:	4798      	blx	r3
1000c0d6:	2800      	cmp	r0, #0
1000c0d8:	d008      	beq.n	1000c0ec <at_ble_notification_send+0x30>
1000c0da:	6883      	ldr	r3, [r0, #8]
1000c0dc:	2b00      	cmp	r3, #0
1000c0de:	d005      	beq.n	1000c0ec <at_ble_notification_send+0x30>
1000c0e0:	8882      	ldrh	r2, [r0, #4]
1000c0e2:	1c21      	adds	r1, r4, #0
1000c0e4:	9200      	str	r2, [sp, #0]
1000c0e6:	2012      	movs	r0, #18
1000c0e8:	1c32      	adds	r2, r6, #0
1000c0ea:	e00c      	b.n	1000c106 <at_ble_notification_send+0x4a>
1000c0ec:	270e      	movs	r7, #14
1000c0ee:	446f      	add	r7, sp
1000c0f0:	1c39      	adds	r1, r7, #0
1000c0f2:	aa04      	add	r2, sp, #16
1000c0f4:	4b0c      	ldr	r3, [pc, #48]	; (1000c128 <at_ble_notification_send+0x6c>)
1000c0f6:	1c20      	adds	r0, r4, #0
1000c0f8:	4798      	blx	r3
1000c0fa:	2012      	movs	r0, #18
1000c0fc:	1c21      	adds	r1, r4, #0
1000c0fe:	1c32      	adds	r2, r6, #0
1000c100:	883b      	ldrh	r3, [r7, #0]
1000c102:	9300      	str	r3, [sp, #0]
1000c104:	ab04      	add	r3, sp, #16
1000c106:	4c09      	ldr	r4, [pc, #36]	; (1000c12c <at_ble_notification_send+0x70>)
1000c108:	47a0      	blx	r4
1000c10a:	682b      	ldr	r3, [r5, #0]
1000c10c:	3301      	adds	r3, #1
1000c10e:	602b      	str	r3, [r5, #0]
1000c110:	2300      	movs	r3, #0
1000c112:	1c18      	adds	r0, r3, #0
1000c114:	2385      	movs	r3, #133	; 0x85
1000c116:	009b      	lsls	r3, r3, #2
1000c118:	449d      	add	sp, r3
1000c11a:	bdf0      	pop	{r4, r5, r6, r7, pc}
1000c11c:	10010524 	.word	0x10010524
1000c120:	fffffdec 	.word	0xfffffdec
1000c124:	1000b841 	.word	0x1000b841
1000c128:	1000dd65 	.word	0x1000dd65
1000c12c:	1000d869 	.word	0x1000d869

1000c130 <init_l2cc_task_module>:
1000c130:	220a      	movs	r2, #10
1000c132:	4b01      	ldr	r3, [pc, #4]	; (1000c138 <init_l2cc_task_module+0x8>)
1000c134:	701a      	strb	r2, [r3, #0]
1000c136:	4770      	bx	lr
1000c138:	1000fd81 	.word	0x1000fd81

1000c13c <l2cc_data_send_rsp_handler>:
1000c13c:	b510      	push	{r4, lr}
1000c13e:	7802      	ldrb	r2, [r0, #0]
1000c140:	700a      	strb	r2, [r1, #0]
1000c142:	7883      	ldrb	r3, [r0, #2]
1000c144:	7844      	ldrb	r4, [r0, #1]
1000c146:	021b      	lsls	r3, r3, #8
1000c148:	4323      	orrs	r3, r4
1000c14a:	804b      	strh	r3, [r1, #2]
1000c14c:	7903      	ldrb	r3, [r0, #4]
1000c14e:	78c0      	ldrb	r0, [r0, #3]
1000c150:	021b      	lsls	r3, r3, #8
1000c152:	4303      	orrs	r3, r0
1000c154:	808b      	strh	r3, [r1, #4]
1000c156:	2a00      	cmp	r2, #0
1000c158:	d103      	bne.n	1000c162 <l2cc_data_send_rsp_handler+0x26>
1000c15a:	4a02      	ldr	r2, [pc, #8]	; (1000c164 <l2cc_data_send_rsp_handler+0x28>)
1000c15c:	7813      	ldrb	r3, [r2, #0]
1000c15e:	3301      	adds	r3, #1
1000c160:	7013      	strb	r3, [r2, #0]
1000c162:	bd10      	pop	{r4, pc}
1000c164:	1000fd81 	.word	0x1000fd81

1000c168 <l2cc_data_received_handler>:
1000c168:	b508      	push	{r3, lr}
1000c16a:	1c03      	adds	r3, r0, #0
1000c16c:	7842      	ldrb	r2, [r0, #1]
1000c16e:	7800      	ldrb	r0, [r0, #0]
1000c170:	0212      	lsls	r2, r2, #8
1000c172:	4302      	orrs	r2, r0
1000c174:	800a      	strh	r2, [r1, #0]
1000c176:	78da      	ldrb	r2, [r3, #3]
1000c178:	7898      	ldrb	r0, [r3, #2]
1000c17a:	0212      	lsls	r2, r2, #8
1000c17c:	4302      	orrs	r2, r0
1000c17e:	804a      	strh	r2, [r1, #2]
1000c180:	795a      	ldrb	r2, [r3, #5]
1000c182:	7918      	ldrb	r0, [r3, #4]
1000c184:	0212      	lsls	r2, r2, #8
1000c186:	4302      	orrs	r2, r0
1000c188:	808a      	strh	r2, [r1, #4]
1000c18a:	1d88      	adds	r0, r1, #6
1000c18c:	1d99      	adds	r1, r3, #6
1000c18e:	4b01      	ldr	r3, [pc, #4]	; (1000c194 <l2cc_data_received_handler+0x2c>)
1000c190:	4798      	blx	r3
1000c192:	bd08      	pop	{r3, pc}
1000c194:	1000f017 	.word	0x1000f017

1000c198 <at_ble_authenticate>:
1000c198:	b5f0      	push	{r4, r5, r6, r7, lr}
1000c19a:	1c0c      	adds	r4, r1, #0
1000c19c:	211f      	movs	r1, #31
1000c19e:	b08b      	sub	sp, #44	; 0x2c
1000c1a0:	9307      	str	r3, [sp, #28]
1000c1a2:	ab02      	add	r3, sp, #8
1000c1a4:	18c9      	adds	r1, r1, r3
1000c1a6:	230f      	movs	r3, #15
1000c1a8:	700b      	strb	r3, [r1, #0]
1000c1aa:	4b40      	ldr	r3, [pc, #256]	; (1000c2ac <at_ble_authenticate+0x114>)
1000c1ac:	1c05      	adds	r5, r0, #0
1000c1ae:	1c16      	adds	r6, r2, #0
1000c1b0:	4798      	blx	r3
1000c1b2:	1c07      	adds	r7, r0, #0
1000c1b4:	2001      	movs	r0, #1
1000c1b6:	2f07      	cmp	r7, #7
1000c1b8:	d875      	bhi.n	1000c2a6 <at_ble_authenticate+0x10e>
1000c1ba:	2c00      	cmp	r4, #0
1000c1bc:	d113      	bne.n	1000c1e6 <at_ble_authenticate+0x4e>
1000c1be:	2312      	movs	r3, #18
1000c1c0:	435f      	muls	r7, r3
1000c1c2:	4b3b      	ldr	r3, [pc, #236]	; (1000c2b0 <at_ble_authenticate+0x118>)
1000c1c4:	5cfb      	ldrb	r3, [r7, r3]
1000c1c6:	4283      	cmp	r3, r0
1000c1c8:	d001      	beq.n	1000c1ce <at_ble_authenticate+0x36>
1000c1ca:	20cf      	movs	r0, #207	; 0xcf
1000c1cc:	e06b      	b.n	1000c2a6 <at_ble_authenticate+0x10e>
1000c1ce:	9504      	str	r5, [sp, #16]
1000c1d0:	9400      	str	r4, [sp, #0]
1000c1d2:	9401      	str	r4, [sp, #4]
1000c1d4:	9402      	str	r4, [sp, #8]
1000c1d6:	9403      	str	r4, [sp, #12]
1000c1d8:	1c20      	adds	r0, r4, #0
1000c1da:	1c21      	adds	r1, r4, #0
1000c1dc:	1c22      	adds	r2, r4, #0
1000c1de:	1c23      	adds	r3, r4, #0
1000c1e0:	4d34      	ldr	r5, [pc, #208]	; (1000c2b4 <at_ble_authenticate+0x11c>)
1000c1e2:	47a8      	blx	r5
1000c1e4:	e05e      	b.n	1000c2a4 <at_ble_authenticate+0x10c>
1000c1e6:	7922      	ldrb	r2, [r4, #4]
1000c1e8:	2a06      	cmp	r2, #6
1000c1ea:	d9ee      	bls.n	1000c1ca <at_ble_authenticate+0x32>
1000c1ec:	7963      	ldrb	r3, [r4, #5]
1000c1ee:	2b10      	cmp	r3, #16
1000c1f0:	d8eb      	bhi.n	1000c1ca <at_ble_authenticate+0x32>
1000c1f2:	429a      	cmp	r2, r3
1000c1f4:	d8e9      	bhi.n	1000c1ca <at_ble_authenticate+0x32>
1000c1f6:	7a23      	ldrb	r3, [r4, #8]
1000c1f8:	2b04      	cmp	r3, #4
1000c1fa:	d8e6      	bhi.n	1000c1ca <at_ble_authenticate+0x32>
1000c1fc:	79a3      	ldrb	r3, [r4, #6]
1000c1fe:	2b07      	cmp	r3, #7
1000c200:	d8e3      	bhi.n	1000c1ca <at_ble_authenticate+0x32>
1000c202:	79e3      	ldrb	r3, [r4, #7]
1000c204:	2b07      	cmp	r3, #7
1000c206:	d8e0      	bhi.n	1000c1ca <at_ble_authenticate+0x32>
1000c208:	78a3      	ldrb	r3, [r4, #2]
1000c20a:	2b00      	cmp	r3, #0
1000c20c:	d006      	beq.n	1000c21c <at_ble_authenticate+0x84>
1000c20e:	2e00      	cmp	r6, #0
1000c210:	d0db      	beq.n	1000c1ca <at_ble_authenticate+0x32>
1000c212:	4829      	ldr	r0, [pc, #164]	; (1000c2b8 <at_ble_authenticate+0x120>)
1000c214:	1c31      	adds	r1, r6, #0
1000c216:	221c      	movs	r2, #28
1000c218:	4b28      	ldr	r3, [pc, #160]	; (1000c2bc <at_ble_authenticate+0x124>)
1000c21a:	4798      	blx	r3
1000c21c:	9b07      	ldr	r3, [sp, #28]
1000c21e:	2b00      	cmp	r3, #0
1000c220:	d005      	beq.n	1000c22e <at_ble_authenticate+0x96>
1000c222:	4827      	ldr	r0, [pc, #156]	; (1000c2c0 <at_ble_authenticate+0x128>)
1000c224:	1c19      	adds	r1, r3, #0
1000c226:	309a      	adds	r0, #154	; 0x9a
1000c228:	2210      	movs	r2, #16
1000c22a:	4b24      	ldr	r3, [pc, #144]	; (1000c2bc <at_ble_authenticate+0x124>)
1000c22c:	4798      	blx	r3
1000c22e:	7863      	ldrb	r3, [r4, #1]
1000c230:	78a2      	ldrb	r2, [r4, #2]
1000c232:	009b      	lsls	r3, r3, #2
1000c234:	4313      	orrs	r3, r2
1000c236:	2212      	movs	r2, #18
1000c238:	4357      	muls	r7, r2
1000c23a:	4a1d      	ldr	r2, [pc, #116]	; (1000c2b0 <at_ble_authenticate+0x118>)
1000c23c:	b2db      	uxtb	r3, r3
1000c23e:	5cba      	ldrb	r2, [r7, r2]
1000c240:	2a00      	cmp	r2, #0
1000c242:	d116      	bne.n	1000c272 <at_ble_authenticate+0xda>
1000c244:	79a0      	ldrb	r0, [r4, #6]
1000c246:	0742      	lsls	r2, r0, #29
1000c248:	d502      	bpl.n	1000c250 <at_ble_authenticate+0xb8>
1000c24a:	9a07      	ldr	r2, [sp, #28]
1000c24c:	2a00      	cmp	r2, #0
1000c24e:	d0bc      	beq.n	1000c1ca <at_ble_authenticate+0x32>
1000c250:	07c2      	lsls	r2, r0, #31
1000c252:	d501      	bpl.n	1000c258 <at_ble_authenticate+0xc0>
1000c254:	2e00      	cmp	r6, #0
1000c256:	d0b8      	beq.n	1000c1ca <at_ble_authenticate+0x32>
1000c258:	7966      	ldrb	r6, [r4, #5]
1000c25a:	7821      	ldrb	r1, [r4, #0]
1000c25c:	78e2      	ldrb	r2, [r4, #3]
1000c25e:	9600      	str	r6, [sp, #0]
1000c260:	9001      	str	r0, [sp, #4]
1000c262:	79e0      	ldrb	r0, [r4, #7]
1000c264:	9002      	str	r0, [sp, #8]
1000c266:	7a20      	ldrb	r0, [r4, #8]
1000c268:	4c16      	ldr	r4, [pc, #88]	; (1000c2c4 <at_ble_authenticate+0x12c>)
1000c26a:	9003      	str	r0, [sp, #12]
1000c26c:	1c28      	adds	r0, r5, #0
1000c26e:	47a0      	blx	r4
1000c270:	e018      	b.n	1000c2a4 <at_ble_authenticate+0x10c>
1000c272:	2a01      	cmp	r2, #1
1000c274:	d1a9      	bne.n	1000c1ca <at_ble_authenticate+0x32>
1000c276:	79e0      	ldrb	r0, [r4, #7]
1000c278:	0742      	lsls	r2, r0, #29
1000c27a:	d502      	bpl.n	1000c282 <at_ble_authenticate+0xea>
1000c27c:	9a07      	ldr	r2, [sp, #28]
1000c27e:	2a00      	cmp	r2, #0
1000c280:	d0a3      	beq.n	1000c1ca <at_ble_authenticate+0x32>
1000c282:	07c2      	lsls	r2, r0, #31
1000c284:	d501      	bpl.n	1000c28a <at_ble_authenticate+0xf2>
1000c286:	2e00      	cmp	r6, #0
1000c288:	d09f      	beq.n	1000c1ca <at_ble_authenticate+0x32>
1000c28a:	7966      	ldrb	r6, [r4, #5]
1000c28c:	7821      	ldrb	r1, [r4, #0]
1000c28e:	78e2      	ldrb	r2, [r4, #3]
1000c290:	9600      	str	r6, [sp, #0]
1000c292:	79a6      	ldrb	r6, [r4, #6]
1000c294:	9002      	str	r0, [sp, #8]
1000c296:	9601      	str	r6, [sp, #4]
1000c298:	7a20      	ldrb	r0, [r4, #8]
1000c29a:	9504      	str	r5, [sp, #16]
1000c29c:	9003      	str	r0, [sp, #12]
1000c29e:	4c05      	ldr	r4, [pc, #20]	; (1000c2b4 <at_ble_authenticate+0x11c>)
1000c2a0:	2001      	movs	r0, #1
1000c2a2:	47a0      	blx	r4
1000c2a4:	2000      	movs	r0, #0
1000c2a6:	b00b      	add	sp, #44	; 0x2c
1000c2a8:	bdf0      	pop	{r4, r5, r6, r7, pc}
1000c2aa:	46c0      	nop			; (mov r8, r8)
1000c2ac:	1000c681 	.word	0x1000c681
1000c2b0:	100111ea 	.word	0x100111ea
1000c2b4:	1000cbf1 	.word	0x1000cbf1
1000c2b8:	100112f8 	.word	0x100112f8
1000c2bc:	1000f017 	.word	0x1000f017
1000c2c0:	1001127a 	.word	0x1001127a
1000c2c4:	1000c9d1 	.word	0x1000c9d1

1000c2c8 <at_ble_pair_key_reply>:
1000c2c8:	b5f0      	push	{r4, r5, r6, r7, lr}
1000c2ca:	b085      	sub	sp, #20
1000c2cc:	1c05      	adds	r5, r0, #0
1000c2ce:	1c0c      	adds	r4, r1, #0
1000c2d0:	1c16      	adds	r6, r2, #0
1000c2d2:	2100      	movs	r1, #0
1000c2d4:	4668      	mov	r0, sp
1000c2d6:	2210      	movs	r2, #16
1000c2d8:	4b18      	ldr	r3, [pc, #96]	; (1000c33c <at_ble_pair_key_reply+0x74>)
1000c2da:	4798      	blx	r3
1000c2dc:	2101      	movs	r1, #1
1000c2de:	2e00      	cmp	r6, #0
1000c2e0:	d101      	bne.n	1000c2e6 <at_ble_pair_key_reply+0x1e>
1000c2e2:	1c31      	adds	r1, r6, #0
1000c2e4:	466e      	mov	r6, sp
1000c2e6:	2c00      	cmp	r4, #0
1000c2e8:	d116      	bne.n	1000c318 <at_ble_pair_key_reply+0x50>
1000c2ea:	2701      	movs	r7, #1
1000c2ec:	1c23      	adds	r3, r4, #0
1000c2ee:	1d70      	adds	r0, r6, #5
1000c2f0:	3e01      	subs	r6, #1
1000c2f2:	7802      	ldrb	r2, [r0, #0]
1000c2f4:	3801      	subs	r0, #1
1000c2f6:	3a30      	subs	r2, #48	; 0x30
1000c2f8:	437a      	muls	r2, r7
1000c2fa:	189b      	adds	r3, r3, r2
1000c2fc:	220a      	movs	r2, #10
1000c2fe:	4357      	muls	r7, r2
1000c300:	42b0      	cmp	r0, r6
1000c302:	d1f6      	bne.n	1000c2f2 <at_ble_pair_key_reply+0x2a>
1000c304:	466a      	mov	r2, sp
1000c306:	4668      	mov	r0, sp
1000c308:	7013      	strb	r3, [r2, #0]
1000c30a:	0a1a      	lsrs	r2, r3, #8
1000c30c:	7042      	strb	r2, [r0, #1]
1000c30e:	0c1a      	lsrs	r2, r3, #16
1000c310:	0e1b      	lsrs	r3, r3, #24
1000c312:	7082      	strb	r2, [r0, #2]
1000c314:	70c3      	strb	r3, [r0, #3]
1000c316:	e009      	b.n	1000c32c <at_ble_pair_key_reply+0x64>
1000c318:	20cf      	movs	r0, #207	; 0xcf
1000c31a:	2c01      	cmp	r4, #1
1000c31c:	d10c      	bne.n	1000c338 <at_ble_pair_key_reply+0x70>
1000c31e:	2300      	movs	r3, #0
1000c320:	4668      	mov	r0, sp
1000c322:	5cf2      	ldrb	r2, [r6, r3]
1000c324:	54c2      	strb	r2, [r0, r3]
1000c326:	3301      	adds	r3, #1
1000c328:	2b10      	cmp	r3, #16
1000c32a:	d1f9      	bne.n	1000c320 <at_ble_pair_key_reply+0x58>
1000c32c:	2004      	movs	r0, #4
1000c32e:	466a      	mov	r2, sp
1000c330:	1c2b      	adds	r3, r5, #0
1000c332:	4c03      	ldr	r4, [pc, #12]	; (1000c340 <at_ble_pair_key_reply+0x78>)
1000c334:	47a0      	blx	r4
1000c336:	2000      	movs	r0, #0
1000c338:	b005      	add	sp, #20
1000c33a:	bdf0      	pop	{r4, r5, r6, r7, pc}
1000c33c:	1000f029 	.word	0x1000f029
1000c340:	1000cc6d 	.word	0x1000cc6d

1000c344 <at_ble_send_slave_sec_request>:
1000c344:	b570      	push	{r4, r5, r6, lr}
1000c346:	4b0c      	ldr	r3, [pc, #48]	; (1000c378 <at_ble_send_slave_sec_request+0x34>)
1000c348:	1c0e      	adds	r6, r1, #0
1000c34a:	2100      	movs	r1, #0
1000c34c:	1c05      	adds	r5, r0, #0
1000c34e:	1c14      	adds	r4, r2, #0
1000c350:	4798      	blx	r3
1000c352:	2301      	movs	r3, #1
1000c354:	2807      	cmp	r0, #7
1000c356:	d80d      	bhi.n	1000c374 <at_ble_send_slave_sec_request+0x30>
1000c358:	3311      	adds	r3, #17
1000c35a:	4358      	muls	r0, r3
1000c35c:	4b07      	ldr	r3, [pc, #28]	; (1000c37c <at_ble_send_slave_sec_request+0x38>)
1000c35e:	5cc2      	ldrb	r2, [r0, r3]
1000c360:	23e0      	movs	r3, #224	; 0xe0
1000c362:	2a01      	cmp	r2, #1
1000c364:	d106      	bne.n	1000c374 <at_ble_send_slave_sec_request+0x30>
1000c366:	00b1      	lsls	r1, r6, #2
1000c368:	430c      	orrs	r4, r1
1000c36a:	4b05      	ldr	r3, [pc, #20]	; (1000c380 <at_ble_send_slave_sec_request+0x3c>)
1000c36c:	b2e1      	uxtb	r1, r4
1000c36e:	1c28      	adds	r0, r5, #0
1000c370:	4798      	blx	r3
1000c372:	2300      	movs	r3, #0
1000c374:	1c18      	adds	r0, r3, #0
1000c376:	bd70      	pop	{r4, r5, r6, pc}
1000c378:	1000c681 	.word	0x1000c681
1000c37c:	100111ea 	.word	0x100111ea
1000c380:	1000ccbd 	.word	0x1000ccbd

1000c384 <at_ble_encryption_start>:
1000c384:	b5f7      	push	{r0, r1, r2, r4, r5, r6, r7, lr}
1000c386:	23cf      	movs	r3, #207	; 0xcf
1000c388:	2900      	cmp	r1, #0
1000c38a:	d02b      	beq.n	1000c3e4 <at_ble_encryption_start+0x60>
1000c38c:	2a05      	cmp	r2, #5
1000c38e:	d829      	bhi.n	1000c3e4 <at_ble_encryption_start+0x60>
1000c390:	2701      	movs	r7, #1
1000c392:	1c3d      	adds	r5, r7, #0
1000c394:	2433      	movs	r4, #51	; 0x33
1000c396:	4095      	lsls	r5, r2
1000c398:	4225      	tst	r5, r4
1000c39a:	d023      	beq.n	1000c3e4 <at_ble_encryption_start+0x60>
1000c39c:	7e8c      	ldrb	r4, [r1, #26]
1000c39e:	3c07      	subs	r4, #7
1000c3a0:	2c09      	cmp	r4, #9
1000c3a2:	d81f      	bhi.n	1000c3e4 <at_ble_encryption_start+0x60>
1000c3a4:	4b10      	ldr	r3, [pc, #64]	; (1000c3e8 <at_ble_encryption_start+0x64>)
1000c3a6:	1c0c      	adds	r4, r1, #0
1000c3a8:	2100      	movs	r1, #0
1000c3aa:	1c15      	adds	r5, r2, #0
1000c3ac:	1c06      	adds	r6, r0, #0
1000c3ae:	4798      	blx	r3
1000c3b0:	1c3b      	adds	r3, r7, #0
1000c3b2:	2807      	cmp	r0, #7
1000c3b4:	d816      	bhi.n	1000c3e4 <at_ble_encryption_start+0x60>
1000c3b6:	2312      	movs	r3, #18
1000c3b8:	4358      	muls	r0, r3
1000c3ba:	4b0c      	ldr	r3, [pc, #48]	; (1000c3ec <at_ble_encryption_start+0x68>)
1000c3bc:	5cc7      	ldrb	r7, [r0, r3]
1000c3be:	23e0      	movs	r3, #224	; 0xe0
1000c3c0:	2f00      	cmp	r7, #0
1000c3c2:	d10f      	bne.n	1000c3e4 <at_ble_encryption_start+0x60>
1000c3c4:	1c21      	adds	r1, r4, #0
1000c3c6:	221c      	movs	r2, #28
1000c3c8:	4b09      	ldr	r3, [pc, #36]	; (1000c3f0 <at_ble_encryption_start+0x6c>)
1000c3ca:	480a      	ldr	r0, [pc, #40]	; (1000c3f4 <at_ble_encryption_start+0x70>)
1000c3cc:	4798      	blx	r3
1000c3ce:	1c23      	adds	r3, r4, #0
1000c3d0:	7ea1      	ldrb	r1, [r4, #26]
1000c3d2:	8a22      	ldrh	r2, [r4, #16]
1000c3d4:	3312      	adds	r3, #18
1000c3d6:	9100      	str	r1, [sp, #0]
1000c3d8:	9501      	str	r5, [sp, #4]
1000c3da:	1c21      	adds	r1, r4, #0
1000c3dc:	1c30      	adds	r0, r6, #0
1000c3de:	4c06      	ldr	r4, [pc, #24]	; (1000c3f8 <at_ble_encryption_start+0x74>)
1000c3e0:	47a0      	blx	r4
1000c3e2:	1c3b      	adds	r3, r7, #0
1000c3e4:	1c18      	adds	r0, r3, #0
1000c3e6:	bdfe      	pop	{r1, r2, r3, r4, r5, r6, r7, pc}
1000c3e8:	1000c681 	.word	0x1000c681
1000c3ec:	100111ea 	.word	0x100111ea
1000c3f0:	1000f017 	.word	0x1000f017
1000c3f4:	100112f8 	.word	0x100112f8
1000c3f8:	1000ccfd 	.word	0x1000ccfd

1000c3fc <at_ble_encryption_request_reply>:
1000c3fc:	b573      	push	{r0, r1, r4, r5, r6, lr}
1000c3fe:	24cf      	movs	r4, #207	; 0xcf
1000c400:	2b00      	cmp	r3, #0
1000c402:	d011      	beq.n	1000c428 <at_ble_encryption_request_reply+0x2c>
1000c404:	2a00      	cmp	r2, #0
1000c406:	d00a      	beq.n	1000c41e <at_ble_encryption_request_reply+0x22>
1000c408:	2905      	cmp	r1, #5
1000c40a:	d80d      	bhi.n	1000c428 <at_ble_encryption_request_reply+0x2c>
1000c40c:	2501      	movs	r5, #1
1000c40e:	2633      	movs	r6, #51	; 0x33
1000c410:	408d      	lsls	r5, r1
1000c412:	4235      	tst	r5, r6
1000c414:	d008      	beq.n	1000c428 <at_ble_encryption_request_reply+0x2c>
1000c416:	7e9d      	ldrb	r5, [r3, #26]
1000c418:	3d07      	subs	r5, #7
1000c41a:	2d09      	cmp	r5, #9
1000c41c:	d804      	bhi.n	1000c428 <at_ble_encryption_request_reply+0x2c>
1000c41e:	7e9c      	ldrb	r4, [r3, #26]
1000c420:	9400      	str	r4, [sp, #0]
1000c422:	4c02      	ldr	r4, [pc, #8]	; (1000c42c <at_ble_encryption_request_reply+0x30>)
1000c424:	47a0      	blx	r4
1000c426:	2400      	movs	r4, #0
1000c428:	1c20      	adds	r0, r4, #0
1000c42a:	bd76      	pop	{r1, r2, r4, r5, r6, pc}
1000c42c:	1000cdb9 	.word	0x1000cdb9

1000c430 <rx_callback>:
1000c430:	b5f7      	push	{r0, r1, r2, r4, r5, r6, r7, lr}
1000c432:	88c5      	ldrh	r5, [r0, #6]
1000c434:	8807      	ldrh	r7, [r0, #0]
1000c436:	8886      	ldrh	r6, [r0, #4]
1000c438:	2d00      	cmp	r5, #0
1000c43a:	d10c      	bne.n	1000c456 <rx_callback+0x26>
1000c43c:	4b19      	ldr	r3, [pc, #100]	; (1000c4a4 <rx_callback+0x74>)
1000c43e:	1c38      	adds	r0, r7, #0
1000c440:	1c31      	adds	r1, r6, #0
1000c442:	1c2a      	adds	r2, r5, #0
1000c444:	4798      	blx	r3
1000c446:	1e03      	subs	r3, r0, #0
1000c448:	d12a      	bne.n	1000c4a0 <rx_callback+0x70>
1000c44a:	1c38      	adds	r0, r7, #0
1000c44c:	1c31      	adds	r1, r6, #0
1000c44e:	1c1a      	adds	r2, r3, #0
1000c450:	4c15      	ldr	r4, [pc, #84]	; (1000c4a8 <rx_callback+0x78>)
1000c452:	47a0      	blx	r4
1000c454:	e024      	b.n	1000c4a0 <rx_callback+0x70>
1000c456:	2296      	movs	r2, #150	; 0x96
1000c458:	4c14      	ldr	r4, [pc, #80]	; (1000c4ac <rx_callback+0x7c>)
1000c45a:	0092      	lsls	r2, r2, #2
1000c45c:	8823      	ldrh	r3, [r4, #0]
1000c45e:	195b      	adds	r3, r3, r5
1000c460:	4293      	cmp	r3, r2
1000c462:	dd01      	ble.n	1000c468 <rx_callback+0x38>
1000c464:	2300      	movs	r3, #0
1000c466:	8023      	strh	r3, [r4, #0]
1000c468:	1c01      	adds	r1, r0, #0
1000c46a:	4a11      	ldr	r2, [pc, #68]	; (1000c4b0 <rx_callback+0x80>)
1000c46c:	8823      	ldrh	r3, [r4, #0]
1000c46e:	3108      	adds	r1, #8
1000c470:	189b      	adds	r3, r3, r2
1000c472:	9301      	str	r3, [sp, #4]
1000c474:	1c18      	adds	r0, r3, #0
1000c476:	1c2a      	adds	r2, r5, #0
1000c478:	4b0e      	ldr	r3, [pc, #56]	; (1000c4b4 <rx_callback+0x84>)
1000c47a:	4798      	blx	r3
1000c47c:	1c38      	adds	r0, r7, #0
1000c47e:	1c31      	adds	r1, r6, #0
1000c480:	9a01      	ldr	r2, [sp, #4]
1000c482:	4b08      	ldr	r3, [pc, #32]	; (1000c4a4 <rx_callback+0x74>)
1000c484:	4798      	blx	r3
1000c486:	2800      	cmp	r0, #0
1000c488:	d10a      	bne.n	1000c4a0 <rx_callback+0x70>
1000c48a:	4b09      	ldr	r3, [pc, #36]	; (1000c4b0 <rx_callback+0x80>)
1000c48c:	8822      	ldrh	r2, [r4, #0]
1000c48e:	1c31      	adds	r1, r6, #0
1000c490:	18d2      	adds	r2, r2, r3
1000c492:	1c38      	adds	r0, r7, #0
1000c494:	1c2b      	adds	r3, r5, #0
1000c496:	4e04      	ldr	r6, [pc, #16]	; (1000c4a8 <rx_callback+0x78>)
1000c498:	47b0      	blx	r6
1000c49a:	8823      	ldrh	r3, [r4, #0]
1000c49c:	18ed      	adds	r5, r5, r3
1000c49e:	8025      	strh	r5, [r4, #0]
1000c4a0:	bdf7      	pop	{r0, r1, r2, r4, r5, r6, r7, pc}
1000c4a2:	46c0      	nop			; (mov r8, r8)
1000c4a4:	1000abb5 	.word	0x1000abb5
1000c4a8:	1000ab49 	.word	0x1000ab49
1000c4ac:	10011354 	.word	0x10011354
1000c4b0:	10011758 	.word	0x10011758
1000c4b4:	1000f017 	.word	0x1000f017

1000c4b8 <interface_send>:
1000c4b8:	b508      	push	{r3, lr}
1000c4ba:	4b02      	ldr	r3, [pc, #8]	; (1000c4c4 <interface_send+0xc>)
1000c4bc:	4798      	blx	r3
1000c4be:	2000      	movs	r0, #0
1000c4c0:	bd08      	pop	{r3, pc}
1000c4c2:	46c0      	nop			; (mov r8, r8)
1000c4c4:	1000a3d1 	.word	0x1000a3d1

1000c4c8 <interface_init>:
1000c4c8:	2280      	movs	r2, #128	; 0x80
1000c4ca:	b510      	push	{r4, lr}
1000c4cc:	2100      	movs	r1, #0
1000c4ce:	4c08      	ldr	r4, [pc, #32]	; (1000c4f0 <interface_init+0x28>)
1000c4d0:	0092      	lsls	r2, r2, #2
1000c4d2:	4808      	ldr	r0, [pc, #32]	; (1000c4f4 <interface_init+0x2c>)
1000c4d4:	47a0      	blx	r4
1000c4d6:	2296      	movs	r2, #150	; 0x96
1000c4d8:	2100      	movs	r1, #0
1000c4da:	0092      	lsls	r2, r2, #2
1000c4dc:	4806      	ldr	r0, [pc, #24]	; (1000c4f8 <interface_init+0x30>)
1000c4de:	47a0      	blx	r4
1000c4e0:	2200      	movs	r2, #0
1000c4e2:	4b06      	ldr	r3, [pc, #24]	; (1000c4fc <interface_init+0x34>)
1000c4e4:	801a      	strh	r2, [r3, #0]
1000c4e6:	4a06      	ldr	r2, [pc, #24]	; (1000c500 <interface_init+0x38>)
1000c4e8:	4b06      	ldr	r3, [pc, #24]	; (1000c504 <interface_init+0x3c>)
1000c4ea:	601a      	str	r2, [r3, #0]
1000c4ec:	bd10      	pop	{r4, pc}
1000c4ee:	46c0      	nop			; (mov r8, r8)
1000c4f0:	1000f029 	.word	0x1000f029
1000c4f4:	10011558 	.word	0x10011558
1000c4f8:	10011758 	.word	0x10011758
1000c4fc:	10011354 	.word	0x10011354
1000c500:	10011358 	.word	0x10011358
1000c504:	1000fd84 	.word	0x1000fd84

1000c508 <platform_cmd_cmpl_signal>:
1000c508:	2201      	movs	r2, #1
1000c50a:	4b01      	ldr	r3, [pc, #4]	; (1000c510 <platform_cmd_cmpl_signal+0x8>)
1000c50c:	601a      	str	r2, [r3, #0]
1000c50e:	4770      	bx	lr
1000c510:	100104a4 	.word	0x100104a4

1000c514 <platform_cmd_cmpl_wait>:
1000c514:	b510      	push	{r4, lr}
1000c516:	1c04      	adds	r4, r0, #0
1000c518:	4b07      	ldr	r3, [pc, #28]	; (1000c538 <platform_cmd_cmpl_wait+0x24>)
1000c51a:	681a      	ldr	r2, [r3, #0]
1000c51c:	2a01      	cmp	r2, #1
1000c51e:	d003      	beq.n	1000c528 <platform_cmd_cmpl_wait+0x14>
1000c520:	4b06      	ldr	r3, [pc, #24]	; (1000c53c <platform_cmd_cmpl_wait+0x28>)
1000c522:	2000      	movs	r0, #0
1000c524:	4798      	blx	r3
1000c526:	e7f7      	b.n	1000c518 <platform_cmd_cmpl_wait+0x4>
1000c528:	6819      	ldr	r1, [r3, #0]
1000c52a:	2901      	cmp	r1, #1
1000c52c:	d102      	bne.n	1000c534 <platform_cmd_cmpl_wait+0x20>
1000c52e:	2200      	movs	r2, #0
1000c530:	601a      	str	r2, [r3, #0]
1000c532:	e000      	b.n	1000c536 <platform_cmd_cmpl_wait+0x22>
1000c534:	7022      	strb	r2, [r4, #0]
1000c536:	bd10      	pop	{r4, pc}
1000c538:	100104a4 	.word	0x100104a4
1000c53c:	1000a471 	.word	0x1000a471

1000c540 <start_timer>:
1000c540:	4770      	bx	lr

1000c542 <stop_timer>:
1000c542:	4770      	bx	lr

1000c544 <dbg_le_set_bd_addr_req_handler>:
1000c544:	b5f7      	push	{r0, r1, r2, r4, r5, r6, r7, lr}
1000c546:	466b      	mov	r3, sp
1000c548:	1dde      	adds	r6, r3, #7
1000c54a:	2300      	movs	r3, #0
1000c54c:	7033      	strb	r3, [r6, #0]
1000c54e:	230f      	movs	r3, #15
1000c550:	4c13      	ldr	r4, [pc, #76]	; (1000c5a0 <dbg_le_set_bd_addr_req_handler+0x5c>)
1000c552:	2703      	movs	r7, #3
1000c554:	7023      	strb	r3, [r4, #0]
1000c556:	2300      	movs	r3, #0
1000c558:	70e3      	strb	r3, [r4, #3]
1000c55a:	4b12      	ldr	r3, [pc, #72]	; (1000c5a4 <dbg_le_set_bd_addr_req_handler+0x60>)
1000c55c:	1c01      	adds	r1, r0, #0
1000c55e:	881a      	ldrh	r2, [r3, #0]
1000c560:	881b      	ldrh	r3, [r3, #0]
1000c562:	7122      	strb	r2, [r4, #4]
1000c564:	0a1b      	lsrs	r3, r3, #8
1000c566:	2206      	movs	r2, #6
1000c568:	7163      	strb	r3, [r4, #5]
1000c56a:	480f      	ldr	r0, [pc, #60]	; (1000c5a8 <dbg_le_set_bd_addr_req_handler+0x64>)
1000c56c:	4b0f      	ldr	r3, [pc, #60]	; (1000c5ac <dbg_le_set_bd_addr_req_handler+0x68>)
1000c56e:	7067      	strb	r7, [r4, #1]
1000c570:	70a7      	strb	r7, [r4, #2]
1000c572:	4798      	blx	r3
1000c574:	4d0e      	ldr	r5, [pc, #56]	; (1000c5b0 <dbg_le_set_bd_addr_req_handler+0x6c>)
1000c576:	4b0f      	ldr	r3, [pc, #60]	; (1000c5b4 <dbg_le_set_bd_addr_req_handler+0x70>)
1000c578:	210e      	movs	r1, #14
1000c57a:	802b      	strh	r3, [r5, #0]
1000c57c:	2306      	movs	r3, #6
1000c57e:	71a3      	strb	r3, [r4, #6]
1000c580:	2300      	movs	r3, #0
1000c582:	1c20      	adds	r0, r4, #0
1000c584:	71e3      	strb	r3, [r4, #7]
1000c586:	4b0c      	ldr	r3, [pc, #48]	; (1000c5b8 <dbg_le_set_bd_addr_req_handler+0x74>)
1000c588:	80af      	strh	r7, [r5, #4]
1000c58a:	4798      	blx	r3
1000c58c:	1c30      	adds	r0, r6, #0
1000c58e:	4b0b      	ldr	r3, [pc, #44]	; (1000c5bc <dbg_le_set_bd_addr_req_handler+0x78>)
1000c590:	4798      	blx	r3
1000c592:	7833      	ldrb	r3, [r6, #0]
1000c594:	20e2      	movs	r0, #226	; 0xe2
1000c596:	2b00      	cmp	r3, #0
1000c598:	d101      	bne.n	1000c59e <dbg_le_set_bd_addr_req_handler+0x5a>
1000c59a:	68ab      	ldr	r3, [r5, #8]
1000c59c:	7818      	ldrb	r0, [r3, #0]
1000c59e:	bdfe      	pop	{r1, r2, r3, r4, r5, r6, r7, pc}
1000c5a0:	10011558 	.word	0x10011558
1000c5a4:	100111e8 	.word	0x100111e8
1000c5a8:	10011560 	.word	0x10011560
1000c5ac:	1000f017 	.word	0x1000f017
1000c5b0:	100111dc 	.word	0x100111dc
1000c5b4:	00000329 	.word	0x00000329
1000c5b8:	1000c4b9 	.word	0x1000c4b9
1000c5bc:	1000c515 	.word	0x1000c515

1000c5c0 <gapc_get_dev_info_cfm.constprop.1>:
1000c5c0:	b538      	push	{r3, r4, r5, lr}
1000c5c2:	230b      	movs	r3, #11
1000c5c4:	4c27      	ldr	r4, [pc, #156]	; (1000c664 <gapc_get_dev_info_cfm.constprop.1+0xa4>)
1000c5c6:	7023      	strb	r3, [r4, #0]
1000c5c8:	3303      	adds	r3, #3
1000c5ca:	7063      	strb	r3, [r4, #1]
1000c5cc:	3329      	adds	r3, #41	; 0x29
1000c5ce:	70a3      	strb	r3, [r4, #2]
1000c5d0:	4b25      	ldr	r3, [pc, #148]	; (1000c668 <gapc_get_dev_info_cfm.constprop.1+0xa8>)
1000c5d2:	70e1      	strb	r1, [r4, #3]
1000c5d4:	881a      	ldrh	r2, [r3, #0]
1000c5d6:	881b      	ldrh	r3, [r3, #0]
1000c5d8:	7122      	strb	r2, [r4, #4]
1000c5da:	0a1b      	lsrs	r3, r3, #8
1000c5dc:	7163      	strb	r3, [r4, #5]
1000c5de:	2300      	movs	r3, #0
1000c5e0:	7220      	strb	r0, [r4, #8]
1000c5e2:	7263      	strb	r3, [r4, #9]
1000c5e4:	2801      	cmp	r0, #1
1000c5e6:	d02b      	beq.n	1000c640 <gapc_get_dev_info_cfm.constprop.1+0x80>
1000c5e8:	4298      	cmp	r0, r3
1000c5ea:	d01b      	beq.n	1000c624 <gapc_get_dev_info_cfm.constprop.1+0x64>
1000c5ec:	2802      	cmp	r0, #2
1000c5ee:	d12f      	bne.n	1000c650 <gapc_get_dev_info_cfm.constprop.1+0x90>
1000c5f0:	4b1e      	ldr	r3, [pc, #120]	; (1000c66c <gapc_get_dev_info_cfm.constprop.1+0xac>)
1000c5f2:	2112      	movs	r1, #18
1000c5f4:	1c1a      	adds	r2, r3, #0
1000c5f6:	32ce      	adds	r2, #206	; 0xce
1000c5f8:	8812      	ldrh	r2, [r2, #0]
1000c5fa:	72a2      	strb	r2, [r4, #10]
1000c5fc:	0a12      	lsrs	r2, r2, #8
1000c5fe:	72e2      	strb	r2, [r4, #11]
1000c600:	1c1a      	adds	r2, r3, #0
1000c602:	32d0      	adds	r2, #208	; 0xd0
1000c604:	8812      	ldrh	r2, [r2, #0]
1000c606:	7322      	strb	r2, [r4, #12]
1000c608:	0a12      	lsrs	r2, r2, #8
1000c60a:	7362      	strb	r2, [r4, #13]
1000c60c:	1c1a      	adds	r2, r3, #0
1000c60e:	32d2      	adds	r2, #210	; 0xd2
1000c610:	8812      	ldrh	r2, [r2, #0]
1000c612:	33d4      	adds	r3, #212	; 0xd4
1000c614:	73a2      	strb	r2, [r4, #14]
1000c616:	0a12      	lsrs	r2, r2, #8
1000c618:	73e2      	strb	r2, [r4, #15]
1000c61a:	881b      	ldrh	r3, [r3, #0]
1000c61c:	7423      	strb	r3, [r4, #16]
1000c61e:	0a1b      	lsrs	r3, r3, #8
1000c620:	7463      	strb	r3, [r4, #17]
1000c622:	e016      	b.n	1000c652 <gapc_get_dev_info_cfm.constprop.1+0x92>
1000c624:	4b11      	ldr	r3, [pc, #68]	; (1000c66c <gapc_get_dev_info_cfm.constprop.1+0xac>)
1000c626:	4912      	ldr	r1, [pc, #72]	; (1000c670 <gapc_get_dev_info_cfm.constprop.1+0xb0>)
1000c628:	33aa      	adds	r3, #170	; 0xaa
1000c62a:	881d      	ldrh	r5, [r3, #0]
1000c62c:	4811      	ldr	r0, [pc, #68]	; (1000c674 <gapc_get_dev_info_cfm.constprop.1+0xb4>)
1000c62e:	0a2b      	lsrs	r3, r5, #8
1000c630:	72a5      	strb	r5, [r4, #10]
1000c632:	72e3      	strb	r3, [r4, #11]
1000c634:	1c2a      	adds	r2, r5, #0
1000c636:	4b10      	ldr	r3, [pc, #64]	; (1000c678 <gapc_get_dev_info_cfm.constprop.1+0xb8>)
1000c638:	350c      	adds	r5, #12
1000c63a:	4798      	blx	r3
1000c63c:	b2a9      	uxth	r1, r5
1000c63e:	e008      	b.n	1000c652 <gapc_get_dev_info_cfm.constprop.1+0x92>
1000c640:	4b0a      	ldr	r3, [pc, #40]	; (1000c66c <gapc_get_dev_info_cfm.constprop.1+0xac>)
1000c642:	210c      	movs	r1, #12
1000c644:	33cc      	adds	r3, #204	; 0xcc
1000c646:	881b      	ldrh	r3, [r3, #0]
1000c648:	72a3      	strb	r3, [r4, #10]
1000c64a:	0a1b      	lsrs	r3, r3, #8
1000c64c:	72e3      	strb	r3, [r4, #11]
1000c64e:	e000      	b.n	1000c652 <gapc_get_dev_info_cfm.constprop.1+0x92>
1000c650:	210a      	movs	r1, #10
1000c652:	1c0b      	adds	r3, r1, #0
1000c654:	3b08      	subs	r3, #8
1000c656:	71a3      	strb	r3, [r4, #6]
1000c658:	121b      	asrs	r3, r3, #8
1000c65a:	71e3      	strb	r3, [r4, #7]
1000c65c:	1c20      	adds	r0, r4, #0
1000c65e:	4b07      	ldr	r3, [pc, #28]	; (1000c67c <gapc_get_dev_info_cfm.constprop.1+0xbc>)
1000c660:	4798      	blx	r3
1000c662:	bd38      	pop	{r3, r4, r5, pc}
1000c664:	10011558 	.word	0x10011558
1000c668:	100111e8 	.word	0x100111e8
1000c66c:	1001127a 	.word	0x1001127a
1000c670:	10011326 	.word	0x10011326
1000c674:	10011564 	.word	0x10011564
1000c678:	1000f017 	.word	0x1000f017
1000c67c:	1000c4b9 	.word	0x1000c4b9

1000c680 <check_ConnData_idx_role>:
1000c680:	4b0c      	ldr	r3, [pc, #48]	; (1000c6b4 <check_ConnData_idx_role+0x34>)
1000c682:	b570      	push	{r4, r5, r6, lr}
1000c684:	1c04      	adds	r4, r0, #0
1000c686:	2008      	movs	r0, #8
1000c688:	429c      	cmp	r4, r3
1000c68a:	d011      	beq.n	1000c6b0 <check_ConnData_idx_role+0x30>
1000c68c:	2300      	movs	r3, #0
1000c68e:	2212      	movs	r2, #18
1000c690:	435a      	muls	r2, r3
1000c692:	4d09      	ldr	r5, [pc, #36]	; (1000c6b8 <check_ConnData_idx_role+0x38>)
1000c694:	b2d8      	uxtb	r0, r3
1000c696:	1956      	adds	r6, r2, r5
1000c698:	8976      	ldrh	r6, [r6, #10]
1000c69a:	42a6      	cmp	r6, r4
1000c69c:	d104      	bne.n	1000c6a8 <check_ConnData_idx_role+0x28>
1000c69e:	2900      	cmp	r1, #0
1000c6a0:	d006      	beq.n	1000c6b0 <check_ConnData_idx_role+0x30>
1000c6a2:	5d53      	ldrb	r3, [r2, r5]
1000c6a4:	700b      	strb	r3, [r1, #0]
1000c6a6:	e003      	b.n	1000c6b0 <check_ConnData_idx_role+0x30>
1000c6a8:	3301      	adds	r3, #1
1000c6aa:	2b08      	cmp	r3, #8
1000c6ac:	d1ef      	bne.n	1000c68e <check_ConnData_idx_role+0xe>
1000c6ae:	1c18      	adds	r0, r3, #0
1000c6b0:	bd70      	pop	{r4, r5, r6, pc}
1000c6b2:	46c0      	nop			; (mov r8, r8)
1000c6b4:	0000ffff 	.word	0x0000ffff
1000c6b8:	100111ea 	.word	0x100111ea

1000c6bc <check_ConnData_emptyEntry>:
1000c6bc:	2300      	movs	r3, #0
1000c6be:	2212      	movs	r2, #18
1000c6c0:	435a      	muls	r2, r3
1000c6c2:	4906      	ldr	r1, [pc, #24]	; (1000c6dc <check_ConnData_emptyEntry+0x20>)
1000c6c4:	b2d8      	uxtb	r0, r3
1000c6c6:	1852      	adds	r2, r2, r1
1000c6c8:	8951      	ldrh	r1, [r2, #10]
1000c6ca:	4a05      	ldr	r2, [pc, #20]	; (1000c6e0 <check_ConnData_emptyEntry+0x24>)
1000c6cc:	4291      	cmp	r1, r2
1000c6ce:	d003      	beq.n	1000c6d8 <check_ConnData_emptyEntry+0x1c>
1000c6d0:	3301      	adds	r3, #1
1000c6d2:	2b08      	cmp	r3, #8
1000c6d4:	d1f3      	bne.n	1000c6be <check_ConnData_emptyEntry+0x2>
1000c6d6:	1c18      	adds	r0, r3, #0
1000c6d8:	4770      	bx	lr
1000c6da:	46c0      	nop			; (mov r8, r8)
1000c6dc:	100111ea 	.word	0x100111ea
1000c6e0:	0000ffff 	.word	0x0000ffff

1000c6e4 <gapc_cmp_evt>:
1000c6e4:	b5f7      	push	{r0, r1, r2, r4, r5, r6, r7, lr}
1000c6e6:	780b      	ldrb	r3, [r1, #0]
1000c6e8:	1c05      	adds	r5, r0, #0
1000c6ea:	1e58      	subs	r0, r3, #1
1000c6ec:	784e      	ldrb	r6, [r1, #1]
1000c6ee:	280f      	cmp	r0, #15
1000c6f0:	d85a      	bhi.n	1000c7a8 <gapc_cmp_evt+0xc4>
1000c6f2:	1c14      	adds	r4, r2, #0
1000c6f4:	f001 fba4 	bl	1000de40 <__gnu_thumb1_case_uqi>
1000c6f8:	5858440a 	.word	0x5858440a
1000c6fc:	4b584444 	.word	0x4b584444
1000c700:	0825122d 	.word	0x0825122d
1000c704:	3e395858 	.word	0x3e395858
1000c708:	203b      	movs	r0, #59	; 0x3b
1000c70a:	e04e      	b.n	1000c7aa <gapc_cmp_evt+0xc6>
1000c70c:	203b      	movs	r0, #59	; 0x3b
1000c70e:	2e00      	cmp	r6, #0
1000c710:	d04b      	beq.n	1000c7aa <gapc_cmp_evt+0xc6>
1000c712:	0a2d      	lsrs	r5, r5, #8
1000c714:	8015      	strh	r5, [r2, #0]
1000c716:	7096      	strb	r6, [r2, #2]
1000c718:	3835      	subs	r0, #53	; 0x35
1000c71a:	e046      	b.n	1000c7aa <gapc_cmp_evt+0xc6>
1000c71c:	466b      	mov	r3, sp
1000c71e:	1ddf      	adds	r7, r3, #7
1000c720:	2301      	movs	r3, #1
1000c722:	0a2d      	lsrs	r5, r5, #8
1000c724:	703b      	strb	r3, [r7, #0]
1000c726:	1c28      	adds	r0, r5, #0
1000c728:	1c39      	adds	r1, r7, #0
1000c72a:	4b20      	ldr	r3, [pc, #128]	; (1000c7ac <gapc_cmp_evt+0xc8>)
1000c72c:	4798      	blx	r3
1000c72e:	2807      	cmp	r0, #7
1000c730:	d803      	bhi.n	1000c73a <gapc_cmp_evt+0x56>
1000c732:	783b      	ldrb	r3, [r7, #0]
1000c734:	203b      	movs	r0, #59	; 0x3b
1000c736:	2b00      	cmp	r3, #0
1000c738:	d037      	beq.n	1000c7aa <gapc_cmp_evt+0xc6>
1000c73a:	8065      	strh	r5, [r4, #2]
1000c73c:	7126      	strb	r6, [r4, #4]
1000c73e:	2009      	movs	r0, #9
1000c740:	e033      	b.n	1000c7aa <gapc_cmp_evt+0xc6>
1000c742:	203b      	movs	r0, #59	; 0x3b
1000c744:	2e00      	cmp	r6, #0
1000c746:	d030      	beq.n	1000c7aa <gapc_cmp_evt+0xc6>
1000c748:	0a2d      	lsrs	r5, r5, #8
1000c74a:	8015      	strh	r5, [r2, #0]
1000c74c:	7096      	strb	r6, [r2, #2]
1000c74e:	382d      	subs	r0, #45	; 0x2d
1000c750:	e02b      	b.n	1000c7aa <gapc_cmp_evt+0xc6>
1000c752:	203b      	movs	r0, #59	; 0x3b
1000c754:	2e00      	cmp	r6, #0
1000c756:	d028      	beq.n	1000c7aa <gapc_cmp_evt+0xc6>
1000c758:	2300      	movs	r3, #0
1000c75a:	0a2d      	lsrs	r5, r5, #8
1000c75c:	8015      	strh	r5, [r2, #0]
1000c75e:	7096      	strb	r6, [r2, #2]
1000c760:	8093      	strh	r3, [r2, #4]
1000c762:	80d3      	strh	r3, [r2, #6]
1000c764:	8113      	strh	r3, [r2, #8]
1000c766:	3834      	subs	r0, #52	; 0x34
1000c768:	e01f      	b.n	1000c7aa <gapc_cmp_evt+0xc6>
1000c76a:	203b      	movs	r0, #59	; 0x3b
1000c76c:	2e00      	cmp	r6, #0
1000c76e:	d01c      	beq.n	1000c7aa <gapc_cmp_evt+0xc6>
1000c770:	7216      	strb	r6, [r2, #8]
1000c772:	e003      	b.n	1000c77c <gapc_cmp_evt+0x98>
1000c774:	203b      	movs	r0, #59	; 0x3b
1000c776:	2e00      	cmp	r6, #0
1000c778:	d017      	beq.n	1000c7aa <gapc_cmp_evt+0xc6>
1000c77a:	7116      	strb	r6, [r2, #4]
1000c77c:	3812      	subs	r0, #18
1000c77e:	e014      	b.n	1000c7aa <gapc_cmp_evt+0xc6>
1000c780:	203b      	movs	r0, #59	; 0x3b
1000c782:	2e00      	cmp	r6, #0
1000c784:	d011      	beq.n	1000c7aa <gapc_cmp_evt+0xc6>
1000c786:	7093      	strb	r3, [r2, #2]
1000c788:	70d6      	strb	r6, [r2, #3]
1000c78a:	382a      	subs	r0, #42	; 0x2a
1000c78c:	e00d      	b.n	1000c7aa <gapc_cmp_evt+0xc6>
1000c78e:	203b      	movs	r0, #59	; 0x3b
1000c790:	2e00      	cmp	r6, #0
1000c792:	d00a      	beq.n	1000c7aa <gapc_cmp_evt+0xc6>
1000c794:	0a2d      	lsrs	r5, r5, #8
1000c796:	7016      	strb	r6, [r2, #0]
1000c798:	8055      	strh	r5, [r2, #2]
1000c79a:	1d10      	adds	r0, r2, #4
1000c79c:	2100      	movs	r1, #0
1000c79e:	2205      	movs	r2, #5
1000c7a0:	4b03      	ldr	r3, [pc, #12]	; (1000c7b0 <gapc_cmp_evt+0xcc>)
1000c7a2:	4798      	blx	r3
1000c7a4:	2012      	movs	r0, #18
1000c7a6:	e000      	b.n	1000c7aa <gapc_cmp_evt+0xc6>
1000c7a8:	2000      	movs	r0, #0
1000c7aa:	bdfe      	pop	{r1, r2, r3, r4, r5, r6, r7, pc}
1000c7ac:	1000c681 	.word	0x1000c681
1000c7b0:	1000f029 	.word	0x1000f029

1000c7b4 <gapc_connection_cfm_handler>:
1000c7b4:	b5f0      	push	{r4, r5, r6, r7, lr}
1000c7b6:	b085      	sub	sp, #20
1000c7b8:	1c1d      	adds	r5, r3, #0
1000c7ba:	ab0a      	add	r3, sp, #40	; 0x28
1000c7bc:	781b      	ldrb	r3, [r3, #0]
1000c7be:	9201      	str	r2, [sp, #4]
1000c7c0:	9302      	str	r3, [sp, #8]
1000c7c2:	ab0b      	add	r3, sp, #44	; 0x2c
1000c7c4:	781b      	ldrb	r3, [r3, #0]
1000c7c6:	1c07      	adds	r7, r0, #0
1000c7c8:	9303      	str	r3, [sp, #12]
1000c7ca:	ab0c      	add	r3, sp, #48	; 0x30
1000c7cc:	881a      	ldrh	r2, [r3, #0]
1000c7ce:	2302      	movs	r3, #2
1000c7d0:	1c0e      	adds	r6, r1, #0
1000c7d2:	4c23      	ldr	r4, [pc, #140]	; (1000c860 <gapc_connection_cfm_handler+0xac>)
1000c7d4:	1c39      	adds	r1, r7, #0
1000c7d6:	7023      	strb	r3, [r4, #0]
1000c7d8:	330c      	adds	r3, #12
1000c7da:	7063      	strb	r3, [r4, #1]
1000c7dc:	70a3      	strb	r3, [r4, #2]
1000c7de:	4b21      	ldr	r3, [pc, #132]	; (1000c864 <gapc_connection_cfm_handler+0xb0>)
1000c7e0:	70e2      	strb	r2, [r4, #3]
1000c7e2:	881a      	ldrh	r2, [r3, #0]
1000c7e4:	881b      	ldrh	r3, [r3, #0]
1000c7e6:	7122      	strb	r2, [r4, #4]
1000c7e8:	0a1b      	lsrs	r3, r3, #8
1000c7ea:	4f1f      	ldr	r7, [pc, #124]	; (1000c868 <gapc_connection_cfm_handler+0xb4>)
1000c7ec:	2210      	movs	r2, #16
1000c7ee:	481f      	ldr	r0, [pc, #124]	; (1000c86c <gapc_connection_cfm_handler+0xb8>)
1000c7f0:	7163      	strb	r3, [r4, #5]
1000c7f2:	47b8      	blx	r7
1000c7f4:	0a33      	lsrs	r3, r6, #8
1000c7f6:	7626      	strb	r6, [r4, #24]
1000c7f8:	7663      	strb	r3, [r4, #25]
1000c7fa:	9901      	ldr	r1, [sp, #4]
1000c7fc:	0c33      	lsrs	r3, r6, #16
1000c7fe:	2210      	movs	r2, #16
1000c800:	0e36      	lsrs	r6, r6, #24
1000c802:	481b      	ldr	r0, [pc, #108]	; (1000c870 <gapc_connection_cfm_handler+0xbc>)
1000c804:	76a3      	strb	r3, [r4, #26]
1000c806:	76e6      	strb	r6, [r4, #27]
1000c808:	47b8      	blx	r7
1000c80a:	1c23      	adds	r3, r4, #0
1000c80c:	332c      	adds	r3, #44	; 0x2c
1000c80e:	701d      	strb	r5, [r3, #0]
1000c810:	1c23      	adds	r3, r4, #0
1000c812:	0a2a      	lsrs	r2, r5, #8
1000c814:	332d      	adds	r3, #45	; 0x2d
1000c816:	701a      	strb	r2, [r3, #0]
1000c818:	1c23      	adds	r3, r4, #0
1000c81a:	0c2a      	lsrs	r2, r5, #16
1000c81c:	332e      	adds	r3, #46	; 0x2e
1000c81e:	701a      	strb	r2, [r3, #0]
1000c820:	1c23      	adds	r3, r4, #0
1000c822:	0e2d      	lsrs	r5, r5, #24
1000c824:	332f      	adds	r3, #47	; 0x2f
1000c826:	466a      	mov	r2, sp
1000c828:	701d      	strb	r5, [r3, #0]
1000c82a:	1c23      	adds	r3, r4, #0
1000c82c:	7a12      	ldrb	r2, [r2, #8]
1000c82e:	3330      	adds	r3, #48	; 0x30
1000c830:	701a      	strb	r2, [r3, #0]
1000c832:	1c23      	adds	r3, r4, #0
1000c834:	2500      	movs	r5, #0
1000c836:	3331      	adds	r3, #49	; 0x31
1000c838:	466a      	mov	r2, sp
1000c83a:	701d      	strb	r5, [r3, #0]
1000c83c:	1c23      	adds	r3, r4, #0
1000c83e:	7b12      	ldrb	r2, [r2, #12]
1000c840:	3332      	adds	r3, #50	; 0x32
1000c842:	701a      	strb	r2, [r3, #0]
1000c844:	1c23      	adds	r3, r4, #0
1000c846:	3333      	adds	r3, #51	; 0x33
1000c848:	701d      	strb	r5, [r3, #0]
1000c84a:	232c      	movs	r3, #44	; 0x2c
1000c84c:	1c20      	adds	r0, r4, #0
1000c84e:	71a3      	strb	r3, [r4, #6]
1000c850:	2134      	movs	r1, #52	; 0x34
1000c852:	4b08      	ldr	r3, [pc, #32]	; (1000c874 <gapc_connection_cfm_handler+0xc0>)
1000c854:	71e5      	strb	r5, [r4, #7]
1000c856:	4798      	blx	r3
1000c858:	1c28      	adds	r0, r5, #0
1000c85a:	b005      	add	sp, #20
1000c85c:	bdf0      	pop	{r4, r5, r6, r7, pc}
1000c85e:	46c0      	nop			; (mov r8, r8)
1000c860:	10011558 	.word	0x10011558
1000c864:	100111e8 	.word	0x100111e8
1000c868:	1000f017 	.word	0x1000f017
1000c86c:	10011560 	.word	0x10011560
1000c870:	10011574 	.word	0x10011574
1000c874:	1000c4b9 	.word	0x1000c4b9

1000c878 <gapc_con_req_ind>:
1000c878:	b5f0      	push	{r4, r5, r6, r7, lr}
1000c87a:	7845      	ldrb	r5, [r0, #1]
1000c87c:	7803      	ldrb	r3, [r0, #0]
1000c87e:	4c30      	ldr	r4, [pc, #192]	; (1000c940 <gapc_con_req_ind+0xc8>)
1000c880:	022d      	lsls	r5, r5, #8
1000c882:	431d      	orrs	r5, r3
1000c884:	85a5      	strh	r5, [r4, #44]	; 0x2c
1000c886:	78c3      	ldrb	r3, [r0, #3]
1000c888:	7882      	ldrb	r2, [r0, #2]
1000c88a:	b08b      	sub	sp, #44	; 0x2c
1000c88c:	021b      	lsls	r3, r3, #8
1000c88e:	431a      	orrs	r2, r3
1000c890:	466b      	mov	r3, sp
1000c892:	9205      	str	r2, [sp, #20]
1000c894:	8a9b      	ldrh	r3, [r3, #20]
1000c896:	2120      	movs	r1, #32
1000c898:	85e3      	strh	r3, [r4, #46]	; 0x2e
1000c89a:	7943      	ldrb	r3, [r0, #5]
1000c89c:	7902      	ldrb	r2, [r0, #4]
1000c89e:	021b      	lsls	r3, r3, #8
1000c8a0:	431a      	orrs	r2, r3
1000c8a2:	466b      	mov	r3, sp
1000c8a4:	9206      	str	r2, [sp, #24]
1000c8a6:	8b1b      	ldrh	r3, [r3, #24]
1000c8a8:	1c06      	adds	r6, r0, #0
1000c8aa:	8623      	strh	r3, [r4, #48]	; 0x30
1000c8ac:	79c3      	ldrb	r3, [r0, #7]
1000c8ae:	7982      	ldrb	r2, [r0, #6]
1000c8b0:	021b      	lsls	r3, r3, #8
1000c8b2:	431a      	orrs	r2, r3
1000c8b4:	466b      	mov	r3, sp
1000c8b6:	9207      	str	r2, [sp, #28]
1000c8b8:	466a      	mov	r2, sp
1000c8ba:	8b9b      	ldrh	r3, [r3, #28]
1000c8bc:	1852      	adds	r2, r2, r1
1000c8be:	8663      	strh	r3, [r4, #50]	; 0x32
1000c8c0:	7a43      	ldrb	r3, [r0, #9]
1000c8c2:	1c01      	adds	r1, r0, #0
1000c8c4:	9308      	str	r3, [sp, #32]
1000c8c6:	1c23      	adds	r3, r4, #0
1000c8c8:	7812      	ldrb	r2, [r2, #0]
1000c8ca:	3377      	adds	r3, #119	; 0x77
1000c8cc:	3478      	adds	r4, #120	; 0x78
1000c8ce:	701a      	strb	r2, [r3, #0]
1000c8d0:	310a      	adds	r1, #10
1000c8d2:	2206      	movs	r2, #6
1000c8d4:	4b1b      	ldr	r3, [pc, #108]	; (1000c944 <gapc_con_req_ind+0xcc>)
1000c8d6:	1c20      	adds	r0, r4, #0
1000c8d8:	4798      	blx	r3
1000c8da:	7c33      	ldrb	r3, [r6, #16]
1000c8dc:	9309      	str	r3, [sp, #36]	; 0x24
1000c8de:	4b1a      	ldr	r3, [pc, #104]	; (1000c948 <gapc_con_req_ind+0xd0>)
1000c8e0:	4798      	blx	r3
1000c8e2:	4e1a      	ldr	r6, [pc, #104]	; (1000c94c <gapc_con_req_ind+0xd4>)
1000c8e4:	1e07      	subs	r7, r0, #0
1000c8e6:	2f07      	cmp	r7, #7
1000c8e8:	d81b      	bhi.n	1000c922 <gapc_con_req_ind+0xaa>
1000c8ea:	2312      	movs	r3, #18
1000c8ec:	4343      	muls	r3, r0
1000c8ee:	18f0      	adds	r0, r6, r3
1000c8f0:	8145      	strh	r5, [r0, #10]
1000c8f2:	4669      	mov	r1, sp
1000c8f4:	2524      	movs	r5, #36	; 0x24
1000c8f6:	1949      	adds	r1, r1, r5
1000c8f8:	7809      	ldrb	r1, [r1, #0]
1000c8fa:	2206      	movs	r2, #6
1000c8fc:	54f1      	strb	r1, [r6, r3]
1000c8fe:	2120      	movs	r1, #32
1000c900:	466b      	mov	r3, sp
1000c902:	185b      	adds	r3, r3, r1
1000c904:	781b      	ldrb	r3, [r3, #0]
1000c906:	1c21      	adds	r1, r4, #0
1000c908:	7043      	strb	r3, [r0, #1]
1000c90a:	466b      	mov	r3, sp
1000c90c:	8a9b      	ldrh	r3, [r3, #20]
1000c90e:	3002      	adds	r0, #2
1000c910:	8143      	strh	r3, [r0, #10]
1000c912:	466b      	mov	r3, sp
1000c914:	8b1b      	ldrh	r3, [r3, #24]
1000c916:	8183      	strh	r3, [r0, #12]
1000c918:	466b      	mov	r3, sp
1000c91a:	8b9b      	ldrh	r3, [r3, #28]
1000c91c:	81c3      	strh	r3, [r0, #14]
1000c91e:	4b09      	ldr	r3, [pc, #36]	; (1000c944 <gapc_con_req_ind+0xcc>)
1000c920:	4798      	blx	r3
1000c922:	2112      	movs	r1, #18
1000c924:	2300      	movs	r3, #0
1000c926:	434f      	muls	r7, r1
1000c928:	9300      	str	r3, [sp, #0]
1000c92a:	9301      	str	r3, [sp, #4]
1000c92c:	19f6      	adds	r6, r6, r7
1000c92e:	8971      	ldrh	r1, [r6, #10]
1000c930:	4a07      	ldr	r2, [pc, #28]	; (1000c950 <gapc_con_req_ind+0xd8>)
1000c932:	9102      	str	r1, [sp, #8]
1000c934:	1c10      	adds	r0, r2, #0
1000c936:	1c19      	adds	r1, r3, #0
1000c938:	4c06      	ldr	r4, [pc, #24]	; (1000c954 <gapc_con_req_ind+0xdc>)
1000c93a:	47a0      	blx	r4
1000c93c:	b00b      	add	sp, #44	; 0x2c
1000c93e:	bdf0      	pop	{r4, r5, r6, r7, pc}
1000c940:	1001127a 	.word	0x1001127a
1000c944:	1000f017 	.word	0x1000f017
1000c948:	1000c6bd 	.word	0x1000c6bd
1000c94c:	100111ea 	.word	0x100111ea
1000c950:	1001050e 	.word	0x1001050e
1000c954:	1000c7b5 	.word	0x1000c7b5

1000c958 <gapc_disconnect_cmd_handler>:
1000c958:	2204      	movs	r2, #4
1000c95a:	b510      	push	{r4, lr}
1000c95c:	4b0c      	ldr	r3, [pc, #48]	; (1000c990 <gapc_disconnect_cmd_handler+0x38>)
1000c95e:	2400      	movs	r4, #0
1000c960:	701a      	strb	r2, [r3, #0]
1000c962:	320a      	adds	r2, #10
1000c964:	705a      	strb	r2, [r3, #1]
1000c966:	709a      	strb	r2, [r3, #2]
1000c968:	4a0a      	ldr	r2, [pc, #40]	; (1000c994 <gapc_disconnect_cmd_handler+0x3c>)
1000c96a:	70d9      	strb	r1, [r3, #3]
1000c96c:	8811      	ldrh	r1, [r2, #0]
1000c96e:	8812      	ldrh	r2, [r2, #0]
1000c970:	7119      	strb	r1, [r3, #4]
1000c972:	0a12      	lsrs	r2, r2, #8
1000c974:	715a      	strb	r2, [r3, #5]
1000c976:	2201      	movs	r2, #1
1000c978:	721a      	strb	r2, [r3, #8]
1000c97a:	1892      	adds	r2, r2, r2
1000c97c:	7258      	strb	r0, [r3, #9]
1000c97e:	719a      	strb	r2, [r3, #6]
1000c980:	71dc      	strb	r4, [r3, #7]
1000c982:	1c18      	adds	r0, r3, #0
1000c984:	210a      	movs	r1, #10
1000c986:	4b04      	ldr	r3, [pc, #16]	; (1000c998 <gapc_disconnect_cmd_handler+0x40>)
1000c988:	4798      	blx	r3
1000c98a:	1c20      	adds	r0, r4, #0
1000c98c:	bd10      	pop	{r4, pc}
1000c98e:	46c0      	nop			; (mov r8, r8)
1000c990:	10011558 	.word	0x10011558
1000c994:	100111e8 	.word	0x100111e8
1000c998:	1000c4b9 	.word	0x1000c4b9

1000c99c <gapc_disconnect_ind>:
1000c99c:	1c02      	adds	r2, r0, #0
1000c99e:	b508      	push	{r3, lr}
1000c9a0:	7843      	ldrb	r3, [r0, #1]
1000c9a2:	7800      	ldrb	r0, [r0, #0]
1000c9a4:	021b      	lsls	r3, r3, #8
1000c9a6:	4318      	orrs	r0, r3
1000c9a8:	8008      	strh	r0, [r1, #0]
1000c9aa:	7893      	ldrb	r3, [r2, #2]
1000c9ac:	708b      	strb	r3, [r1, #2]
1000c9ae:	2100      	movs	r1, #0
1000c9b0:	4b05      	ldr	r3, [pc, #20]	; (1000c9c8 <gapc_disconnect_ind+0x2c>)
1000c9b2:	4798      	blx	r3
1000c9b4:	2807      	cmp	r0, #7
1000c9b6:	d806      	bhi.n	1000c9c6 <gapc_disconnect_ind+0x2a>
1000c9b8:	2312      	movs	r3, #18
1000c9ba:	4358      	muls	r0, r3
1000c9bc:	4b03      	ldr	r3, [pc, #12]	; (1000c9cc <gapc_disconnect_ind+0x30>)
1000c9be:	1818      	adds	r0, r3, r0
1000c9c0:	2301      	movs	r3, #1
1000c9c2:	425b      	negs	r3, r3
1000c9c4:	8143      	strh	r3, [r0, #10]
1000c9c6:	bd08      	pop	{r3, pc}
1000c9c8:	1000c681 	.word	0x1000c681
1000c9cc:	100111ea 	.word	0x100111ea

1000c9d0 <gapc_bond_cmd_handler>:
1000c9d0:	b5f7      	push	{r0, r1, r2, r4, r5, r6, r7, lr}
1000c9d2:	9300      	str	r3, [sp, #0]
1000c9d4:	2312      	movs	r3, #18
1000c9d6:	1c04      	adds	r4, r0, #0
1000c9d8:	a808      	add	r0, sp, #32
1000c9da:	7807      	ldrb	r7, [r0, #0]
1000c9dc:	a809      	add	r0, sp, #36	; 0x24
1000c9de:	7806      	ldrb	r6, [r0, #0]
1000c9e0:	a80a      	add	r0, sp, #40	; 0x28
1000c9e2:	7805      	ldrb	r5, [r0, #0]
1000c9e4:	a80b      	add	r0, sp, #44	; 0x2c
1000c9e6:	7800      	ldrb	r0, [r0, #0]
1000c9e8:	9001      	str	r0, [sp, #4]
1000c9ea:	4810      	ldr	r0, [pc, #64]	; (1000ca2c <gapc_bond_cmd_handler+0x5c>)
1000c9ec:	7003      	strb	r3, [r0, #0]
1000c9ee:	230e      	movs	r3, #14
1000c9f0:	70c4      	strb	r4, [r0, #3]
1000c9f2:	4c0f      	ldr	r4, [pc, #60]	; (1000ca30 <gapc_bond_cmd_handler+0x60>)
1000c9f4:	7043      	strb	r3, [r0, #1]
1000c9f6:	7083      	strb	r3, [r0, #2]
1000c9f8:	8823      	ldrh	r3, [r4, #0]
1000c9fa:	8824      	ldrh	r4, [r4, #0]
1000c9fc:	7103      	strb	r3, [r0, #4]
1000c9fe:	466b      	mov	r3, sp
1000ca00:	781b      	ldrb	r3, [r3, #0]
1000ca02:	0a24      	lsrs	r4, r4, #8
1000ca04:	72c3      	strb	r3, [r0, #11]
1000ca06:	466b      	mov	r3, sp
1000ca08:	791b      	ldrb	r3, [r3, #4]
1000ca0a:	7144      	strb	r4, [r0, #5]
1000ca0c:	73c3      	strb	r3, [r0, #15]
1000ca0e:	2308      	movs	r3, #8
1000ca10:	7183      	strb	r3, [r0, #6]
1000ca12:	2300      	movs	r3, #0
1000ca14:	240a      	movs	r4, #10
1000ca16:	7241      	strb	r1, [r0, #9]
1000ca18:	71c3      	strb	r3, [r0, #7]
1000ca1a:	2110      	movs	r1, #16
1000ca1c:	4b05      	ldr	r3, [pc, #20]	; (1000ca34 <gapc_bond_cmd_handler+0x64>)
1000ca1e:	7307      	strb	r7, [r0, #12]
1000ca20:	7346      	strb	r6, [r0, #13]
1000ca22:	7385      	strb	r5, [r0, #14]
1000ca24:	7204      	strb	r4, [r0, #8]
1000ca26:	7282      	strb	r2, [r0, #10]
1000ca28:	4798      	blx	r3
1000ca2a:	bdf7      	pop	{r0, r1, r2, r4, r5, r6, r7, pc}
1000ca2c:	10011558 	.word	0x10011558
1000ca30:	100111e8 	.word	0x100111e8
1000ca34:	1000c4b9 	.word	0x1000c4b9

1000ca38 <gapc_bond_ind>:
1000ca38:	b5f8      	push	{r3, r4, r5, r6, r7, lr}
1000ca3a:	780e      	ldrb	r6, [r1, #0]
1000ca3c:	1c03      	adds	r3, r0, #0
1000ca3e:	1eb0      	subs	r0, r6, #2
1000ca40:	2805      	cmp	r0, #5
1000ca42:	d85d      	bhi.n	1000cb00 <gapc_bond_ind+0xc8>
1000ca44:	1c15      	adds	r5, r2, #0
1000ca46:	1c0c      	adds	r4, r1, #0
1000ca48:	f001 f9fa 	bl	1000de40 <__gnu_thumb1_case_uqi>
1000ca4c:	2f5a030d 	.word	0x2f5a030d
1000ca50:	4740      	.short	0x4740
1000ca52:	2009      	movs	r0, #9
1000ca54:	2a00      	cmp	r2, #0
1000ca56:	d054      	beq.n	1000cb02 <gapc_bond_ind+0xca>
1000ca58:	0a1b      	lsrs	r3, r3, #8
1000ca5a:	8053      	strh	r3, [r2, #2]
1000ca5c:	788b      	ldrb	r3, [r1, #2]
1000ca5e:	4829      	ldr	r0, [pc, #164]	; (1000cb04 <gapc_bond_ind+0xcc>)
1000ca60:	7113      	strb	r3, [r2, #4]
1000ca62:	2100      	movs	r1, #0
1000ca64:	e01c      	b.n	1000caa0 <gapc_bond_ind+0x68>
1000ca66:	2009      	movs	r0, #9
1000ca68:	2a00      	cmp	r2, #0
1000ca6a:	d04a      	beq.n	1000cb02 <gapc_bond_ind+0xca>
1000ca6c:	4c25      	ldr	r4, [pc, #148]	; (1000cb04 <gapc_bond_ind+0xcc>)
1000ca6e:	0a1b      	lsrs	r3, r3, #8
1000ca70:	8053      	strh	r3, [r2, #2]
1000ca72:	788b      	ldrb	r3, [r1, #2]
1000ca74:	2700      	movs	r7, #0
1000ca76:	1c10      	adds	r0, r2, #0
1000ca78:	1c21      	adds	r1, r4, #0
1000ca7a:	7013      	strb	r3, [r2, #0]
1000ca7c:	4e22      	ldr	r6, [pc, #136]	; (1000cb08 <gapc_bond_ind+0xd0>)
1000ca7e:	7117      	strb	r7, [r2, #4]
1000ca80:	312e      	adds	r1, #46	; 0x2e
1000ca82:	2217      	movs	r2, #23
1000ca84:	3032      	adds	r0, #50	; 0x32
1000ca86:	47b0      	blx	r6
1000ca88:	1c28      	adds	r0, r5, #0
1000ca8a:	1c21      	adds	r1, r4, #0
1000ca8c:	2210      	movs	r2, #16
1000ca8e:	311e      	adds	r1, #30
1000ca90:	3022      	adds	r0, #34	; 0x22
1000ca92:	47b0      	blx	r6
1000ca94:	1ca1      	adds	r1, r4, #2
1000ca96:	1da8      	adds	r0, r5, #6
1000ca98:	221c      	movs	r2, #28
1000ca9a:	47b0      	blx	r6
1000ca9c:	1c20      	adds	r0, r4, #0
1000ca9e:	1c39      	adds	r1, r7, #0
1000caa0:	2246      	movs	r2, #70	; 0x46
1000caa2:	4b1a      	ldr	r3, [pc, #104]	; (1000cb0c <gapc_bond_ind+0xd4>)
1000caa4:	4798      	blx	r3
1000caa6:	2009      	movs	r0, #9
1000caa8:	e02b      	b.n	1000cb02 <gapc_bond_ind+0xca>
1000caaa:	4d16      	ldr	r5, [pc, #88]	; (1000cb04 <gapc_bond_ind+0xcc>)
1000caac:	3102      	adds	r1, #2
1000caae:	1c28      	adds	r0, r5, #0
1000cab0:	2210      	movs	r2, #16
1000cab2:	4e15      	ldr	r6, [pc, #84]	; (1000cb08 <gapc_bond_ind+0xd0>)
1000cab4:	302e      	adds	r0, #46	; 0x2e
1000cab6:	47b0      	blx	r6
1000cab8:	1c28      	adds	r0, r5, #0
1000caba:	1c21      	adds	r1, r4, #0
1000cabc:	303f      	adds	r0, #63	; 0x3f
1000cabe:	3112      	adds	r1, #18
1000cac0:	2206      	movs	r2, #6
1000cac2:	47b0      	blx	r6
1000cac4:	7e23      	ldrb	r3, [r4, #24]
1000cac6:	353e      	adds	r5, #62	; 0x3e
1000cac8:	702b      	strb	r3, [r5, #0]
1000caca:	e019      	b.n	1000cb00 <gapc_bond_ind+0xc8>
1000cacc:	480d      	ldr	r0, [pc, #52]	; (1000cb04 <gapc_bond_ind+0xcc>)
1000cace:	3102      	adds	r1, #2
1000cad0:	2210      	movs	r2, #16
1000cad2:	4b0d      	ldr	r3, [pc, #52]	; (1000cb08 <gapc_bond_ind+0xd0>)
1000cad4:	301e      	adds	r0, #30
1000cad6:	4798      	blx	r3
1000cad8:	e012      	b.n	1000cb00 <gapc_bond_ind+0xc8>
1000cada:	4d0a      	ldr	r5, [pc, #40]	; (1000cb04 <gapc_bond_ind+0xcc>)
1000cadc:	3102      	adds	r1, #2
1000cade:	2210      	movs	r2, #16
1000cae0:	4e09      	ldr	r6, [pc, #36]	; (1000cb08 <gapc_bond_ind+0xd0>)
1000cae2:	1ca8      	adds	r0, r5, #2
1000cae4:	47b0      	blx	r6
1000cae6:	1c28      	adds	r0, r5, #0
1000cae8:	1c21      	adds	r1, r4, #0
1000caea:	7ce3      	ldrb	r3, [r4, #19]
1000caec:	7ca2      	ldrb	r2, [r4, #18]
1000caee:	021b      	lsls	r3, r3, #8
1000caf0:	4313      	orrs	r3, r2
1000caf2:	3014      	adds	r0, #20
1000caf4:	3114      	adds	r1, #20
1000caf6:	2208      	movs	r2, #8
1000caf8:	826b      	strh	r3, [r5, #18]
1000cafa:	47b0      	blx	r6
1000cafc:	7f23      	ldrb	r3, [r4, #28]
1000cafe:	772b      	strb	r3, [r5, #28]
1000cb00:	2000      	movs	r0, #0
1000cb02:	bdf8      	pop	{r3, r4, r5, r6, r7, pc}
1000cb04:	100104c8 	.word	0x100104c8
1000cb08:	1000f017 	.word	0x1000f017
1000cb0c:	1000f029 	.word	0x1000f029

1000cb10 <gapc_bond_req_ind>:
1000cb10:	b570      	push	{r4, r5, r6, lr}
1000cb12:	780c      	ldrb	r4, [r1, #0]
1000cb14:	1c03      	adds	r3, r0, #0
1000cb16:	7849      	ldrb	r1, [r1, #1]
1000cb18:	2c07      	cmp	r4, #7
1000cb1a:	d85c      	bhi.n	1000cbd6 <gapc_bond_req_ind+0xc6>
1000cb1c:	1c20      	adds	r0, r4, #0
1000cb1e:	f001 f98f 	bl	1000de40 <__gnu_thumb1_case_uqi>
1000cb22:	5a04      	.short	0x5a04
1000cb24:	5a0b5a5a 	.word	0x5a0b5a5a
1000cb28:	1f1f      	.short	0x1f1f
1000cb2a:	200a      	movs	r0, #10
1000cb2c:	2a00      	cmp	r2, #0
1000cb2e:	d053      	beq.n	1000cbd8 <gapc_bond_req_ind+0xc8>
1000cb30:	0a1b      	lsrs	r3, r3, #8
1000cb32:	8013      	strh	r3, [r2, #0]
1000cb34:	7091      	strb	r1, [r2, #2]
1000cb36:	e04f      	b.n	1000cbd8 <gapc_bond_req_ind+0xc8>
1000cb38:	2a00      	cmp	r2, #0
1000cb3a:	d00b      	beq.n	1000cb54 <gapc_bond_req_ind+0x44>
1000cb3c:	0a1b      	lsrs	r3, r3, #8
1000cb3e:	8013      	strh	r3, [r2, #0]
1000cb40:	2900      	cmp	r1, #0
1000cb42:	d102      	bne.n	1000cb4a <gapc_bond_req_ind+0x3a>
1000cb44:	2301      	movs	r3, #1
1000cb46:	7093      	strb	r3, [r2, #2]
1000cb48:	e004      	b.n	1000cb54 <gapc_bond_req_ind+0x44>
1000cb4a:	2300      	movs	r3, #0
1000cb4c:	7093      	strb	r3, [r2, #2]
1000cb4e:	2902      	cmp	r1, #2
1000cb50:	d102      	bne.n	1000cb58 <gapc_bond_req_ind+0x48>
1000cb52:	70d3      	strb	r3, [r2, #3]
1000cb54:	200c      	movs	r0, #12
1000cb56:	e03f      	b.n	1000cbd8 <gapc_bond_req_ind+0xc8>
1000cb58:	2901      	cmp	r1, #1
1000cb5a:	d1fb      	bne.n	1000cb54 <gapc_bond_req_ind+0x44>
1000cb5c:	70d1      	strb	r1, [r2, #3]
1000cb5e:	e7f9      	b.n	1000cb54 <gapc_bond_req_ind+0x44>
1000cb60:	2214      	movs	r2, #20
1000cb62:	481e      	ldr	r0, [pc, #120]	; (1000cbdc <gapc_bond_req_ind+0xcc>)
1000cb64:	0a1b      	lsrs	r3, r3, #8
1000cb66:	70c3      	strb	r3, [r0, #3]
1000cb68:	4b1d      	ldr	r3, [pc, #116]	; (1000cbe0 <gapc_bond_req_ind+0xd0>)
1000cb6a:	7002      	strb	r2, [r0, #0]
1000cb6c:	3a06      	subs	r2, #6
1000cb6e:	7042      	strb	r2, [r0, #1]
1000cb70:	7082      	strb	r2, [r0, #2]
1000cb72:	881a      	ldrh	r2, [r3, #0]
1000cb74:	881b      	ldrh	r3, [r3, #0]
1000cb76:	4e1b      	ldr	r6, [pc, #108]	; (1000cbe4 <gapc_bond_req_ind+0xd4>)
1000cb78:	0a1b      	lsrs	r3, r3, #8
1000cb7a:	7143      	strb	r3, [r0, #5]
1000cb7c:	2301      	movs	r3, #1
1000cb7e:	7102      	strb	r2, [r0, #4]
1000cb80:	7204      	strb	r4, [r0, #8]
1000cb82:	7243      	strb	r3, [r0, #9]
1000cb84:	1c05      	adds	r5, r0, #0
1000cb86:	1c31      	adds	r1, r6, #0
1000cb88:	300a      	adds	r0, #10
1000cb8a:	2c07      	cmp	r4, #7
1000cb8c:	d116      	bne.n	1000cbbc <gapc_bond_req_ind+0xac>
1000cb8e:	317e      	adds	r1, #126	; 0x7e
1000cb90:	2210      	movs	r2, #16
1000cb92:	4c15      	ldr	r4, [pc, #84]	; (1000cbe8 <gapc_bond_req_ind+0xd8>)
1000cb94:	47a0      	blx	r4
1000cb96:	1c33      	adds	r3, r6, #0
1000cb98:	1c31      	adds	r1, r6, #0
1000cb9a:	1c28      	adds	r0, r5, #0
1000cb9c:	338e      	adds	r3, #142	; 0x8e
1000cb9e:	881b      	ldrh	r3, [r3, #0]
1000cba0:	3190      	adds	r1, #144	; 0x90
1000cba2:	76ab      	strb	r3, [r5, #26]
1000cba4:	2208      	movs	r2, #8
1000cba6:	0a1b      	lsrs	r3, r3, #8
1000cba8:	301c      	adds	r0, #28
1000cbaa:	76eb      	strb	r3, [r5, #27]
1000cbac:	47a0      	blx	r4
1000cbae:	1c31      	adds	r1, r6, #0
1000cbb0:	3198      	adds	r1, #152	; 0x98
1000cbb2:	780a      	ldrb	r2, [r1, #0]
1000cbb4:	1d6b      	adds	r3, r5, #5
1000cbb6:	77da      	strb	r2, [r3, #31]
1000cbb8:	2125      	movs	r1, #37	; 0x25
1000cbba:	e004      	b.n	1000cbc6 <gapc_bond_req_ind+0xb6>
1000cbbc:	319a      	adds	r1, #154	; 0x9a
1000cbbe:	2210      	movs	r2, #16
1000cbc0:	4b09      	ldr	r3, [pc, #36]	; (1000cbe8 <gapc_bond_req_ind+0xd8>)
1000cbc2:	4798      	blx	r3
1000cbc4:	211a      	movs	r1, #26
1000cbc6:	1c0b      	adds	r3, r1, #0
1000cbc8:	2400      	movs	r4, #0
1000cbca:	3b08      	subs	r3, #8
1000cbcc:	71ab      	strb	r3, [r5, #6]
1000cbce:	1c28      	adds	r0, r5, #0
1000cbd0:	4b06      	ldr	r3, [pc, #24]	; (1000cbec <gapc_bond_req_ind+0xdc>)
1000cbd2:	71ec      	strb	r4, [r5, #7]
1000cbd4:	4798      	blx	r3
1000cbd6:	2000      	movs	r0, #0
1000cbd8:	bd70      	pop	{r4, r5, r6, pc}
1000cbda:	46c0      	nop			; (mov r8, r8)
1000cbdc:	10011558 	.word	0x10011558
1000cbe0:	100111e8 	.word	0x100111e8
1000cbe4:	1001127a 	.word	0x1001127a
1000cbe8:	1000f017 	.word	0x1000f017
1000cbec:	1000c4b9 	.word	0x1000c4b9

1000cbf0 <gapc_bond_cfm_handler_pair_resp>:
1000cbf0:	b5f0      	push	{r4, r5, r6, r7, lr}
1000cbf2:	b085      	sub	sp, #20
1000cbf4:	1c07      	adds	r7, r0, #0
1000cbf6:	a80a      	add	r0, sp, #40	; 0x28
1000cbf8:	7806      	ldrb	r6, [r0, #0]
1000cbfa:	a80b      	add	r0, sp, #44	; 0x2c
1000cbfc:	7805      	ldrb	r5, [r0, #0]
1000cbfe:	a80c      	add	r0, sp, #48	; 0x30
1000cc00:	7800      	ldrb	r0, [r0, #0]
1000cc02:	2414      	movs	r4, #20
1000cc04:	9002      	str	r0, [sp, #8]
1000cc06:	a80d      	add	r0, sp, #52	; 0x34
1000cc08:	7800      	ldrb	r0, [r0, #0]
1000cc0a:	9301      	str	r3, [sp, #4]
1000cc0c:	9003      	str	r0, [sp, #12]
1000cc0e:	a80e      	add	r0, sp, #56	; 0x38
1000cc10:	8800      	ldrh	r0, [r0, #0]
1000cc12:	4684      	mov	ip, r0
1000cc14:	4812      	ldr	r0, [pc, #72]	; (1000cc60 <gapc_bond_cfm_handler_pair_resp+0x70>)
1000cc16:	7004      	strb	r4, [r0, #0]
1000cc18:	3c06      	subs	r4, #6
1000cc1a:	7044      	strb	r4, [r0, #1]
1000cc1c:	7084      	strb	r4, [r0, #2]
1000cc1e:	4664      	mov	r4, ip
1000cc20:	70c4      	strb	r4, [r0, #3]
1000cc22:	4c10      	ldr	r4, [pc, #64]	; (1000cc64 <gapc_bond_cfm_handler_pair_resp+0x74>)
1000cc24:	7247      	strb	r7, [r0, #9]
1000cc26:	8823      	ldrh	r3, [r4, #0]
1000cc28:	8824      	ldrh	r4, [r4, #0]
1000cc2a:	7103      	strb	r3, [r0, #4]
1000cc2c:	466b      	mov	r3, sp
1000cc2e:	791b      	ldrb	r3, [r3, #4]
1000cc30:	0a24      	lsrs	r4, r4, #8
1000cc32:	7303      	strb	r3, [r0, #12]
1000cc34:	466b      	mov	r3, sp
1000cc36:	7a1b      	ldrb	r3, [r3, #8]
1000cc38:	7144      	strb	r4, [r0, #5]
1000cc3a:	73c3      	strb	r3, [r0, #15]
1000cc3c:	466b      	mov	r3, sp
1000cc3e:	7b1b      	ldrb	r3, [r3, #12]
1000cc40:	2401      	movs	r4, #1
1000cc42:	7403      	strb	r3, [r0, #16]
1000cc44:	2309      	movs	r3, #9
1000cc46:	7183      	strb	r3, [r0, #6]
1000cc48:	2300      	movs	r3, #0
1000cc4a:	7204      	strb	r4, [r0, #8]
1000cc4c:	7281      	strb	r1, [r0, #10]
1000cc4e:	72c2      	strb	r2, [r0, #11]
1000cc50:	7346      	strb	r6, [r0, #13]
1000cc52:	7385      	strb	r5, [r0, #14]
1000cc54:	71c3      	strb	r3, [r0, #7]
1000cc56:	2111      	movs	r1, #17
1000cc58:	4b03      	ldr	r3, [pc, #12]	; (1000cc68 <gapc_bond_cfm_handler_pair_resp+0x78>)
1000cc5a:	4798      	blx	r3
1000cc5c:	b005      	add	sp, #20
1000cc5e:	bdf0      	pop	{r4, r5, r6, r7, pc}
1000cc60:	10011558 	.word	0x10011558
1000cc64:	100111e8 	.word	0x100111e8
1000cc68:	1000c4b9 	.word	0x1000c4b9

1000cc6c <gapc_bond_cfm_handler_key_exch>:
1000cc6c:	b538      	push	{r3, r4, r5, lr}
1000cc6e:	2514      	movs	r5, #20
1000cc70:	4c0d      	ldr	r4, [pc, #52]	; (1000cca8 <gapc_bond_cfm_handler_key_exch+0x3c>)
1000cc72:	70e3      	strb	r3, [r4, #3]
1000cc74:	4b0d      	ldr	r3, [pc, #52]	; (1000ccac <gapc_bond_cfm_handler_key_exch+0x40>)
1000cc76:	7025      	strb	r5, [r4, #0]
1000cc78:	3d06      	subs	r5, #6
1000cc7a:	7065      	strb	r5, [r4, #1]
1000cc7c:	70a5      	strb	r5, [r4, #2]
1000cc7e:	881d      	ldrh	r5, [r3, #0]
1000cc80:	881b      	ldrh	r3, [r3, #0]
1000cc82:	7220      	strb	r0, [r4, #8]
1000cc84:	0a1b      	lsrs	r3, r3, #8
1000cc86:	7163      	strb	r3, [r4, #5]
1000cc88:	7261      	strb	r1, [r4, #9]
1000cc8a:	4b09      	ldr	r3, [pc, #36]	; (1000ccb0 <gapc_bond_cfm_handler_key_exch+0x44>)
1000cc8c:	1c11      	adds	r1, r2, #0
1000cc8e:	4809      	ldr	r0, [pc, #36]	; (1000ccb4 <gapc_bond_cfm_handler_key_exch+0x48>)
1000cc90:	2210      	movs	r2, #16
1000cc92:	7125      	strb	r5, [r4, #4]
1000cc94:	4798      	blx	r3
1000cc96:	2312      	movs	r3, #18
1000cc98:	71a3      	strb	r3, [r4, #6]
1000cc9a:	2300      	movs	r3, #0
1000cc9c:	1c20      	adds	r0, r4, #0
1000cc9e:	71e3      	strb	r3, [r4, #7]
1000cca0:	211a      	movs	r1, #26
1000cca2:	4b05      	ldr	r3, [pc, #20]	; (1000ccb8 <gapc_bond_cfm_handler_key_exch+0x4c>)
1000cca4:	4798      	blx	r3
1000cca6:	bd38      	pop	{r3, r4, r5, pc}
1000cca8:	10011558 	.word	0x10011558
1000ccac:	100111e8 	.word	0x100111e8
1000ccb0:	1000f017 	.word	0x1000f017
1000ccb4:	10011562 	.word	0x10011562
1000ccb8:	1000c4b9 	.word	0x1000c4b9

1000ccbc <gapc_security_cmd_handler>:
1000ccbc:	221a      	movs	r2, #26
1000ccbe:	b508      	push	{r3, lr}
1000ccc0:	4b0b      	ldr	r3, [pc, #44]	; (1000ccf0 <gapc_security_cmd_handler+0x34>)
1000ccc2:	701a      	strb	r2, [r3, #0]
1000ccc4:	3a0c      	subs	r2, #12
1000ccc6:	705a      	strb	r2, [r3, #1]
1000ccc8:	709a      	strb	r2, [r3, #2]
1000ccca:	4a0a      	ldr	r2, [pc, #40]	; (1000ccf4 <gapc_security_cmd_handler+0x38>)
1000cccc:	70d8      	strb	r0, [r3, #3]
1000ccce:	8810      	ldrh	r0, [r2, #0]
1000ccd0:	8812      	ldrh	r2, [r2, #0]
1000ccd2:	7118      	strb	r0, [r3, #4]
1000ccd4:	0a12      	lsrs	r2, r2, #8
1000ccd6:	715a      	strb	r2, [r3, #5]
1000ccd8:	220c      	movs	r2, #12
1000ccda:	721a      	strb	r2, [r3, #8]
1000ccdc:	3a0a      	subs	r2, #10
1000ccde:	719a      	strb	r2, [r3, #6]
1000cce0:	2200      	movs	r2, #0
1000cce2:	7259      	strb	r1, [r3, #9]
1000cce4:	71da      	strb	r2, [r3, #7]
1000cce6:	1c18      	adds	r0, r3, #0
1000cce8:	210a      	movs	r1, #10
1000ccea:	4b03      	ldr	r3, [pc, #12]	; (1000ccf8 <gapc_security_cmd_handler+0x3c>)
1000ccec:	4798      	blx	r3
1000ccee:	bd08      	pop	{r3, pc}
1000ccf0:	10011558 	.word	0x10011558
1000ccf4:	100111e8 	.word	0x100111e8
1000ccf8:	1000c4b9 	.word	0x1000c4b9

1000ccfc <gapc_encrypt_cmd_handler>:
1000ccfc:	b5f0      	push	{r4, r5, r6, r7, lr}
1000ccfe:	2500      	movs	r5, #0
1000cd00:	b089      	sub	sp, #36	; 0x24
1000cd02:	9306      	str	r3, [sp, #24]
1000cd04:	ab0e      	add	r3, sp, #56	; 0x38
1000cd06:	781b      	ldrb	r3, [r3, #0]
1000cd08:	1c17      	adds	r7, r2, #0
1000cd0a:	9307      	str	r3, [sp, #28]
1000cd0c:	ab0f      	add	r3, sp, #60	; 0x3c
1000cd0e:	781b      	ldrb	r3, [r3, #0]
1000cd10:	4a19      	ldr	r2, [pc, #100]	; (1000cd78 <gapc_encrypt_cmd_handler+0x7c>)
1000cd12:	1c06      	adds	r6, r0, #0
1000cd14:	9105      	str	r1, [sp, #20]
1000cd16:	9300      	str	r3, [sp, #0]
1000cd18:	9002      	str	r0, [sp, #8]
1000cd1a:	1c29      	adds	r1, r5, #0
1000cd1c:	1c2b      	adds	r3, r5, #0
1000cd1e:	9501      	str	r5, [sp, #4]
1000cd20:	1c10      	adds	r0, r2, #0
1000cd22:	4c16      	ldr	r4, [pc, #88]	; (1000cd7c <gapc_encrypt_cmd_handler+0x80>)
1000cd24:	47a0      	blx	r4
1000cd26:	2316      	movs	r3, #22
1000cd28:	4c15      	ldr	r4, [pc, #84]	; (1000cd80 <gapc_encrypt_cmd_handler+0x84>)
1000cd2a:	9905      	ldr	r1, [sp, #20]
1000cd2c:	7023      	strb	r3, [r4, #0]
1000cd2e:	3b08      	subs	r3, #8
1000cd30:	7063      	strb	r3, [r4, #1]
1000cd32:	70a3      	strb	r3, [r4, #2]
1000cd34:	4b13      	ldr	r3, [pc, #76]	; (1000cd84 <gapc_encrypt_cmd_handler+0x88>)
1000cd36:	70e6      	strb	r6, [r4, #3]
1000cd38:	881a      	ldrh	r2, [r3, #0]
1000cd3a:	881b      	ldrh	r3, [r3, #0]
1000cd3c:	7122      	strb	r2, [r4, #4]
1000cd3e:	0a1b      	lsrs	r3, r3, #8
1000cd40:	7163      	strb	r3, [r4, #5]
1000cd42:	230b      	movs	r3, #11
1000cd44:	4e10      	ldr	r6, [pc, #64]	; (1000cd88 <gapc_encrypt_cmd_handler+0x8c>)
1000cd46:	2210      	movs	r2, #16
1000cd48:	4810      	ldr	r0, [pc, #64]	; (1000cd8c <gapc_encrypt_cmd_handler+0x90>)
1000cd4a:	7223      	strb	r3, [r4, #8]
1000cd4c:	7265      	strb	r5, [r4, #9]
1000cd4e:	47b0      	blx	r6
1000cd50:	0a3b      	lsrs	r3, r7, #8
1000cd52:	9906      	ldr	r1, [sp, #24]
1000cd54:	2208      	movs	r2, #8
1000cd56:	480e      	ldr	r0, [pc, #56]	; (1000cd90 <gapc_encrypt_cmd_handler+0x94>)
1000cd58:	76e3      	strb	r3, [r4, #27]
1000cd5a:	76a7      	strb	r7, [r4, #26]
1000cd5c:	47b0      	blx	r6
1000cd5e:	466a      	mov	r2, sp
1000cd60:	7f12      	ldrb	r2, [r2, #28]
1000cd62:	1d63      	adds	r3, r4, #5
1000cd64:	77da      	strb	r2, [r3, #31]
1000cd66:	231d      	movs	r3, #29
1000cd68:	1c20      	adds	r0, r4, #0
1000cd6a:	71a3      	strb	r3, [r4, #6]
1000cd6c:	2125      	movs	r1, #37	; 0x25
1000cd6e:	4b09      	ldr	r3, [pc, #36]	; (1000cd94 <gapc_encrypt_cmd_handler+0x98>)
1000cd70:	71e5      	strb	r5, [r4, #7]
1000cd72:	4798      	blx	r3
1000cd74:	b009      	add	sp, #36	; 0x24
1000cd76:	bdf0      	pop	{r4, r5, r6, r7, pc}
1000cd78:	100104a8 	.word	0x100104a8
1000cd7c:	1000c7b5 	.word	0x1000c7b5
1000cd80:	10011558 	.word	0x10011558
1000cd84:	100111e8 	.word	0x100111e8
1000cd88:	1000f017 	.word	0x1000f017
1000cd8c:	10011562 	.word	0x10011562
1000cd90:	10011574 	.word	0x10011574
1000cd94:	1000c4b9 	.word	0x1000c4b9

1000cd98 <gapc_encrypt_req_ind>:
1000cd98:	b508      	push	{r3, lr}
1000cd9a:	0a00      	lsrs	r0, r0, #8
1000cd9c:	8010      	strh	r0, [r2, #0]
1000cd9e:	784b      	ldrb	r3, [r1, #1]
1000cda0:	7808      	ldrb	r0, [r1, #0]
1000cda2:	021b      	lsls	r3, r3, #8
1000cda4:	4303      	orrs	r3, r0
1000cda6:	8053      	strh	r3, [r2, #2]
1000cda8:	1d10      	adds	r0, r2, #4
1000cdaa:	3102      	adds	r1, #2
1000cdac:	2208      	movs	r2, #8
1000cdae:	4b01      	ldr	r3, [pc, #4]	; (1000cdb4 <gapc_encrypt_req_ind+0x1c>)
1000cdb0:	4798      	blx	r3
1000cdb2:	bd08      	pop	{r3, pc}
1000cdb4:	1000f017 	.word	0x1000f017

1000cdb8 <gapc_encrypt_cfm_handler>:
1000cdb8:	b5f0      	push	{r4, r5, r6, r7, lr}
1000cdba:	2500      	movs	r5, #0
1000cdbc:	b087      	sub	sp, #28
1000cdbe:	9304      	str	r3, [sp, #16]
1000cdc0:	ab0c      	add	r3, sp, #48	; 0x30
1000cdc2:	781b      	ldrb	r3, [r3, #0]
1000cdc4:	1c17      	adds	r7, r2, #0
1000cdc6:	4a15      	ldr	r2, [pc, #84]	; (1000ce1c <gapc_encrypt_cfm_handler+0x64>)
1000cdc8:	1c06      	adds	r6, r0, #0
1000cdca:	9305      	str	r3, [sp, #20]
1000cdcc:	9100      	str	r1, [sp, #0]
1000cdce:	9002      	str	r0, [sp, #8]
1000cdd0:	1c29      	adds	r1, r5, #0
1000cdd2:	1c2b      	adds	r3, r5, #0
1000cdd4:	9501      	str	r5, [sp, #4]
1000cdd6:	1c10      	adds	r0, r2, #0
1000cdd8:	4c11      	ldr	r4, [pc, #68]	; (1000ce20 <gapc_encrypt_cfm_handler+0x68>)
1000cdda:	47a0      	blx	r4
1000cddc:	2318      	movs	r3, #24
1000cdde:	4c11      	ldr	r4, [pc, #68]	; (1000ce24 <gapc_encrypt_cfm_handler+0x6c>)
1000cde0:	9904      	ldr	r1, [sp, #16]
1000cde2:	7023      	strb	r3, [r4, #0]
1000cde4:	3b0a      	subs	r3, #10
1000cde6:	7063      	strb	r3, [r4, #1]
1000cde8:	70a3      	strb	r3, [r4, #2]
1000cdea:	4b0f      	ldr	r3, [pc, #60]	; (1000ce28 <gapc_encrypt_cfm_handler+0x70>)
1000cdec:	480f      	ldr	r0, [pc, #60]	; (1000ce2c <gapc_encrypt_cfm_handler+0x74>)
1000cdee:	881a      	ldrh	r2, [r3, #0]
1000cdf0:	881b      	ldrh	r3, [r3, #0]
1000cdf2:	7122      	strb	r2, [r4, #4]
1000cdf4:	0a1b      	lsrs	r3, r3, #8
1000cdf6:	7163      	strb	r3, [r4, #5]
1000cdf8:	2210      	movs	r2, #16
1000cdfa:	4b0d      	ldr	r3, [pc, #52]	; (1000ce30 <gapc_encrypt_cfm_handler+0x78>)
1000cdfc:	70e6      	strb	r6, [r4, #3]
1000cdfe:	7227      	strb	r7, [r4, #8]
1000ce00:	4798      	blx	r3
1000ce02:	466b      	mov	r3, sp
1000ce04:	7d1b      	ldrb	r3, [r3, #20]
1000ce06:	1c20      	adds	r0, r4, #0
1000ce08:	7663      	strb	r3, [r4, #25]
1000ce0a:	2312      	movs	r3, #18
1000ce0c:	211a      	movs	r1, #26
1000ce0e:	71a3      	strb	r3, [r4, #6]
1000ce10:	4b08      	ldr	r3, [pc, #32]	; (1000ce34 <gapc_encrypt_cfm_handler+0x7c>)
1000ce12:	71e5      	strb	r5, [r4, #7]
1000ce14:	4798      	blx	r3
1000ce16:	b007      	add	sp, #28
1000ce18:	bdf0      	pop	{r4, r5, r6, r7, pc}
1000ce1a:	46c0      	nop			; (mov r8, r8)
1000ce1c:	100104b8 	.word	0x100104b8
1000ce20:	1000c7b5 	.word	0x1000c7b5
1000ce24:	10011558 	.word	0x10011558
1000ce28:	100111e8 	.word	0x100111e8
1000ce2c:	10011561 	.word	0x10011561
1000ce30:	1000f017 	.word	0x1000f017
1000ce34:	1000c4b9 	.word	0x1000c4b9

1000ce38 <gapc_encrypt_ind>:
1000ce38:	780b      	ldrb	r3, [r1, #0]
1000ce3a:	0a00      	lsrs	r0, r0, #8
1000ce3c:	70d3      	strb	r3, [r2, #3]
1000ce3e:	2300      	movs	r3, #0
1000ce40:	8010      	strh	r0, [r2, #0]
1000ce42:	7093      	strb	r3, [r2, #2]
1000ce44:	4770      	bx	lr
	...

1000ce48 <gapc_param_update_cfm_handler>:
1000ce48:	b538      	push	{r3, r4, r5, lr}
1000ce4a:	2410      	movs	r4, #16
1000ce4c:	1c05      	adds	r5, r0, #0
1000ce4e:	480e      	ldr	r0, [pc, #56]	; (1000ce88 <gapc_param_update_cfm_handler+0x40>)
1000ce50:	7004      	strb	r4, [r0, #0]
1000ce52:	3c02      	subs	r4, #2
1000ce54:	7044      	strb	r4, [r0, #1]
1000ce56:	7084      	strb	r4, [r0, #2]
1000ce58:	4c0c      	ldr	r4, [pc, #48]	; (1000ce8c <gapc_param_update_cfm_handler+0x44>)
1000ce5a:	70c5      	strb	r5, [r0, #3]
1000ce5c:	8825      	ldrh	r5, [r4, #0]
1000ce5e:	8824      	ldrh	r4, [r4, #0]
1000ce60:	72c3      	strb	r3, [r0, #11]
1000ce62:	0a1b      	lsrs	r3, r3, #8
1000ce64:	0a24      	lsrs	r4, r4, #8
1000ce66:	7303      	strb	r3, [r0, #12]
1000ce68:	2305      	movs	r3, #5
1000ce6a:	7144      	strb	r4, [r0, #5]
1000ce6c:	2400      	movs	r4, #0
1000ce6e:	7201      	strb	r1, [r0, #8]
1000ce70:	7242      	strb	r2, [r0, #9]
1000ce72:	7183      	strb	r3, [r0, #6]
1000ce74:	0a12      	lsrs	r2, r2, #8
1000ce76:	210d      	movs	r1, #13
1000ce78:	4b05      	ldr	r3, [pc, #20]	; (1000ce90 <gapc_param_update_cfm_handler+0x48>)
1000ce7a:	7105      	strb	r5, [r0, #4]
1000ce7c:	7282      	strb	r2, [r0, #10]
1000ce7e:	71c4      	strb	r4, [r0, #7]
1000ce80:	4798      	blx	r3
1000ce82:	1c20      	adds	r0, r4, #0
1000ce84:	bd38      	pop	{r3, r4, r5, pc}
1000ce86:	46c0      	nop			; (mov r8, r8)
1000ce88:	10011558 	.word	0x10011558
1000ce8c:	100111e8 	.word	0x100111e8
1000ce90:	1000c4b9 	.word	0x1000c4b9

1000ce94 <gapc_param_updated_ind>:
1000ce94:	2300      	movs	r3, #0
1000ce96:	0a00      	lsrs	r0, r0, #8
1000ce98:	8010      	strh	r0, [r2, #0]
1000ce9a:	7093      	strb	r3, [r2, #2]
1000ce9c:	784b      	ldrb	r3, [r1, #1]
1000ce9e:	7808      	ldrb	r0, [r1, #0]
1000cea0:	021b      	lsls	r3, r3, #8
1000cea2:	4303      	orrs	r3, r0
1000cea4:	8093      	strh	r3, [r2, #4]
1000cea6:	78cb      	ldrb	r3, [r1, #3]
1000cea8:	7888      	ldrb	r0, [r1, #2]
1000ceaa:	021b      	lsls	r3, r3, #8
1000ceac:	4303      	orrs	r3, r0
1000ceae:	80d3      	strh	r3, [r2, #6]
1000ceb0:	794b      	ldrb	r3, [r1, #5]
1000ceb2:	7909      	ldrb	r1, [r1, #4]
1000ceb4:	021b      	lsls	r3, r3, #8
1000ceb6:	430b      	orrs	r3, r1
1000ceb8:	2007      	movs	r0, #7
1000ceba:	8113      	strh	r3, [r2, #8]
1000cebc:	4770      	bx	lr

1000cebe <gapc_param_updated_req_ind>:
1000cebe:	0a00      	lsrs	r0, r0, #8
1000cec0:	8010      	strh	r0, [r2, #0]
1000cec2:	784b      	ldrb	r3, [r1, #1]
1000cec4:	7808      	ldrb	r0, [r1, #0]
1000cec6:	021b      	lsls	r3, r3, #8
1000cec8:	4303      	orrs	r3, r0
1000ceca:	8053      	strh	r3, [r2, #2]
1000cecc:	78cb      	ldrb	r3, [r1, #3]
1000cece:	7888      	ldrb	r0, [r1, #2]
1000ced0:	021b      	lsls	r3, r3, #8
1000ced2:	4303      	orrs	r3, r0
1000ced4:	8093      	strh	r3, [r2, #4]
1000ced6:	794b      	ldrb	r3, [r1, #5]
1000ced8:	7908      	ldrb	r0, [r1, #4]
1000ceda:	021b      	lsls	r3, r3, #8
1000cedc:	4303      	orrs	r3, r0
1000cede:	80d3      	strh	r3, [r2, #6]
1000cee0:	79cb      	ldrb	r3, [r1, #7]
1000cee2:	7989      	ldrb	r1, [r1, #6]
1000cee4:	021b      	lsls	r3, r3, #8
1000cee6:	430b      	orrs	r3, r1
1000cee8:	2008      	movs	r0, #8
1000ceea:	8113      	strh	r3, [r2, #8]
1000ceec:	4770      	bx	lr
	...

1000cef0 <gapc_dev_info_req_ind_handler>:
1000cef0:	b508      	push	{r3, lr}
1000cef2:	1c0b      	adds	r3, r1, #0
1000cef4:	0a01      	lsrs	r1, r0, #8
1000cef6:	8011      	strh	r1, [r2, #0]
1000cef8:	7818      	ldrb	r0, [r3, #0]
1000cefa:	7090      	strb	r0, [r2, #2]
1000cefc:	2800      	cmp	r0, #0
1000cefe:	d104      	bne.n	1000cf0a <gapc_dev_info_req_ind_handler+0x1a>
1000cf00:	4b03      	ldr	r3, [pc, #12]	; (1000cf10 <gapc_dev_info_req_ind_handler+0x20>)
1000cf02:	33aa      	adds	r3, #170	; 0xaa
1000cf04:	881b      	ldrh	r3, [r3, #0]
1000cf06:	2b00      	cmp	r3, #0
1000cf08:	d001      	beq.n	1000cf0e <gapc_dev_info_req_ind_handler+0x1e>
1000cf0a:	4b02      	ldr	r3, [pc, #8]	; (1000cf14 <gapc_dev_info_req_ind_handler+0x24>)
1000cf0c:	4798      	blx	r3
1000cf0e:	bd08      	pop	{r3, pc}
1000cf10:	1001127a 	.word	0x1001127a
1000cf14:	1000c5c1 	.word	0x1000c5c1

1000cf18 <gapc_sec_req_ind>:
1000cf18:	0a00      	lsrs	r0, r0, #8
1000cf1a:	8010      	strh	r0, [r2, #0]
1000cf1c:	7809      	ldrb	r1, [r1, #0]
1000cf1e:	2301      	movs	r3, #1
1000cf20:	1c08      	adds	r0, r1, #0
1000cf22:	0889      	lsrs	r1, r1, #2
1000cf24:	4018      	ands	r0, r3
1000cf26:	400b      	ands	r3, r1
1000cf28:	70d0      	strb	r0, [r2, #3]
1000cf2a:	7113      	strb	r3, [r2, #4]
1000cf2c:	4770      	bx	lr

1000cf2e <gapc_sign_counter_ind_handler>:
1000cf2e:	0a00      	lsrs	r0, r0, #8
1000cf30:	8010      	strh	r0, [r2, #0]
1000cf32:	784b      	ldrb	r3, [r1, #1]
1000cf34:	0218      	lsls	r0, r3, #8
1000cf36:	788b      	ldrb	r3, [r1, #2]
1000cf38:	041b      	lsls	r3, r3, #16
1000cf3a:	4303      	orrs	r3, r0
1000cf3c:	7808      	ldrb	r0, [r1, #0]
1000cf3e:	4303      	orrs	r3, r0
1000cf40:	78c8      	ldrb	r0, [r1, #3]
1000cf42:	0600      	lsls	r0, r0, #24
1000cf44:	4303      	orrs	r3, r0
1000cf46:	6053      	str	r3, [r2, #4]
1000cf48:	794b      	ldrb	r3, [r1, #5]
1000cf4a:	0218      	lsls	r0, r3, #8
1000cf4c:	798b      	ldrb	r3, [r1, #6]
1000cf4e:	041b      	lsls	r3, r3, #16
1000cf50:	4303      	orrs	r3, r0
1000cf52:	7908      	ldrb	r0, [r1, #4]
1000cf54:	79c9      	ldrb	r1, [r1, #7]
1000cf56:	4303      	orrs	r3, r0
1000cf58:	0609      	lsls	r1, r1, #24
1000cf5a:	430b      	orrs	r3, r1
1000cf5c:	2000      	movs	r0, #0
1000cf5e:	6093      	str	r3, [r2, #8]
1000cf60:	4770      	bx	lr
	...

1000cf64 <gapc_peer_att_info_ind_handler>:
1000cf64:	b510      	push	{r4, lr}
1000cf66:	0a00      	lsrs	r0, r0, #8
1000cf68:	8010      	strh	r0, [r2, #0]
1000cf6a:	7808      	ldrb	r0, [r1, #0]
1000cf6c:	7090      	strb	r0, [r2, #2]
1000cf6e:	788b      	ldrb	r3, [r1, #2]
1000cf70:	784c      	ldrb	r4, [r1, #1]
1000cf72:	021b      	lsls	r3, r3, #8
1000cf74:	4323      	orrs	r3, r4
1000cf76:	8093      	strh	r3, [r2, #4]
1000cf78:	2801      	cmp	r0, #1
1000cf7a:	d027      	beq.n	1000cfcc <gapc_peer_att_info_ind_handler+0x68>
1000cf7c:	2800      	cmp	r0, #0
1000cf7e:	d017      	beq.n	1000cfb0 <gapc_peer_att_info_ind_handler+0x4c>
1000cf80:	2802      	cmp	r0, #2
1000cf82:	d12a      	bne.n	1000cfda <gapc_peer_att_info_ind_handler+0x76>
1000cf84:	790b      	ldrb	r3, [r1, #4]
1000cf86:	78c8      	ldrb	r0, [r1, #3]
1000cf88:	021b      	lsls	r3, r3, #8
1000cf8a:	4303      	orrs	r3, r0
1000cf8c:	8113      	strh	r3, [r2, #8]
1000cf8e:	798b      	ldrb	r3, [r1, #6]
1000cf90:	7948      	ldrb	r0, [r1, #5]
1000cf92:	021b      	lsls	r3, r3, #8
1000cf94:	4303      	orrs	r3, r0
1000cf96:	80d3      	strh	r3, [r2, #6]
1000cf98:	7a0b      	ldrb	r3, [r1, #8]
1000cf9a:	79c8      	ldrb	r0, [r1, #7]
1000cf9c:	021b      	lsls	r3, r3, #8
1000cf9e:	4303      	orrs	r3, r0
1000cfa0:	8193      	strh	r3, [r2, #12]
1000cfa2:	7a8b      	ldrb	r3, [r1, #10]
1000cfa4:	7a49      	ldrb	r1, [r1, #9]
1000cfa6:	021b      	lsls	r3, r3, #8
1000cfa8:	430b      	orrs	r3, r1
1000cfaa:	8153      	strh	r3, [r2, #10]
1000cfac:	2306      	movs	r3, #6
1000cfae:	e013      	b.n	1000cfd8 <gapc_peer_att_info_ind_handler+0x74>
1000cfb0:	1c14      	adds	r4, r2, #0
1000cfb2:	1c20      	adds	r0, r4, #0
1000cfb4:	790a      	ldrb	r2, [r1, #4]
1000cfb6:	78cb      	ldrb	r3, [r1, #3]
1000cfb8:	0212      	lsls	r2, r2, #8
1000cfba:	431a      	orrs	r2, r3
1000cfbc:	80e2      	strh	r2, [r4, #6]
1000cfbe:	4b07      	ldr	r3, [pc, #28]	; (1000cfdc <gapc_peer_att_info_ind_handler+0x78>)
1000cfc0:	3008      	adds	r0, #8
1000cfc2:	3105      	adds	r1, #5
1000cfc4:	4798      	blx	r3
1000cfc6:	2302      	movs	r3, #2
1000cfc8:	70a3      	strb	r3, [r4, #2]
1000cfca:	e006      	b.n	1000cfda <gapc_peer_att_info_ind_handler+0x76>
1000cfcc:	790b      	ldrb	r3, [r1, #4]
1000cfce:	78c9      	ldrb	r1, [r1, #3]
1000cfd0:	021b      	lsls	r3, r3, #8
1000cfd2:	430b      	orrs	r3, r1
1000cfd4:	80d3      	strh	r3, [r2, #6]
1000cfd6:	2305      	movs	r3, #5
1000cfd8:	7093      	strb	r3, [r2, #2]
1000cfda:	bd10      	pop	{r4, pc}
1000cfdc:	1000f017 	.word	0x1000f017

1000cfe0 <gapc_con_channel_map_ind_handler>:
1000cfe0:	b508      	push	{r3, lr}
1000cfe2:	2300      	movs	r3, #0
1000cfe4:	0a00      	lsrs	r0, r0, #8
1000cfe6:	7013      	strb	r3, [r2, #0]
1000cfe8:	8050      	strh	r0, [r2, #2]
1000cfea:	4b02      	ldr	r3, [pc, #8]	; (1000cff4 <gapc_con_channel_map_ind_handler+0x14>)
1000cfec:	1d10      	adds	r0, r2, #4
1000cfee:	2205      	movs	r2, #5
1000cff0:	4798      	blx	r3
1000cff2:	bd08      	pop	{r3, pc}
1000cff4:	1000f017 	.word	0x1000f017

1000cff8 <gapc_lecb_connected>:
1000cff8:	7843      	ldrb	r3, [r0, #1]
1000cffa:	7802      	ldrb	r2, [r0, #0]
1000cffc:	021b      	lsls	r3, r3, #8
1000cffe:	4313      	orrs	r3, r2
1000d000:	800b      	strh	r3, [r1, #0]
1000d002:	78c3      	ldrb	r3, [r0, #3]
1000d004:	7882      	ldrb	r2, [r0, #2]
1000d006:	021b      	lsls	r3, r3, #8
1000d008:	4313      	orrs	r3, r2
1000d00a:	804b      	strh	r3, [r1, #2]
1000d00c:	7943      	ldrb	r3, [r0, #5]
1000d00e:	7902      	ldrb	r2, [r0, #4]
1000d010:	021b      	lsls	r3, r3, #8
1000d012:	4313      	orrs	r3, r2
1000d014:	808b      	strh	r3, [r1, #4]
1000d016:	79c3      	ldrb	r3, [r0, #7]
1000d018:	7982      	ldrb	r2, [r0, #6]
1000d01a:	021b      	lsls	r3, r3, #8
1000d01c:	4313      	orrs	r3, r2
1000d01e:	80cb      	strh	r3, [r1, #6]
1000d020:	2300      	movs	r3, #0
1000d022:	720b      	strb	r3, [r1, #8]
1000d024:	4770      	bx	lr

1000d026 <gapc_lecb_disconnected>:
1000d026:	7843      	ldrb	r3, [r0, #1]
1000d028:	7802      	ldrb	r2, [r0, #0]
1000d02a:	021b      	lsls	r3, r3, #8
1000d02c:	4313      	orrs	r3, r2
1000d02e:	800b      	strh	r3, [r1, #0]
1000d030:	78c3      	ldrb	r3, [r0, #3]
1000d032:	7882      	ldrb	r2, [r0, #2]
1000d034:	021b      	lsls	r3, r3, #8
1000d036:	4313      	orrs	r3, r2
1000d038:	804b      	strh	r3, [r1, #2]
1000d03a:	4770      	bx	lr

1000d03c <gapc_lecb_connect_req_ind>:
1000d03c:	7843      	ldrb	r3, [r0, #1]
1000d03e:	7802      	ldrb	r2, [r0, #0]
1000d040:	021b      	lsls	r3, r3, #8
1000d042:	4313      	orrs	r3, r2
1000d044:	800b      	strh	r3, [r1, #0]
1000d046:	78c3      	ldrb	r3, [r0, #3]
1000d048:	7882      	ldrb	r2, [r0, #2]
1000d04a:	021b      	lsls	r3, r3, #8
1000d04c:	4313      	orrs	r3, r2
1000d04e:	804b      	strh	r3, [r1, #2]
1000d050:	7943      	ldrb	r3, [r0, #5]
1000d052:	7902      	ldrb	r2, [r0, #4]
1000d054:	021b      	lsls	r3, r3, #8
1000d056:	4313      	orrs	r3, r2
1000d058:	808b      	strh	r3, [r1, #4]
1000d05a:	79c3      	ldrb	r3, [r0, #7]
1000d05c:	7982      	ldrb	r2, [r0, #6]
1000d05e:	021b      	lsls	r3, r3, #8
1000d060:	4313      	orrs	r3, r2
1000d062:	80cb      	strh	r3, [r1, #6]
1000d064:	4770      	bx	lr

1000d066 <gapc_lecb_add_credit_resp_handler>:
1000d066:	7843      	ldrb	r3, [r0, #1]
1000d068:	7802      	ldrb	r2, [r0, #0]
1000d06a:	021b      	lsls	r3, r3, #8
1000d06c:	4313      	orrs	r3, r2
1000d06e:	800b      	strh	r3, [r1, #0]
1000d070:	78c3      	ldrb	r3, [r0, #3]
1000d072:	7882      	ldrb	r2, [r0, #2]
1000d074:	021b      	lsls	r3, r3, #8
1000d076:	4313      	orrs	r3, r2
1000d078:	804b      	strh	r3, [r1, #2]
1000d07a:	7943      	ldrb	r3, [r0, #5]
1000d07c:	7902      	ldrb	r2, [r0, #4]
1000d07e:	021b      	lsls	r3, r3, #8
1000d080:	4313      	orrs	r3, r2
1000d082:	808b      	strh	r3, [r1, #4]
1000d084:	4770      	bx	lr
	...

1000d088 <gapm_reset_req_handler>:
1000d088:	b573      	push	{r0, r1, r4, r5, r6, lr}
1000d08a:	466b      	mov	r3, sp
1000d08c:	4915      	ldr	r1, [pc, #84]	; (1000d0e4 <gapm_reset_req_handler+0x5c>)
1000d08e:	4816      	ldr	r0, [pc, #88]	; (1000d0e8 <gapm_reset_req_handler+0x60>)
1000d090:	880c      	ldrh	r4, [r1, #0]
1000d092:	8809      	ldrh	r1, [r1, #0]
1000d094:	1ddd      	adds	r5, r3, #7
1000d096:	0a09      	lsrs	r1, r1, #8
1000d098:	2300      	movs	r3, #0
1000d09a:	2202      	movs	r2, #2
1000d09c:	7141      	strb	r1, [r0, #5]
1000d09e:	26d0      	movs	r6, #208	; 0xd0
1000d0a0:	2101      	movs	r1, #1
1000d0a2:	7104      	strb	r4, [r0, #4]
1000d0a4:	4c11      	ldr	r4, [pc, #68]	; (1000d0ec <gapm_reset_req_handler+0x64>)
1000d0a6:	702b      	strb	r3, [r5, #0]
1000d0a8:	7002      	strb	r2, [r0, #0]
1000d0aa:	70c3      	strb	r3, [r0, #3]
1000d0ac:	320b      	adds	r2, #11
1000d0ae:	7201      	strb	r1, [r0, #8]
1000d0b0:	7181      	strb	r1, [r0, #6]
1000d0b2:	71c3      	strb	r3, [r0, #7]
1000d0b4:	3108      	adds	r1, #8
1000d0b6:	4b0e      	ldr	r3, [pc, #56]	; (1000d0f0 <gapm_reset_req_handler+0x68>)
1000d0b8:	0136      	lsls	r6, r6, #4
1000d0ba:	7042      	strb	r2, [r0, #1]
1000d0bc:	7082      	strb	r2, [r0, #2]
1000d0be:	80a2      	strh	r2, [r4, #4]
1000d0c0:	8026      	strh	r6, [r4, #0]
1000d0c2:	4798      	blx	r3
1000d0c4:	1c28      	adds	r0, r5, #0
1000d0c6:	4b0b      	ldr	r3, [pc, #44]	; (1000d0f4 <gapm_reset_req_handler+0x6c>)
1000d0c8:	4798      	blx	r3
1000d0ca:	782b      	ldrb	r3, [r5, #0]
1000d0cc:	20e2      	movs	r0, #226	; 0xe2
1000d0ce:	2b00      	cmp	r3, #0
1000d0d0:	d106      	bne.n	1000d0e0 <gapm_reset_req_handler+0x58>
1000d0d2:	68a3      	ldr	r3, [r4, #8]
1000d0d4:	20e2      	movs	r0, #226	; 0xe2
1000d0d6:	781a      	ldrb	r2, [r3, #0]
1000d0d8:	785b      	ldrb	r3, [r3, #1]
1000d0da:	2a01      	cmp	r2, #1
1000d0dc:	d100      	bne.n	1000d0e0 <gapm_reset_req_handler+0x58>
1000d0de:	1c18      	adds	r0, r3, #0
1000d0e0:	bd76      	pop	{r1, r2, r4, r5, r6, pc}
1000d0e2:	46c0      	nop			; (mov r8, r8)
1000d0e4:	100111e8 	.word	0x100111e8
1000d0e8:	10011558 	.word	0x10011558
1000d0ec:	100111dc 	.word	0x100111dc
1000d0f0:	1000c4b9 	.word	0x1000c4b9
1000d0f4:	1000c515 	.word	0x1000c515

1000d0f8 <gapm_set_dev_config_cmd_handler>:
1000d0f8:	b5f0      	push	{r4, r5, r6, r7, lr}
1000d0fa:	b089      	sub	sp, #36	; 0x24
1000d0fc:	9303      	str	r3, [sp, #12]
1000d0fe:	ab0e      	add	r3, sp, #56	; 0x38
1000d100:	781b      	ldrb	r3, [r3, #0]
1000d102:	4c37      	ldr	r4, [pc, #220]	; (1000d1e0 <gapm_set_dev_config_cmd_handler+0xe8>)
1000d104:	9304      	str	r3, [sp, #16]
1000d106:	ab0f      	add	r3, sp, #60	; 0x3c
1000d108:	781b      	ldrb	r3, [r3, #0]
1000d10a:	270d      	movs	r7, #13
1000d10c:	9305      	str	r3, [sp, #20]
1000d10e:	ab10      	add	r3, sp, #64	; 0x40
1000d110:	881b      	ldrh	r3, [r3, #0]
1000d112:	72a1      	strb	r1, [r4, #10]
1000d114:	9300      	str	r3, [sp, #0]
1000d116:	ab11      	add	r3, sp, #68	; 0x44
1000d118:	881b      	ldrh	r3, [r3, #0]
1000d11a:	0a09      	lsrs	r1, r1, #8
1000d11c:	9301      	str	r3, [sp, #4]
1000d11e:	ab12      	add	r3, sp, #72	; 0x48
1000d120:	881b      	ldrh	r3, [r3, #0]
1000d122:	7260      	strb	r0, [r4, #9]
1000d124:	9302      	str	r3, [sp, #8]
1000d126:	ab06      	add	r3, sp, #24
1000d128:	1dde      	adds	r6, r3, #7
1000d12a:	2300      	movs	r3, #0
1000d12c:	7033      	strb	r3, [r6, #0]
1000d12e:	2304      	movs	r3, #4
1000d130:	7023      	strb	r3, [r4, #0]
1000d132:	2300      	movs	r3, #0
1000d134:	70e3      	strb	r3, [r4, #3]
1000d136:	4b2b      	ldr	r3, [pc, #172]	; (1000d1e4 <gapm_set_dev_config_cmd_handler+0xec>)
1000d138:	72e1      	strb	r1, [r4, #11]
1000d13a:	881d      	ldrh	r5, [r3, #0]
1000d13c:	881b      	ldrh	r3, [r3, #0]
1000d13e:	1c11      	adds	r1, r2, #0
1000d140:	0a1b      	lsrs	r3, r3, #8
1000d142:	7163      	strb	r3, [r4, #5]
1000d144:	2303      	movs	r3, #3
1000d146:	7125      	strb	r5, [r4, #4]
1000d148:	2206      	movs	r2, #6
1000d14a:	4d27      	ldr	r5, [pc, #156]	; (1000d1e8 <gapm_set_dev_config_cmd_handler+0xf0>)
1000d14c:	4827      	ldr	r0, [pc, #156]	; (1000d1ec <gapm_set_dev_config_cmd_handler+0xf4>)
1000d14e:	7223      	strb	r3, [r4, #8]
1000d150:	7067      	strb	r7, [r4, #1]
1000d152:	70a7      	strb	r7, [r4, #2]
1000d154:	47a8      	blx	r5
1000d156:	9903      	ldr	r1, [sp, #12]
1000d158:	2210      	movs	r2, #16
1000d15a:	4825      	ldr	r0, [pc, #148]	; (1000d1f0 <gapm_set_dev_config_cmd_handler+0xf8>)
1000d15c:	47a8      	blx	r5
1000d15e:	466a      	mov	r2, sp
1000d160:	7c12      	ldrb	r2, [r2, #16]
1000d162:	1ce3      	adds	r3, r4, #3
1000d164:	77da      	strb	r2, [r3, #31]
1000d166:	466a      	mov	r2, sp
1000d168:	7d12      	ldrb	r2, [r2, #20]
1000d16a:	1d23      	adds	r3, r4, #4
1000d16c:	77da      	strb	r2, [r3, #31]
1000d16e:	466a      	mov	r2, sp
1000d170:	7812      	ldrb	r2, [r2, #0]
1000d172:	1d63      	adds	r3, r4, #5
1000d174:	77da      	strb	r2, [r3, #31]
1000d176:	9b00      	ldr	r3, [sp, #0]
1000d178:	1da2      	adds	r2, r4, #6
1000d17a:	0a1b      	lsrs	r3, r3, #8
1000d17c:	77d3      	strb	r3, [r2, #31]
1000d17e:	466a      	mov	r2, sp
1000d180:	7912      	ldrb	r2, [r2, #4]
1000d182:	1de3      	adds	r3, r4, #7
1000d184:	77da      	strb	r2, [r3, #31]
1000d186:	1c22      	adds	r2, r4, #0
1000d188:	9b01      	ldr	r3, [sp, #4]
1000d18a:	3208      	adds	r2, #8
1000d18c:	0a1b      	lsrs	r3, r3, #8
1000d18e:	77d3      	strb	r3, [r2, #31]
1000d190:	466a      	mov	r2, sp
1000d192:	1c23      	adds	r3, r4, #0
1000d194:	7a12      	ldrb	r2, [r2, #8]
1000d196:	3328      	adds	r3, #40	; 0x28
1000d198:	701a      	strb	r2, [r3, #0]
1000d19a:	1c22      	adds	r2, r4, #0
1000d19c:	9b02      	ldr	r3, [sp, #8]
1000d19e:	3229      	adds	r2, #41	; 0x29
1000d1a0:	0a1b      	lsrs	r3, r3, #8
1000d1a2:	7013      	strb	r3, [r2, #0]
1000d1a4:	23d0      	movs	r3, #208	; 0xd0
1000d1a6:	4d13      	ldr	r5, [pc, #76]	; (1000d1f4 <gapm_set_dev_config_cmd_handler+0xfc>)
1000d1a8:	011b      	lsls	r3, r3, #4
1000d1aa:	802b      	strh	r3, [r5, #0]
1000d1ac:	2322      	movs	r3, #34	; 0x22
1000d1ae:	71a3      	strb	r3, [r4, #6]
1000d1b0:	2300      	movs	r3, #0
1000d1b2:	212a      	movs	r1, #42	; 0x2a
1000d1b4:	71e3      	strb	r3, [r4, #7]
1000d1b6:	1c20      	adds	r0, r4, #0
1000d1b8:	4b0f      	ldr	r3, [pc, #60]	; (1000d1f8 <gapm_set_dev_config_cmd_handler+0x100>)
1000d1ba:	80af      	strh	r7, [r5, #4]
1000d1bc:	4798      	blx	r3
1000d1be:	1c30      	adds	r0, r6, #0
1000d1c0:	4b0e      	ldr	r3, [pc, #56]	; (1000d1fc <gapm_set_dev_config_cmd_handler+0x104>)
1000d1c2:	4798      	blx	r3
1000d1c4:	7833      	ldrb	r3, [r6, #0]
1000d1c6:	20e2      	movs	r0, #226	; 0xe2
1000d1c8:	2b00      	cmp	r3, #0
1000d1ca:	d106      	bne.n	1000d1da <gapm_set_dev_config_cmd_handler+0xe2>
1000d1cc:	68ab      	ldr	r3, [r5, #8]
1000d1ce:	20e2      	movs	r0, #226	; 0xe2
1000d1d0:	781a      	ldrb	r2, [r3, #0]
1000d1d2:	785b      	ldrb	r3, [r3, #1]
1000d1d4:	2a03      	cmp	r2, #3
1000d1d6:	d100      	bne.n	1000d1da <gapm_set_dev_config_cmd_handler+0xe2>
1000d1d8:	1c18      	adds	r0, r3, #0
1000d1da:	b009      	add	sp, #36	; 0x24
1000d1dc:	bdf0      	pop	{r4, r5, r6, r7, pc}
1000d1de:	46c0      	nop			; (mov r8, r8)
1000d1e0:	10011558 	.word	0x10011558
1000d1e4:	100111e8 	.word	0x100111e8
1000d1e8:	1000f017 	.word	0x1000f017
1000d1ec:	10011564 	.word	0x10011564
1000d1f0:	1001156a 	.word	0x1001156a
1000d1f4:	100111dc 	.word	0x100111dc
1000d1f8:	1000c4b9 	.word	0x1000c4b9
1000d1fc:	1000c515 	.word	0x1000c515

1000d200 <gapm_get_dev_config_cmd_handler>:
1000d200:	4684      	mov	ip, r0
1000d202:	4663      	mov	r3, ip
1000d204:	b5f0      	push	{r4, r5, r6, r7, lr}
1000d206:	b085      	sub	sp, #20
1000d208:	9100      	str	r1, [sp, #0]
1000d20a:	20cf      	movs	r0, #207	; 0xcf
1000d20c:	2b01      	cmp	r3, #1
1000d20e:	d854      	bhi.n	1000d2ba <gapm_get_dev_config_cmd_handler+0xba>
1000d210:	2900      	cmp	r1, #0
1000d212:	d052      	beq.n	1000d2ba <gapm_get_dev_config_cmd_handler+0xba>
1000d214:	2200      	movs	r2, #0
1000d216:	492a      	ldr	r1, [pc, #168]	; (1000d2c0 <gapm_get_dev_config_cmd_handler+0xc0>)
1000d218:	ab02      	add	r3, sp, #8
1000d21a:	880c      	ldrh	r4, [r1, #0]
1000d21c:	8809      	ldrh	r1, [r1, #0]
1000d21e:	1d9f      	adds	r7, r3, #6
1000d220:	719a      	strb	r2, [r3, #6]
1000d222:	4b28      	ldr	r3, [pc, #160]	; (1000d2c4 <gapm_get_dev_config_cmd_handler+0xc4>)
1000d224:	0a09      	lsrs	r1, r1, #8
1000d226:	250d      	movs	r5, #13
1000d228:	2606      	movs	r6, #6
1000d22a:	7159      	strb	r1, [r3, #5]
1000d22c:	4661      	mov	r1, ip
1000d22e:	701e      	strb	r6, [r3, #0]
1000d230:	705d      	strb	r5, [r3, #1]
1000d232:	709d      	strb	r5, [r3, #2]
1000d234:	70da      	strb	r2, [r3, #3]
1000d236:	711c      	strb	r4, [r3, #4]
1000d238:	2901      	cmp	r1, #1
1000d23a:	d13e      	bne.n	1000d2ba <gapm_get_dev_config_cmd_handler+0xba>
1000d23c:	21d0      	movs	r1, #208	; 0xd0
1000d23e:	4c22      	ldr	r4, [pc, #136]	; (1000d2c8 <gapm_get_dev_config_cmd_handler+0xc8>)
1000d240:	0109      	lsls	r1, r1, #4
1000d242:	8061      	strh	r1, [r4, #2]
1000d244:	4921      	ldr	r1, [pc, #132]	; (1000d2cc <gapm_get_dev_config_cmd_handler+0xcc>)
1000d246:	71da      	strb	r2, [r3, #7]
1000d248:	8021      	strh	r1, [r4, #0]
1000d24a:	4661      	mov	r1, ip
1000d24c:	721e      	strb	r6, [r3, #8]
1000d24e:	7199      	strb	r1, [r3, #6]
1000d250:	1c18      	adds	r0, r3, #0
1000d252:	2109      	movs	r1, #9
1000d254:	4b1e      	ldr	r3, [pc, #120]	; (1000d2d0 <gapm_get_dev_config_cmd_handler+0xd0>)
1000d256:	80a5      	strh	r5, [r4, #4]
1000d258:	4798      	blx	r3
1000d25a:	1c38      	adds	r0, r7, #0
1000d25c:	4b1d      	ldr	r3, [pc, #116]	; (1000d2d4 <gapm_get_dev_config_cmd_handler+0xd4>)
1000d25e:	4798      	blx	r3
1000d260:	783b      	ldrb	r3, [r7, #0]
1000d262:	20e2      	movs	r0, #226	; 0xe2
1000d264:	9301      	str	r3, [sp, #4]
1000d266:	2b00      	cmp	r3, #0
1000d268:	d127      	bne.n	1000d2ba <gapm_get_dev_config_cmd_handler+0xba>
1000d26a:	8821      	ldrh	r1, [r4, #0]
1000d26c:	4a1a      	ldr	r2, [pc, #104]	; (1000d2d8 <gapm_get_dev_config_cmd_handler+0xd8>)
1000d26e:	68a7      	ldr	r7, [r4, #8]
1000d270:	3b01      	subs	r3, #1
1000d272:	4291      	cmp	r1, r2
1000d274:	d001      	beq.n	1000d27a <gapm_get_dev_config_cmd_handler+0x7a>
1000d276:	8023      	strh	r3, [r4, #0]
1000d278:	e01a      	b.n	1000d2b0 <gapm_get_dev_config_cmd_handler+0xb0>
1000d27a:	8063      	strh	r3, [r4, #2]
1000d27c:	9b00      	ldr	r3, [sp, #0]
1000d27e:	1c39      	adds	r1, r7, #0
1000d280:	1c58      	adds	r0, r3, #1
1000d282:	1c32      	adds	r2, r6, #0
1000d284:	4b15      	ldr	r3, [pc, #84]	; (1000d2dc <gapm_get_dev_config_cmd_handler+0xdc>)
1000d286:	4798      	blx	r3
1000d288:	79bb      	ldrb	r3, [r7, #6]
1000d28a:	9a00      	ldr	r2, [sp, #0]
1000d28c:	7013      	strb	r3, [r2, #0]
1000d28e:	23d0      	movs	r3, #208	; 0xd0
1000d290:	011b      	lsls	r3, r3, #4
1000d292:	8023      	strh	r3, [r4, #0]
1000d294:	ab02      	add	r3, sp, #8
1000d296:	80a5      	strh	r5, [r4, #4]
1000d298:	1ddd      	adds	r5, r3, #7
1000d29a:	466b      	mov	r3, sp
1000d29c:	791b      	ldrb	r3, [r3, #4]
1000d29e:	1c28      	adds	r0, r5, #0
1000d2a0:	702b      	strb	r3, [r5, #0]
1000d2a2:	4b0c      	ldr	r3, [pc, #48]	; (1000d2d4 <gapm_get_dev_config_cmd_handler+0xd4>)
1000d2a4:	4798      	blx	r3
1000d2a6:	782b      	ldrb	r3, [r5, #0]
1000d2a8:	20d0      	movs	r0, #208	; 0xd0
1000d2aa:	2b00      	cmp	r3, #0
1000d2ac:	d105      	bne.n	1000d2ba <gapm_get_dev_config_cmd_handler+0xba>
1000d2ae:	68a7      	ldr	r7, [r4, #8]
1000d2b0:	783b      	ldrb	r3, [r7, #0]
1000d2b2:	7878      	ldrb	r0, [r7, #1]
1000d2b4:	2b06      	cmp	r3, #6
1000d2b6:	d000      	beq.n	1000d2ba <gapm_get_dev_config_cmd_handler+0xba>
1000d2b8:	20e2      	movs	r0, #226	; 0xe2
1000d2ba:	b005      	add	sp, #20
1000d2bc:	bdf0      	pop	{r4, r5, r6, r7, pc}
1000d2be:	46c0      	nop			; (mov r8, r8)
1000d2c0:	100111e8 	.word	0x100111e8
1000d2c4:	10011558 	.word	0x10011558
1000d2c8:	100111dc 	.word	0x100111dc
1000d2cc:	00000d08 	.word	0x00000d08
1000d2d0:	1000c4b9 	.word	0x1000c4b9
1000d2d4:	1000c515 	.word	0x1000c515
1000d2d8:	0000ffff 	.word	0x0000ffff
1000d2dc:	1000f017 	.word	0x1000f017

1000d2e0 <gapm_cancel_cmd_handler>:
1000d2e0:	b537      	push	{r0, r1, r2, r4, r5, lr}
1000d2e2:	4916      	ldr	r1, [pc, #88]	; (1000d33c <gapm_cancel_cmd_handler+0x5c>)
1000d2e4:	4816      	ldr	r0, [pc, #88]	; (1000d340 <gapm_cancel_cmd_handler+0x60>)
1000d2e6:	880c      	ldrh	r4, [r1, #0]
1000d2e8:	8809      	ldrh	r1, [r1, #0]
1000d2ea:	466b      	mov	r3, sp
1000d2ec:	0a09      	lsrs	r1, r1, #8
1000d2ee:	7141      	strb	r1, [r0, #5]
1000d2f0:	2102      	movs	r1, #2
1000d2f2:	2203      	movs	r2, #3
1000d2f4:	7201      	strb	r1, [r0, #8]
1000d2f6:	21d0      	movs	r1, #208	; 0xd0
1000d2f8:	1ddd      	adds	r5, r3, #7
1000d2fa:	2300      	movs	r3, #0
1000d2fc:	7104      	strb	r4, [r0, #4]
1000d2fe:	4c11      	ldr	r4, [pc, #68]	; (1000d344 <gapm_cancel_cmd_handler+0x64>)
1000d300:	7002      	strb	r2, [r0, #0]
1000d302:	0109      	lsls	r1, r1, #4
1000d304:	320a      	adds	r2, #10
1000d306:	702b      	strb	r3, [r5, #0]
1000d308:	7042      	strb	r2, [r0, #1]
1000d30a:	7082      	strb	r2, [r0, #2]
1000d30c:	70c3      	strb	r3, [r0, #3]
1000d30e:	8021      	strh	r1, [r4, #0]
1000d310:	80a2      	strh	r2, [r4, #4]
1000d312:	71c3      	strb	r3, [r0, #7]
1000d314:	3a0c      	subs	r2, #12
1000d316:	2109      	movs	r1, #9
1000d318:	4b0b      	ldr	r3, [pc, #44]	; (1000d348 <gapm_cancel_cmd_handler+0x68>)
1000d31a:	7182      	strb	r2, [r0, #6]
1000d31c:	4798      	blx	r3
1000d31e:	1c28      	adds	r0, r5, #0
1000d320:	4b0a      	ldr	r3, [pc, #40]	; (1000d34c <gapm_cancel_cmd_handler+0x6c>)
1000d322:	4798      	blx	r3
1000d324:	7828      	ldrb	r0, [r5, #0]
1000d326:	2800      	cmp	r0, #0
1000d328:	d001      	beq.n	1000d32e <gapm_cancel_cmd_handler+0x4e>
1000d32a:	20e2      	movs	r0, #226	; 0xe2
1000d32c:	e004      	b.n	1000d338 <gapm_cancel_cmd_handler+0x58>
1000d32e:	68a3      	ldr	r3, [r4, #8]
1000d330:	785b      	ldrb	r3, [r3, #1]
1000d332:	2b44      	cmp	r3, #68	; 0x44
1000d334:	d000      	beq.n	1000d338 <gapm_cancel_cmd_handler+0x58>
1000d336:	1c18      	adds	r0, r3, #0
1000d338:	bd3e      	pop	{r1, r2, r3, r4, r5, pc}
1000d33a:	46c0      	nop			; (mov r8, r8)
1000d33c:	100111e8 	.word	0x100111e8
1000d340:	10011558 	.word	0x10011558
1000d344:	100111dc 	.word	0x100111dc
1000d348:	1000c4b9 	.word	0x1000c4b9
1000d34c:	1000c515 	.word	0x1000c515

1000d350 <gapm_dev_bdaddr_ind_handler>:
1000d350:	b538      	push	{r3, r4, r5, lr}
1000d352:	1c05      	adds	r5, r0, #0
1000d354:	1c0c      	adds	r4, r1, #0
1000d356:	1c48      	adds	r0, r1, #1
1000d358:	2206      	movs	r2, #6
1000d35a:	1c29      	adds	r1, r5, #0
1000d35c:	4b02      	ldr	r3, [pc, #8]	; (1000d368 <gapm_dev_bdaddr_ind_handler+0x18>)
1000d35e:	4798      	blx	r3
1000d360:	79ab      	ldrb	r3, [r5, #6]
1000d362:	2000      	movs	r0, #0
1000d364:	7023      	strb	r3, [r4, #0]
1000d366:	bd38      	pop	{r3, r4, r5, pc}
1000d368:	1000f017 	.word	0x1000f017

1000d36c <gapm_cmp_evt>:
1000d36c:	b5f7      	push	{r0, r1, r2, r4, r5, r6, r7, lr}
1000d36e:	7803      	ldrb	r3, [r0, #0]
1000d370:	7845      	ldrb	r5, [r0, #1]
1000d372:	3b0c      	subs	r3, #12
1000d374:	1e18      	subs	r0, r3, #0
1000d376:	280b      	cmp	r0, #11
1000d378:	d900      	bls.n	1000d37c <gapm_cmp_evt+0x10>
1000d37a:	e08d      	b.n	1000d498 <gapm_cmp_evt+0x12c>
1000d37c:	1c0c      	adds	r4, r1, #0
1000d37e:	f000 fd5f 	bl	1000de40 <__gnu_thumb1_case_uqi>
1000d382:	1952      	.short	0x1952
1000d384:	068b1919 	.word	0x068b1919
1000d388:	8b595906 	.word	0x8b595906
1000d38c:	0d8b      	.short	0x0d8b
1000d38e:	2300      	movs	r3, #0
1000d390:	2d45      	cmp	r5, #69	; 0x45
1000d392:	d000      	beq.n	1000d396 <gapm_cmp_evt+0x2a>
1000d394:	1c2b      	adds	r3, r5, #0
1000d396:	7023      	strb	r3, [r4, #0]
1000d398:	2002      	movs	r0, #2
1000d39a:	e07e      	b.n	1000d49a <gapm_cmp_evt+0x12e>
1000d39c:	203b      	movs	r0, #59	; 0x3b
1000d39e:	2d00      	cmp	r5, #0
1000d3a0:	d100      	bne.n	1000d3a4 <gapm_cmp_evt+0x38>
1000d3a2:	e07a      	b.n	1000d49a <gapm_cmp_evt+0x12e>
1000d3a4:	700d      	strb	r5, [r1, #0]
1000d3a6:	1c48      	adds	r0, r1, #1
1000d3a8:	2210      	movs	r2, #16
1000d3aa:	2100      	movs	r1, #0
1000d3ac:	4b3b      	ldr	r3, [pc, #236]	; (1000d49c <gapm_cmp_evt+0x130>)
1000d3ae:	4798      	blx	r3
1000d3b0:	200f      	movs	r0, #15
1000d3b2:	e072      	b.n	1000d49a <gapm_cmp_evt+0x12e>
1000d3b4:	2d00      	cmp	r5, #0
1000d3b6:	d134      	bne.n	1000d422 <gapm_cmp_evt+0xb6>
1000d3b8:	4b39      	ldr	r3, [pc, #228]	; (1000d4a0 <gapm_cmp_evt+0x134>)
1000d3ba:	4798      	blx	r3
1000d3bc:	1e43      	subs	r3, r0, #1
1000d3be:	b2db      	uxtb	r3, r3
1000d3c0:	1c28      	adds	r0, r5, #0
1000d3c2:	2b06      	cmp	r3, #6
1000d3c4:	d869      	bhi.n	1000d49a <gapm_cmp_evt+0x12e>
1000d3c6:	466b      	mov	r3, sp
1000d3c8:	4e36      	ldr	r6, [pc, #216]	; (1000d4a4 <gapm_cmp_evt+0x138>)
1000d3ca:	1dd9      	adds	r1, r3, #7
1000d3cc:	8db0      	ldrh	r0, [r6, #44]	; 0x2c
1000d3ce:	4b36      	ldr	r3, [pc, #216]	; (1000d4a8 <gapm_cmp_evt+0x13c>)
1000d3d0:	4798      	blx	r3
1000d3d2:	2312      	movs	r3, #18
1000d3d4:	4358      	muls	r0, r3
1000d3d6:	4935      	ldr	r1, [pc, #212]	; (1000d4ac <gapm_cmp_evt+0x140>)
1000d3d8:	1809      	adds	r1, r1, r0
1000d3da:	1c0b      	adds	r3, r1, #0
1000d3dc:	894a      	ldrh	r2, [r1, #10]
1000d3de:	3308      	adds	r3, #8
1000d3e0:	8122      	strh	r2, [r4, #8]
1000d3e2:	784f      	ldrb	r7, [r1, #1]
1000d3e4:	72a5      	strb	r5, [r4, #10]
1000d3e6:	7027      	strb	r7, [r4, #0]
1000d3e8:	898a      	ldrh	r2, [r1, #12]
1000d3ea:	1c60      	adds	r0, r4, #1
1000d3ec:	81a2      	strh	r2, [r4, #12]
1000d3ee:	88db      	ldrh	r3, [r3, #6]
1000d3f0:	3102      	adds	r1, #2
1000d3f2:	81e3      	strh	r3, [r4, #14]
1000d3f4:	89cb      	ldrh	r3, [r1, #14]
1000d3f6:	2206      	movs	r2, #6
1000d3f8:	8223      	strh	r3, [r4, #16]
1000d3fa:	4b2d      	ldr	r3, [pc, #180]	; (1000d4b0 <gapm_cmp_evt+0x144>)
1000d3fc:	4798      	blx	r3
1000d3fe:	2f00      	cmp	r7, #0
1000d400:	d00a      	beq.n	1000d418 <gapm_cmp_evt+0xac>
1000d402:	79a3      	ldrb	r3, [r4, #6]
1000d404:	223f      	movs	r2, #63	; 0x3f
1000d406:	1c19      	adds	r1, r3, #0
1000d408:	3501      	adds	r5, #1
1000d40a:	4391      	bics	r1, r2
1000d40c:	29c0      	cmp	r1, #192	; 0xc0
1000d40e:	d003      	beq.n	1000d418 <gapm_cmp_evt+0xac>
1000d410:	065b      	lsls	r3, r3, #25
1000d412:	0fdb      	lsrs	r3, r3, #31
1000d414:	3502      	adds	r5, #2
1000d416:	1aed      	subs	r5, r5, r3
1000d418:	2301      	movs	r3, #1
1000d41a:	425b      	negs	r3, r3
1000d41c:	7025      	strb	r5, [r4, #0]
1000d41e:	85b3      	strh	r3, [r6, #44]	; 0x2c
1000d420:	e038      	b.n	1000d494 <gapm_cmp_evt+0x128>
1000d422:	700d      	strb	r5, [r1, #0]
1000d424:	e004      	b.n	1000d430 <gapm_cmp_evt+0xc4>
1000d426:	2300      	movs	r3, #0
1000d428:	2d45      	cmp	r5, #69	; 0x45
1000d42a:	d000      	beq.n	1000d42e <gapm_cmp_evt+0xc2>
1000d42c:	1c2b      	adds	r3, r5, #0
1000d42e:	7023      	strb	r3, [r4, #0]
1000d430:	2003      	movs	r0, #3
1000d432:	e032      	b.n	1000d49a <gapm_cmp_evt+0x12e>
1000d434:	4e1b      	ldr	r6, [pc, #108]	; (1000d4a4 <gapm_cmp_evt+0x138>)
1000d436:	2100      	movs	r1, #0
1000d438:	8db0      	ldrh	r0, [r6, #44]	; 0x2c
1000d43a:	4b1b      	ldr	r3, [pc, #108]	; (1000d4a8 <gapm_cmp_evt+0x13c>)
1000d43c:	4798      	blx	r3
1000d43e:	2807      	cmp	r0, #7
1000d440:	d818      	bhi.n	1000d474 <gapm_cmp_evt+0x108>
1000d442:	2301      	movs	r3, #1
1000d444:	425b      	negs	r3, r3
1000d446:	85b3      	strh	r3, [r6, #44]	; 0x2c
1000d448:	3313      	adds	r3, #19
1000d44a:	4358      	muls	r0, r3
1000d44c:	4917      	ldr	r1, [pc, #92]	; (1000d4ac <gapm_cmp_evt+0x140>)
1000d44e:	1809      	adds	r1, r1, r0
1000d450:	1c0b      	adds	r3, r1, #0
1000d452:	894a      	ldrh	r2, [r1, #10]
1000d454:	3308      	adds	r3, #8
1000d456:	8122      	strh	r2, [r4, #8]
1000d458:	784a      	ldrb	r2, [r1, #1]
1000d45a:	72a5      	strb	r5, [r4, #10]
1000d45c:	7022      	strb	r2, [r4, #0]
1000d45e:	898a      	ldrh	r2, [r1, #12]
1000d460:	1c60      	adds	r0, r4, #1
1000d462:	81a2      	strh	r2, [r4, #12]
1000d464:	88db      	ldrh	r3, [r3, #6]
1000d466:	3102      	adds	r1, #2
1000d468:	81e3      	strh	r3, [r4, #14]
1000d46a:	89cb      	ldrh	r3, [r1, #14]
1000d46c:	2206      	movs	r2, #6
1000d46e:	8223      	strh	r3, [r4, #16]
1000d470:	4b0f      	ldr	r3, [pc, #60]	; (1000d4b0 <gapm_cmp_evt+0x144>)
1000d472:	4798      	blx	r3
1000d474:	2200      	movs	r2, #0
1000d476:	7823      	ldrb	r3, [r4, #0]
1000d478:	4293      	cmp	r3, r2
1000d47a:	d00a      	beq.n	1000d492 <gapm_cmp_evt+0x126>
1000d47c:	79a3      	ldrb	r3, [r4, #6]
1000d47e:	323f      	adds	r2, #63	; 0x3f
1000d480:	1c19      	adds	r1, r3, #0
1000d482:	4391      	bics	r1, r2
1000d484:	3a3e      	subs	r2, #62	; 0x3e
1000d486:	29c0      	cmp	r1, #192	; 0xc0
1000d488:	d003      	beq.n	1000d492 <gapm_cmp_evt+0x126>
1000d48a:	065b      	lsls	r3, r3, #25
1000d48c:	0fdb      	lsrs	r3, r3, #31
1000d48e:	3202      	adds	r2, #2
1000d490:	1ad2      	subs	r2, r2, r3
1000d492:	7022      	strb	r2, [r4, #0]
1000d494:	2005      	movs	r0, #5
1000d496:	e000      	b.n	1000d49a <gapm_cmp_evt+0x12e>
1000d498:	2000      	movs	r0, #0
1000d49a:	bdfe      	pop	{r1, r2, r3, r4, r5, r6, r7, pc}
1000d49c:	1000f029 	.word	0x1000f029
1000d4a0:	1000c6bd 	.word	0x1000c6bd
1000d4a4:	1001127a 	.word	0x1001127a
1000d4a8:	1000c681 	.word	0x1000c681
1000d4ac:	100111ea 	.word	0x100111ea
1000d4b0:	1000f017 	.word	0x1000f017

1000d4b4 <gapm_start_adv_cmd_handler>:
1000d4b4:	b5f0      	push	{r4, r5, r6, r7, lr}
1000d4b6:	b089      	sub	sp, #36	; 0x24
1000d4b8:	9303      	str	r3, [sp, #12]
1000d4ba:	ab0e      	add	r3, sp, #56	; 0x38
1000d4bc:	9102      	str	r1, [sp, #8]
1000d4be:	cb02      	ldmia	r3!, {r1}
1000d4c0:	aa08      	add	r2, sp, #32
1000d4c2:	881b      	ldrh	r3, [r3, #0]
1000d4c4:	4e3c      	ldr	r6, [pc, #240]	; (1000d5b8 <gapm_start_adv_cmd_handler+0x104>)
1000d4c6:	9300      	str	r3, [sp, #0]
1000d4c8:	ab10      	add	r3, sp, #64	; 0x40
1000d4ca:	881b      	ldrh	r3, [r3, #0]
1000d4cc:	240d      	movs	r4, #13
1000d4ce:	469c      	mov	ip, r3
1000d4d0:	ab11      	add	r3, sp, #68	; 0x44
1000d4d2:	781b      	ldrb	r3, [r3, #0]
1000d4d4:	9304      	str	r3, [sp, #16]
1000d4d6:	ab12      	add	r3, sp, #72	; 0x48
1000d4d8:	781b      	ldrb	r3, [r3, #0]
1000d4da:	9305      	str	r3, [sp, #20]
1000d4dc:	ab13      	add	r3, sp, #76	; 0x4c
1000d4de:	781b      	ldrb	r3, [r3, #0]
1000d4e0:	9306      	str	r3, [sp, #24]
1000d4e2:	ab14      	add	r3, sp, #80	; 0x50
1000d4e4:	781b      	ldrb	r3, [r3, #0]
1000d4e6:	9301      	str	r3, [sp, #4]
1000d4e8:	2319      	movs	r3, #25
1000d4ea:	189b      	adds	r3, r3, r2
1000d4ec:	7fdd      	ldrb	r5, [r3, #31]
1000d4ee:	ab18      	add	r3, sp, #96	; 0x60
1000d4f0:	881f      	ldrh	r7, [r3, #0]
1000d4f2:	ab19      	add	r3, sp, #100	; 0x64
1000d4f4:	781b      	ldrb	r3, [r3, #0]
1000d4f6:	8832      	ldrh	r2, [r6, #0]
1000d4f8:	9307      	str	r3, [sp, #28]
1000d4fa:	4b30      	ldr	r3, [pc, #192]	; (1000d5bc <gapm_start_adv_cmd_handler+0x108>)
1000d4fc:	8836      	ldrh	r6, [r6, #0]
1000d4fe:	711a      	strb	r2, [r3, #4]
1000d500:	466a      	mov	r2, sp
1000d502:	7a12      	ldrb	r2, [r2, #8]
1000d504:	701c      	strb	r4, [r3, #0]
1000d506:	705c      	strb	r4, [r3, #1]
1000d508:	709c      	strb	r4, [r3, #2]
1000d50a:	725a      	strb	r2, [r3, #9]
1000d50c:	2400      	movs	r4, #0
1000d50e:	466a      	mov	r2, sp
1000d510:	0a36      	lsrs	r6, r6, #8
1000d512:	70dc      	strb	r4, [r3, #3]
1000d514:	7218      	strb	r0, [r3, #8]
1000d516:	729c      	strb	r4, [r3, #10]
1000d518:	715e      	strb	r6, [r3, #5]
1000d51a:	72dc      	strb	r4, [r3, #11]
1000d51c:	7812      	ldrb	r2, [r2, #0]
1000d51e:	380e      	subs	r0, #14
1000d520:	731a      	strb	r2, [r3, #12]
1000d522:	9a00      	ldr	r2, [sp, #0]
1000d524:	0a14      	lsrs	r4, r2, #8
1000d526:	4662      	mov	r2, ip
1000d528:	739a      	strb	r2, [r3, #14]
1000d52a:	4662      	mov	r2, ip
1000d52c:	735c      	strb	r4, [r3, #13]
1000d52e:	0a14      	lsrs	r4, r2, #8
1000d530:	466a      	mov	r2, sp
1000d532:	7c12      	ldrb	r2, [r2, #16]
1000d534:	73dc      	strb	r4, [r3, #15]
1000d536:	741a      	strb	r2, [r3, #16]
1000d538:	1c1c      	adds	r4, r3, #0
1000d53a:	2801      	cmp	r0, #1
1000d53c:	d809      	bhi.n	1000d552 <gapm_start_adv_cmd_handler+0x9e>
1000d53e:	2900      	cmp	r1, #0
1000d540:	d003      	beq.n	1000d54a <gapm_start_adv_cmd_handler+0x96>
1000d542:	481f      	ldr	r0, [pc, #124]	; (1000d5c0 <gapm_start_adv_cmd_handler+0x10c>)
1000d544:	2206      	movs	r2, #6
1000d546:	4b1f      	ldr	r3, [pc, #124]	; (1000d5c4 <gapm_start_adv_cmd_handler+0x110>)
1000d548:	4798      	blx	r3
1000d54a:	466b      	mov	r3, sp
1000d54c:	7b1b      	ldrb	r3, [r3, #12]
1000d54e:	75e3      	strb	r3, [r4, #23]
1000d550:	e014      	b.n	1000d57c <gapm_start_adv_cmd_handler+0xc8>
1000d552:	466b      	mov	r3, sp
1000d554:	7d1b      	ldrb	r3, [r3, #20]
1000d556:	9915      	ldr	r1, [sp, #84]	; 0x54
1000d558:	7463      	strb	r3, [r4, #17]
1000d55a:	466b      	mov	r3, sp
1000d55c:	7e1b      	ldrb	r3, [r3, #24]
1000d55e:	9a01      	ldr	r2, [sp, #4]
1000d560:	74a3      	strb	r3, [r4, #18]
1000d562:	466b      	mov	r3, sp
1000d564:	791b      	ldrb	r3, [r3, #4]
1000d566:	4818      	ldr	r0, [pc, #96]	; (1000d5c8 <gapm_start_adv_cmd_handler+0x114>)
1000d568:	4e16      	ldr	r6, [pc, #88]	; (1000d5c4 <gapm_start_adv_cmd_handler+0x110>)
1000d56a:	74e3      	strb	r3, [r4, #19]
1000d56c:	47b0      	blx	r6
1000d56e:	1c23      	adds	r3, r4, #0
1000d570:	4816      	ldr	r0, [pc, #88]	; (1000d5cc <gapm_start_adv_cmd_handler+0x118>)
1000d572:	3330      	adds	r3, #48	; 0x30
1000d574:	9917      	ldr	r1, [sp, #92]	; 0x5c
1000d576:	1c2a      	adds	r2, r5, #0
1000d578:	701d      	strb	r5, [r3, #0]
1000d57a:	47b0      	blx	r6
1000d57c:	1c22      	adds	r2, r4, #0
1000d57e:	23a5      	movs	r3, #165	; 0xa5
1000d580:	3250      	adds	r2, #80	; 0x50
1000d582:	7013      	strb	r3, [r2, #0]
1000d584:	1c22      	adds	r2, r4, #0
1000d586:	3251      	adds	r2, #81	; 0x51
1000d588:	7013      	strb	r3, [r2, #0]
1000d58a:	1c23      	adds	r3, r4, #0
1000d58c:	1c22      	adds	r2, r4, #0
1000d58e:	3352      	adds	r3, #82	; 0x52
1000d590:	701f      	strb	r7, [r3, #0]
1000d592:	3253      	adds	r2, #83	; 0x53
1000d594:	0a3b      	lsrs	r3, r7, #8
1000d596:	7013      	strb	r3, [r2, #0]
1000d598:	466a      	mov	r2, sp
1000d59a:	1c23      	adds	r3, r4, #0
1000d59c:	7f12      	ldrb	r2, [r2, #28]
1000d59e:	3354      	adds	r3, #84	; 0x54
1000d5a0:	701a      	strb	r2, [r3, #0]
1000d5a2:	234d      	movs	r3, #77	; 0x4d
1000d5a4:	2500      	movs	r5, #0
1000d5a6:	71a3      	strb	r3, [r4, #6]
1000d5a8:	1c20      	adds	r0, r4, #0
1000d5aa:	2155      	movs	r1, #85	; 0x55
1000d5ac:	4b08      	ldr	r3, [pc, #32]	; (1000d5d0 <gapm_start_adv_cmd_handler+0x11c>)
1000d5ae:	71e5      	strb	r5, [r4, #7]
1000d5b0:	4798      	blx	r3
1000d5b2:	1c28      	adds	r0, r5, #0
1000d5b4:	b009      	add	sp, #36	; 0x24
1000d5b6:	bdf0      	pop	{r4, r5, r6, r7, pc}
1000d5b8:	100111e8 	.word	0x100111e8
1000d5bc:	10011558 	.word	0x10011558
1000d5c0:	10011569 	.word	0x10011569
1000d5c4:	1000f017 	.word	0x1000f017
1000d5c8:	1001156c 	.word	0x1001156c
1000d5cc:	10011589 	.word	0x10011589
1000d5d0:	1000c4b9 	.word	0x1000c4b9

1000d5d4 <get_gap_local_addr_type>:
1000d5d4:	4b04      	ldr	r3, [pc, #16]	; (1000d5e8 <get_gap_local_addr_type+0x14>)
1000d5d6:	2001      	movs	r0, #1
1000d5d8:	791b      	ldrb	r3, [r3, #4]
1000d5da:	2b02      	cmp	r3, #2
1000d5dc:	d003      	beq.n	1000d5e6 <get_gap_local_addr_type+0x12>
1000d5de:	3b03      	subs	r3, #3
1000d5e0:	4258      	negs	r0, r3
1000d5e2:	4158      	adcs	r0, r3
1000d5e4:	0040      	lsls	r0, r0, #1
1000d5e6:	4770      	bx	lr
1000d5e8:	1001127a 	.word	0x1001127a

1000d5ec <gapm_adv_report_evt_handler>:
1000d5ec:	b5f7      	push	{r0, r1, r2, r4, r5, r6, r7, lr}
1000d5ee:	7843      	ldrb	r3, [r0, #1]
1000d5f0:	1c05      	adds	r5, r0, #0
1000d5f2:	9301      	str	r3, [sp, #4]
1000d5f4:	466b      	mov	r3, sp
1000d5f6:	1c0c      	adds	r4, r1, #0
1000d5f8:	791b      	ldrb	r3, [r3, #4]
1000d5fa:	7806      	ldrb	r6, [r0, #0]
1000d5fc:	2206      	movs	r2, #6
1000d5fe:	704b      	strb	r3, [r1, #1]
1000d600:	1c88      	adds	r0, r1, #2
1000d602:	4f1b      	ldr	r7, [pc, #108]	; (1000d670 <gapm_adv_report_evt_handler+0x84>)
1000d604:	1ca9      	adds	r1, r5, #2
1000d606:	47b8      	blx	r7
1000d608:	1c20      	adds	r0, r4, #0
1000d60a:	1c29      	adds	r1, r5, #0
1000d60c:	7a2a      	ldrb	r2, [r5, #8]
1000d60e:	3008      	adds	r0, #8
1000d610:	77c2      	strb	r2, [r0, #31]
1000d612:	3109      	adds	r1, #9
1000d614:	3528      	adds	r5, #40	; 0x28
1000d616:	47b8      	blx	r7
1000d618:	782b      	ldrb	r3, [r5, #0]
1000d61a:	b25a      	sxtb	r2, r3
1000d61c:	2a00      	cmp	r2, #0
1000d61e:	da01      	bge.n	1000d624 <gapm_adv_report_evt_handler+0x38>
1000d620:	3301      	adds	r3, #1
1000d622:	b2db      	uxtb	r3, r3
1000d624:	1c22      	adds	r2, r4, #0
1000d626:	3228      	adds	r2, #40	; 0x28
1000d628:	7013      	strb	r3, [r2, #0]
1000d62a:	2200      	movs	r2, #0
1000d62c:	9b01      	ldr	r3, [sp, #4]
1000d62e:	4293      	cmp	r3, r2
1000d630:	d00a      	beq.n	1000d648 <gapm_adv_report_evt_handler+0x5c>
1000d632:	79e3      	ldrb	r3, [r4, #7]
1000d634:	323f      	adds	r2, #63	; 0x3f
1000d636:	1c19      	adds	r1, r3, #0
1000d638:	4391      	bics	r1, r2
1000d63a:	3a3e      	subs	r2, #62	; 0x3e
1000d63c:	29c0      	cmp	r1, #192	; 0xc0
1000d63e:	d003      	beq.n	1000d648 <gapm_adv_report_evt_handler+0x5c>
1000d640:	065b      	lsls	r3, r3, #25
1000d642:	0fdb      	lsrs	r3, r3, #31
1000d644:	3202      	adds	r2, #2
1000d646:	1ad2      	subs	r2, r2, r3
1000d648:	7062      	strb	r2, [r4, #1]
1000d64a:	2e04      	cmp	r6, #4
1000d64c:	d80f      	bhi.n	1000d66e <gapm_adv_report_evt_handler+0x82>
1000d64e:	1c30      	adds	r0, r6, #0
1000d650:	f000 fbf6 	bl	1000de40 <__gnu_thumb1_case_uqi>
1000d654:	09070503 	.word	0x09070503
1000d658:	0b          	.byte	0x0b
1000d659:	00          	.byte	0x00
1000d65a:	2300      	movs	r3, #0
1000d65c:	e006      	b.n	1000d66c <gapm_adv_report_evt_handler+0x80>
1000d65e:	2301      	movs	r3, #1
1000d660:	e004      	b.n	1000d66c <gapm_adv_report_evt_handler+0x80>
1000d662:	2302      	movs	r3, #2
1000d664:	e002      	b.n	1000d66c <gapm_adv_report_evt_handler+0x80>
1000d666:	2303      	movs	r3, #3
1000d668:	e000      	b.n	1000d66c <gapm_adv_report_evt_handler+0x80>
1000d66a:	2305      	movs	r3, #5
1000d66c:	7023      	strb	r3, [r4, #0]
1000d66e:	bdf7      	pop	{r0, r1, r2, r4, r5, r6, r7, pc}
1000d670:	1000f017 	.word	0x1000f017

1000d674 <gapm_resolv_addr_cmd_handler>:
1000d674:	b5f8      	push	{r3, r4, r5, r6, r7, lr}
1000d676:	2314      	movs	r3, #20
1000d678:	4c12      	ldr	r4, [pc, #72]	; (1000d6c4 <gapm_resolv_addr_cmd_handler+0x50>)
1000d67a:	1c17      	adds	r7, r2, #0
1000d67c:	7023      	strb	r3, [r4, #0]
1000d67e:	3b07      	subs	r3, #7
1000d680:	7063      	strb	r3, [r4, #1]
1000d682:	70a3      	strb	r3, [r4, #2]
1000d684:	2300      	movs	r3, #0
1000d686:	70e3      	strb	r3, [r4, #3]
1000d688:	4b0f      	ldr	r3, [pc, #60]	; (1000d6c8 <gapm_resolv_addr_cmd_handler+0x54>)
1000d68a:	1c05      	adds	r5, r0, #0
1000d68c:	881a      	ldrh	r2, [r3, #0]
1000d68e:	881b      	ldrh	r3, [r3, #0]
1000d690:	4e0e      	ldr	r6, [pc, #56]	; (1000d6cc <gapm_resolv_addr_cmd_handler+0x58>)
1000d692:	0a1b      	lsrs	r3, r3, #8
1000d694:	7163      	strb	r3, [r4, #5]
1000d696:	2317      	movs	r3, #23
1000d698:	012d      	lsls	r5, r5, #4
1000d69a:	7122      	strb	r2, [r4, #4]
1000d69c:	7260      	strb	r0, [r4, #9]
1000d69e:	2206      	movs	r2, #6
1000d6a0:	480b      	ldr	r0, [pc, #44]	; (1000d6d0 <gapm_resolv_addr_cmd_handler+0x5c>)
1000d6a2:	7223      	strb	r3, [r4, #8]
1000d6a4:	47b0      	blx	r6
1000d6a6:	1c39      	adds	r1, r7, #0
1000d6a8:	1c2a      	adds	r2, r5, #0
1000d6aa:	480a      	ldr	r0, [pc, #40]	; (1000d6d4 <gapm_resolv_addr_cmd_handler+0x60>)
1000d6ac:	47b0      	blx	r6
1000d6ae:	1c29      	adds	r1, r5, #0
1000d6b0:	3110      	adds	r1, #16
1000d6b2:	1c0b      	adds	r3, r1, #0
1000d6b4:	3b08      	subs	r3, #8
1000d6b6:	71a3      	strb	r3, [r4, #6]
1000d6b8:	121b      	asrs	r3, r3, #8
1000d6ba:	71e3      	strb	r3, [r4, #7]
1000d6bc:	1c20      	adds	r0, r4, #0
1000d6be:	4b06      	ldr	r3, [pc, #24]	; (1000d6d8 <gapm_resolv_addr_cmd_handler+0x64>)
1000d6c0:	4798      	blx	r3
1000d6c2:	bdf8      	pop	{r3, r4, r5, r6, r7, pc}
1000d6c4:	10011558 	.word	0x10011558
1000d6c8:	100111e8 	.word	0x100111e8
1000d6cc:	1000f017 	.word	0x1000f017
1000d6d0:	10011562 	.word	0x10011562
1000d6d4:	10011568 	.word	0x10011568
1000d6d8:	1000c4b9 	.word	0x1000c4b9

1000d6dc <gapm_addr_solved_ind_handler>:
1000d6dc:	b570      	push	{r4, r5, r6, lr}
1000d6de:	1c04      	adds	r4, r0, #0
1000d6e0:	1c08      	adds	r0, r1, #0
1000d6e2:	1c0d      	adds	r5, r1, #0
1000d6e4:	4e05      	ldr	r6, [pc, #20]	; (1000d6fc <gapm_addr_solved_ind_handler+0x20>)
1000d6e6:	1c21      	adds	r1, r4, #0
1000d6e8:	2206      	movs	r2, #6
1000d6ea:	3011      	adds	r0, #17
1000d6ec:	47b0      	blx	r6
1000d6ee:	1c68      	adds	r0, r5, #1
1000d6f0:	1da1      	adds	r1, r4, #6
1000d6f2:	2210      	movs	r2, #16
1000d6f4:	47b0      	blx	r6
1000d6f6:	2300      	movs	r3, #0
1000d6f8:	702b      	strb	r3, [r5, #0]
1000d6fa:	bd70      	pop	{r4, r5, r6, pc}
1000d6fc:	1000f017 	.word	0x1000f017

1000d700 <gapm_profile_added_ind_handler>:
1000d700:	b510      	push	{r4, lr}
1000d702:	7843      	ldrb	r3, [r0, #1]
1000d704:	7902      	ldrb	r2, [r0, #4]
1000d706:	7944      	ldrb	r4, [r0, #5]
1000d708:	7800      	ldrb	r0, [r0, #0]
1000d70a:	021b      	lsls	r3, r3, #8
1000d70c:	4303      	orrs	r3, r0
1000d70e:	2b1b      	cmp	r3, #27
1000d710:	d104      	bne.n	1000d71c <gapm_profile_added_ind_handler+0x1c>
1000d712:	2300      	movs	r3, #0
1000d714:	700b      	strb	r3, [r1, #0]
1000d716:	0223      	lsls	r3, r4, #8
1000d718:	4313      	orrs	r3, r2
1000d71a:	804b      	strh	r3, [r1, #2]
1000d71c:	203b      	movs	r0, #59	; 0x3b
1000d71e:	bd10      	pop	{r4, pc}

1000d720 <gattc_read_req_ind_parser>:
1000d720:	7843      	ldrb	r3, [r0, #1]
1000d722:	7802      	ldrb	r2, [r0, #0]
1000d724:	021b      	lsls	r3, r3, #8
1000d726:	4313      	orrs	r3, r2
1000d728:	804b      	strh	r3, [r1, #2]
1000d72a:	4770      	bx	lr

1000d72c <gattc_write_req_ind_parser>:
1000d72c:	b508      	push	{r3, lr}
1000d72e:	1c13      	adds	r3, r2, #0
1000d730:	0a00      	lsrs	r0, r0, #8
1000d732:	8010      	strh	r0, [r2, #0]
1000d734:	784a      	ldrb	r2, [r1, #1]
1000d736:	7808      	ldrb	r0, [r1, #0]
1000d738:	0212      	lsls	r2, r2, #8
1000d73a:	4302      	orrs	r2, r0
1000d73c:	805a      	strh	r2, [r3, #2]
1000d73e:	78ca      	ldrb	r2, [r1, #3]
1000d740:	7888      	ldrb	r0, [r1, #2]
1000d742:	0212      	lsls	r2, r2, #8
1000d744:	4302      	orrs	r2, r0
1000d746:	809a      	strh	r2, [r3, #4]
1000d748:	794a      	ldrb	r2, [r1, #5]
1000d74a:	7908      	ldrb	r0, [r1, #4]
1000d74c:	0212      	lsls	r2, r2, #8
1000d74e:	4302      	orrs	r2, r0
1000d750:	80da      	strh	r2, [r3, #6]
1000d752:	3308      	adds	r3, #8
1000d754:	1c18      	adds	r0, r3, #0
1000d756:	3106      	adds	r1, #6
1000d758:	4b01      	ldr	r3, [pc, #4]	; (1000d760 <gattc_write_req_ind_parser+0x34>)
1000d75a:	4798      	blx	r3
1000d75c:	bd08      	pop	{r3, pc}
1000d75e:	46c0      	nop			; (mov r8, r8)
1000d760:	1000f017 	.word	0x1000f017

1000d764 <gattc_att_info_req_parser>:
1000d764:	7843      	ldrb	r3, [r0, #1]
1000d766:	7802      	ldrb	r2, [r0, #0]
1000d768:	021b      	lsls	r3, r3, #8
1000d76a:	4313      	orrs	r3, r2
1000d76c:	800b      	strh	r3, [r1, #0]
1000d76e:	4770      	bx	lr

1000d770 <gattc_read_cfm>:
1000d770:	b538      	push	{r3, r4, r5, lr}
1000d772:	2514      	movs	r5, #20
1000d774:	1c1c      	adds	r4, r3, #0
1000d776:	4b14      	ldr	r3, [pc, #80]	; (1000d7c8 <gattc_read_cfm+0x58>)
1000d778:	70d9      	strb	r1, [r3, #3]
1000d77a:	4914      	ldr	r1, [pc, #80]	; (1000d7cc <gattc_read_cfm+0x5c>)
1000d77c:	701d      	strb	r5, [r3, #0]
1000d77e:	3d08      	subs	r5, #8
1000d780:	705d      	strb	r5, [r3, #1]
1000d782:	709d      	strb	r5, [r3, #2]
1000d784:	880d      	ldrh	r5, [r1, #0]
1000d786:	8809      	ldrh	r1, [r1, #0]
1000d788:	7218      	strb	r0, [r3, #8]
1000d78a:	0a09      	lsrs	r1, r1, #8
1000d78c:	7159      	strb	r1, [r3, #5]
1000d78e:	0a00      	lsrs	r0, r0, #8
1000d790:	0a21      	lsrs	r1, r4, #8
1000d792:	711d      	strb	r5, [r3, #4]
1000d794:	7258      	strb	r0, [r3, #9]
1000d796:	729c      	strb	r4, [r3, #10]
1000d798:	72d9      	strb	r1, [r3, #11]
1000d79a:	731a      	strb	r2, [r3, #12]
1000d79c:	1c1d      	adds	r5, r3, #0
1000d79e:	2c00      	cmp	r4, #0
1000d7a0:	d007      	beq.n	1000d7b2 <gattc_read_cfm+0x42>
1000d7a2:	9904      	ldr	r1, [sp, #16]
1000d7a4:	1c22      	adds	r2, r4, #0
1000d7a6:	480a      	ldr	r0, [pc, #40]	; (1000d7d0 <gattc_read_cfm+0x60>)
1000d7a8:	4b0a      	ldr	r3, [pc, #40]	; (1000d7d4 <gattc_read_cfm+0x64>)
1000d7aa:	340d      	adds	r4, #13
1000d7ac:	4798      	blx	r3
1000d7ae:	b2a1      	uxth	r1, r4
1000d7b0:	e001      	b.n	1000d7b6 <gattc_read_cfm+0x46>
1000d7b2:	210e      	movs	r1, #14
1000d7b4:	735c      	strb	r4, [r3, #13]
1000d7b6:	1c0b      	adds	r3, r1, #0
1000d7b8:	3b08      	subs	r3, #8
1000d7ba:	71ab      	strb	r3, [r5, #6]
1000d7bc:	121b      	asrs	r3, r3, #8
1000d7be:	71eb      	strb	r3, [r5, #7]
1000d7c0:	1c28      	adds	r0, r5, #0
1000d7c2:	4b05      	ldr	r3, [pc, #20]	; (1000d7d8 <gattc_read_cfm+0x68>)
1000d7c4:	4798      	blx	r3
1000d7c6:	bd38      	pop	{r3, r4, r5, pc}
1000d7c8:	10011558 	.word	0x10011558
1000d7cc:	100111e8 	.word	0x100111e8
1000d7d0:	10011565 	.word	0x10011565
1000d7d4:	1000f017 	.word	0x1000f017
1000d7d8:	1000c4b9 	.word	0x1000c4b9

1000d7dc <gattc_write_cfm>:
1000d7dc:	4b0d      	ldr	r3, [pc, #52]	; (1000d814 <gattc_write_cfm+0x38>)
1000d7de:	b510      	push	{r4, lr}
1000d7e0:	729a      	strb	r2, [r3, #10]
1000d7e2:	2203      	movs	r2, #3
1000d7e4:	2416      	movs	r4, #22
1000d7e6:	719a      	strb	r2, [r3, #6]
1000d7e8:	2200      	movs	r2, #0
1000d7ea:	70d9      	strb	r1, [r3, #3]
1000d7ec:	490a      	ldr	r1, [pc, #40]	; (1000d818 <gattc_write_cfm+0x3c>)
1000d7ee:	701c      	strb	r4, [r3, #0]
1000d7f0:	3c0a      	subs	r4, #10
1000d7f2:	705c      	strb	r4, [r3, #1]
1000d7f4:	709c      	strb	r4, [r3, #2]
1000d7f6:	880c      	ldrh	r4, [r1, #0]
1000d7f8:	8809      	ldrh	r1, [r1, #0]
1000d7fa:	7218      	strb	r0, [r3, #8]
1000d7fc:	0a09      	lsrs	r1, r1, #8
1000d7fe:	0a00      	lsrs	r0, r0, #8
1000d800:	711c      	strb	r4, [r3, #4]
1000d802:	7159      	strb	r1, [r3, #5]
1000d804:	7258      	strb	r0, [r3, #9]
1000d806:	71da      	strb	r2, [r3, #7]
1000d808:	1c18      	adds	r0, r3, #0
1000d80a:	210b      	movs	r1, #11
1000d80c:	4b03      	ldr	r3, [pc, #12]	; (1000d81c <gattc_write_cfm+0x40>)
1000d80e:	4798      	blx	r3
1000d810:	bd10      	pop	{r4, pc}
1000d812:	46c0      	nop			; (mov r8, r8)
1000d814:	10011558 	.word	0x10011558
1000d818:	100111e8 	.word	0x100111e8
1000d81c:	1000c4b9 	.word	0x1000c4b9

1000d820 <gattc_att_info_cfm>:
1000d820:	b538      	push	{r3, r4, r5, lr}
1000d822:	4c0e      	ldr	r4, [pc, #56]	; (1000d85c <gattc_att_info_cfm+0x3c>)
1000d824:	2518      	movs	r5, #24
1000d826:	7323      	strb	r3, [r4, #12]
1000d828:	2305      	movs	r3, #5
1000d82a:	71a3      	strb	r3, [r4, #6]
1000d82c:	2300      	movs	r3, #0
1000d82e:	70e1      	strb	r1, [r4, #3]
1000d830:	490b      	ldr	r1, [pc, #44]	; (1000d860 <gattc_att_info_cfm+0x40>)
1000d832:	7025      	strb	r5, [r4, #0]
1000d834:	3d0c      	subs	r5, #12
1000d836:	7065      	strb	r5, [r4, #1]
1000d838:	70a5      	strb	r5, [r4, #2]
1000d83a:	880d      	ldrh	r5, [r1, #0]
1000d83c:	8809      	ldrh	r1, [r1, #0]
1000d83e:	7220      	strb	r0, [r4, #8]
1000d840:	0a09      	lsrs	r1, r1, #8
1000d842:	0a00      	lsrs	r0, r0, #8
1000d844:	7161      	strb	r1, [r4, #5]
1000d846:	7260      	strb	r0, [r4, #9]
1000d848:	72a2      	strb	r2, [r4, #10]
1000d84a:	71e3      	strb	r3, [r4, #7]
1000d84c:	0a12      	lsrs	r2, r2, #8
1000d84e:	1c20      	adds	r0, r4, #0
1000d850:	210d      	movs	r1, #13
1000d852:	4b04      	ldr	r3, [pc, #16]	; (1000d864 <gattc_att_info_cfm+0x44>)
1000d854:	7125      	strb	r5, [r4, #4]
1000d856:	72e2      	strb	r2, [r4, #11]
1000d858:	4798      	blx	r3
1000d85a:	bd38      	pop	{r3, r4, r5, pc}
1000d85c:	10011558 	.word	0x10011558
1000d860:	100111e8 	.word	0x100111e8
1000d864:	1000c4b9 	.word	0x1000c4b9

1000d868 <gattc_send_evt_cmd_handler>:
1000d868:	b570      	push	{r4, r5, r6, lr}
1000d86a:	2610      	movs	r6, #16
1000d86c:	ac04      	add	r4, sp, #16
1000d86e:	8825      	ldrh	r5, [r4, #0]
1000d870:	4c15      	ldr	r4, [pc, #84]	; (1000d8c8 <gattc_send_evt_cmd_handler+0x60>)
1000d872:	70e2      	strb	r2, [r4, #3]
1000d874:	4a15      	ldr	r2, [pc, #84]	; (1000d8cc <gattc_send_evt_cmd_handler+0x64>)
1000d876:	7026      	strb	r6, [r4, #0]
1000d878:	3e04      	subs	r6, #4
1000d87a:	7066      	strb	r6, [r4, #1]
1000d87c:	70a6      	strb	r6, [r4, #2]
1000d87e:	8816      	ldrh	r6, [r2, #0]
1000d880:	8812      	ldrh	r2, [r2, #0]
1000d882:	7220      	strb	r0, [r4, #8]
1000d884:	0a12      	lsrs	r2, r2, #8
1000d886:	7162      	strb	r2, [r4, #5]
1000d888:	4a11      	ldr	r2, [pc, #68]	; (1000d8d0 <gattc_send_evt_cmd_handler+0x68>)
1000d88a:	7321      	strb	r1, [r4, #12]
1000d88c:	8812      	ldrh	r2, [r2, #0]
1000d88e:	73a5      	strb	r5, [r4, #14]
1000d890:	3201      	adds	r2, #1
1000d892:	7262      	strb	r2, [r4, #9]
1000d894:	1212      	asrs	r2, r2, #8
1000d896:	72a2      	strb	r2, [r4, #10]
1000d898:	2200      	movs	r2, #0
1000d89a:	72e2      	strb	r2, [r4, #11]
1000d89c:	0a0a      	lsrs	r2, r1, #8
1000d89e:	7362      	strb	r2, [r4, #13]
1000d8a0:	0a2a      	lsrs	r2, r5, #8
1000d8a2:	73e2      	strb	r2, [r4, #15]
1000d8a4:	1c19      	adds	r1, r3, #0
1000d8a6:	1c2a      	adds	r2, r5, #0
1000d8a8:	4b0a      	ldr	r3, [pc, #40]	; (1000d8d4 <gattc_send_evt_cmd_handler+0x6c>)
1000d8aa:	3510      	adds	r5, #16
1000d8ac:	480a      	ldr	r0, [pc, #40]	; (1000d8d8 <gattc_send_evt_cmd_handler+0x70>)
1000d8ae:	7126      	strb	r6, [r4, #4]
1000d8b0:	4798      	blx	r3
1000d8b2:	b2a9      	uxth	r1, r5
1000d8b4:	1c0b      	adds	r3, r1, #0
1000d8b6:	3b08      	subs	r3, #8
1000d8b8:	71a3      	strb	r3, [r4, #6]
1000d8ba:	121b      	asrs	r3, r3, #8
1000d8bc:	71e3      	strb	r3, [r4, #7]
1000d8be:	1c20      	adds	r0, r4, #0
1000d8c0:	4b06      	ldr	r3, [pc, #24]	; (1000d8dc <gattc_send_evt_cmd_handler+0x74>)
1000d8c2:	4798      	blx	r3
1000d8c4:	bd70      	pop	{r4, r5, r6, pc}
1000d8c6:	46c0      	nop			; (mov r8, r8)
1000d8c8:	10011558 	.word	0x10011558
1000d8cc:	100111e8 	.word	0x100111e8
1000d8d0:	10010520 	.word	0x10010520
1000d8d4:	1000f017 	.word	0x1000f017
1000d8d8:	10011568 	.word	0x10011568
1000d8dc:	1000c4b9 	.word	0x1000c4b9

1000d8e0 <gattc_event_cfm_handler>:
1000d8e0:	220e      	movs	r2, #14
1000d8e2:	b508      	push	{r3, lr}
1000d8e4:	4b0b      	ldr	r3, [pc, #44]	; (1000d914 <gattc_event_cfm_handler+0x34>)
1000d8e6:	701a      	strb	r2, [r3, #0]
1000d8e8:	3a02      	subs	r2, #2
1000d8ea:	705a      	strb	r2, [r3, #1]
1000d8ec:	709a      	strb	r2, [r3, #2]
1000d8ee:	4a0a      	ldr	r2, [pc, #40]	; (1000d918 <gattc_event_cfm_handler+0x38>)
1000d8f0:	70d8      	strb	r0, [r3, #3]
1000d8f2:	8810      	ldrh	r0, [r2, #0]
1000d8f4:	8812      	ldrh	r2, [r2, #0]
1000d8f6:	7219      	strb	r1, [r3, #8]
1000d8f8:	0a12      	lsrs	r2, r2, #8
1000d8fa:	715a      	strb	r2, [r3, #5]
1000d8fc:	2202      	movs	r2, #2
1000d8fe:	719a      	strb	r2, [r3, #6]
1000d900:	2200      	movs	r2, #0
1000d902:	0a09      	lsrs	r1, r1, #8
1000d904:	7118      	strb	r0, [r3, #4]
1000d906:	7259      	strb	r1, [r3, #9]
1000d908:	71da      	strb	r2, [r3, #7]
1000d90a:	1c18      	adds	r0, r3, #0
1000d90c:	210a      	movs	r1, #10
1000d90e:	4b03      	ldr	r3, [pc, #12]	; (1000d91c <gattc_event_cfm_handler+0x3c>)
1000d910:	4798      	blx	r3
1000d912:	bd08      	pop	{r3, pc}
1000d914:	10011558 	.word	0x10011558
1000d918:	100111e8 	.word	0x100111e8
1000d91c:	1000c4b9 	.word	0x1000c4b9

1000d920 <gattc_disc_svc_ind_parser>:
1000d920:	b570      	push	{r4, r5, r6, lr}
1000d922:	1c15      	adds	r5, r2, #0
1000d924:	0a00      	lsrs	r0, r0, #8
1000d926:	8010      	strh	r0, [r2, #0]
1000d928:	784b      	ldrb	r3, [r1, #1]
1000d92a:	780a      	ldrb	r2, [r1, #0]
1000d92c:	021b      	lsls	r3, r3, #8
1000d92e:	4313      	orrs	r3, r2
1000d930:	806b      	strh	r3, [r5, #2]
1000d932:	78cb      	ldrb	r3, [r1, #3]
1000d934:	788a      	ldrb	r2, [r1, #2]
1000d936:	021b      	lsls	r3, r3, #8
1000d938:	4313      	orrs	r3, r2
1000d93a:	80ab      	strh	r3, [r5, #4]
1000d93c:	790e      	ldrb	r6, [r1, #4]
1000d93e:	4b05      	ldr	r3, [pc, #20]	; (1000d954 <gattc_disc_svc_ind_parser+0x34>)
1000d940:	1c30      	adds	r0, r6, #0
1000d942:	1c0c      	adds	r4, r1, #0
1000d944:	4798      	blx	r3
1000d946:	1c32      	adds	r2, r6, #0
1000d948:	71a8      	strb	r0, [r5, #6]
1000d94a:	1d61      	adds	r1, r4, #5
1000d94c:	1de8      	adds	r0, r5, #7
1000d94e:	4b02      	ldr	r3, [pc, #8]	; (1000d958 <gattc_disc_svc_ind_parser+0x38>)
1000d950:	4798      	blx	r3
1000d952:	bd70      	pop	{r4, r5, r6, pc}
1000d954:	1000b821 	.word	0x1000b821
1000d958:	1000f017 	.word	0x1000f017

1000d95c <gattc_disc_svc_incl_ind_parser>:
1000d95c:	b570      	push	{r4, r5, r6, lr}
1000d95e:	1c15      	adds	r5, r2, #0
1000d960:	0a00      	lsrs	r0, r0, #8
1000d962:	8010      	strh	r0, [r2, #0]
1000d964:	784b      	ldrb	r3, [r1, #1]
1000d966:	780a      	ldrb	r2, [r1, #0]
1000d968:	021b      	lsls	r3, r3, #8
1000d96a:	4313      	orrs	r3, r2
1000d96c:	806b      	strh	r3, [r5, #2]
1000d96e:	78cb      	ldrb	r3, [r1, #3]
1000d970:	788a      	ldrb	r2, [r1, #2]
1000d972:	021b      	lsls	r3, r3, #8
1000d974:	4313      	orrs	r3, r2
1000d976:	80ab      	strh	r3, [r5, #4]
1000d978:	794b      	ldrb	r3, [r1, #5]
1000d97a:	790a      	ldrb	r2, [r1, #4]
1000d97c:	021b      	lsls	r3, r3, #8
1000d97e:	4313      	orrs	r3, r2
1000d980:	80eb      	strh	r3, [r5, #6]
1000d982:	798e      	ldrb	r6, [r1, #6]
1000d984:	4b05      	ldr	r3, [pc, #20]	; (1000d99c <gattc_disc_svc_incl_ind_parser+0x40>)
1000d986:	1c30      	adds	r0, r6, #0
1000d988:	1c0c      	adds	r4, r1, #0
1000d98a:	4798      	blx	r3
1000d98c:	7228      	strb	r0, [r5, #8]
1000d98e:	1c28      	adds	r0, r5, #0
1000d990:	1c32      	adds	r2, r6, #0
1000d992:	1de1      	adds	r1, r4, #7
1000d994:	4b02      	ldr	r3, [pc, #8]	; (1000d9a0 <gattc_disc_svc_incl_ind_parser+0x44>)
1000d996:	3009      	adds	r0, #9
1000d998:	4798      	blx	r3
1000d99a:	bd70      	pop	{r4, r5, r6, pc}
1000d99c:	1000b821 	.word	0x1000b821
1000d9a0:	1000f017 	.word	0x1000f017

1000d9a4 <gattc_disc_char_ind_parser>:
1000d9a4:	b570      	push	{r4, r5, r6, lr}
1000d9a6:	1c15      	adds	r5, r2, #0
1000d9a8:	0a00      	lsrs	r0, r0, #8
1000d9aa:	8010      	strh	r0, [r2, #0]
1000d9ac:	784b      	ldrb	r3, [r1, #1]
1000d9ae:	780a      	ldrb	r2, [r1, #0]
1000d9b0:	021b      	lsls	r3, r3, #8
1000d9b2:	4313      	orrs	r3, r2
1000d9b4:	806b      	strh	r3, [r5, #2]
1000d9b6:	78cb      	ldrb	r3, [r1, #3]
1000d9b8:	788a      	ldrb	r2, [r1, #2]
1000d9ba:	021b      	lsls	r3, r3, #8
1000d9bc:	4313      	orrs	r3, r2
1000d9be:	80ab      	strh	r3, [r5, #4]
1000d9c0:	790b      	ldrb	r3, [r1, #4]
1000d9c2:	1c0c      	adds	r4, r1, #0
1000d9c4:	71ab      	strb	r3, [r5, #6]
1000d9c6:	794e      	ldrb	r6, [r1, #5]
1000d9c8:	4b05      	ldr	r3, [pc, #20]	; (1000d9e0 <gattc_disc_char_ind_parser+0x3c>)
1000d9ca:	1c30      	adds	r0, r6, #0
1000d9cc:	4798      	blx	r3
1000d9ce:	71e8      	strb	r0, [r5, #7]
1000d9d0:	1c28      	adds	r0, r5, #0
1000d9d2:	1c32      	adds	r2, r6, #0
1000d9d4:	1da1      	adds	r1, r4, #6
1000d9d6:	4b03      	ldr	r3, [pc, #12]	; (1000d9e4 <gattc_disc_char_ind_parser+0x40>)
1000d9d8:	3008      	adds	r0, #8
1000d9da:	4798      	blx	r3
1000d9dc:	bd70      	pop	{r4, r5, r6, pc}
1000d9de:	46c0      	nop			; (mov r8, r8)
1000d9e0:	1000b821 	.word	0x1000b821
1000d9e4:	1000f017 	.word	0x1000f017

1000d9e8 <gattc_disc_char_desc_ind_parser>:
1000d9e8:	b570      	push	{r4, r5, r6, lr}
1000d9ea:	1c15      	adds	r5, r2, #0
1000d9ec:	0a00      	lsrs	r0, r0, #8
1000d9ee:	8010      	strh	r0, [r2, #0]
1000d9f0:	784b      	ldrb	r3, [r1, #1]
1000d9f2:	780a      	ldrb	r2, [r1, #0]
1000d9f4:	021b      	lsls	r3, r3, #8
1000d9f6:	4313      	orrs	r3, r2
1000d9f8:	806b      	strh	r3, [r5, #2]
1000d9fa:	788e      	ldrb	r6, [r1, #2]
1000d9fc:	4b05      	ldr	r3, [pc, #20]	; (1000da14 <gattc_disc_char_desc_ind_parser+0x2c>)
1000d9fe:	1c30      	adds	r0, r6, #0
1000da00:	1c0c      	adds	r4, r1, #0
1000da02:	4798      	blx	r3
1000da04:	1c32      	adds	r2, r6, #0
1000da06:	7128      	strb	r0, [r5, #4]
1000da08:	1ce1      	adds	r1, r4, #3
1000da0a:	1d68      	adds	r0, r5, #5
1000da0c:	4b02      	ldr	r3, [pc, #8]	; (1000da18 <gattc_disc_char_desc_ind_parser+0x30>)
1000da0e:	4798      	blx	r3
1000da10:	bd70      	pop	{r4, r5, r6, pc}
1000da12:	46c0      	nop			; (mov r8, r8)
1000da14:	1000b821 	.word	0x1000b821
1000da18:	1000f017 	.word	0x1000f017

1000da1c <gattc_event_ind_and_notification_parser>:
1000da1c:	b510      	push	{r4, lr}
1000da1e:	780c      	ldrb	r4, [r1, #0]
1000da20:	1c13      	adds	r3, r2, #0
1000da22:	2c12      	cmp	r4, #18
1000da24:	d10e      	bne.n	1000da44 <gattc_event_ind_and_notification_parser+0x28>
1000da26:	0a00      	lsrs	r0, r0, #8
1000da28:	8010      	strh	r0, [r2, #0]
1000da2a:	788a      	ldrb	r2, [r1, #2]
1000da2c:	709a      	strb	r2, [r3, #2]
1000da2e:	7948      	ldrb	r0, [r1, #5]
1000da30:	790c      	ldrb	r4, [r1, #4]
1000da32:	0200      	lsls	r0, r0, #8
1000da34:	4320      	orrs	r0, r4
1000da36:	8098      	strh	r0, [r3, #4]
1000da38:	3106      	adds	r1, #6
1000da3a:	1d98      	adds	r0, r3, #6
1000da3c:	4b0b      	ldr	r3, [pc, #44]	; (1000da6c <gattc_event_ind_and_notification_parser+0x50>)
1000da3e:	4798      	blx	r3
1000da40:	221b      	movs	r2, #27
1000da42:	e010      	b.n	1000da66 <gattc_event_ind_and_notification_parser+0x4a>
1000da44:	2200      	movs	r2, #0
1000da46:	2c13      	cmp	r4, #19
1000da48:	d10d      	bne.n	1000da66 <gattc_event_ind_and_notification_parser+0x4a>
1000da4a:	0a00      	lsrs	r0, r0, #8
1000da4c:	8018      	strh	r0, [r3, #0]
1000da4e:	788a      	ldrb	r2, [r1, #2]
1000da50:	709a      	strb	r2, [r3, #2]
1000da52:	7908      	ldrb	r0, [r1, #4]
1000da54:	78cc      	ldrb	r4, [r1, #3]
1000da56:	0200      	lsls	r0, r0, #8
1000da58:	4320      	orrs	r0, r4
1000da5a:	8098      	strh	r0, [r3, #4]
1000da5c:	3106      	adds	r1, #6
1000da5e:	1d98      	adds	r0, r3, #6
1000da60:	4b02      	ldr	r3, [pc, #8]	; (1000da6c <gattc_event_ind_and_notification_parser+0x50>)
1000da62:	4798      	blx	r3
1000da64:	221c      	movs	r2, #28
1000da66:	1c10      	adds	r0, r2, #0
1000da68:	bd10      	pop	{r4, pc}
1000da6a:	46c0      	nop			; (mov r8, r8)
1000da6c:	1000f017 	.word	0x1000f017

1000da70 <gattc_complete_evt_handler>:
1000da70:	b500      	push	{lr}
1000da72:	0a00      	lsrs	r0, r0, #8
1000da74:	8010      	strh	r0, [r2, #0]
1000da76:	7808      	ldrb	r0, [r1, #0]
1000da78:	7090      	strb	r0, [r2, #2]
1000da7a:	784b      	ldrb	r3, [r1, #1]
1000da7c:	3801      	subs	r0, #1
1000da7e:	70d3      	strb	r3, [r2, #3]
1000da80:	2813      	cmp	r0, #19
1000da82:	d82c      	bhi.n	1000dade <gattc_complete_evt_handler+0x6e>
1000da84:	f000 f9dc 	bl	1000de40 <__gnu_thumb1_case_uqi>
1000da88:	0a0a0a0c 	.word	0x0a0a0a0c
1000da8c:	210a0a0a 	.word	0x210a0a0a
1000da90:	111f2121 	.word	0x111f2121
1000da94:	2b111111 	.word	0x2b111111
1000da98:	2919132b 	.word	0x2919132b
1000da9c:	2017      	movs	r0, #23
1000da9e:	e01f      	b.n	1000dae0 <gattc_complete_evt_handler+0x70>
1000daa0:	2024      	movs	r0, #36	; 0x24
1000daa2:	2b00      	cmp	r3, #0
1000daa4:	d11c      	bne.n	1000dae0 <gattc_complete_evt_handler+0x70>
1000daa6:	3017      	adds	r0, #23
1000daa8:	e01a      	b.n	1000dae0 <gattc_complete_evt_handler+0x70>
1000daaa:	2025      	movs	r0, #37	; 0x25
1000daac:	e018      	b.n	1000dae0 <gattc_complete_evt_handler+0x70>
1000daae:	4a0d      	ldr	r2, [pc, #52]	; (1000dae4 <gattc_complete_evt_handler+0x74>)
1000dab0:	201d      	movs	r0, #29
1000dab2:	6813      	ldr	r3, [r2, #0]
1000dab4:	3b01      	subs	r3, #1
1000dab6:	6013      	str	r3, [r2, #0]
1000dab8:	e012      	b.n	1000dae0 <gattc_complete_evt_handler+0x70>
1000daba:	4a0a      	ldr	r2, [pc, #40]	; (1000dae4 <gattc_complete_evt_handler+0x74>)
1000dabc:	201e      	movs	r0, #30
1000dabe:	6813      	ldr	r3, [r2, #0]
1000dac0:	3b01      	subs	r3, #1
1000dac2:	6013      	str	r3, [r2, #0]
1000dac4:	e00c      	b.n	1000dae0 <gattc_complete_evt_handler+0x70>
1000dac6:	2019      	movs	r0, #25
1000dac8:	e00a      	b.n	1000dae0 <gattc_complete_evt_handler+0x70>
1000daca:	203b      	movs	r0, #59	; 0x3b
1000dacc:	2b00      	cmp	r3, #0
1000dace:	d007      	beq.n	1000dae0 <gattc_complete_evt_handler+0x70>
1000dad0:	2182      	movs	r1, #130	; 0x82
1000dad2:	0089      	lsls	r1, r1, #2
1000dad4:	5453      	strb	r3, [r2, r1]
1000dad6:	3823      	subs	r0, #35	; 0x23
1000dad8:	e002      	b.n	1000dae0 <gattc_complete_evt_handler+0x70>
1000dada:	2021      	movs	r0, #33	; 0x21
1000dadc:	e000      	b.n	1000dae0 <gattc_complete_evt_handler+0x70>
1000dade:	2000      	movs	r0, #0
1000dae0:	bd00      	pop	{pc}
1000dae2:	46c0      	nop			; (mov r8, r8)
1000dae4:	10010524 	.word	0x10010524

1000dae8 <gattc_event_mtu_changed_ind_parser>:
1000dae8:	0a00      	lsrs	r0, r0, #8
1000daea:	8010      	strh	r0, [r2, #0]
1000daec:	784b      	ldrb	r3, [r1, #1]
1000daee:	7809      	ldrb	r1, [r1, #0]
1000daf0:	021b      	lsls	r3, r3, #8
1000daf2:	430b      	orrs	r3, r1
1000daf4:	8053      	strh	r3, [r2, #2]
1000daf6:	4770      	bx	lr

1000daf8 <gattc_read_ind_parser>:
1000daf8:	0a00      	lsrs	r0, r0, #8
1000dafa:	b508      	push	{r3, lr}
1000dafc:	8010      	strh	r0, [r2, #0]
1000dafe:	1c13      	adds	r3, r2, #0
1000db00:	2282      	movs	r2, #130	; 0x82
1000db02:	2000      	movs	r0, #0
1000db04:	0092      	lsls	r2, r2, #2
1000db06:	5498      	strb	r0, [r3, r2]
1000db08:	784a      	ldrb	r2, [r1, #1]
1000db0a:	7808      	ldrb	r0, [r1, #0]
1000db0c:	0212      	lsls	r2, r2, #8
1000db0e:	4302      	orrs	r2, r0
1000db10:	805a      	strh	r2, [r3, #2]
1000db12:	78ca      	ldrb	r2, [r1, #3]
1000db14:	7888      	ldrb	r0, [r1, #2]
1000db16:	0212      	lsls	r2, r2, #8
1000db18:	4302      	orrs	r2, r0
1000db1a:	80da      	strh	r2, [r3, #6]
1000db1c:	794a      	ldrb	r2, [r1, #5]
1000db1e:	7908      	ldrb	r0, [r1, #4]
1000db20:	0212      	lsls	r2, r2, #8
1000db22:	4302      	orrs	r2, r0
1000db24:	809a      	strh	r2, [r3, #4]
1000db26:	3308      	adds	r3, #8
1000db28:	1c18      	adds	r0, r3, #0
1000db2a:	3106      	adds	r1, #6
1000db2c:	4b01      	ldr	r3, [pc, #4]	; (1000db34 <gattc_read_ind_parser+0x3c>)
1000db2e:	4798      	blx	r3
1000db30:	bd08      	pop	{r3, pc}
1000db32:	46c0      	nop			; (mov r8, r8)
1000db34:	1000f017 	.word	0x1000f017

1000db38 <gattc_svc_changed_cfg_ind_parser>:
1000db38:	0a00      	lsrs	r0, r0, #8
1000db3a:	8010      	strh	r0, [r2, #0]
1000db3c:	784b      	ldrb	r3, [r1, #1]
1000db3e:	7809      	ldrb	r1, [r1, #0]
1000db40:	021b      	lsls	r3, r3, #8
1000db42:	430b      	orrs	r3, r1
1000db44:	8053      	strh	r3, [r2, #2]
1000db46:	4770      	bx	lr

1000db48 <init_gattc_task_module>:
1000db48:	2300      	movs	r3, #0
1000db4a:	4a02      	ldr	r2, [pc, #8]	; (1000db54 <init_gattc_task_module+0xc>)
1000db4c:	8013      	strh	r3, [r2, #0]
1000db4e:	4a02      	ldr	r2, [pc, #8]	; (1000db58 <init_gattc_task_module+0x10>)
1000db50:	8013      	strh	r3, [r2, #0]
1000db52:	4770      	bx	lr
1000db54:	1001051e 	.word	0x1001051e
1000db58:	10010520 	.word	0x10010520

1000db5c <gattm_add_svc_req_handler>:
1000db5c:	2200      	movs	r2, #0
1000db5e:	210b      	movs	r1, #11
1000db60:	b5f0      	push	{r4, r5, r6, r7, lr}
1000db62:	1c04      	adds	r4, r0, #0
1000db64:	7943      	ldrb	r3, [r0, #5]
1000db66:	b085      	sub	sp, #20
1000db68:	9301      	str	r3, [sp, #4]
1000db6a:	ab02      	add	r3, sp, #8
1000db6c:	71da      	strb	r2, [r3, #7]
1000db6e:	4b37      	ldr	r3, [pc, #220]	; (1000dc4c <gattm_add_svc_req_handler+0xf0>)
1000db70:	7059      	strb	r1, [r3, #1]
1000db72:	7099      	strb	r1, [r3, #2]
1000db74:	4936      	ldr	r1, [pc, #216]	; (1000dc50 <gattm_add_svc_req_handler+0xf4>)
1000db76:	701a      	strb	r2, [r3, #0]
1000db78:	8808      	ldrh	r0, [r1, #0]
1000db7a:	8809      	ldrh	r1, [r1, #0]
1000db7c:	70da      	strb	r2, [r3, #3]
1000db7e:	0a09      	lsrs	r1, r1, #8
1000db80:	7118      	strb	r0, [r3, #4]
1000db82:	7159      	strb	r1, [r3, #5]
1000db84:	8821      	ldrh	r1, [r4, #0]
1000db86:	7219      	strb	r1, [r3, #8]
1000db88:	8821      	ldrh	r1, [r4, #0]
1000db8a:	0a09      	lsrs	r1, r1, #8
1000db8c:	7259      	strb	r1, [r3, #9]
1000db8e:	8861      	ldrh	r1, [r4, #2]
1000db90:	7299      	strb	r1, [r3, #10]
1000db92:	8861      	ldrh	r1, [r4, #2]
1000db94:	0a09      	lsrs	r1, r1, #8
1000db96:	72d9      	strb	r1, [r3, #11]
1000db98:	7921      	ldrb	r1, [r4, #4]
1000db9a:	7319      	strb	r1, [r3, #12]
1000db9c:	4669      	mov	r1, sp
1000db9e:	7909      	ldrb	r1, [r1, #4]
1000dba0:	7359      	strb	r1, [r3, #13]
1000dba2:	18a1      	adds	r1, r4, r2
1000dba4:	7988      	ldrb	r0, [r1, #6]
1000dba6:	1899      	adds	r1, r3, r2
1000dba8:	3201      	adds	r2, #1
1000dbaa:	7388      	strb	r0, [r1, #14]
1000dbac:	2a10      	cmp	r2, #16
1000dbae:	d1f8      	bne.n	1000dba2 <gattm_add_svc_req_handler+0x46>
1000dbb0:	1c27      	adds	r7, r4, #0
1000dbb2:	2300      	movs	r3, #0
1000dbb4:	251e      	movs	r5, #30
1000dbb6:	3716      	adds	r7, #22
1000dbb8:	9300      	str	r3, [sp, #0]
1000dbba:	9b00      	ldr	r3, [sp, #0]
1000dbbc:	9a01      	ldr	r2, [sp, #4]
1000dbbe:	4e23      	ldr	r6, [pc, #140]	; (1000dc4c <gattm_add_svc_req_handler+0xf0>)
1000dbc0:	4293      	cmp	r3, r2
1000dbc2:	da21      	bge.n	1000dc08 <gattm_add_svc_req_handler+0xac>
1000dbc4:	1c39      	adds	r1, r7, #0
1000dbc6:	1970      	adds	r0, r6, r5
1000dbc8:	2210      	movs	r2, #16
1000dbca:	4b22      	ldr	r3, [pc, #136]	; (1000dc54 <gattm_add_svc_req_handler+0xf8>)
1000dbcc:	4798      	blx	r3
1000dbce:	1c2b      	adds	r3, r5, #0
1000dbd0:	8a3a      	ldrh	r2, [r7, #16]
1000dbd2:	3310      	adds	r3, #16
1000dbd4:	b29b      	uxth	r3, r3
1000dbd6:	54f2      	strb	r2, [r6, r3]
1000dbd8:	1c2b      	adds	r3, r5, #0
1000dbda:	8a3a      	ldrh	r2, [r7, #16]
1000dbdc:	3311      	adds	r3, #17
1000dbde:	b29b      	uxth	r3, r3
1000dbe0:	0a12      	lsrs	r2, r2, #8
1000dbe2:	54f2      	strb	r2, [r6, r3]
1000dbe4:	1c2a      	adds	r2, r5, #0
1000dbe6:	1c2b      	adds	r3, r5, #0
1000dbe8:	8a79      	ldrh	r1, [r7, #18]
1000dbea:	3212      	adds	r2, #18
1000dbec:	b292      	uxth	r2, r2
1000dbee:	54b1      	strb	r1, [r6, r2]
1000dbf0:	8a7a      	ldrh	r2, [r7, #18]
1000dbf2:	3313      	adds	r3, #19
1000dbf4:	b29b      	uxth	r3, r3
1000dbf6:	0a12      	lsrs	r2, r2, #8
1000dbf8:	54f2      	strb	r2, [r6, r3]
1000dbfa:	9b00      	ldr	r3, [sp, #0]
1000dbfc:	3514      	adds	r5, #20
1000dbfe:	3301      	adds	r3, #1
1000dc00:	b2ad      	uxth	r5, r5
1000dc02:	9300      	str	r3, [sp, #0]
1000dc04:	3714      	adds	r7, #20
1000dc06:	e7d8      	b.n	1000dbba <gattm_add_svc_req_handler+0x5e>
1000dc08:	2114      	movs	r1, #20
1000dc0a:	4d13      	ldr	r5, [pc, #76]	; (1000dc58 <gattm_add_svc_req_handler+0xfc>)
1000dc0c:	4b13      	ldr	r3, [pc, #76]	; (1000dc5c <gattm_add_svc_req_handler+0x100>)
1000dc0e:	4351      	muls	r1, r2
1000dc10:	802b      	strh	r3, [r5, #0]
1000dc12:	230b      	movs	r3, #11
1000dc14:	311e      	adds	r1, #30
1000dc16:	80ab      	strh	r3, [r5, #4]
1000dc18:	1c0b      	adds	r3, r1, #0
1000dc1a:	3b08      	subs	r3, #8
1000dc1c:	71b3      	strb	r3, [r6, #6]
1000dc1e:	121b      	asrs	r3, r3, #8
1000dc20:	71f3      	strb	r3, [r6, #7]
1000dc22:	1c30      	adds	r0, r6, #0
1000dc24:	4b0e      	ldr	r3, [pc, #56]	; (1000dc60 <gattm_add_svc_req_handler+0x104>)
1000dc26:	4798      	blx	r3
1000dc28:	ab02      	add	r3, sp, #8
1000dc2a:	1dde      	adds	r6, r3, #7
1000dc2c:	1c30      	adds	r0, r6, #0
1000dc2e:	4b0d      	ldr	r3, [pc, #52]	; (1000dc64 <gattm_add_svc_req_handler+0x108>)
1000dc30:	4798      	blx	r3
1000dc32:	7833      	ldrb	r3, [r6, #0]
1000dc34:	20e2      	movs	r0, #226	; 0xe2
1000dc36:	2b00      	cmp	r3, #0
1000dc38:	d106      	bne.n	1000dc48 <gattm_add_svc_req_handler+0xec>
1000dc3a:	68aa      	ldr	r2, [r5, #8]
1000dc3c:	7853      	ldrb	r3, [r2, #1]
1000dc3e:	7811      	ldrb	r1, [r2, #0]
1000dc40:	021b      	lsls	r3, r3, #8
1000dc42:	430b      	orrs	r3, r1
1000dc44:	8023      	strh	r3, [r4, #0]
1000dc46:	7890      	ldrb	r0, [r2, #2]
1000dc48:	b005      	add	sp, #20
1000dc4a:	bdf0      	pop	{r4, r5, r6, r7, pc}
1000dc4c:	10011558 	.word	0x10011558
1000dc50:	100111e8 	.word	0x100111e8
1000dc54:	1000f017 	.word	0x1000f017
1000dc58:	100111dc 	.word	0x100111dc
1000dc5c:	00000b01 	.word	0x00000b01
1000dc60:	1000c4b9 	.word	0x1000c4b9
1000dc64:	1000c515 	.word	0x1000c515

1000dc68 <gattm_add_attribute_req_handler>:
1000dc68:	b5f7      	push	{r0, r1, r2, r4, r5, r6, r7, lr}
1000dc6a:	1c1f      	adds	r7, r3, #0
1000dc6c:	4b16      	ldr	r3, [pc, #88]	; (1000dcc8 <gattm_add_attribute_req_handler+0x60>)
1000dc6e:	9100      	str	r1, [sp, #0]
1000dc70:	9201      	str	r2, [sp, #4]
1000dc72:	1c05      	adds	r5, r0, #0
1000dc74:	7946      	ldrb	r6, [r0, #5]
1000dc76:	6818      	ldr	r0, [r3, #0]
1000dc78:	2114      	movs	r1, #20
1000dc7a:	4b14      	ldr	r3, [pc, #80]	; (1000dccc <gattm_add_attribute_req_handler+0x64>)
1000dc7c:	382a      	subs	r0, #42	; 0x2a
1000dc7e:	4798      	blx	r3
1000dc80:	2311      	movs	r3, #17
1000dc82:	4286      	cmp	r6, r0
1000dc84:	d21e      	bcs.n	1000dcc4 <gattm_add_attribute_req_handler+0x5c>
1000dc86:	2414      	movs	r4, #20
1000dc88:	4366      	muls	r6, r4
1000dc8a:	19a8      	adds	r0, r5, r6
1000dc8c:	2100      	movs	r1, #0
1000dc8e:	2210      	movs	r2, #16
1000dc90:	4b0f      	ldr	r3, [pc, #60]	; (1000dcd0 <gattm_add_attribute_req_handler+0x68>)
1000dc92:	3016      	adds	r0, #22
1000dc94:	4798      	blx	r3
1000dc96:	7968      	ldrb	r0, [r5, #5]
1000dc98:	1c3a      	adds	r2, r7, #0
1000dc9a:	4360      	muls	r0, r4
1000dc9c:	1828      	adds	r0, r5, r0
1000dc9e:	4b0d      	ldr	r3, [pc, #52]	; (1000dcd4 <gattm_add_attribute_req_handler+0x6c>)
1000dca0:	3016      	adds	r0, #22
1000dca2:	9908      	ldr	r1, [sp, #32]
1000dca4:	4798      	blx	r3
1000dca6:	466a      	mov	r2, sp
1000dca8:	796b      	ldrb	r3, [r5, #5]
1000dcaa:	8812      	ldrh	r2, [r2, #0]
1000dcac:	435c      	muls	r4, r3
1000dcae:	192c      	adds	r4, r5, r4
1000dcb0:	8522      	strh	r2, [r4, #40]	; 0x28
1000dcb2:	466a      	mov	r2, sp
1000dcb4:	8892      	ldrh	r2, [r2, #4]
1000dcb6:	84e2      	strh	r2, [r4, #38]	; 0x26
1000dcb8:	9a09      	ldr	r2, [sp, #36]	; 0x24
1000dcba:	8013      	strh	r3, [r2, #0]
1000dcbc:	796b      	ldrb	r3, [r5, #5]
1000dcbe:	3301      	adds	r3, #1
1000dcc0:	716b      	strb	r3, [r5, #5]
1000dcc2:	2300      	movs	r3, #0
1000dcc4:	1c18      	adds	r0, r3, #0
1000dcc6:	bdfe      	pop	{r1, r2, r3, r4, r5, r6, r7, pc}
1000dcc8:	1001049c 	.word	0x1001049c
1000dccc:	1000de69 	.word	0x1000de69
1000dcd0:	1000f029 	.word	0x1000f029
1000dcd4:	1000f017 	.word	0x1000f017

1000dcd8 <gattm_att_set_value_req_handler>:
1000dcd8:	b5f7      	push	{r0, r1, r2, r4, r5, r6, r7, lr}
1000dcda:	466b      	mov	r3, sp
1000dcdc:	1dde      	adds	r6, r3, #7
1000dcde:	2300      	movs	r3, #0
1000dce0:	1c0d      	adds	r5, r1, #0
1000dce2:	210c      	movs	r1, #12
1000dce4:	270b      	movs	r7, #11
1000dce6:	4c17      	ldr	r4, [pc, #92]	; (1000dd44 <gattm_att_set_value_req_handler+0x6c>)
1000dce8:	7033      	strb	r3, [r6, #0]
1000dcea:	70e3      	strb	r3, [r4, #3]
1000dcec:	4b16      	ldr	r3, [pc, #88]	; (1000dd48 <gattm_att_set_value_req_handler+0x70>)
1000dcee:	7021      	strb	r1, [r4, #0]
1000dcf0:	8819      	ldrh	r1, [r3, #0]
1000dcf2:	881b      	ldrh	r3, [r3, #0]
1000dcf4:	7220      	strb	r0, [r4, #8]
1000dcf6:	0a1b      	lsrs	r3, r3, #8
1000dcf8:	7163      	strb	r3, [r4, #5]
1000dcfa:	0a00      	lsrs	r0, r0, #8
1000dcfc:	0a2b      	lsrs	r3, r5, #8
1000dcfe:	7121      	strb	r1, [r4, #4]
1000dd00:	7260      	strb	r0, [r4, #9]
1000dd02:	1c11      	adds	r1, r2, #0
1000dd04:	72a5      	strb	r5, [r4, #10]
1000dd06:	1c2a      	adds	r2, r5, #0
1000dd08:	72e3      	strb	r3, [r4, #11]
1000dd0a:	350c      	adds	r5, #12
1000dd0c:	4b0f      	ldr	r3, [pc, #60]	; (1000dd4c <gattm_att_set_value_req_handler+0x74>)
1000dd0e:	4810      	ldr	r0, [pc, #64]	; (1000dd50 <gattm_att_set_value_req_handler+0x78>)
1000dd10:	7067      	strb	r7, [r4, #1]
1000dd12:	70a7      	strb	r7, [r4, #2]
1000dd14:	4798      	blx	r3
1000dd16:	b2a9      	uxth	r1, r5
1000dd18:	4b0e      	ldr	r3, [pc, #56]	; (1000dd54 <gattm_att_set_value_req_handler+0x7c>)
1000dd1a:	4d0f      	ldr	r5, [pc, #60]	; (1000dd58 <gattm_att_set_value_req_handler+0x80>)
1000dd1c:	1c20      	adds	r0, r4, #0
1000dd1e:	802b      	strh	r3, [r5, #0]
1000dd20:	1c0b      	adds	r3, r1, #0
1000dd22:	3b08      	subs	r3, #8
1000dd24:	71a3      	strb	r3, [r4, #6]
1000dd26:	121b      	asrs	r3, r3, #8
1000dd28:	71e3      	strb	r3, [r4, #7]
1000dd2a:	4b0c      	ldr	r3, [pc, #48]	; (1000dd5c <gattm_att_set_value_req_handler+0x84>)
1000dd2c:	80af      	strh	r7, [r5, #4]
1000dd2e:	4798      	blx	r3
1000dd30:	1c30      	adds	r0, r6, #0
1000dd32:	4b0b      	ldr	r3, [pc, #44]	; (1000dd60 <gattm_att_set_value_req_handler+0x88>)
1000dd34:	4798      	blx	r3
1000dd36:	7833      	ldrb	r3, [r6, #0]
1000dd38:	20e2      	movs	r0, #226	; 0xe2
1000dd3a:	2b00      	cmp	r3, #0
1000dd3c:	d101      	bne.n	1000dd42 <gattm_att_set_value_req_handler+0x6a>
1000dd3e:	68ab      	ldr	r3, [r5, #8]
1000dd40:	7898      	ldrb	r0, [r3, #2]
1000dd42:	bdfe      	pop	{r1, r2, r3, r4, r5, r6, r7, pc}
1000dd44:	10011558 	.word	0x10011558
1000dd48:	100111e8 	.word	0x100111e8
1000dd4c:	1000f017 	.word	0x1000f017
1000dd50:	10011564 	.word	0x10011564
1000dd54:	00000b0d 	.word	0x00000b0d
1000dd58:	100111dc 	.word	0x100111dc
1000dd5c:	1000c4b9 	.word	0x1000c4b9
1000dd60:	1000c515 	.word	0x1000c515

1000dd64 <gattm_att_get_value_req_handler>:
1000dd64:	b5f0      	push	{r4, r5, r6, r7, lr}
1000dd66:	b085      	sub	sp, #20
1000dd68:	9201      	str	r2, [sp, #4]
1000dd6a:	220a      	movs	r2, #10
1000dd6c:	1c04      	adds	r4, r0, #0
1000dd6e:	481d      	ldr	r0, [pc, #116]	; (1000dde4 <gattm_att_get_value_req_handler+0x80>)
1000dd70:	ab02      	add	r3, sp, #8
1000dd72:	1dde      	adds	r6, r3, #7
1000dd74:	7002      	strb	r2, [r0, #0]
1000dd76:	2300      	movs	r3, #0
1000dd78:	220b      	movs	r2, #11
1000dd7a:	4d1b      	ldr	r5, [pc, #108]	; (1000dde8 <gattm_att_get_value_req_handler+0x84>)
1000dd7c:	1c0f      	adds	r7, r1, #0
1000dd7e:	8829      	ldrh	r1, [r5, #0]
1000dd80:	882d      	ldrh	r5, [r5, #0]
1000dd82:	7101      	strb	r1, [r0, #4]
1000dd84:	0a2d      	lsrs	r5, r5, #8
1000dd86:	7145      	strb	r5, [r0, #5]
1000dd88:	0a25      	lsrs	r5, r4, #8
1000dd8a:	7245      	strb	r5, [r0, #9]
1000dd8c:	4917      	ldr	r1, [pc, #92]	; (1000ddec <gattm_att_get_value_req_handler+0x88>)
1000dd8e:	4d18      	ldr	r5, [pc, #96]	; (1000ddf0 <gattm_att_get_value_req_handler+0x8c>)
1000dd90:	7033      	strb	r3, [r6, #0]
1000dd92:	7042      	strb	r2, [r0, #1]
1000dd94:	7082      	strb	r2, [r0, #2]
1000dd96:	70c3      	strb	r3, [r0, #3]
1000dd98:	8029      	strh	r1, [r5, #0]
1000dd9a:	80aa      	strh	r2, [r5, #4]
1000dd9c:	71c3      	strb	r3, [r0, #7]
1000dd9e:	3a09      	subs	r2, #9
1000dda0:	210a      	movs	r1, #10
1000dda2:	4b14      	ldr	r3, [pc, #80]	; (1000ddf4 <gattm_att_get_value_req_handler+0x90>)
1000dda4:	7182      	strb	r2, [r0, #6]
1000dda6:	7204      	strb	r4, [r0, #8]
1000dda8:	4798      	blx	r3
1000ddaa:	1c30      	adds	r0, r6, #0
1000ddac:	4b12      	ldr	r3, [pc, #72]	; (1000ddf8 <gattm_att_get_value_req_handler+0x94>)
1000ddae:	4798      	blx	r3
1000ddb0:	7833      	ldrb	r3, [r6, #0]
1000ddb2:	20e2      	movs	r0, #226	; 0xe2
1000ddb4:	2b00      	cmp	r3, #0
1000ddb6:	d112      	bne.n	1000ddde <gattm_att_get_value_req_handler+0x7a>
1000ddb8:	68a9      	ldr	r1, [r5, #8]
1000ddba:	9801      	ldr	r0, [sp, #4]
1000ddbc:	784d      	ldrb	r5, [r1, #1]
1000ddbe:	780b      	ldrb	r3, [r1, #0]
1000ddc0:	78ca      	ldrb	r2, [r1, #3]
1000ddc2:	022d      	lsls	r5, r5, #8
1000ddc4:	431d      	orrs	r5, r3
1000ddc6:	788b      	ldrb	r3, [r1, #2]
1000ddc8:	0212      	lsls	r2, r2, #8
1000ddca:	431a      	orrs	r2, r3
1000ddcc:	803a      	strh	r2, [r7, #0]
1000ddce:	790e      	ldrb	r6, [r1, #4]
1000ddd0:	4b0a      	ldr	r3, [pc, #40]	; (1000ddfc <gattm_att_get_value_req_handler+0x98>)
1000ddd2:	3105      	adds	r1, #5
1000ddd4:	4798      	blx	r3
1000ddd6:	20e2      	movs	r0, #226	; 0xe2
1000ddd8:	42ac      	cmp	r4, r5
1000ddda:	d100      	bne.n	1000ddde <gattm_att_get_value_req_handler+0x7a>
1000dddc:	1c30      	adds	r0, r6, #0
1000ddde:	b005      	add	sp, #20
1000dde0:	bdf0      	pop	{r4, r5, r6, r7, pc}
1000dde2:	46c0      	nop			; (mov r8, r8)
1000dde4:	10011558 	.word	0x10011558
1000dde8:	100111e8 	.word	0x100111e8
1000ddec:	00000b0b 	.word	0x00000b0b
1000ddf0:	100111dc 	.word	0x100111dc
1000ddf4:	1000c4b9 	.word	0x1000c4b9
1000ddf8:	1000c515 	.word	0x1000c515
1000ddfc:	1000f017 	.word	0x1000f017

1000de00 <htpt_enable_rsp_handler>:
1000de00:	780b      	ldrb	r3, [r1, #0]
1000de02:	7013      	strb	r3, [r2, #0]
1000de04:	784b      	ldrb	r3, [r1, #1]
1000de06:	7053      	strb	r3, [r2, #1]
1000de08:	4770      	bx	lr

1000de0a <htpt_temp_send_rsp_handler>:
1000de0a:	780b      	ldrb	r3, [r1, #0]
1000de0c:	7013      	strb	r3, [r2, #0]
1000de0e:	4770      	bx	lr

1000de10 <htpt_meas_intv_upd_rsp_handler>:
1000de10:	780b      	ldrb	r3, [r1, #0]
1000de12:	7013      	strb	r3, [r2, #0]
1000de14:	4770      	bx	lr

1000de16 <htpt_meas_intv_chg_req_ind_handler>:
1000de16:	78cb      	ldrb	r3, [r1, #3]
1000de18:	7889      	ldrb	r1, [r1, #2]
1000de1a:	021b      	lsls	r3, r3, #8
1000de1c:	430b      	orrs	r3, r1
1000de1e:	8013      	strh	r3, [r2, #0]
1000de20:	4770      	bx	lr

1000de22 <htpt_cfg_indntf_ind_handler>:
1000de22:	780b      	ldrb	r3, [r1, #0]
1000de24:	7013      	strb	r3, [r2, #0]
1000de26:	784b      	ldrb	r3, [r1, #1]
1000de28:	7053      	strb	r3, [r2, #1]
1000de2a:	4770      	bx	lr

1000de2c <__gnu_thumb1_case_sqi>:
1000de2c:	b402      	push	{r1}
1000de2e:	4671      	mov	r1, lr
1000de30:	0849      	lsrs	r1, r1, #1
1000de32:	0049      	lsls	r1, r1, #1
1000de34:	5609      	ldrsb	r1, [r1, r0]
1000de36:	0049      	lsls	r1, r1, #1
1000de38:	448e      	add	lr, r1
1000de3a:	bc02      	pop	{r1}
1000de3c:	4770      	bx	lr
1000de3e:	46c0      	nop			; (mov r8, r8)

1000de40 <__gnu_thumb1_case_uqi>:
1000de40:	b402      	push	{r1}
1000de42:	4671      	mov	r1, lr
1000de44:	0849      	lsrs	r1, r1, #1
1000de46:	0049      	lsls	r1, r1, #1
1000de48:	5c09      	ldrb	r1, [r1, r0]
1000de4a:	0049      	lsls	r1, r1, #1
1000de4c:	448e      	add	lr, r1
1000de4e:	bc02      	pop	{r1}
1000de50:	4770      	bx	lr
1000de52:	46c0      	nop			; (mov r8, r8)

1000de54 <__gnu_thumb1_case_uhi>:
1000de54:	b403      	push	{r0, r1}
1000de56:	4671      	mov	r1, lr
1000de58:	0849      	lsrs	r1, r1, #1
1000de5a:	0040      	lsls	r0, r0, #1
1000de5c:	0049      	lsls	r1, r1, #1
1000de5e:	5a09      	ldrh	r1, [r1, r0]
1000de60:	0049      	lsls	r1, r1, #1
1000de62:	448e      	add	lr, r1
1000de64:	bc03      	pop	{r0, r1}
1000de66:	4770      	bx	lr

1000de68 <__aeabi_uidiv>:
1000de68:	2200      	movs	r2, #0
1000de6a:	0843      	lsrs	r3, r0, #1
1000de6c:	428b      	cmp	r3, r1
1000de6e:	d374      	bcc.n	1000df5a <__aeabi_uidiv+0xf2>
1000de70:	0903      	lsrs	r3, r0, #4
1000de72:	428b      	cmp	r3, r1
1000de74:	d35f      	bcc.n	1000df36 <__aeabi_uidiv+0xce>
1000de76:	0a03      	lsrs	r3, r0, #8
1000de78:	428b      	cmp	r3, r1
1000de7a:	d344      	bcc.n	1000df06 <__aeabi_uidiv+0x9e>
1000de7c:	0b03      	lsrs	r3, r0, #12
1000de7e:	428b      	cmp	r3, r1
1000de80:	d328      	bcc.n	1000ded4 <__aeabi_uidiv+0x6c>
1000de82:	0c03      	lsrs	r3, r0, #16
1000de84:	428b      	cmp	r3, r1
1000de86:	d30d      	bcc.n	1000dea4 <__aeabi_uidiv+0x3c>
1000de88:	22ff      	movs	r2, #255	; 0xff
1000de8a:	0209      	lsls	r1, r1, #8
1000de8c:	ba12      	rev	r2, r2
1000de8e:	0c03      	lsrs	r3, r0, #16
1000de90:	428b      	cmp	r3, r1
1000de92:	d302      	bcc.n	1000de9a <__aeabi_uidiv+0x32>
1000de94:	1212      	asrs	r2, r2, #8
1000de96:	0209      	lsls	r1, r1, #8
1000de98:	d065      	beq.n	1000df66 <__aeabi_uidiv+0xfe>
1000de9a:	0b03      	lsrs	r3, r0, #12
1000de9c:	428b      	cmp	r3, r1
1000de9e:	d319      	bcc.n	1000ded4 <__aeabi_uidiv+0x6c>
1000dea0:	e000      	b.n	1000dea4 <__aeabi_uidiv+0x3c>
1000dea2:	0a09      	lsrs	r1, r1, #8
1000dea4:	0bc3      	lsrs	r3, r0, #15
1000dea6:	428b      	cmp	r3, r1
1000dea8:	d301      	bcc.n	1000deae <__aeabi_uidiv+0x46>
1000deaa:	03cb      	lsls	r3, r1, #15
1000deac:	1ac0      	subs	r0, r0, r3
1000deae:	4152      	adcs	r2, r2
1000deb0:	0b83      	lsrs	r3, r0, #14
1000deb2:	428b      	cmp	r3, r1
1000deb4:	d301      	bcc.n	1000deba <__aeabi_uidiv+0x52>
1000deb6:	038b      	lsls	r3, r1, #14
1000deb8:	1ac0      	subs	r0, r0, r3
1000deba:	4152      	adcs	r2, r2
1000debc:	0b43      	lsrs	r3, r0, #13
1000debe:	428b      	cmp	r3, r1
1000dec0:	d301      	bcc.n	1000dec6 <__aeabi_uidiv+0x5e>
1000dec2:	034b      	lsls	r3, r1, #13
1000dec4:	1ac0      	subs	r0, r0, r3
1000dec6:	4152      	adcs	r2, r2
1000dec8:	0b03      	lsrs	r3, r0, #12
1000deca:	428b      	cmp	r3, r1
1000decc:	d301      	bcc.n	1000ded2 <__aeabi_uidiv+0x6a>
1000dece:	030b      	lsls	r3, r1, #12
1000ded0:	1ac0      	subs	r0, r0, r3
1000ded2:	4152      	adcs	r2, r2
1000ded4:	0ac3      	lsrs	r3, r0, #11
1000ded6:	428b      	cmp	r3, r1
1000ded8:	d301      	bcc.n	1000dede <__aeabi_uidiv+0x76>
1000deda:	02cb      	lsls	r3, r1, #11
1000dedc:	1ac0      	subs	r0, r0, r3
1000dede:	4152      	adcs	r2, r2
1000dee0:	0a83      	lsrs	r3, r0, #10
1000dee2:	428b      	cmp	r3, r1
1000dee4:	d301      	bcc.n	1000deea <__aeabi_uidiv+0x82>
1000dee6:	028b      	lsls	r3, r1, #10
1000dee8:	1ac0      	subs	r0, r0, r3
1000deea:	4152      	adcs	r2, r2
1000deec:	0a43      	lsrs	r3, r0, #9
1000deee:	428b      	cmp	r3, r1
1000def0:	d301      	bcc.n	1000def6 <__aeabi_uidiv+0x8e>
1000def2:	024b      	lsls	r3, r1, #9
1000def4:	1ac0      	subs	r0, r0, r3
1000def6:	4152      	adcs	r2, r2
1000def8:	0a03      	lsrs	r3, r0, #8
1000defa:	428b      	cmp	r3, r1
1000defc:	d301      	bcc.n	1000df02 <__aeabi_uidiv+0x9a>
1000defe:	020b      	lsls	r3, r1, #8
1000df00:	1ac0      	subs	r0, r0, r3
1000df02:	4152      	adcs	r2, r2
1000df04:	d2cd      	bcs.n	1000dea2 <__aeabi_uidiv+0x3a>
1000df06:	09c3      	lsrs	r3, r0, #7
1000df08:	428b      	cmp	r3, r1
1000df0a:	d301      	bcc.n	1000df10 <__aeabi_uidiv+0xa8>
1000df0c:	01cb      	lsls	r3, r1, #7
1000df0e:	1ac0      	subs	r0, r0, r3
1000df10:	4152      	adcs	r2, r2
1000df12:	0983      	lsrs	r3, r0, #6
1000df14:	428b      	cmp	r3, r1
1000df16:	d301      	bcc.n	1000df1c <__aeabi_uidiv+0xb4>
1000df18:	018b      	lsls	r3, r1, #6
1000df1a:	1ac0      	subs	r0, r0, r3
1000df1c:	4152      	adcs	r2, r2
1000df1e:	0943      	lsrs	r3, r0, #5
1000df20:	428b      	cmp	r3, r1
1000df22:	d301      	bcc.n	1000df28 <__aeabi_uidiv+0xc0>
1000df24:	014b      	lsls	r3, r1, #5
1000df26:	1ac0      	subs	r0, r0, r3
1000df28:	4152      	adcs	r2, r2
1000df2a:	0903      	lsrs	r3, r0, #4
1000df2c:	428b      	cmp	r3, r1
1000df2e:	d301      	bcc.n	1000df34 <__aeabi_uidiv+0xcc>
1000df30:	010b      	lsls	r3, r1, #4
1000df32:	1ac0      	subs	r0, r0, r3
1000df34:	4152      	adcs	r2, r2
1000df36:	08c3      	lsrs	r3, r0, #3
1000df38:	428b      	cmp	r3, r1
1000df3a:	d301      	bcc.n	1000df40 <__aeabi_uidiv+0xd8>
1000df3c:	00cb      	lsls	r3, r1, #3
1000df3e:	1ac0      	subs	r0, r0, r3
1000df40:	4152      	adcs	r2, r2
1000df42:	0883      	lsrs	r3, r0, #2
1000df44:	428b      	cmp	r3, r1
1000df46:	d301      	bcc.n	1000df4c <__aeabi_uidiv+0xe4>
1000df48:	008b      	lsls	r3, r1, #2
1000df4a:	1ac0      	subs	r0, r0, r3
1000df4c:	4152      	adcs	r2, r2
1000df4e:	0843      	lsrs	r3, r0, #1
1000df50:	428b      	cmp	r3, r1
1000df52:	d301      	bcc.n	1000df58 <__aeabi_uidiv+0xf0>
1000df54:	004b      	lsls	r3, r1, #1
1000df56:	1ac0      	subs	r0, r0, r3
1000df58:	4152      	adcs	r2, r2
1000df5a:	1a41      	subs	r1, r0, r1
1000df5c:	d200      	bcs.n	1000df60 <__aeabi_uidiv+0xf8>
1000df5e:	4601      	mov	r1, r0
1000df60:	4152      	adcs	r2, r2
1000df62:	4610      	mov	r0, r2
1000df64:	4770      	bx	lr
1000df66:	e7ff      	b.n	1000df68 <__aeabi_uidiv+0x100>
1000df68:	b501      	push	{r0, lr}
1000df6a:	2000      	movs	r0, #0
1000df6c:	f000 f80c 	bl	1000df88 <__aeabi_idiv0>
1000df70:	bd02      	pop	{r1, pc}
1000df72:	46c0      	nop			; (mov r8, r8)

1000df74 <__aeabi_uidivmod>:
1000df74:	2900      	cmp	r1, #0
1000df76:	d0f7      	beq.n	1000df68 <__aeabi_uidiv+0x100>
1000df78:	b503      	push	{r0, r1, lr}
1000df7a:	f7ff ff75 	bl	1000de68 <__aeabi_uidiv>
1000df7e:	bc0e      	pop	{r1, r2, r3}
1000df80:	4342      	muls	r2, r0
1000df82:	1a89      	subs	r1, r1, r2
1000df84:	4718      	bx	r3
1000df86:	46c0      	nop			; (mov r8, r8)

1000df88 <__aeabi_idiv0>:
1000df88:	4770      	bx	lr
1000df8a:	46c0      	nop			; (mov r8, r8)

1000df8c <__aeabi_d2uiz>:
1000df8c:	b538      	push	{r3, r4, r5, lr}
1000df8e:	2200      	movs	r2, #0
1000df90:	4b0c      	ldr	r3, [pc, #48]	; (1000dfc4 <__aeabi_d2uiz+0x38>)
1000df92:	1c04      	adds	r4, r0, #0
1000df94:	1c0d      	adds	r5, r1, #0
1000df96:	f000 fec7 	bl	1000ed28 <__aeabi_dcmpge>
1000df9a:	2800      	cmp	r0, #0
1000df9c:	d104      	bne.n	1000dfa8 <__aeabi_d2uiz+0x1c>
1000df9e:	1c20      	adds	r0, r4, #0
1000dfa0:	1c29      	adds	r1, r5, #0
1000dfa2:	f000 fe25 	bl	1000ebf0 <__aeabi_d2iz>
1000dfa6:	bd38      	pop	{r3, r4, r5, pc}
1000dfa8:	4b06      	ldr	r3, [pc, #24]	; (1000dfc4 <__aeabi_d2uiz+0x38>)
1000dfaa:	2200      	movs	r2, #0
1000dfac:	1c20      	adds	r0, r4, #0
1000dfae:	1c29      	adds	r1, r5, #0
1000dfb0:	f000 faa4 	bl	1000e4fc <__aeabi_dsub>
1000dfb4:	f000 fe1c 	bl	1000ebf0 <__aeabi_d2iz>
1000dfb8:	2380      	movs	r3, #128	; 0x80
1000dfba:	061b      	lsls	r3, r3, #24
1000dfbc:	469c      	mov	ip, r3
1000dfbe:	4460      	add	r0, ip
1000dfc0:	e7f1      	b.n	1000dfa6 <__aeabi_d2uiz+0x1a>
1000dfc2:	46c0      	nop			; (mov r8, r8)
1000dfc4:	41e00000 	.word	0x41e00000

1000dfc8 <__aeabi_dmul>:
1000dfc8:	b5f0      	push	{r4, r5, r6, r7, lr}
1000dfca:	465f      	mov	r7, fp
1000dfcc:	4656      	mov	r6, sl
1000dfce:	464d      	mov	r5, r9
1000dfd0:	4644      	mov	r4, r8
1000dfd2:	b4f0      	push	{r4, r5, r6, r7}
1000dfd4:	1c05      	adds	r5, r0, #0
1000dfd6:	1c06      	adds	r6, r0, #0
1000dfd8:	0308      	lsls	r0, r1, #12
1000dfda:	b087      	sub	sp, #28
1000dfdc:	4699      	mov	r9, r3
1000dfde:	004f      	lsls	r7, r1, #1
1000dfe0:	0b03      	lsrs	r3, r0, #12
1000dfe2:	0fcc      	lsrs	r4, r1, #31
1000dfe4:	4692      	mov	sl, r2
1000dfe6:	469b      	mov	fp, r3
1000dfe8:	0d7f      	lsrs	r7, r7, #21
1000dfea:	9401      	str	r4, [sp, #4]
1000dfec:	d067      	beq.n	1000e0be <__aeabi_dmul+0xf6>
1000dfee:	4b6c      	ldr	r3, [pc, #432]	; (1000e1a0 <__aeabi_dmul+0x1d8>)
1000dff0:	429f      	cmp	r7, r3
1000dff2:	d036      	beq.n	1000e062 <__aeabi_dmul+0x9a>
1000dff4:	2080      	movs	r0, #128	; 0x80
1000dff6:	465b      	mov	r3, fp
1000dff8:	0340      	lsls	r0, r0, #13
1000dffa:	4318      	orrs	r0, r3
1000dffc:	00c0      	lsls	r0, r0, #3
1000dffe:	0f6b      	lsrs	r3, r5, #29
1000e000:	4318      	orrs	r0, r3
1000e002:	4b68      	ldr	r3, [pc, #416]	; (1000e1a4 <__aeabi_dmul+0x1dc>)
1000e004:	4683      	mov	fp, r0
1000e006:	469c      	mov	ip, r3
1000e008:	2300      	movs	r3, #0
1000e00a:	4698      	mov	r8, r3
1000e00c:	00ee      	lsls	r6, r5, #3
1000e00e:	4467      	add	r7, ip
1000e010:	9300      	str	r3, [sp, #0]
1000e012:	464b      	mov	r3, r9
1000e014:	4649      	mov	r1, r9
1000e016:	031d      	lsls	r5, r3, #12
1000e018:	0fc9      	lsrs	r1, r1, #31
1000e01a:	005b      	lsls	r3, r3, #1
1000e01c:	4652      	mov	r2, sl
1000e01e:	0b2d      	lsrs	r5, r5, #12
1000e020:	0d5b      	lsrs	r3, r3, #21
1000e022:	4689      	mov	r9, r1
1000e024:	d100      	bne.n	1000e028 <__aeabi_dmul+0x60>
1000e026:	e06e      	b.n	1000e106 <__aeabi_dmul+0x13e>
1000e028:	495d      	ldr	r1, [pc, #372]	; (1000e1a0 <__aeabi_dmul+0x1d8>)
1000e02a:	428b      	cmp	r3, r1
1000e02c:	d064      	beq.n	1000e0f8 <__aeabi_dmul+0x130>
1000e02e:	2080      	movs	r0, #128	; 0x80
1000e030:	495c      	ldr	r1, [pc, #368]	; (1000e1a4 <__aeabi_dmul+0x1dc>)
1000e032:	0340      	lsls	r0, r0, #13
1000e034:	468c      	mov	ip, r1
1000e036:	2100      	movs	r1, #0
1000e038:	4305      	orrs	r5, r0
1000e03a:	00ed      	lsls	r5, r5, #3
1000e03c:	0f50      	lsrs	r0, r2, #29
1000e03e:	4305      	orrs	r5, r0
1000e040:	00d2      	lsls	r2, r2, #3
1000e042:	4463      	add	r3, ip
1000e044:	4648      	mov	r0, r9
1000e046:	18ff      	adds	r7, r7, r3
1000e048:	1c7b      	adds	r3, r7, #1
1000e04a:	469a      	mov	sl, r3
1000e04c:	9b00      	ldr	r3, [sp, #0]
1000e04e:	4060      	eors	r0, r4
1000e050:	9002      	str	r0, [sp, #8]
1000e052:	430b      	orrs	r3, r1
1000e054:	2b0f      	cmp	r3, #15
1000e056:	d900      	bls.n	1000e05a <__aeabi_dmul+0x92>
1000e058:	e0ac      	b.n	1000e1b4 <__aeabi_dmul+0x1ec>
1000e05a:	4853      	ldr	r0, [pc, #332]	; (1000e1a8 <__aeabi_dmul+0x1e0>)
1000e05c:	009b      	lsls	r3, r3, #2
1000e05e:	58c3      	ldr	r3, [r0, r3]
1000e060:	469f      	mov	pc, r3
1000e062:	465b      	mov	r3, fp
1000e064:	431d      	orrs	r5, r3
1000e066:	d000      	beq.n	1000e06a <__aeabi_dmul+0xa2>
1000e068:	e082      	b.n	1000e170 <__aeabi_dmul+0x1a8>
1000e06a:	2308      	movs	r3, #8
1000e06c:	9300      	str	r3, [sp, #0]
1000e06e:	2300      	movs	r3, #0
1000e070:	469b      	mov	fp, r3
1000e072:	3302      	adds	r3, #2
1000e074:	2600      	movs	r6, #0
1000e076:	4698      	mov	r8, r3
1000e078:	e7cb      	b.n	1000e012 <__aeabi_dmul+0x4a>
1000e07a:	9b02      	ldr	r3, [sp, #8]
1000e07c:	9301      	str	r3, [sp, #4]
1000e07e:	4643      	mov	r3, r8
1000e080:	2b02      	cmp	r3, #2
1000e082:	d159      	bne.n	1000e138 <__aeabi_dmul+0x170>
1000e084:	2401      	movs	r4, #1
1000e086:	2500      	movs	r5, #0
1000e088:	2600      	movs	r6, #0
1000e08a:	9b01      	ldr	r3, [sp, #4]
1000e08c:	401c      	ands	r4, r3
1000e08e:	4b44      	ldr	r3, [pc, #272]	; (1000e1a0 <__aeabi_dmul+0x1d8>)
1000e090:	2100      	movs	r1, #0
1000e092:	032d      	lsls	r5, r5, #12
1000e094:	0d0a      	lsrs	r2, r1, #20
1000e096:	0512      	lsls	r2, r2, #20
1000e098:	0b2d      	lsrs	r5, r5, #12
1000e09a:	4315      	orrs	r5, r2
1000e09c:	4a43      	ldr	r2, [pc, #268]	; (1000e1ac <__aeabi_dmul+0x1e4>)
1000e09e:	051b      	lsls	r3, r3, #20
1000e0a0:	4015      	ands	r5, r2
1000e0a2:	431d      	orrs	r5, r3
1000e0a4:	006d      	lsls	r5, r5, #1
1000e0a6:	07e4      	lsls	r4, r4, #31
1000e0a8:	086d      	lsrs	r5, r5, #1
1000e0aa:	4325      	orrs	r5, r4
1000e0ac:	1c30      	adds	r0, r6, #0
1000e0ae:	1c29      	adds	r1, r5, #0
1000e0b0:	b007      	add	sp, #28
1000e0b2:	bc3c      	pop	{r2, r3, r4, r5}
1000e0b4:	4690      	mov	r8, r2
1000e0b6:	4699      	mov	r9, r3
1000e0b8:	46a2      	mov	sl, r4
1000e0ba:	46ab      	mov	fp, r5
1000e0bc:	bdf0      	pop	{r4, r5, r6, r7, pc}
1000e0be:	432b      	orrs	r3, r5
1000e0c0:	d04e      	beq.n	1000e160 <__aeabi_dmul+0x198>
1000e0c2:	465b      	mov	r3, fp
1000e0c4:	2b00      	cmp	r3, #0
1000e0c6:	d100      	bne.n	1000e0ca <__aeabi_dmul+0x102>
1000e0c8:	e185      	b.n	1000e3d6 <__aeabi_dmul+0x40e>
1000e0ca:	4658      	mov	r0, fp
1000e0cc:	f000 fe36 	bl	1000ed3c <__clzsi2>
1000e0d0:	1c02      	adds	r2, r0, #0
1000e0d2:	2328      	movs	r3, #40	; 0x28
1000e0d4:	1c29      	adds	r1, r5, #0
1000e0d6:	1a9b      	subs	r3, r3, r2
1000e0d8:	1c16      	adds	r6, r2, #0
1000e0da:	4658      	mov	r0, fp
1000e0dc:	40d9      	lsrs	r1, r3
1000e0de:	3e08      	subs	r6, #8
1000e0e0:	40b0      	lsls	r0, r6
1000e0e2:	1c0b      	adds	r3, r1, #0
1000e0e4:	40b5      	lsls	r5, r6
1000e0e6:	4303      	orrs	r3, r0
1000e0e8:	469b      	mov	fp, r3
1000e0ea:	1c2e      	adds	r6, r5, #0
1000e0ec:	2300      	movs	r3, #0
1000e0ee:	4f30      	ldr	r7, [pc, #192]	; (1000e1b0 <__aeabi_dmul+0x1e8>)
1000e0f0:	9300      	str	r3, [sp, #0]
1000e0f2:	1abf      	subs	r7, r7, r2
1000e0f4:	4698      	mov	r8, r3
1000e0f6:	e78c      	b.n	1000e012 <__aeabi_dmul+0x4a>
1000e0f8:	4651      	mov	r1, sl
1000e0fa:	4329      	orrs	r1, r5
1000e0fc:	d12e      	bne.n	1000e15c <__aeabi_dmul+0x194>
1000e0fe:	2500      	movs	r5, #0
1000e100:	2200      	movs	r2, #0
1000e102:	2102      	movs	r1, #2
1000e104:	e79e      	b.n	1000e044 <__aeabi_dmul+0x7c>
1000e106:	4651      	mov	r1, sl
1000e108:	4329      	orrs	r1, r5
1000e10a:	d023      	beq.n	1000e154 <__aeabi_dmul+0x18c>
1000e10c:	2d00      	cmp	r5, #0
1000e10e:	d100      	bne.n	1000e112 <__aeabi_dmul+0x14a>
1000e110:	e154      	b.n	1000e3bc <__aeabi_dmul+0x3f4>
1000e112:	1c28      	adds	r0, r5, #0
1000e114:	f000 fe12 	bl	1000ed3c <__clzsi2>
1000e118:	1c03      	adds	r3, r0, #0
1000e11a:	2128      	movs	r1, #40	; 0x28
1000e11c:	4650      	mov	r0, sl
1000e11e:	1ac9      	subs	r1, r1, r3
1000e120:	1c1a      	adds	r2, r3, #0
1000e122:	40c8      	lsrs	r0, r1
1000e124:	4651      	mov	r1, sl
1000e126:	3a08      	subs	r2, #8
1000e128:	4091      	lsls	r1, r2
1000e12a:	4095      	lsls	r5, r2
1000e12c:	1c0a      	adds	r2, r1, #0
1000e12e:	4305      	orrs	r5, r0
1000e130:	481f      	ldr	r0, [pc, #124]	; (1000e1b0 <__aeabi_dmul+0x1e8>)
1000e132:	2100      	movs	r1, #0
1000e134:	1ac3      	subs	r3, r0, r3
1000e136:	e785      	b.n	1000e044 <__aeabi_dmul+0x7c>
1000e138:	2b03      	cmp	r3, #3
1000e13a:	d100      	bne.n	1000e13e <__aeabi_dmul+0x176>
1000e13c:	e1c2      	b.n	1000e4c4 <__aeabi_dmul+0x4fc>
1000e13e:	2b01      	cmp	r3, #1
1000e140:	d000      	beq.n	1000e144 <__aeabi_dmul+0x17c>
1000e142:	e16d      	b.n	1000e420 <__aeabi_dmul+0x458>
1000e144:	4644      	mov	r4, r8
1000e146:	9b01      	ldr	r3, [sp, #4]
1000e148:	2500      	movs	r5, #0
1000e14a:	401c      	ands	r4, r3
1000e14c:	b2e4      	uxtb	r4, r4
1000e14e:	2300      	movs	r3, #0
1000e150:	2600      	movs	r6, #0
1000e152:	e79d      	b.n	1000e090 <__aeabi_dmul+0xc8>
1000e154:	2500      	movs	r5, #0
1000e156:	2200      	movs	r2, #0
1000e158:	2101      	movs	r1, #1
1000e15a:	e773      	b.n	1000e044 <__aeabi_dmul+0x7c>
1000e15c:	2103      	movs	r1, #3
1000e15e:	e771      	b.n	1000e044 <__aeabi_dmul+0x7c>
1000e160:	2304      	movs	r3, #4
1000e162:	9300      	str	r3, [sp, #0]
1000e164:	2300      	movs	r3, #0
1000e166:	469b      	mov	fp, r3
1000e168:	3301      	adds	r3, #1
1000e16a:	2600      	movs	r6, #0
1000e16c:	4698      	mov	r8, r3
1000e16e:	e750      	b.n	1000e012 <__aeabi_dmul+0x4a>
1000e170:	230c      	movs	r3, #12
1000e172:	9300      	str	r3, [sp, #0]
1000e174:	3b09      	subs	r3, #9
1000e176:	4698      	mov	r8, r3
1000e178:	e74b      	b.n	1000e012 <__aeabi_dmul+0x4a>
1000e17a:	2580      	movs	r5, #128	; 0x80
1000e17c:	2400      	movs	r4, #0
1000e17e:	032d      	lsls	r5, r5, #12
1000e180:	2600      	movs	r6, #0
1000e182:	4b07      	ldr	r3, [pc, #28]	; (1000e1a0 <__aeabi_dmul+0x1d8>)
1000e184:	e784      	b.n	1000e090 <__aeabi_dmul+0xc8>
1000e186:	464b      	mov	r3, r9
1000e188:	46ab      	mov	fp, r5
1000e18a:	1c16      	adds	r6, r2, #0
1000e18c:	9301      	str	r3, [sp, #4]
1000e18e:	4688      	mov	r8, r1
1000e190:	e775      	b.n	1000e07e <__aeabi_dmul+0xb6>
1000e192:	9b02      	ldr	r3, [sp, #8]
1000e194:	46ab      	mov	fp, r5
1000e196:	1c16      	adds	r6, r2, #0
1000e198:	9301      	str	r3, [sp, #4]
1000e19a:	4688      	mov	r8, r1
1000e19c:	e76f      	b.n	1000e07e <__aeabi_dmul+0xb6>
1000e19e:	46c0      	nop			; (mov r8, r8)
1000e1a0:	000007ff 	.word	0x000007ff
1000e1a4:	fffffc01 	.word	0xfffffc01
1000e1a8:	1000fcb8 	.word	0x1000fcb8
1000e1ac:	800fffff 	.word	0x800fffff
1000e1b0:	fffffc0d 	.word	0xfffffc0d
1000e1b4:	0c33      	lsrs	r3, r6, #16
1000e1b6:	0436      	lsls	r6, r6, #16
1000e1b8:	0c36      	lsrs	r6, r6, #16
1000e1ba:	469c      	mov	ip, r3
1000e1bc:	1c33      	adds	r3, r6, #0
1000e1be:	0c14      	lsrs	r4, r2, #16
1000e1c0:	0412      	lsls	r2, r2, #16
1000e1c2:	0c12      	lsrs	r2, r2, #16
1000e1c4:	4353      	muls	r3, r2
1000e1c6:	4698      	mov	r8, r3
1000e1c8:	4663      	mov	r3, ip
1000e1ca:	4353      	muls	r3, r2
1000e1cc:	4699      	mov	r9, r3
1000e1ce:	4663      	mov	r3, ip
1000e1d0:	4363      	muls	r3, r4
1000e1d2:	9301      	str	r3, [sp, #4]
1000e1d4:	1c33      	adds	r3, r6, #0
1000e1d6:	4641      	mov	r1, r8
1000e1d8:	4363      	muls	r3, r4
1000e1da:	0c09      	lsrs	r1, r1, #16
1000e1dc:	444b      	add	r3, r9
1000e1de:	185b      	adds	r3, r3, r1
1000e1e0:	4599      	cmp	r9, r3
1000e1e2:	d905      	bls.n	1000e1f0 <__aeabi_dmul+0x228>
1000e1e4:	2080      	movs	r0, #128	; 0x80
1000e1e6:	0240      	lsls	r0, r0, #9
1000e1e8:	4681      	mov	r9, r0
1000e1ea:	9901      	ldr	r1, [sp, #4]
1000e1ec:	4449      	add	r1, r9
1000e1ee:	9101      	str	r1, [sp, #4]
1000e1f0:	0c19      	lsrs	r1, r3, #16
1000e1f2:	9103      	str	r1, [sp, #12]
1000e1f4:	4641      	mov	r1, r8
1000e1f6:	0409      	lsls	r1, r1, #16
1000e1f8:	0c09      	lsrs	r1, r1, #16
1000e1fa:	041b      	lsls	r3, r3, #16
1000e1fc:	185b      	adds	r3, r3, r1
1000e1fe:	9304      	str	r3, [sp, #16]
1000e200:	0c2b      	lsrs	r3, r5, #16
1000e202:	4698      	mov	r8, r3
1000e204:	1c33      	adds	r3, r6, #0
1000e206:	042d      	lsls	r5, r5, #16
1000e208:	0c29      	lsrs	r1, r5, #16
1000e20a:	434b      	muls	r3, r1
1000e20c:	4660      	mov	r0, ip
1000e20e:	9300      	str	r3, [sp, #0]
1000e210:	4643      	mov	r3, r8
1000e212:	4665      	mov	r5, ip
1000e214:	4358      	muls	r0, r3
1000e216:	435e      	muls	r6, r3
1000e218:	9b00      	ldr	r3, [sp, #0]
1000e21a:	434d      	muls	r5, r1
1000e21c:	0c1b      	lsrs	r3, r3, #16
1000e21e:	4699      	mov	r9, r3
1000e220:	19ae      	adds	r6, r5, r6
1000e222:	444e      	add	r6, r9
1000e224:	4684      	mov	ip, r0
1000e226:	42b5      	cmp	r5, r6
1000e228:	d903      	bls.n	1000e232 <__aeabi_dmul+0x26a>
1000e22a:	2380      	movs	r3, #128	; 0x80
1000e22c:	025b      	lsls	r3, r3, #9
1000e22e:	4699      	mov	r9, r3
1000e230:	44cc      	add	ip, r9
1000e232:	0c35      	lsrs	r5, r6, #16
1000e234:	1c2b      	adds	r3, r5, #0
1000e236:	9803      	ldr	r0, [sp, #12]
1000e238:	4463      	add	r3, ip
1000e23a:	4684      	mov	ip, r0
1000e23c:	9305      	str	r3, [sp, #20]
1000e23e:	9b00      	ldr	r3, [sp, #0]
1000e240:	0436      	lsls	r6, r6, #16
1000e242:	041b      	lsls	r3, r3, #16
1000e244:	0c1b      	lsrs	r3, r3, #16
1000e246:	18f3      	adds	r3, r6, r3
1000e248:	449c      	add	ip, r3
1000e24a:	4660      	mov	r0, ip
1000e24c:	9003      	str	r0, [sp, #12]
1000e24e:	4658      	mov	r0, fp
1000e250:	0405      	lsls	r5, r0, #16
1000e252:	0c06      	lsrs	r6, r0, #16
1000e254:	0c28      	lsrs	r0, r5, #16
1000e256:	4684      	mov	ip, r0
1000e258:	4350      	muls	r0, r2
1000e25a:	1c35      	adds	r5, r6, #0
1000e25c:	4681      	mov	r9, r0
1000e25e:	4660      	mov	r0, ip
1000e260:	4365      	muls	r5, r4
1000e262:	4344      	muls	r4, r0
1000e264:	4648      	mov	r0, r9
1000e266:	0c00      	lsrs	r0, r0, #16
1000e268:	4683      	mov	fp, r0
1000e26a:	4372      	muls	r2, r6
1000e26c:	1914      	adds	r4, r2, r4
1000e26e:	445c      	add	r4, fp
1000e270:	42a2      	cmp	r2, r4
1000e272:	d903      	bls.n	1000e27c <__aeabi_dmul+0x2b4>
1000e274:	2280      	movs	r2, #128	; 0x80
1000e276:	0252      	lsls	r2, r2, #9
1000e278:	4693      	mov	fp, r2
1000e27a:	445d      	add	r5, fp
1000e27c:	0c22      	lsrs	r2, r4, #16
1000e27e:	18ad      	adds	r5, r5, r2
1000e280:	464a      	mov	r2, r9
1000e282:	0412      	lsls	r2, r2, #16
1000e284:	0c12      	lsrs	r2, r2, #16
1000e286:	0424      	lsls	r4, r4, #16
1000e288:	4640      	mov	r0, r8
1000e28a:	18a4      	adds	r4, r4, r2
1000e28c:	4662      	mov	r2, ip
1000e28e:	434a      	muls	r2, r1
1000e290:	4371      	muls	r1, r6
1000e292:	4346      	muls	r6, r0
1000e294:	4660      	mov	r0, ip
1000e296:	9600      	str	r6, [sp, #0]
1000e298:	4646      	mov	r6, r8
1000e29a:	4370      	muls	r0, r6
1000e29c:	4680      	mov	r8, r0
1000e29e:	0c10      	lsrs	r0, r2, #16
1000e2a0:	4684      	mov	ip, r0
1000e2a2:	4488      	add	r8, r1
1000e2a4:	44e0      	add	r8, ip
1000e2a6:	4541      	cmp	r1, r8
1000e2a8:	d905      	bls.n	1000e2b6 <__aeabi_dmul+0x2ee>
1000e2aa:	2180      	movs	r1, #128	; 0x80
1000e2ac:	0249      	lsls	r1, r1, #9
1000e2ae:	468c      	mov	ip, r1
1000e2b0:	9900      	ldr	r1, [sp, #0]
1000e2b2:	4461      	add	r1, ip
1000e2b4:	9100      	str	r1, [sp, #0]
1000e2b6:	9801      	ldr	r0, [sp, #4]
1000e2b8:	9903      	ldr	r1, [sp, #12]
1000e2ba:	4684      	mov	ip, r0
1000e2bc:	4461      	add	r1, ip
1000e2be:	4299      	cmp	r1, r3
1000e2c0:	419b      	sbcs	r3, r3
1000e2c2:	425b      	negs	r3, r3
1000e2c4:	4699      	mov	r9, r3
1000e2c6:	9805      	ldr	r0, [sp, #20]
1000e2c8:	4643      	mov	r3, r8
1000e2ca:	4684      	mov	ip, r0
1000e2cc:	0412      	lsls	r2, r2, #16
1000e2ce:	0c12      	lsrs	r2, r2, #16
1000e2d0:	041b      	lsls	r3, r3, #16
1000e2d2:	189b      	adds	r3, r3, r2
1000e2d4:	4463      	add	r3, ip
1000e2d6:	469c      	mov	ip, r3
1000e2d8:	46ab      	mov	fp, r5
1000e2da:	4283      	cmp	r3, r0
1000e2dc:	419b      	sbcs	r3, r3
1000e2de:	4640      	mov	r0, r8
1000e2e0:	190a      	adds	r2, r1, r4
1000e2e2:	44cc      	add	ip, r9
1000e2e4:	42a2      	cmp	r2, r4
1000e2e6:	4189      	sbcs	r1, r1
1000e2e8:	44e3      	add	fp, ip
1000e2ea:	45cc      	cmp	ip, r9
1000e2ec:	41b6      	sbcs	r6, r6
1000e2ee:	465c      	mov	r4, fp
1000e2f0:	0c00      	lsrs	r0, r0, #16
1000e2f2:	4680      	mov	r8, r0
1000e2f4:	4249      	negs	r1, r1
1000e2f6:	4276      	negs	r6, r6
1000e2f8:	425b      	negs	r3, r3
1000e2fa:	1864      	adds	r4, r4, r1
1000e2fc:	4333      	orrs	r3, r6
1000e2fe:	4498      	add	r8, r3
1000e300:	428c      	cmp	r4, r1
1000e302:	4189      	sbcs	r1, r1
1000e304:	45ab      	cmp	fp, r5
1000e306:	419b      	sbcs	r3, r3
1000e308:	4249      	negs	r1, r1
1000e30a:	425b      	negs	r3, r3
1000e30c:	4319      	orrs	r1, r3
1000e30e:	1c0d      	adds	r5, r1, #0
1000e310:	9b00      	ldr	r3, [sp, #0]
1000e312:	4445      	add	r5, r8
1000e314:	18ee      	adds	r6, r5, r3
1000e316:	0276      	lsls	r6, r6, #9
1000e318:	0de5      	lsrs	r5, r4, #23
1000e31a:	432e      	orrs	r6, r5
1000e31c:	46b3      	mov	fp, r6
1000e31e:	9b04      	ldr	r3, [sp, #16]
1000e320:	0256      	lsls	r6, r2, #9
1000e322:	431e      	orrs	r6, r3
1000e324:	1e73      	subs	r3, r6, #1
1000e326:	419e      	sbcs	r6, r3
1000e328:	465b      	mov	r3, fp
1000e32a:	0dd2      	lsrs	r2, r2, #23
1000e32c:	4332      	orrs	r2, r6
1000e32e:	0266      	lsls	r6, r4, #9
1000e330:	4316      	orrs	r6, r2
1000e332:	01db      	lsls	r3, r3, #7
1000e334:	d50a      	bpl.n	1000e34c <__aeabi_dmul+0x384>
1000e336:	2301      	movs	r3, #1
1000e338:	4033      	ands	r3, r6
1000e33a:	0876      	lsrs	r6, r6, #1
1000e33c:	431e      	orrs	r6, r3
1000e33e:	465b      	mov	r3, fp
1000e340:	07db      	lsls	r3, r3, #31
1000e342:	431e      	orrs	r6, r3
1000e344:	465b      	mov	r3, fp
1000e346:	085b      	lsrs	r3, r3, #1
1000e348:	469b      	mov	fp, r3
1000e34a:	4657      	mov	r7, sl
1000e34c:	4b63      	ldr	r3, [pc, #396]	; (1000e4dc <__aeabi_dmul+0x514>)
1000e34e:	18fb      	adds	r3, r7, r3
1000e350:	2b00      	cmp	r3, #0
1000e352:	dd5a      	ble.n	1000e40a <__aeabi_dmul+0x442>
1000e354:	0772      	lsls	r2, r6, #29
1000e356:	d009      	beq.n	1000e36c <__aeabi_dmul+0x3a4>
1000e358:	220f      	movs	r2, #15
1000e35a:	4032      	ands	r2, r6
1000e35c:	2a04      	cmp	r2, #4
1000e35e:	d005      	beq.n	1000e36c <__aeabi_dmul+0x3a4>
1000e360:	1d32      	adds	r2, r6, #4
1000e362:	42b2      	cmp	r2, r6
1000e364:	41b6      	sbcs	r6, r6
1000e366:	4276      	negs	r6, r6
1000e368:	44b3      	add	fp, r6
1000e36a:	1c16      	adds	r6, r2, #0
1000e36c:	465a      	mov	r2, fp
1000e36e:	01d2      	lsls	r2, r2, #7
1000e370:	d506      	bpl.n	1000e380 <__aeabi_dmul+0x3b8>
1000e372:	465a      	mov	r2, fp
1000e374:	4b5a      	ldr	r3, [pc, #360]	; (1000e4e0 <__aeabi_dmul+0x518>)
1000e376:	401a      	ands	r2, r3
1000e378:	2380      	movs	r3, #128	; 0x80
1000e37a:	4693      	mov	fp, r2
1000e37c:	00db      	lsls	r3, r3, #3
1000e37e:	18fb      	adds	r3, r7, r3
1000e380:	4a58      	ldr	r2, [pc, #352]	; (1000e4e4 <__aeabi_dmul+0x51c>)
1000e382:	4293      	cmp	r3, r2
1000e384:	dd34      	ble.n	1000e3f0 <__aeabi_dmul+0x428>
1000e386:	2401      	movs	r4, #1
1000e388:	9b02      	ldr	r3, [sp, #8]
1000e38a:	2500      	movs	r5, #0
1000e38c:	401c      	ands	r4, r3
1000e38e:	2600      	movs	r6, #0
1000e390:	4b55      	ldr	r3, [pc, #340]	; (1000e4e8 <__aeabi_dmul+0x520>)
1000e392:	e67d      	b.n	1000e090 <__aeabi_dmul+0xc8>
1000e394:	2080      	movs	r0, #128	; 0x80
1000e396:	465b      	mov	r3, fp
1000e398:	0300      	lsls	r0, r0, #12
1000e39a:	4203      	tst	r3, r0
1000e39c:	d008      	beq.n	1000e3b0 <__aeabi_dmul+0x3e8>
1000e39e:	4205      	tst	r5, r0
1000e3a0:	d106      	bne.n	1000e3b0 <__aeabi_dmul+0x3e8>
1000e3a2:	4305      	orrs	r5, r0
1000e3a4:	032d      	lsls	r5, r5, #12
1000e3a6:	0b2d      	lsrs	r5, r5, #12
1000e3a8:	464c      	mov	r4, r9
1000e3aa:	1c16      	adds	r6, r2, #0
1000e3ac:	4b4e      	ldr	r3, [pc, #312]	; (1000e4e8 <__aeabi_dmul+0x520>)
1000e3ae:	e66f      	b.n	1000e090 <__aeabi_dmul+0xc8>
1000e3b0:	465d      	mov	r5, fp
1000e3b2:	4305      	orrs	r5, r0
1000e3b4:	032d      	lsls	r5, r5, #12
1000e3b6:	0b2d      	lsrs	r5, r5, #12
1000e3b8:	4b4b      	ldr	r3, [pc, #300]	; (1000e4e8 <__aeabi_dmul+0x520>)
1000e3ba:	e669      	b.n	1000e090 <__aeabi_dmul+0xc8>
1000e3bc:	4650      	mov	r0, sl
1000e3be:	f000 fcbd 	bl	1000ed3c <__clzsi2>
1000e3c2:	1c03      	adds	r3, r0, #0
1000e3c4:	3320      	adds	r3, #32
1000e3c6:	2b27      	cmp	r3, #39	; 0x27
1000e3c8:	dc00      	bgt.n	1000e3cc <__aeabi_dmul+0x404>
1000e3ca:	e6a6      	b.n	1000e11a <__aeabi_dmul+0x152>
1000e3cc:	4655      	mov	r5, sl
1000e3ce:	3808      	subs	r0, #8
1000e3d0:	4085      	lsls	r5, r0
1000e3d2:	2200      	movs	r2, #0
1000e3d4:	e6ac      	b.n	1000e130 <__aeabi_dmul+0x168>
1000e3d6:	1c28      	adds	r0, r5, #0
1000e3d8:	f000 fcb0 	bl	1000ed3c <__clzsi2>
1000e3dc:	1c02      	adds	r2, r0, #0
1000e3de:	3220      	adds	r2, #32
1000e3e0:	2a27      	cmp	r2, #39	; 0x27
1000e3e2:	dc00      	bgt.n	1000e3e6 <__aeabi_dmul+0x41e>
1000e3e4:	e675      	b.n	1000e0d2 <__aeabi_dmul+0x10a>
1000e3e6:	3808      	subs	r0, #8
1000e3e8:	4085      	lsls	r5, r0
1000e3ea:	2600      	movs	r6, #0
1000e3ec:	46ab      	mov	fp, r5
1000e3ee:	e67d      	b.n	1000e0ec <__aeabi_dmul+0x124>
1000e3f0:	465a      	mov	r2, fp
1000e3f2:	08f6      	lsrs	r6, r6, #3
1000e3f4:	0752      	lsls	r2, r2, #29
1000e3f6:	4316      	orrs	r6, r2
1000e3f8:	465a      	mov	r2, fp
1000e3fa:	2401      	movs	r4, #1
1000e3fc:	0255      	lsls	r5, r2, #9
1000e3fe:	9a02      	ldr	r2, [sp, #8]
1000e400:	055b      	lsls	r3, r3, #21
1000e402:	0b2d      	lsrs	r5, r5, #12
1000e404:	0d5b      	lsrs	r3, r3, #21
1000e406:	4014      	ands	r4, r2
1000e408:	e642      	b.n	1000e090 <__aeabi_dmul+0xc8>
1000e40a:	4d38      	ldr	r5, [pc, #224]	; (1000e4ec <__aeabi_dmul+0x524>)
1000e40c:	1bed      	subs	r5, r5, r7
1000e40e:	2d38      	cmp	r5, #56	; 0x38
1000e410:	dd0a      	ble.n	1000e428 <__aeabi_dmul+0x460>
1000e412:	2401      	movs	r4, #1
1000e414:	9b02      	ldr	r3, [sp, #8]
1000e416:	2500      	movs	r5, #0
1000e418:	401c      	ands	r4, r3
1000e41a:	2600      	movs	r6, #0
1000e41c:	2300      	movs	r3, #0
1000e41e:	e637      	b.n	1000e090 <__aeabi_dmul+0xc8>
1000e420:	9b01      	ldr	r3, [sp, #4]
1000e422:	4657      	mov	r7, sl
1000e424:	9302      	str	r3, [sp, #8]
1000e426:	e791      	b.n	1000e34c <__aeabi_dmul+0x384>
1000e428:	2d1f      	cmp	r5, #31
1000e42a:	dc25      	bgt.n	1000e478 <__aeabi_dmul+0x4b0>
1000e42c:	4b30      	ldr	r3, [pc, #192]	; (1000e4f0 <__aeabi_dmul+0x528>)
1000e42e:	1c32      	adds	r2, r6, #0
1000e430:	469c      	mov	ip, r3
1000e432:	4467      	add	r7, ip
1000e434:	40be      	lsls	r6, r7
1000e436:	465b      	mov	r3, fp
1000e438:	40bb      	lsls	r3, r7
1000e43a:	1c37      	adds	r7, r6, #0
1000e43c:	40ea      	lsrs	r2, r5
1000e43e:	1e7e      	subs	r6, r7, #1
1000e440:	41b7      	sbcs	r7, r6
1000e442:	4313      	orrs	r3, r2
1000e444:	433b      	orrs	r3, r7
1000e446:	1c1e      	adds	r6, r3, #0
1000e448:	465b      	mov	r3, fp
1000e44a:	40eb      	lsrs	r3, r5
1000e44c:	1c1d      	adds	r5, r3, #0
1000e44e:	0773      	lsls	r3, r6, #29
1000e450:	d009      	beq.n	1000e466 <__aeabi_dmul+0x49e>
1000e452:	230f      	movs	r3, #15
1000e454:	4033      	ands	r3, r6
1000e456:	2b04      	cmp	r3, #4
1000e458:	d005      	beq.n	1000e466 <__aeabi_dmul+0x49e>
1000e45a:	1d33      	adds	r3, r6, #4
1000e45c:	42b3      	cmp	r3, r6
1000e45e:	41b6      	sbcs	r6, r6
1000e460:	4276      	negs	r6, r6
1000e462:	19ad      	adds	r5, r5, r6
1000e464:	1c1e      	adds	r6, r3, #0
1000e466:	022b      	lsls	r3, r5, #8
1000e468:	d520      	bpl.n	1000e4ac <__aeabi_dmul+0x4e4>
1000e46a:	2401      	movs	r4, #1
1000e46c:	9b02      	ldr	r3, [sp, #8]
1000e46e:	2500      	movs	r5, #0
1000e470:	401c      	ands	r4, r3
1000e472:	2600      	movs	r6, #0
1000e474:	2301      	movs	r3, #1
1000e476:	e60b      	b.n	1000e090 <__aeabi_dmul+0xc8>
1000e478:	465a      	mov	r2, fp
1000e47a:	4b1e      	ldr	r3, [pc, #120]	; (1000e4f4 <__aeabi_dmul+0x52c>)
1000e47c:	1bdb      	subs	r3, r3, r7
1000e47e:	40da      	lsrs	r2, r3
1000e480:	1c13      	adds	r3, r2, #0
1000e482:	2d20      	cmp	r5, #32
1000e484:	d01c      	beq.n	1000e4c0 <__aeabi_dmul+0x4f8>
1000e486:	4a1c      	ldr	r2, [pc, #112]	; (1000e4f8 <__aeabi_dmul+0x530>)
1000e488:	4694      	mov	ip, r2
1000e48a:	465a      	mov	r2, fp
1000e48c:	4467      	add	r7, ip
1000e48e:	40ba      	lsls	r2, r7
1000e490:	1c17      	adds	r7, r2, #0
1000e492:	433e      	orrs	r6, r7
1000e494:	1e72      	subs	r2, r6, #1
1000e496:	4196      	sbcs	r6, r2
1000e498:	431e      	orrs	r6, r3
1000e49a:	2307      	movs	r3, #7
1000e49c:	2500      	movs	r5, #0
1000e49e:	4033      	ands	r3, r6
1000e4a0:	d007      	beq.n	1000e4b2 <__aeabi_dmul+0x4ea>
1000e4a2:	230f      	movs	r3, #15
1000e4a4:	2500      	movs	r5, #0
1000e4a6:	4033      	ands	r3, r6
1000e4a8:	2b04      	cmp	r3, #4
1000e4aa:	d1d6      	bne.n	1000e45a <__aeabi_dmul+0x492>
1000e4ac:	076b      	lsls	r3, r5, #29
1000e4ae:	026d      	lsls	r5, r5, #9
1000e4b0:	0b2d      	lsrs	r5, r5, #12
1000e4b2:	2401      	movs	r4, #1
1000e4b4:	08f6      	lsrs	r6, r6, #3
1000e4b6:	431e      	orrs	r6, r3
1000e4b8:	9b02      	ldr	r3, [sp, #8]
1000e4ba:	401c      	ands	r4, r3
1000e4bc:	2300      	movs	r3, #0
1000e4be:	e5e7      	b.n	1000e090 <__aeabi_dmul+0xc8>
1000e4c0:	2700      	movs	r7, #0
1000e4c2:	e7e6      	b.n	1000e492 <__aeabi_dmul+0x4ca>
1000e4c4:	2580      	movs	r5, #128	; 0x80
1000e4c6:	465b      	mov	r3, fp
1000e4c8:	2401      	movs	r4, #1
1000e4ca:	032d      	lsls	r5, r5, #12
1000e4cc:	431d      	orrs	r5, r3
1000e4ce:	9b01      	ldr	r3, [sp, #4]
1000e4d0:	032d      	lsls	r5, r5, #12
1000e4d2:	4023      	ands	r3, r4
1000e4d4:	1c1c      	adds	r4, r3, #0
1000e4d6:	0b2d      	lsrs	r5, r5, #12
1000e4d8:	4b03      	ldr	r3, [pc, #12]	; (1000e4e8 <__aeabi_dmul+0x520>)
1000e4da:	e5d9      	b.n	1000e090 <__aeabi_dmul+0xc8>
1000e4dc:	000003ff 	.word	0x000003ff
1000e4e0:	feffffff 	.word	0xfeffffff
1000e4e4:	000007fe 	.word	0x000007fe
1000e4e8:	000007ff 	.word	0x000007ff
1000e4ec:	fffffc02 	.word	0xfffffc02
1000e4f0:	0000041e 	.word	0x0000041e
1000e4f4:	fffffbe2 	.word	0xfffffbe2
1000e4f8:	0000043e 	.word	0x0000043e

1000e4fc <__aeabi_dsub>:
1000e4fc:	b5f0      	push	{r4, r5, r6, r7, lr}
1000e4fe:	464d      	mov	r5, r9
1000e500:	4644      	mov	r4, r8
1000e502:	465f      	mov	r7, fp
1000e504:	4656      	mov	r6, sl
1000e506:	b4f0      	push	{r4, r5, r6, r7}
1000e508:	1c0e      	adds	r6, r1, #0
1000e50a:	1c11      	adds	r1, r2, #0
1000e50c:	0332      	lsls	r2, r6, #12
1000e50e:	0a52      	lsrs	r2, r2, #9
1000e510:	0f47      	lsrs	r7, r0, #29
1000e512:	4317      	orrs	r7, r2
1000e514:	00c5      	lsls	r5, r0, #3
1000e516:	031a      	lsls	r2, r3, #12
1000e518:	0058      	lsls	r0, r3, #1
1000e51a:	0fdb      	lsrs	r3, r3, #31
1000e51c:	4699      	mov	r9, r3
1000e51e:	0a52      	lsrs	r2, r2, #9
1000e520:	0f4b      	lsrs	r3, r1, #29
1000e522:	b083      	sub	sp, #12
1000e524:	431a      	orrs	r2, r3
1000e526:	00cb      	lsls	r3, r1, #3
1000e528:	9301      	str	r3, [sp, #4]
1000e52a:	4bcf      	ldr	r3, [pc, #828]	; (1000e868 <__aeabi_dsub+0x36c>)
1000e52c:	0074      	lsls	r4, r6, #1
1000e52e:	0ff6      	lsrs	r6, r6, #31
1000e530:	0d64      	lsrs	r4, r4, #21
1000e532:	46b0      	mov	r8, r6
1000e534:	0d40      	lsrs	r0, r0, #21
1000e536:	4298      	cmp	r0, r3
1000e538:	d100      	bne.n	1000e53c <__aeabi_dsub+0x40>
1000e53a:	e0e8      	b.n	1000e70e <__aeabi_dsub+0x212>
1000e53c:	2301      	movs	r3, #1
1000e53e:	4649      	mov	r1, r9
1000e540:	4059      	eors	r1, r3
1000e542:	1c0b      	adds	r3, r1, #0
1000e544:	429e      	cmp	r6, r3
1000e546:	d100      	bne.n	1000e54a <__aeabi_dsub+0x4e>
1000e548:	e0b1      	b.n	1000e6ae <__aeabi_dsub+0x1b2>
1000e54a:	1a26      	subs	r6, r4, r0
1000e54c:	2e00      	cmp	r6, #0
1000e54e:	dc00      	bgt.n	1000e552 <__aeabi_dsub+0x56>
1000e550:	e11c      	b.n	1000e78c <__aeabi_dsub+0x290>
1000e552:	2800      	cmp	r0, #0
1000e554:	d142      	bne.n	1000e5dc <__aeabi_dsub+0xe0>
1000e556:	1c13      	adds	r3, r2, #0
1000e558:	9901      	ldr	r1, [sp, #4]
1000e55a:	430b      	orrs	r3, r1
1000e55c:	d000      	beq.n	1000e560 <__aeabi_dsub+0x64>
1000e55e:	e0e6      	b.n	1000e72e <__aeabi_dsub+0x232>
1000e560:	076b      	lsls	r3, r5, #29
1000e562:	d100      	bne.n	1000e566 <__aeabi_dsub+0x6a>
1000e564:	e08e      	b.n	1000e684 <__aeabi_dsub+0x188>
1000e566:	230f      	movs	r3, #15
1000e568:	402b      	ands	r3, r5
1000e56a:	2b04      	cmp	r3, #4
1000e56c:	d100      	bne.n	1000e570 <__aeabi_dsub+0x74>
1000e56e:	e089      	b.n	1000e684 <__aeabi_dsub+0x188>
1000e570:	1d2a      	adds	r2, r5, #4
1000e572:	42aa      	cmp	r2, r5
1000e574:	41ad      	sbcs	r5, r5
1000e576:	2380      	movs	r3, #128	; 0x80
1000e578:	2601      	movs	r6, #1
1000e57a:	4641      	mov	r1, r8
1000e57c:	426d      	negs	r5, r5
1000e57e:	197f      	adds	r7, r7, r5
1000e580:	041b      	lsls	r3, r3, #16
1000e582:	403b      	ands	r3, r7
1000e584:	400e      	ands	r6, r1
1000e586:	1c15      	adds	r5, r2, #0
1000e588:	2b00      	cmp	r3, #0
1000e58a:	d100      	bne.n	1000e58e <__aeabi_dsub+0x92>
1000e58c:	e083      	b.n	1000e696 <__aeabi_dsub+0x19a>
1000e58e:	4bb6      	ldr	r3, [pc, #728]	; (1000e868 <__aeabi_dsub+0x36c>)
1000e590:	3401      	adds	r4, #1
1000e592:	429c      	cmp	r4, r3
1000e594:	d100      	bne.n	1000e598 <__aeabi_dsub+0x9c>
1000e596:	e116      	b.n	1000e7c6 <__aeabi_dsub+0x2ca>
1000e598:	1c3a      	adds	r2, r7, #0
1000e59a:	4bb4      	ldr	r3, [pc, #720]	; (1000e86c <__aeabi_dsub+0x370>)
1000e59c:	08ed      	lsrs	r5, r5, #3
1000e59e:	401a      	ands	r2, r3
1000e5a0:	0750      	lsls	r0, r2, #29
1000e5a2:	0564      	lsls	r4, r4, #21
1000e5a4:	0252      	lsls	r2, r2, #9
1000e5a6:	4305      	orrs	r5, r0
1000e5a8:	0b12      	lsrs	r2, r2, #12
1000e5aa:	0d64      	lsrs	r4, r4, #21
1000e5ac:	2100      	movs	r1, #0
1000e5ae:	0312      	lsls	r2, r2, #12
1000e5b0:	0d0b      	lsrs	r3, r1, #20
1000e5b2:	051b      	lsls	r3, r3, #20
1000e5b4:	0564      	lsls	r4, r4, #21
1000e5b6:	0b12      	lsrs	r2, r2, #12
1000e5b8:	431a      	orrs	r2, r3
1000e5ba:	0863      	lsrs	r3, r4, #1
1000e5bc:	4cac      	ldr	r4, [pc, #688]	; (1000e870 <__aeabi_dsub+0x374>)
1000e5be:	07f6      	lsls	r6, r6, #31
1000e5c0:	4014      	ands	r4, r2
1000e5c2:	431c      	orrs	r4, r3
1000e5c4:	0064      	lsls	r4, r4, #1
1000e5c6:	0864      	lsrs	r4, r4, #1
1000e5c8:	4334      	orrs	r4, r6
1000e5ca:	1c28      	adds	r0, r5, #0
1000e5cc:	1c21      	adds	r1, r4, #0
1000e5ce:	b003      	add	sp, #12
1000e5d0:	bc3c      	pop	{r2, r3, r4, r5}
1000e5d2:	4690      	mov	r8, r2
1000e5d4:	4699      	mov	r9, r3
1000e5d6:	46a2      	mov	sl, r4
1000e5d8:	46ab      	mov	fp, r5
1000e5da:	bdf0      	pop	{r4, r5, r6, r7, pc}
1000e5dc:	4ba2      	ldr	r3, [pc, #648]	; (1000e868 <__aeabi_dsub+0x36c>)
1000e5de:	429c      	cmp	r4, r3
1000e5e0:	d0be      	beq.n	1000e560 <__aeabi_dsub+0x64>
1000e5e2:	2380      	movs	r3, #128	; 0x80
1000e5e4:	041b      	lsls	r3, r3, #16
1000e5e6:	431a      	orrs	r2, r3
1000e5e8:	2e38      	cmp	r6, #56	; 0x38
1000e5ea:	dd00      	ble.n	1000e5ee <__aeabi_dsub+0xf2>
1000e5ec:	e103      	b.n	1000e7f6 <__aeabi_dsub+0x2fa>
1000e5ee:	2e1f      	cmp	r6, #31
1000e5f0:	dd00      	ble.n	1000e5f4 <__aeabi_dsub+0xf8>
1000e5f2:	e13f      	b.n	1000e874 <__aeabi_dsub+0x378>
1000e5f4:	2020      	movs	r0, #32
1000e5f6:	1b83      	subs	r3, r0, r6
1000e5f8:	4699      	mov	r9, r3
1000e5fa:	1c13      	adds	r3, r2, #0
1000e5fc:	4649      	mov	r1, r9
1000e5fe:	408b      	lsls	r3, r1
1000e600:	469c      	mov	ip, r3
1000e602:	9b01      	ldr	r3, [sp, #4]
1000e604:	4660      	mov	r0, ip
1000e606:	40f3      	lsrs	r3, r6
1000e608:	4303      	orrs	r3, r0
1000e60a:	9801      	ldr	r0, [sp, #4]
1000e60c:	40f2      	lsrs	r2, r6
1000e60e:	4088      	lsls	r0, r1
1000e610:	1c01      	adds	r1, r0, #0
1000e612:	1e48      	subs	r0, r1, #1
1000e614:	4181      	sbcs	r1, r0
1000e616:	430b      	orrs	r3, r1
1000e618:	1aeb      	subs	r3, r5, r3
1000e61a:	429d      	cmp	r5, r3
1000e61c:	4180      	sbcs	r0, r0
1000e61e:	1c1d      	adds	r5, r3, #0
1000e620:	1aba      	subs	r2, r7, r2
1000e622:	4240      	negs	r0, r0
1000e624:	1a17      	subs	r7, r2, r0
1000e626:	023b      	lsls	r3, r7, #8
1000e628:	d400      	bmi.n	1000e62c <__aeabi_dsub+0x130>
1000e62a:	e0a8      	b.n	1000e77e <__aeabi_dsub+0x282>
1000e62c:	027a      	lsls	r2, r7, #9
1000e62e:	0a56      	lsrs	r6, r2, #9
1000e630:	2e00      	cmp	r6, #0
1000e632:	d100      	bne.n	1000e636 <__aeabi_dsub+0x13a>
1000e634:	e0ca      	b.n	1000e7cc <__aeabi_dsub+0x2d0>
1000e636:	1c30      	adds	r0, r6, #0
1000e638:	f000 fb80 	bl	1000ed3c <__clzsi2>
1000e63c:	1c03      	adds	r3, r0, #0
1000e63e:	3b08      	subs	r3, #8
1000e640:	2b1f      	cmp	r3, #31
1000e642:	dd00      	ble.n	1000e646 <__aeabi_dsub+0x14a>
1000e644:	e0cb      	b.n	1000e7de <__aeabi_dsub+0x2e2>
1000e646:	2228      	movs	r2, #40	; 0x28
1000e648:	1c29      	adds	r1, r5, #0
1000e64a:	1a12      	subs	r2, r2, r0
1000e64c:	40d1      	lsrs	r1, r2
1000e64e:	409e      	lsls	r6, r3
1000e650:	1c0a      	adds	r2, r1, #0
1000e652:	409d      	lsls	r5, r3
1000e654:	4332      	orrs	r2, r6
1000e656:	429c      	cmp	r4, r3
1000e658:	dd00      	ble.n	1000e65c <__aeabi_dsub+0x160>
1000e65a:	e0c8      	b.n	1000e7ee <__aeabi_dsub+0x2f2>
1000e65c:	1b1c      	subs	r4, r3, r4
1000e65e:	1c67      	adds	r7, r4, #1
1000e660:	2f1f      	cmp	r7, #31
1000e662:	dd00      	ble.n	1000e666 <__aeabi_dsub+0x16a>
1000e664:	e0ed      	b.n	1000e842 <__aeabi_dsub+0x346>
1000e666:	231f      	movs	r3, #31
1000e668:	1c29      	adds	r1, r5, #0
1000e66a:	1b1c      	subs	r4, r3, r4
1000e66c:	1c13      	adds	r3, r2, #0
1000e66e:	40a5      	lsls	r5, r4
1000e670:	40a3      	lsls	r3, r4
1000e672:	40f9      	lsrs	r1, r7
1000e674:	1e6c      	subs	r4, r5, #1
1000e676:	41a5      	sbcs	r5, r4
1000e678:	40fa      	lsrs	r2, r7
1000e67a:	4319      	orrs	r1, r3
1000e67c:	430d      	orrs	r5, r1
1000e67e:	1c17      	adds	r7, r2, #0
1000e680:	2400      	movs	r4, #0
1000e682:	e76d      	b.n	1000e560 <__aeabi_dsub+0x64>
1000e684:	2380      	movs	r3, #128	; 0x80
1000e686:	2601      	movs	r6, #1
1000e688:	4642      	mov	r2, r8
1000e68a:	041b      	lsls	r3, r3, #16
1000e68c:	403b      	ands	r3, r7
1000e68e:	4016      	ands	r6, r2
1000e690:	2b00      	cmp	r3, #0
1000e692:	d000      	beq.n	1000e696 <__aeabi_dsub+0x19a>
1000e694:	e77b      	b.n	1000e58e <__aeabi_dsub+0x92>
1000e696:	4b74      	ldr	r3, [pc, #464]	; (1000e868 <__aeabi_dsub+0x36c>)
1000e698:	08ed      	lsrs	r5, r5, #3
1000e69a:	0778      	lsls	r0, r7, #29
1000e69c:	4305      	orrs	r5, r0
1000e69e:	08fa      	lsrs	r2, r7, #3
1000e6a0:	429c      	cmp	r4, r3
1000e6a2:	d03b      	beq.n	1000e71c <__aeabi_dsub+0x220>
1000e6a4:	0312      	lsls	r2, r2, #12
1000e6a6:	0564      	lsls	r4, r4, #21
1000e6a8:	0b12      	lsrs	r2, r2, #12
1000e6aa:	0d64      	lsrs	r4, r4, #21
1000e6ac:	e77e      	b.n	1000e5ac <__aeabi_dsub+0xb0>
1000e6ae:	1a23      	subs	r3, r4, r0
1000e6b0:	469a      	mov	sl, r3
1000e6b2:	2b00      	cmp	r3, #0
1000e6b4:	dc00      	bgt.n	1000e6b8 <__aeabi_dsub+0x1bc>
1000e6b6:	e0a5      	b.n	1000e804 <__aeabi_dsub+0x308>
1000e6b8:	2800      	cmp	r0, #0
1000e6ba:	d044      	beq.n	1000e746 <__aeabi_dsub+0x24a>
1000e6bc:	486a      	ldr	r0, [pc, #424]	; (1000e868 <__aeabi_dsub+0x36c>)
1000e6be:	4284      	cmp	r4, r0
1000e6c0:	d100      	bne.n	1000e6c4 <__aeabi_dsub+0x1c8>
1000e6c2:	e74d      	b.n	1000e560 <__aeabi_dsub+0x64>
1000e6c4:	2080      	movs	r0, #128	; 0x80
1000e6c6:	0400      	lsls	r0, r0, #16
1000e6c8:	4302      	orrs	r2, r0
1000e6ca:	4653      	mov	r3, sl
1000e6cc:	2b38      	cmp	r3, #56	; 0x38
1000e6ce:	dc00      	bgt.n	1000e6d2 <__aeabi_dsub+0x1d6>
1000e6d0:	e11c      	b.n	1000e90c <__aeabi_dsub+0x410>
1000e6d2:	9b01      	ldr	r3, [sp, #4]
1000e6d4:	431a      	orrs	r2, r3
1000e6d6:	1e51      	subs	r1, r2, #1
1000e6d8:	418a      	sbcs	r2, r1
1000e6da:	b2d1      	uxtb	r1, r2
1000e6dc:	2200      	movs	r2, #0
1000e6de:	1949      	adds	r1, r1, r5
1000e6e0:	42a9      	cmp	r1, r5
1000e6e2:	4180      	sbcs	r0, r0
1000e6e4:	1c0d      	adds	r5, r1, #0
1000e6e6:	19d2      	adds	r2, r2, r7
1000e6e8:	4240      	negs	r0, r0
1000e6ea:	1817      	adds	r7, r2, r0
1000e6ec:	023b      	lsls	r3, r7, #8
1000e6ee:	d546      	bpl.n	1000e77e <__aeabi_dsub+0x282>
1000e6f0:	4b5d      	ldr	r3, [pc, #372]	; (1000e868 <__aeabi_dsub+0x36c>)
1000e6f2:	3401      	adds	r4, #1
1000e6f4:	429c      	cmp	r4, r3
1000e6f6:	d100      	bne.n	1000e6fa <__aeabi_dsub+0x1fe>
1000e6f8:	e169      	b.n	1000e9ce <__aeabi_dsub+0x4d2>
1000e6fa:	2001      	movs	r0, #1
1000e6fc:	4a5b      	ldr	r2, [pc, #364]	; (1000e86c <__aeabi_dsub+0x370>)
1000e6fe:	086b      	lsrs	r3, r5, #1
1000e700:	403a      	ands	r2, r7
1000e702:	4028      	ands	r0, r5
1000e704:	4318      	orrs	r0, r3
1000e706:	07d5      	lsls	r5, r2, #31
1000e708:	4305      	orrs	r5, r0
1000e70a:	0857      	lsrs	r7, r2, #1
1000e70c:	e728      	b.n	1000e560 <__aeabi_dsub+0x64>
1000e70e:	1c13      	adds	r3, r2, #0
1000e710:	9901      	ldr	r1, [sp, #4]
1000e712:	430b      	orrs	r3, r1
1000e714:	d100      	bne.n	1000e718 <__aeabi_dsub+0x21c>
1000e716:	e711      	b.n	1000e53c <__aeabi_dsub+0x40>
1000e718:	464b      	mov	r3, r9
1000e71a:	e713      	b.n	1000e544 <__aeabi_dsub+0x48>
1000e71c:	1c2b      	adds	r3, r5, #0
1000e71e:	4313      	orrs	r3, r2
1000e720:	d051      	beq.n	1000e7c6 <__aeabi_dsub+0x2ca>
1000e722:	2380      	movs	r3, #128	; 0x80
1000e724:	031b      	lsls	r3, r3, #12
1000e726:	431a      	orrs	r2, r3
1000e728:	0312      	lsls	r2, r2, #12
1000e72a:	0b12      	lsrs	r2, r2, #12
1000e72c:	e73e      	b.n	1000e5ac <__aeabi_dsub+0xb0>
1000e72e:	3e01      	subs	r6, #1
1000e730:	2e00      	cmp	r6, #0
1000e732:	d000      	beq.n	1000e736 <__aeabi_dsub+0x23a>
1000e734:	e080      	b.n	1000e838 <__aeabi_dsub+0x33c>
1000e736:	1a69      	subs	r1, r5, r1
1000e738:	428d      	cmp	r5, r1
1000e73a:	419b      	sbcs	r3, r3
1000e73c:	1aba      	subs	r2, r7, r2
1000e73e:	425b      	negs	r3, r3
1000e740:	1ad7      	subs	r7, r2, r3
1000e742:	1c0d      	adds	r5, r1, #0
1000e744:	e76f      	b.n	1000e626 <__aeabi_dsub+0x12a>
1000e746:	1c10      	adds	r0, r2, #0
1000e748:	9b01      	ldr	r3, [sp, #4]
1000e74a:	4318      	orrs	r0, r3
1000e74c:	d100      	bne.n	1000e750 <__aeabi_dsub+0x254>
1000e74e:	e707      	b.n	1000e560 <__aeabi_dsub+0x64>
1000e750:	2301      	movs	r3, #1
1000e752:	425b      	negs	r3, r3
1000e754:	469c      	mov	ip, r3
1000e756:	44e2      	add	sl, ip
1000e758:	4653      	mov	r3, sl
1000e75a:	2b00      	cmp	r3, #0
1000e75c:	d000      	beq.n	1000e760 <__aeabi_dsub+0x264>
1000e75e:	e102      	b.n	1000e966 <__aeabi_dsub+0x46a>
1000e760:	9b01      	ldr	r3, [sp, #4]
1000e762:	19d2      	adds	r2, r2, r7
1000e764:	1959      	adds	r1, r3, r5
1000e766:	42a9      	cmp	r1, r5
1000e768:	419b      	sbcs	r3, r3
1000e76a:	425b      	negs	r3, r3
1000e76c:	18d7      	adds	r7, r2, r3
1000e76e:	1c0d      	adds	r5, r1, #0
1000e770:	e7bc      	b.n	1000e6ec <__aeabi_dsub+0x1f0>
1000e772:	4663      	mov	r3, ip
1000e774:	4303      	orrs	r3, r0
1000e776:	d100      	bne.n	1000e77a <__aeabi_dsub+0x27e>
1000e778:	e128      	b.n	1000e9cc <__aeabi_dsub+0x4d0>
1000e77a:	1c07      	adds	r7, r0, #0
1000e77c:	4665      	mov	r5, ip
1000e77e:	076b      	lsls	r3, r5, #29
1000e780:	d000      	beq.n	1000e784 <__aeabi_dsub+0x288>
1000e782:	e6f0      	b.n	1000e566 <__aeabi_dsub+0x6a>
1000e784:	2601      	movs	r6, #1
1000e786:	4643      	mov	r3, r8
1000e788:	401e      	ands	r6, r3
1000e78a:	e784      	b.n	1000e696 <__aeabi_dsub+0x19a>
1000e78c:	2e00      	cmp	r6, #0
1000e78e:	d000      	beq.n	1000e792 <__aeabi_dsub+0x296>
1000e790:	e081      	b.n	1000e896 <__aeabi_dsub+0x39a>
1000e792:	1c60      	adds	r0, r4, #1
1000e794:	0540      	lsls	r0, r0, #21
1000e796:	0d40      	lsrs	r0, r0, #21
1000e798:	2801      	cmp	r0, #1
1000e79a:	dc00      	bgt.n	1000e79e <__aeabi_dsub+0x2a2>
1000e79c:	e107      	b.n	1000e9ae <__aeabi_dsub+0x4b2>
1000e79e:	9901      	ldr	r1, [sp, #4]
1000e7a0:	1a68      	subs	r0, r5, r1
1000e7a2:	4684      	mov	ip, r0
1000e7a4:	4565      	cmp	r5, ip
1000e7a6:	41b6      	sbcs	r6, r6
1000e7a8:	1ab8      	subs	r0, r7, r2
1000e7aa:	4276      	negs	r6, r6
1000e7ac:	1b86      	subs	r6, r0, r6
1000e7ae:	0230      	lsls	r0, r6, #8
1000e7b0:	d400      	bmi.n	1000e7b4 <__aeabi_dsub+0x2b8>
1000e7b2:	e0a1      	b.n	1000e8f8 <__aeabi_dsub+0x3fc>
1000e7b4:	468c      	mov	ip, r1
1000e7b6:	1b4d      	subs	r5, r1, r5
1000e7b8:	45ac      	cmp	ip, r5
1000e7ba:	4189      	sbcs	r1, r1
1000e7bc:	1bd2      	subs	r2, r2, r7
1000e7be:	4249      	negs	r1, r1
1000e7c0:	1a56      	subs	r6, r2, r1
1000e7c2:	4698      	mov	r8, r3
1000e7c4:	e734      	b.n	1000e630 <__aeabi_dsub+0x134>
1000e7c6:	2200      	movs	r2, #0
1000e7c8:	2500      	movs	r5, #0
1000e7ca:	e6ef      	b.n	1000e5ac <__aeabi_dsub+0xb0>
1000e7cc:	1c28      	adds	r0, r5, #0
1000e7ce:	f000 fab5 	bl	1000ed3c <__clzsi2>
1000e7d2:	3020      	adds	r0, #32
1000e7d4:	1c03      	adds	r3, r0, #0
1000e7d6:	3b08      	subs	r3, #8
1000e7d8:	2b1f      	cmp	r3, #31
1000e7da:	dc00      	bgt.n	1000e7de <__aeabi_dsub+0x2e2>
1000e7dc:	e733      	b.n	1000e646 <__aeabi_dsub+0x14a>
1000e7de:	1c02      	adds	r2, r0, #0
1000e7e0:	3a28      	subs	r2, #40	; 0x28
1000e7e2:	4095      	lsls	r5, r2
1000e7e4:	1c2a      	adds	r2, r5, #0
1000e7e6:	2500      	movs	r5, #0
1000e7e8:	429c      	cmp	r4, r3
1000e7ea:	dc00      	bgt.n	1000e7ee <__aeabi_dsub+0x2f2>
1000e7ec:	e736      	b.n	1000e65c <__aeabi_dsub+0x160>
1000e7ee:	4f1f      	ldr	r7, [pc, #124]	; (1000e86c <__aeabi_dsub+0x370>)
1000e7f0:	1ae4      	subs	r4, r4, r3
1000e7f2:	4017      	ands	r7, r2
1000e7f4:	e6b4      	b.n	1000e560 <__aeabi_dsub+0x64>
1000e7f6:	9b01      	ldr	r3, [sp, #4]
1000e7f8:	431a      	orrs	r2, r3
1000e7fa:	1e51      	subs	r1, r2, #1
1000e7fc:	418a      	sbcs	r2, r1
1000e7fe:	b2d3      	uxtb	r3, r2
1000e800:	2200      	movs	r2, #0
1000e802:	e709      	b.n	1000e618 <__aeabi_dsub+0x11c>
1000e804:	2b00      	cmp	r3, #0
1000e806:	d000      	beq.n	1000e80a <__aeabi_dsub+0x30e>
1000e808:	e101      	b.n	1000ea0e <__aeabi_dsub+0x512>
1000e80a:	1c60      	adds	r0, r4, #1
1000e80c:	0543      	lsls	r3, r0, #21
1000e80e:	0d5b      	lsrs	r3, r3, #21
1000e810:	2b01      	cmp	r3, #1
1000e812:	dc00      	bgt.n	1000e816 <__aeabi_dsub+0x31a>
1000e814:	e0b0      	b.n	1000e978 <__aeabi_dsub+0x47c>
1000e816:	4b14      	ldr	r3, [pc, #80]	; (1000e868 <__aeabi_dsub+0x36c>)
1000e818:	4298      	cmp	r0, r3
1000e81a:	d100      	bne.n	1000e81e <__aeabi_dsub+0x322>
1000e81c:	e11e      	b.n	1000ea5c <__aeabi_dsub+0x560>
1000e81e:	9b01      	ldr	r3, [sp, #4]
1000e820:	19d2      	adds	r2, r2, r7
1000e822:	1959      	adds	r1, r3, r5
1000e824:	42a9      	cmp	r1, r5
1000e826:	419b      	sbcs	r3, r3
1000e828:	425b      	negs	r3, r3
1000e82a:	18d2      	adds	r2, r2, r3
1000e82c:	0849      	lsrs	r1, r1, #1
1000e82e:	07d5      	lsls	r5, r2, #31
1000e830:	430d      	orrs	r5, r1
1000e832:	0857      	lsrs	r7, r2, #1
1000e834:	1c04      	adds	r4, r0, #0
1000e836:	e693      	b.n	1000e560 <__aeabi_dsub+0x64>
1000e838:	4b0b      	ldr	r3, [pc, #44]	; (1000e868 <__aeabi_dsub+0x36c>)
1000e83a:	429c      	cmp	r4, r3
1000e83c:	d000      	beq.n	1000e840 <__aeabi_dsub+0x344>
1000e83e:	e6d3      	b.n	1000e5e8 <__aeabi_dsub+0xec>
1000e840:	e68e      	b.n	1000e560 <__aeabi_dsub+0x64>
1000e842:	1c21      	adds	r1, r4, #0
1000e844:	1c13      	adds	r3, r2, #0
1000e846:	391f      	subs	r1, #31
1000e848:	40cb      	lsrs	r3, r1
1000e84a:	1c19      	adds	r1, r3, #0
1000e84c:	2f20      	cmp	r7, #32
1000e84e:	d100      	bne.n	1000e852 <__aeabi_dsub+0x356>
1000e850:	e08e      	b.n	1000e970 <__aeabi_dsub+0x474>
1000e852:	233f      	movs	r3, #63	; 0x3f
1000e854:	1b1c      	subs	r4, r3, r4
1000e856:	40a2      	lsls	r2, r4
1000e858:	4315      	orrs	r5, r2
1000e85a:	1e6a      	subs	r2, r5, #1
1000e85c:	4195      	sbcs	r5, r2
1000e85e:	2700      	movs	r7, #0
1000e860:	430d      	orrs	r5, r1
1000e862:	2400      	movs	r4, #0
1000e864:	e78b      	b.n	1000e77e <__aeabi_dsub+0x282>
1000e866:	46c0      	nop			; (mov r8, r8)
1000e868:	000007ff 	.word	0x000007ff
1000e86c:	ff7fffff 	.word	0xff7fffff
1000e870:	800fffff 	.word	0x800fffff
1000e874:	1c33      	adds	r3, r6, #0
1000e876:	1c10      	adds	r0, r2, #0
1000e878:	3b20      	subs	r3, #32
1000e87a:	40d8      	lsrs	r0, r3
1000e87c:	2e20      	cmp	r6, #32
1000e87e:	d079      	beq.n	1000e974 <__aeabi_dsub+0x478>
1000e880:	2340      	movs	r3, #64	; 0x40
1000e882:	1b9b      	subs	r3, r3, r6
1000e884:	409a      	lsls	r2, r3
1000e886:	1c13      	adds	r3, r2, #0
1000e888:	9a01      	ldr	r2, [sp, #4]
1000e88a:	4313      	orrs	r3, r2
1000e88c:	1e59      	subs	r1, r3, #1
1000e88e:	418b      	sbcs	r3, r1
1000e890:	2200      	movs	r2, #0
1000e892:	4303      	orrs	r3, r0
1000e894:	e6c0      	b.n	1000e618 <__aeabi_dsub+0x11c>
1000e896:	2c00      	cmp	r4, #0
1000e898:	d053      	beq.n	1000e942 <__aeabi_dsub+0x446>
1000e89a:	4cc7      	ldr	r4, [pc, #796]	; (1000ebb8 <__aeabi_dsub+0x6bc>)
1000e89c:	42a0      	cmp	r0, r4
1000e89e:	d100      	bne.n	1000e8a2 <__aeabi_dsub+0x3a6>
1000e8a0:	e0b0      	b.n	1000ea04 <__aeabi_dsub+0x508>
1000e8a2:	2480      	movs	r4, #128	; 0x80
1000e8a4:	4271      	negs	r1, r6
1000e8a6:	4689      	mov	r9, r1
1000e8a8:	0424      	lsls	r4, r4, #16
1000e8aa:	4327      	orrs	r7, r4
1000e8ac:	4649      	mov	r1, r9
1000e8ae:	2938      	cmp	r1, #56	; 0x38
1000e8b0:	dd00      	ble.n	1000e8b4 <__aeabi_dsub+0x3b8>
1000e8b2:	e0cd      	b.n	1000ea50 <__aeabi_dsub+0x554>
1000e8b4:	291f      	cmp	r1, #31
1000e8b6:	dd00      	ble.n	1000e8ba <__aeabi_dsub+0x3be>
1000e8b8:	e159      	b.n	1000eb6e <__aeabi_dsub+0x672>
1000e8ba:	2420      	movs	r4, #32
1000e8bc:	1c3e      	adds	r6, r7, #0
1000e8be:	1a61      	subs	r1, r4, r1
1000e8c0:	408e      	lsls	r6, r1
1000e8c2:	468a      	mov	sl, r1
1000e8c4:	46b0      	mov	r8, r6
1000e8c6:	4649      	mov	r1, r9
1000e8c8:	1c2e      	adds	r6, r5, #0
1000e8ca:	40ce      	lsrs	r6, r1
1000e8cc:	4651      	mov	r1, sl
1000e8ce:	46b4      	mov	ip, r6
1000e8d0:	408d      	lsls	r5, r1
1000e8d2:	4664      	mov	r4, ip
1000e8d4:	4646      	mov	r6, r8
1000e8d6:	4649      	mov	r1, r9
1000e8d8:	4326      	orrs	r6, r4
1000e8da:	1e6c      	subs	r4, r5, #1
1000e8dc:	41a5      	sbcs	r5, r4
1000e8de:	40cf      	lsrs	r7, r1
1000e8e0:	4335      	orrs	r5, r6
1000e8e2:	9901      	ldr	r1, [sp, #4]
1000e8e4:	1bd7      	subs	r7, r2, r7
1000e8e6:	468c      	mov	ip, r1
1000e8e8:	1b4d      	subs	r5, r1, r5
1000e8ea:	45ac      	cmp	ip, r5
1000e8ec:	4192      	sbcs	r2, r2
1000e8ee:	4252      	negs	r2, r2
1000e8f0:	1abf      	subs	r7, r7, r2
1000e8f2:	1c04      	adds	r4, r0, #0
1000e8f4:	4698      	mov	r8, r3
1000e8f6:	e696      	b.n	1000e626 <__aeabi_dsub+0x12a>
1000e8f8:	4663      	mov	r3, ip
1000e8fa:	4665      	mov	r5, ip
1000e8fc:	4333      	orrs	r3, r6
1000e8fe:	d000      	beq.n	1000e902 <__aeabi_dsub+0x406>
1000e900:	e696      	b.n	1000e630 <__aeabi_dsub+0x134>
1000e902:	2600      	movs	r6, #0
1000e904:	2700      	movs	r7, #0
1000e906:	2400      	movs	r4, #0
1000e908:	2500      	movs	r5, #0
1000e90a:	e6c4      	b.n	1000e696 <__aeabi_dsub+0x19a>
1000e90c:	2b1f      	cmp	r3, #31
1000e90e:	dc61      	bgt.n	1000e9d4 <__aeabi_dsub+0x4d8>
1000e910:	2020      	movs	r0, #32
1000e912:	1ac3      	subs	r3, r0, r3
1000e914:	469b      	mov	fp, r3
1000e916:	1c13      	adds	r3, r2, #0
1000e918:	4659      	mov	r1, fp
1000e91a:	408b      	lsls	r3, r1
1000e91c:	4651      	mov	r1, sl
1000e91e:	4699      	mov	r9, r3
1000e920:	9b01      	ldr	r3, [sp, #4]
1000e922:	40cb      	lsrs	r3, r1
1000e924:	469c      	mov	ip, r3
1000e926:	464b      	mov	r3, r9
1000e928:	4660      	mov	r0, ip
1000e92a:	4303      	orrs	r3, r0
1000e92c:	469c      	mov	ip, r3
1000e92e:	465b      	mov	r3, fp
1000e930:	9901      	ldr	r1, [sp, #4]
1000e932:	4099      	lsls	r1, r3
1000e934:	4663      	mov	r3, ip
1000e936:	1e48      	subs	r0, r1, #1
1000e938:	4181      	sbcs	r1, r0
1000e93a:	4319      	orrs	r1, r3
1000e93c:	4653      	mov	r3, sl
1000e93e:	40da      	lsrs	r2, r3
1000e940:	e6cd      	b.n	1000e6de <__aeabi_dsub+0x1e2>
1000e942:	1c3c      	adds	r4, r7, #0
1000e944:	432c      	orrs	r4, r5
1000e946:	d05d      	beq.n	1000ea04 <__aeabi_dsub+0x508>
1000e948:	43f1      	mvns	r1, r6
1000e94a:	4689      	mov	r9, r1
1000e94c:	2900      	cmp	r1, #0
1000e94e:	d155      	bne.n	1000e9fc <__aeabi_dsub+0x500>
1000e950:	9901      	ldr	r1, [sp, #4]
1000e952:	1bd2      	subs	r2, r2, r7
1000e954:	468c      	mov	ip, r1
1000e956:	1b4d      	subs	r5, r1, r5
1000e958:	45ac      	cmp	ip, r5
1000e95a:	4189      	sbcs	r1, r1
1000e95c:	4249      	negs	r1, r1
1000e95e:	1a57      	subs	r7, r2, r1
1000e960:	1c04      	adds	r4, r0, #0
1000e962:	4698      	mov	r8, r3
1000e964:	e65f      	b.n	1000e626 <__aeabi_dsub+0x12a>
1000e966:	4894      	ldr	r0, [pc, #592]	; (1000ebb8 <__aeabi_dsub+0x6bc>)
1000e968:	4284      	cmp	r4, r0
1000e96a:	d000      	beq.n	1000e96e <__aeabi_dsub+0x472>
1000e96c:	e6ad      	b.n	1000e6ca <__aeabi_dsub+0x1ce>
1000e96e:	e5f7      	b.n	1000e560 <__aeabi_dsub+0x64>
1000e970:	2200      	movs	r2, #0
1000e972:	e771      	b.n	1000e858 <__aeabi_dsub+0x35c>
1000e974:	2300      	movs	r3, #0
1000e976:	e787      	b.n	1000e888 <__aeabi_dsub+0x38c>
1000e978:	1c3b      	adds	r3, r7, #0
1000e97a:	432b      	orrs	r3, r5
1000e97c:	2c00      	cmp	r4, #0
1000e97e:	d000      	beq.n	1000e982 <__aeabi_dsub+0x486>
1000e980:	e0da      	b.n	1000eb38 <__aeabi_dsub+0x63c>
1000e982:	2b00      	cmp	r3, #0
1000e984:	d100      	bne.n	1000e988 <__aeabi_dsub+0x48c>
1000e986:	e113      	b.n	1000ebb0 <__aeabi_dsub+0x6b4>
1000e988:	1c13      	adds	r3, r2, #0
1000e98a:	9901      	ldr	r1, [sp, #4]
1000e98c:	430b      	orrs	r3, r1
1000e98e:	d100      	bne.n	1000e992 <__aeabi_dsub+0x496>
1000e990:	e5e6      	b.n	1000e560 <__aeabi_dsub+0x64>
1000e992:	1949      	adds	r1, r1, r5
1000e994:	42a9      	cmp	r1, r5
1000e996:	419b      	sbcs	r3, r3
1000e998:	19d2      	adds	r2, r2, r7
1000e99a:	425b      	negs	r3, r3
1000e99c:	18d7      	adds	r7, r2, r3
1000e99e:	023b      	lsls	r3, r7, #8
1000e9a0:	d400      	bmi.n	1000e9a4 <__aeabi_dsub+0x4a8>
1000e9a2:	e121      	b.n	1000ebe8 <__aeabi_dsub+0x6ec>
1000e9a4:	4b85      	ldr	r3, [pc, #532]	; (1000ebbc <__aeabi_dsub+0x6c0>)
1000e9a6:	1c0d      	adds	r5, r1, #0
1000e9a8:	401f      	ands	r7, r3
1000e9aa:	1c04      	adds	r4, r0, #0
1000e9ac:	e5d8      	b.n	1000e560 <__aeabi_dsub+0x64>
1000e9ae:	1c38      	adds	r0, r7, #0
1000e9b0:	4328      	orrs	r0, r5
1000e9b2:	2c00      	cmp	r4, #0
1000e9b4:	d140      	bne.n	1000ea38 <__aeabi_dsub+0x53c>
1000e9b6:	2800      	cmp	r0, #0
1000e9b8:	d000      	beq.n	1000e9bc <__aeabi_dsub+0x4c0>
1000e9ba:	e083      	b.n	1000eac4 <__aeabi_dsub+0x5c8>
1000e9bc:	1c10      	adds	r0, r2, #0
1000e9be:	9901      	ldr	r1, [sp, #4]
1000e9c0:	4308      	orrs	r0, r1
1000e9c2:	d003      	beq.n	1000e9cc <__aeabi_dsub+0x4d0>
1000e9c4:	1c17      	adds	r7, r2, #0
1000e9c6:	1c0d      	adds	r5, r1, #0
1000e9c8:	4698      	mov	r8, r3
1000e9ca:	e5c9      	b.n	1000e560 <__aeabi_dsub+0x64>
1000e9cc:	2600      	movs	r6, #0
1000e9ce:	2700      	movs	r7, #0
1000e9d0:	2500      	movs	r5, #0
1000e9d2:	e660      	b.n	1000e696 <__aeabi_dsub+0x19a>
1000e9d4:	4650      	mov	r0, sl
1000e9d6:	1c13      	adds	r3, r2, #0
1000e9d8:	3820      	subs	r0, #32
1000e9da:	40c3      	lsrs	r3, r0
1000e9dc:	1c18      	adds	r0, r3, #0
1000e9de:	4653      	mov	r3, sl
1000e9e0:	2b20      	cmp	r3, #32
1000e9e2:	d100      	bne.n	1000e9e6 <__aeabi_dsub+0x4ea>
1000e9e4:	e0c1      	b.n	1000eb6a <__aeabi_dsub+0x66e>
1000e9e6:	2340      	movs	r3, #64	; 0x40
1000e9e8:	4651      	mov	r1, sl
1000e9ea:	1a5b      	subs	r3, r3, r1
1000e9ec:	409a      	lsls	r2, r3
1000e9ee:	9901      	ldr	r1, [sp, #4]
1000e9f0:	4311      	orrs	r1, r2
1000e9f2:	1e4a      	subs	r2, r1, #1
1000e9f4:	4191      	sbcs	r1, r2
1000e9f6:	2200      	movs	r2, #0
1000e9f8:	4301      	orrs	r1, r0
1000e9fa:	e670      	b.n	1000e6de <__aeabi_dsub+0x1e2>
1000e9fc:	4c6e      	ldr	r4, [pc, #440]	; (1000ebb8 <__aeabi_dsub+0x6bc>)
1000e9fe:	42a0      	cmp	r0, r4
1000ea00:	d000      	beq.n	1000ea04 <__aeabi_dsub+0x508>
1000ea02:	e753      	b.n	1000e8ac <__aeabi_dsub+0x3b0>
1000ea04:	1c17      	adds	r7, r2, #0
1000ea06:	9d01      	ldr	r5, [sp, #4]
1000ea08:	1c04      	adds	r4, r0, #0
1000ea0a:	4698      	mov	r8, r3
1000ea0c:	e5a8      	b.n	1000e560 <__aeabi_dsub+0x64>
1000ea0e:	2c00      	cmp	r4, #0
1000ea10:	d128      	bne.n	1000ea64 <__aeabi_dsub+0x568>
1000ea12:	1c3c      	adds	r4, r7, #0
1000ea14:	432c      	orrs	r4, r5
1000ea16:	d100      	bne.n	1000ea1a <__aeabi_dsub+0x51e>
1000ea18:	e08a      	b.n	1000eb30 <__aeabi_dsub+0x634>
1000ea1a:	43db      	mvns	r3, r3
1000ea1c:	469a      	mov	sl, r3
1000ea1e:	2b00      	cmp	r3, #0
1000ea20:	d000      	beq.n	1000ea24 <__aeabi_dsub+0x528>
1000ea22:	e082      	b.n	1000eb2a <__aeabi_dsub+0x62e>
1000ea24:	9b01      	ldr	r3, [sp, #4]
1000ea26:	19d2      	adds	r2, r2, r7
1000ea28:	469c      	mov	ip, r3
1000ea2a:	4465      	add	r5, ip
1000ea2c:	429d      	cmp	r5, r3
1000ea2e:	4189      	sbcs	r1, r1
1000ea30:	4249      	negs	r1, r1
1000ea32:	1857      	adds	r7, r2, r1
1000ea34:	1c04      	adds	r4, r0, #0
1000ea36:	e659      	b.n	1000e6ec <__aeabi_dsub+0x1f0>
1000ea38:	2800      	cmp	r0, #0
1000ea3a:	d15b      	bne.n	1000eaf4 <__aeabi_dsub+0x5f8>
1000ea3c:	1c10      	adds	r0, r2, #0
1000ea3e:	9901      	ldr	r1, [sp, #4]
1000ea40:	4308      	orrs	r0, r1
1000ea42:	d100      	bne.n	1000ea46 <__aeabi_dsub+0x54a>
1000ea44:	e0a4      	b.n	1000eb90 <__aeabi_dsub+0x694>
1000ea46:	1c17      	adds	r7, r2, #0
1000ea48:	1c0d      	adds	r5, r1, #0
1000ea4a:	4698      	mov	r8, r3
1000ea4c:	4c5a      	ldr	r4, [pc, #360]	; (1000ebb8 <__aeabi_dsub+0x6bc>)
1000ea4e:	e587      	b.n	1000e560 <__aeabi_dsub+0x64>
1000ea50:	433d      	orrs	r5, r7
1000ea52:	1e6f      	subs	r7, r5, #1
1000ea54:	41bd      	sbcs	r5, r7
1000ea56:	2700      	movs	r7, #0
1000ea58:	b2ed      	uxtb	r5, r5
1000ea5a:	e742      	b.n	1000e8e2 <__aeabi_dsub+0x3e6>
1000ea5c:	1c04      	adds	r4, r0, #0
1000ea5e:	2700      	movs	r7, #0
1000ea60:	2500      	movs	r5, #0
1000ea62:	e618      	b.n	1000e696 <__aeabi_dsub+0x19a>
1000ea64:	4c54      	ldr	r4, [pc, #336]	; (1000ebb8 <__aeabi_dsub+0x6bc>)
1000ea66:	42a0      	cmp	r0, r4
1000ea68:	d062      	beq.n	1000eb30 <__aeabi_dsub+0x634>
1000ea6a:	4653      	mov	r3, sl
1000ea6c:	2480      	movs	r4, #128	; 0x80
1000ea6e:	425b      	negs	r3, r3
1000ea70:	469a      	mov	sl, r3
1000ea72:	0424      	lsls	r4, r4, #16
1000ea74:	4327      	orrs	r7, r4
1000ea76:	4653      	mov	r3, sl
1000ea78:	2b38      	cmp	r3, #56	; 0x38
1000ea7a:	dd00      	ble.n	1000ea7e <__aeabi_dsub+0x582>
1000ea7c:	e08e      	b.n	1000eb9c <__aeabi_dsub+0x6a0>
1000ea7e:	2b1f      	cmp	r3, #31
1000ea80:	dd00      	ble.n	1000ea84 <__aeabi_dsub+0x588>
1000ea82:	e09d      	b.n	1000ebc0 <__aeabi_dsub+0x6c4>
1000ea84:	2420      	movs	r4, #32
1000ea86:	1ae3      	subs	r3, r4, r3
1000ea88:	469b      	mov	fp, r3
1000ea8a:	1c3b      	adds	r3, r7, #0
1000ea8c:	4659      	mov	r1, fp
1000ea8e:	408b      	lsls	r3, r1
1000ea90:	4651      	mov	r1, sl
1000ea92:	4699      	mov	r9, r3
1000ea94:	1c2b      	adds	r3, r5, #0
1000ea96:	40cb      	lsrs	r3, r1
1000ea98:	469c      	mov	ip, r3
1000ea9a:	464b      	mov	r3, r9
1000ea9c:	4664      	mov	r4, ip
1000ea9e:	4323      	orrs	r3, r4
1000eaa0:	469c      	mov	ip, r3
1000eaa2:	465b      	mov	r3, fp
1000eaa4:	409d      	lsls	r5, r3
1000eaa6:	4663      	mov	r3, ip
1000eaa8:	1e6c      	subs	r4, r5, #1
1000eaaa:	41a5      	sbcs	r5, r4
1000eaac:	40cf      	lsrs	r7, r1
1000eaae:	431d      	orrs	r5, r3
1000eab0:	9b01      	ldr	r3, [sp, #4]
1000eab2:	18bf      	adds	r7, r7, r2
1000eab4:	469c      	mov	ip, r3
1000eab6:	4465      	add	r5, ip
1000eab8:	429d      	cmp	r5, r3
1000eaba:	4192      	sbcs	r2, r2
1000eabc:	4252      	negs	r2, r2
1000eabe:	18bf      	adds	r7, r7, r2
1000eac0:	1c04      	adds	r4, r0, #0
1000eac2:	e613      	b.n	1000e6ec <__aeabi_dsub+0x1f0>
1000eac4:	1c10      	adds	r0, r2, #0
1000eac6:	9901      	ldr	r1, [sp, #4]
1000eac8:	4308      	orrs	r0, r1
1000eaca:	d100      	bne.n	1000eace <__aeabi_dsub+0x5d2>
1000eacc:	e548      	b.n	1000e560 <__aeabi_dsub+0x64>
1000eace:	1a68      	subs	r0, r5, r1
1000ead0:	4684      	mov	ip, r0
1000ead2:	4285      	cmp	r5, r0
1000ead4:	4180      	sbcs	r0, r0
1000ead6:	1abe      	subs	r6, r7, r2
1000ead8:	4240      	negs	r0, r0
1000eada:	1a30      	subs	r0, r6, r0
1000eadc:	0206      	lsls	r6, r0, #8
1000eade:	d400      	bmi.n	1000eae2 <__aeabi_dsub+0x5e6>
1000eae0:	e647      	b.n	1000e772 <__aeabi_dsub+0x276>
1000eae2:	468c      	mov	ip, r1
1000eae4:	1b4d      	subs	r5, r1, r5
1000eae6:	45ac      	cmp	ip, r5
1000eae8:	4189      	sbcs	r1, r1
1000eaea:	1bd2      	subs	r2, r2, r7
1000eaec:	4249      	negs	r1, r1
1000eaee:	1a57      	subs	r7, r2, r1
1000eaf0:	4698      	mov	r8, r3
1000eaf2:	e535      	b.n	1000e560 <__aeabi_dsub+0x64>
1000eaf4:	1c10      	adds	r0, r2, #0
1000eaf6:	9901      	ldr	r1, [sp, #4]
1000eaf8:	4308      	orrs	r0, r1
1000eafa:	d034      	beq.n	1000eb66 <__aeabi_dsub+0x66a>
1000eafc:	2480      	movs	r4, #128	; 0x80
1000eafe:	0778      	lsls	r0, r7, #29
1000eb00:	08ed      	lsrs	r5, r5, #3
1000eb02:	08ff      	lsrs	r7, r7, #3
1000eb04:	0324      	lsls	r4, r4, #12
1000eb06:	4328      	orrs	r0, r5
1000eb08:	4227      	tst	r7, r4
1000eb0a:	d008      	beq.n	1000eb1e <__aeabi_dsub+0x622>
1000eb0c:	08d6      	lsrs	r6, r2, #3
1000eb0e:	4226      	tst	r6, r4
1000eb10:	d105      	bne.n	1000eb1e <__aeabi_dsub+0x622>
1000eb12:	08c9      	lsrs	r1, r1, #3
1000eb14:	0752      	lsls	r2, r2, #29
1000eb16:	430a      	orrs	r2, r1
1000eb18:	1c10      	adds	r0, r2, #0
1000eb1a:	1c37      	adds	r7, r6, #0
1000eb1c:	4698      	mov	r8, r3
1000eb1e:	00ff      	lsls	r7, r7, #3
1000eb20:	0f42      	lsrs	r2, r0, #29
1000eb22:	4317      	orrs	r7, r2
1000eb24:	00c5      	lsls	r5, r0, #3
1000eb26:	4c24      	ldr	r4, [pc, #144]	; (1000ebb8 <__aeabi_dsub+0x6bc>)
1000eb28:	e51a      	b.n	1000e560 <__aeabi_dsub+0x64>
1000eb2a:	4c23      	ldr	r4, [pc, #140]	; (1000ebb8 <__aeabi_dsub+0x6bc>)
1000eb2c:	42a0      	cmp	r0, r4
1000eb2e:	d1a2      	bne.n	1000ea76 <__aeabi_dsub+0x57a>
1000eb30:	1c17      	adds	r7, r2, #0
1000eb32:	9d01      	ldr	r5, [sp, #4]
1000eb34:	1c04      	adds	r4, r0, #0
1000eb36:	e513      	b.n	1000e560 <__aeabi_dsub+0x64>
1000eb38:	2b00      	cmp	r3, #0
1000eb3a:	d035      	beq.n	1000eba8 <__aeabi_dsub+0x6ac>
1000eb3c:	1c13      	adds	r3, r2, #0
1000eb3e:	9901      	ldr	r1, [sp, #4]
1000eb40:	430b      	orrs	r3, r1
1000eb42:	d010      	beq.n	1000eb66 <__aeabi_dsub+0x66a>
1000eb44:	2480      	movs	r4, #128	; 0x80
1000eb46:	0778      	lsls	r0, r7, #29
1000eb48:	08ed      	lsrs	r5, r5, #3
1000eb4a:	08ff      	lsrs	r7, r7, #3
1000eb4c:	0324      	lsls	r4, r4, #12
1000eb4e:	4328      	orrs	r0, r5
1000eb50:	4227      	tst	r7, r4
1000eb52:	d0e4      	beq.n	1000eb1e <__aeabi_dsub+0x622>
1000eb54:	08d3      	lsrs	r3, r2, #3
1000eb56:	4223      	tst	r3, r4
1000eb58:	d1e1      	bne.n	1000eb1e <__aeabi_dsub+0x622>
1000eb5a:	08c9      	lsrs	r1, r1, #3
1000eb5c:	0752      	lsls	r2, r2, #29
1000eb5e:	430a      	orrs	r2, r1
1000eb60:	1c10      	adds	r0, r2, #0
1000eb62:	1c1f      	adds	r7, r3, #0
1000eb64:	e7db      	b.n	1000eb1e <__aeabi_dsub+0x622>
1000eb66:	4c14      	ldr	r4, [pc, #80]	; (1000ebb8 <__aeabi_dsub+0x6bc>)
1000eb68:	e4fa      	b.n	1000e560 <__aeabi_dsub+0x64>
1000eb6a:	2200      	movs	r2, #0
1000eb6c:	e73f      	b.n	1000e9ee <__aeabi_dsub+0x4f2>
1000eb6e:	464c      	mov	r4, r9
1000eb70:	1c3e      	adds	r6, r7, #0
1000eb72:	3c20      	subs	r4, #32
1000eb74:	40e6      	lsrs	r6, r4
1000eb76:	4649      	mov	r1, r9
1000eb78:	1c34      	adds	r4, r6, #0
1000eb7a:	2920      	cmp	r1, #32
1000eb7c:	d032      	beq.n	1000ebe4 <__aeabi_dsub+0x6e8>
1000eb7e:	2640      	movs	r6, #64	; 0x40
1000eb80:	1a76      	subs	r6, r6, r1
1000eb82:	40b7      	lsls	r7, r6
1000eb84:	433d      	orrs	r5, r7
1000eb86:	1e6f      	subs	r7, r5, #1
1000eb88:	41bd      	sbcs	r5, r7
1000eb8a:	2700      	movs	r7, #0
1000eb8c:	4325      	orrs	r5, r4
1000eb8e:	e6a8      	b.n	1000e8e2 <__aeabi_dsub+0x3e6>
1000eb90:	2780      	movs	r7, #128	; 0x80
1000eb92:	2600      	movs	r6, #0
1000eb94:	03ff      	lsls	r7, r7, #15
1000eb96:	4c08      	ldr	r4, [pc, #32]	; (1000ebb8 <__aeabi_dsub+0x6bc>)
1000eb98:	2500      	movs	r5, #0
1000eb9a:	e57c      	b.n	1000e696 <__aeabi_dsub+0x19a>
1000eb9c:	433d      	orrs	r5, r7
1000eb9e:	1e6f      	subs	r7, r5, #1
1000eba0:	41bd      	sbcs	r5, r7
1000eba2:	2700      	movs	r7, #0
1000eba4:	b2ed      	uxtb	r5, r5
1000eba6:	e783      	b.n	1000eab0 <__aeabi_dsub+0x5b4>
1000eba8:	1c17      	adds	r7, r2, #0
1000ebaa:	9d01      	ldr	r5, [sp, #4]
1000ebac:	4c02      	ldr	r4, [pc, #8]	; (1000ebb8 <__aeabi_dsub+0x6bc>)
1000ebae:	e4d7      	b.n	1000e560 <__aeabi_dsub+0x64>
1000ebb0:	1c17      	adds	r7, r2, #0
1000ebb2:	9d01      	ldr	r5, [sp, #4]
1000ebb4:	e4d4      	b.n	1000e560 <__aeabi_dsub+0x64>
1000ebb6:	46c0      	nop			; (mov r8, r8)
1000ebb8:	000007ff 	.word	0x000007ff
1000ebbc:	ff7fffff 	.word	0xff7fffff
1000ebc0:	4654      	mov	r4, sl
1000ebc2:	1c3b      	adds	r3, r7, #0
1000ebc4:	3c20      	subs	r4, #32
1000ebc6:	40e3      	lsrs	r3, r4
1000ebc8:	1c1c      	adds	r4, r3, #0
1000ebca:	4653      	mov	r3, sl
1000ebcc:	2b20      	cmp	r3, #32
1000ebce:	d00d      	beq.n	1000ebec <__aeabi_dsub+0x6f0>
1000ebd0:	2340      	movs	r3, #64	; 0x40
1000ebd2:	4651      	mov	r1, sl
1000ebd4:	1a5b      	subs	r3, r3, r1
1000ebd6:	409f      	lsls	r7, r3
1000ebd8:	433d      	orrs	r5, r7
1000ebda:	1e6f      	subs	r7, r5, #1
1000ebdc:	41bd      	sbcs	r5, r7
1000ebde:	2700      	movs	r7, #0
1000ebe0:	4325      	orrs	r5, r4
1000ebe2:	e765      	b.n	1000eab0 <__aeabi_dsub+0x5b4>
1000ebe4:	2700      	movs	r7, #0
1000ebe6:	e7cd      	b.n	1000eb84 <__aeabi_dsub+0x688>
1000ebe8:	1c0d      	adds	r5, r1, #0
1000ebea:	e5c8      	b.n	1000e77e <__aeabi_dsub+0x282>
1000ebec:	2700      	movs	r7, #0
1000ebee:	e7f3      	b.n	1000ebd8 <__aeabi_dsub+0x6dc>

1000ebf0 <__aeabi_d2iz>:
1000ebf0:	030b      	lsls	r3, r1, #12
1000ebf2:	b530      	push	{r4, r5, lr}
1000ebf4:	4c13      	ldr	r4, [pc, #76]	; (1000ec44 <__aeabi_d2iz+0x54>)
1000ebf6:	0b1a      	lsrs	r2, r3, #12
1000ebf8:	004b      	lsls	r3, r1, #1
1000ebfa:	1c05      	adds	r5, r0, #0
1000ebfc:	0d5b      	lsrs	r3, r3, #21
1000ebfe:	0fc9      	lsrs	r1, r1, #31
1000ec00:	2000      	movs	r0, #0
1000ec02:	42a3      	cmp	r3, r4
1000ec04:	dd10      	ble.n	1000ec28 <__aeabi_d2iz+0x38>
1000ec06:	4810      	ldr	r0, [pc, #64]	; (1000ec48 <__aeabi_d2iz+0x58>)
1000ec08:	4283      	cmp	r3, r0
1000ec0a:	dc0e      	bgt.n	1000ec2a <__aeabi_d2iz+0x3a>
1000ec0c:	2080      	movs	r0, #128	; 0x80
1000ec0e:	4c0f      	ldr	r4, [pc, #60]	; (1000ec4c <__aeabi_d2iz+0x5c>)
1000ec10:	0340      	lsls	r0, r0, #13
1000ec12:	4302      	orrs	r2, r0
1000ec14:	1ae4      	subs	r4, r4, r3
1000ec16:	2c1f      	cmp	r4, #31
1000ec18:	dd0a      	ble.n	1000ec30 <__aeabi_d2iz+0x40>
1000ec1a:	480d      	ldr	r0, [pc, #52]	; (1000ec50 <__aeabi_d2iz+0x60>)
1000ec1c:	1ac3      	subs	r3, r0, r3
1000ec1e:	40da      	lsrs	r2, r3
1000ec20:	1c13      	adds	r3, r2, #0
1000ec22:	4248      	negs	r0, r1
1000ec24:	4043      	eors	r3, r0
1000ec26:	1858      	adds	r0, r3, r1
1000ec28:	bd30      	pop	{r4, r5, pc}
1000ec2a:	4b0a      	ldr	r3, [pc, #40]	; (1000ec54 <__aeabi_d2iz+0x64>)
1000ec2c:	18c8      	adds	r0, r1, r3
1000ec2e:	e7fb      	b.n	1000ec28 <__aeabi_d2iz+0x38>
1000ec30:	1c28      	adds	r0, r5, #0
1000ec32:	40e0      	lsrs	r0, r4
1000ec34:	4c08      	ldr	r4, [pc, #32]	; (1000ec58 <__aeabi_d2iz+0x68>)
1000ec36:	46a4      	mov	ip, r4
1000ec38:	4463      	add	r3, ip
1000ec3a:	409a      	lsls	r2, r3
1000ec3c:	1c13      	adds	r3, r2, #0
1000ec3e:	4303      	orrs	r3, r0
1000ec40:	e7ef      	b.n	1000ec22 <__aeabi_d2iz+0x32>
1000ec42:	46c0      	nop			; (mov r8, r8)
1000ec44:	000003fe 	.word	0x000003fe
1000ec48:	0000041d 	.word	0x0000041d
1000ec4c:	00000433 	.word	0x00000433
1000ec50:	00000413 	.word	0x00000413
1000ec54:	7fffffff 	.word	0x7fffffff
1000ec58:	fffffbed 	.word	0xfffffbed

1000ec5c <__aeabi_ui2d>:
1000ec5c:	b510      	push	{r4, lr}
1000ec5e:	1e04      	subs	r4, r0, #0
1000ec60:	d010      	beq.n	1000ec84 <__aeabi_ui2d+0x28>
1000ec62:	f000 f86b 	bl	1000ed3c <__clzsi2>
1000ec66:	4a14      	ldr	r2, [pc, #80]	; (1000ecb8 <__aeabi_ui2d+0x5c>)
1000ec68:	1a12      	subs	r2, r2, r0
1000ec6a:	280a      	cmp	r0, #10
1000ec6c:	dc1a      	bgt.n	1000eca4 <__aeabi_ui2d+0x48>
1000ec6e:	230b      	movs	r3, #11
1000ec70:	1c21      	adds	r1, r4, #0
1000ec72:	1a1b      	subs	r3, r3, r0
1000ec74:	40d9      	lsrs	r1, r3
1000ec76:	3015      	adds	r0, #21
1000ec78:	030b      	lsls	r3, r1, #12
1000ec7a:	0552      	lsls	r2, r2, #21
1000ec7c:	4084      	lsls	r4, r0
1000ec7e:	0b1b      	lsrs	r3, r3, #12
1000ec80:	0d52      	lsrs	r2, r2, #21
1000ec82:	e001      	b.n	1000ec88 <__aeabi_ui2d+0x2c>
1000ec84:	2200      	movs	r2, #0
1000ec86:	2300      	movs	r3, #0
1000ec88:	2100      	movs	r1, #0
1000ec8a:	031b      	lsls	r3, r3, #12
1000ec8c:	1c20      	adds	r0, r4, #0
1000ec8e:	0b1c      	lsrs	r4, r3, #12
1000ec90:	0d0b      	lsrs	r3, r1, #20
1000ec92:	051b      	lsls	r3, r3, #20
1000ec94:	4323      	orrs	r3, r4
1000ec96:	4c09      	ldr	r4, [pc, #36]	; (1000ecbc <__aeabi_ui2d+0x60>)
1000ec98:	0512      	lsls	r2, r2, #20
1000ec9a:	4023      	ands	r3, r4
1000ec9c:	4313      	orrs	r3, r2
1000ec9e:	005b      	lsls	r3, r3, #1
1000eca0:	0859      	lsrs	r1, r3, #1
1000eca2:	bd10      	pop	{r4, pc}
1000eca4:	1c03      	adds	r3, r0, #0
1000eca6:	3b0b      	subs	r3, #11
1000eca8:	409c      	lsls	r4, r3
1000ecaa:	0552      	lsls	r2, r2, #21
1000ecac:	0323      	lsls	r3, r4, #12
1000ecae:	0b1b      	lsrs	r3, r3, #12
1000ecb0:	0d52      	lsrs	r2, r2, #21
1000ecb2:	2400      	movs	r4, #0
1000ecb4:	e7e8      	b.n	1000ec88 <__aeabi_ui2d+0x2c>
1000ecb6:	46c0      	nop			; (mov r8, r8)
1000ecb8:	0000041e 	.word	0x0000041e
1000ecbc:	800fffff 	.word	0x800fffff

1000ecc0 <__aeabi_cdrcmple>:
1000ecc0:	4684      	mov	ip, r0
1000ecc2:	1c10      	adds	r0, r2, #0
1000ecc4:	4662      	mov	r2, ip
1000ecc6:	468c      	mov	ip, r1
1000ecc8:	1c19      	adds	r1, r3, #0
1000ecca:	4663      	mov	r3, ip
1000eccc:	e000      	b.n	1000ecd0 <__aeabi_cdcmpeq>
1000ecce:	46c0      	nop			; (mov r8, r8)

1000ecd0 <__aeabi_cdcmpeq>:
1000ecd0:	b51f      	push	{r0, r1, r2, r3, r4, lr}
1000ecd2:	f000 f905 	bl	1000eee0 <__ledf2>
1000ecd6:	2800      	cmp	r0, #0
1000ecd8:	d401      	bmi.n	1000ecde <__aeabi_cdcmpeq+0xe>
1000ecda:	2100      	movs	r1, #0
1000ecdc:	42c8      	cmn	r0, r1
1000ecde:	bd1f      	pop	{r0, r1, r2, r3, r4, pc}

1000ece0 <__aeabi_dcmpeq>:
1000ece0:	b510      	push	{r4, lr}
1000ece2:	f000 f849 	bl	1000ed78 <__eqdf2>
1000ece6:	4240      	negs	r0, r0
1000ece8:	3001      	adds	r0, #1
1000ecea:	bd10      	pop	{r4, pc}

1000ecec <__aeabi_dcmplt>:
1000ecec:	b510      	push	{r4, lr}
1000ecee:	f000 f8f7 	bl	1000eee0 <__ledf2>
1000ecf2:	2800      	cmp	r0, #0
1000ecf4:	db01      	blt.n	1000ecfa <__aeabi_dcmplt+0xe>
1000ecf6:	2000      	movs	r0, #0
1000ecf8:	bd10      	pop	{r4, pc}
1000ecfa:	2001      	movs	r0, #1
1000ecfc:	bd10      	pop	{r4, pc}
1000ecfe:	46c0      	nop			; (mov r8, r8)

1000ed00 <__aeabi_dcmple>:
1000ed00:	b510      	push	{r4, lr}
1000ed02:	f000 f8ed 	bl	1000eee0 <__ledf2>
1000ed06:	2800      	cmp	r0, #0
1000ed08:	dd01      	ble.n	1000ed0e <__aeabi_dcmple+0xe>
1000ed0a:	2000      	movs	r0, #0
1000ed0c:	bd10      	pop	{r4, pc}
1000ed0e:	2001      	movs	r0, #1
1000ed10:	bd10      	pop	{r4, pc}
1000ed12:	46c0      	nop			; (mov r8, r8)

1000ed14 <__aeabi_dcmpgt>:
1000ed14:	b510      	push	{r4, lr}
1000ed16:	f000 f873 	bl	1000ee00 <__gedf2>
1000ed1a:	2800      	cmp	r0, #0
1000ed1c:	dc01      	bgt.n	1000ed22 <__aeabi_dcmpgt+0xe>
1000ed1e:	2000      	movs	r0, #0
1000ed20:	bd10      	pop	{r4, pc}
1000ed22:	2001      	movs	r0, #1
1000ed24:	bd10      	pop	{r4, pc}
1000ed26:	46c0      	nop			; (mov r8, r8)

1000ed28 <__aeabi_dcmpge>:
1000ed28:	b510      	push	{r4, lr}
1000ed2a:	f000 f869 	bl	1000ee00 <__gedf2>
1000ed2e:	2800      	cmp	r0, #0
1000ed30:	da01      	bge.n	1000ed36 <__aeabi_dcmpge+0xe>
1000ed32:	2000      	movs	r0, #0
1000ed34:	bd10      	pop	{r4, pc}
1000ed36:	2001      	movs	r0, #1
1000ed38:	bd10      	pop	{r4, pc}
1000ed3a:	46c0      	nop			; (mov r8, r8)

1000ed3c <__clzsi2>:
1000ed3c:	211c      	movs	r1, #28
1000ed3e:	2301      	movs	r3, #1
1000ed40:	041b      	lsls	r3, r3, #16
1000ed42:	4298      	cmp	r0, r3
1000ed44:	d301      	bcc.n	1000ed4a <__clzsi2+0xe>
1000ed46:	0c00      	lsrs	r0, r0, #16
1000ed48:	3910      	subs	r1, #16
1000ed4a:	0a1b      	lsrs	r3, r3, #8
1000ed4c:	4298      	cmp	r0, r3
1000ed4e:	d301      	bcc.n	1000ed54 <__clzsi2+0x18>
1000ed50:	0a00      	lsrs	r0, r0, #8
1000ed52:	3908      	subs	r1, #8
1000ed54:	091b      	lsrs	r3, r3, #4
1000ed56:	4298      	cmp	r0, r3
1000ed58:	d301      	bcc.n	1000ed5e <__clzsi2+0x22>
1000ed5a:	0900      	lsrs	r0, r0, #4
1000ed5c:	3904      	subs	r1, #4
1000ed5e:	a202      	add	r2, pc, #8	; (adr r2, 1000ed68 <__clzsi2+0x2c>)
1000ed60:	5c10      	ldrb	r0, [r2, r0]
1000ed62:	1840      	adds	r0, r0, r1
1000ed64:	4770      	bx	lr
1000ed66:	46c0      	nop			; (mov r8, r8)
1000ed68:	02020304 	.word	0x02020304
1000ed6c:	01010101 	.word	0x01010101
	...

1000ed78 <__eqdf2>:
1000ed78:	b5f0      	push	{r4, r5, r6, r7, lr}
1000ed7a:	465f      	mov	r7, fp
1000ed7c:	464d      	mov	r5, r9
1000ed7e:	4644      	mov	r4, r8
1000ed80:	4656      	mov	r6, sl
1000ed82:	b4f0      	push	{r4, r5, r6, r7}
1000ed84:	031f      	lsls	r7, r3, #12
1000ed86:	005c      	lsls	r4, r3, #1
1000ed88:	0fdb      	lsrs	r3, r3, #31
1000ed8a:	4699      	mov	r9, r3
1000ed8c:	4b1b      	ldr	r3, [pc, #108]	; (1000edfc <__eqdf2+0x84>)
1000ed8e:	030e      	lsls	r6, r1, #12
1000ed90:	004d      	lsls	r5, r1, #1
1000ed92:	0fc9      	lsrs	r1, r1, #31
1000ed94:	4684      	mov	ip, r0
1000ed96:	0b36      	lsrs	r6, r6, #12
1000ed98:	0d6d      	lsrs	r5, r5, #21
1000ed9a:	468b      	mov	fp, r1
1000ed9c:	4690      	mov	r8, r2
1000ed9e:	0b3f      	lsrs	r7, r7, #12
1000eda0:	0d64      	lsrs	r4, r4, #21
1000eda2:	429d      	cmp	r5, r3
1000eda4:	d00c      	beq.n	1000edc0 <__eqdf2+0x48>
1000eda6:	4b15      	ldr	r3, [pc, #84]	; (1000edfc <__eqdf2+0x84>)
1000eda8:	429c      	cmp	r4, r3
1000edaa:	d010      	beq.n	1000edce <__eqdf2+0x56>
1000edac:	2301      	movs	r3, #1
1000edae:	42a5      	cmp	r5, r4
1000edb0:	d014      	beq.n	1000eddc <__eqdf2+0x64>
1000edb2:	1c18      	adds	r0, r3, #0
1000edb4:	bc3c      	pop	{r2, r3, r4, r5}
1000edb6:	4690      	mov	r8, r2
1000edb8:	4699      	mov	r9, r3
1000edba:	46a2      	mov	sl, r4
1000edbc:	46ab      	mov	fp, r5
1000edbe:	bdf0      	pop	{r4, r5, r6, r7, pc}
1000edc0:	1c31      	adds	r1, r6, #0
1000edc2:	2301      	movs	r3, #1
1000edc4:	4301      	orrs	r1, r0
1000edc6:	d1f4      	bne.n	1000edb2 <__eqdf2+0x3a>
1000edc8:	4b0c      	ldr	r3, [pc, #48]	; (1000edfc <__eqdf2+0x84>)
1000edca:	429c      	cmp	r4, r3
1000edcc:	d1ee      	bne.n	1000edac <__eqdf2+0x34>
1000edce:	433a      	orrs	r2, r7
1000edd0:	2301      	movs	r3, #1
1000edd2:	2a00      	cmp	r2, #0
1000edd4:	d1ed      	bne.n	1000edb2 <__eqdf2+0x3a>
1000edd6:	2301      	movs	r3, #1
1000edd8:	42a5      	cmp	r5, r4
1000edda:	d1ea      	bne.n	1000edb2 <__eqdf2+0x3a>
1000eddc:	42be      	cmp	r6, r7
1000edde:	d1e8      	bne.n	1000edb2 <__eqdf2+0x3a>
1000ede0:	45c4      	cmp	ip, r8
1000ede2:	d1e6      	bne.n	1000edb2 <__eqdf2+0x3a>
1000ede4:	45cb      	cmp	fp, r9
1000ede6:	d006      	beq.n	1000edf6 <__eqdf2+0x7e>
1000ede8:	2d00      	cmp	r5, #0
1000edea:	d1e2      	bne.n	1000edb2 <__eqdf2+0x3a>
1000edec:	4330      	orrs	r0, r6
1000edee:	1c03      	adds	r3, r0, #0
1000edf0:	1e58      	subs	r0, r3, #1
1000edf2:	4183      	sbcs	r3, r0
1000edf4:	e7dd      	b.n	1000edb2 <__eqdf2+0x3a>
1000edf6:	2300      	movs	r3, #0
1000edf8:	e7db      	b.n	1000edb2 <__eqdf2+0x3a>
1000edfa:	46c0      	nop			; (mov r8, r8)
1000edfc:	000007ff 	.word	0x000007ff

1000ee00 <__gedf2>:
1000ee00:	b5f0      	push	{r4, r5, r6, r7, lr}
1000ee02:	4657      	mov	r7, sl
1000ee04:	4645      	mov	r5, r8
1000ee06:	464e      	mov	r6, r9
1000ee08:	b4e0      	push	{r5, r6, r7}
1000ee0a:	030f      	lsls	r7, r1, #12
1000ee0c:	004e      	lsls	r6, r1, #1
1000ee0e:	0fc9      	lsrs	r1, r1, #31
1000ee10:	468a      	mov	sl, r1
1000ee12:	4932      	ldr	r1, [pc, #200]	; (1000eedc <__gedf2+0xdc>)
1000ee14:	031d      	lsls	r5, r3, #12
1000ee16:	005c      	lsls	r4, r3, #1
1000ee18:	4684      	mov	ip, r0
1000ee1a:	0b3f      	lsrs	r7, r7, #12
1000ee1c:	0d76      	lsrs	r6, r6, #21
1000ee1e:	4690      	mov	r8, r2
1000ee20:	0b2d      	lsrs	r5, r5, #12
1000ee22:	0d64      	lsrs	r4, r4, #21
1000ee24:	0fdb      	lsrs	r3, r3, #31
1000ee26:	428e      	cmp	r6, r1
1000ee28:	d00f      	beq.n	1000ee4a <__gedf2+0x4a>
1000ee2a:	428c      	cmp	r4, r1
1000ee2c:	d039      	beq.n	1000eea2 <__gedf2+0xa2>
1000ee2e:	2e00      	cmp	r6, #0
1000ee30:	d110      	bne.n	1000ee54 <__gedf2+0x54>
1000ee32:	4338      	orrs	r0, r7
1000ee34:	4241      	negs	r1, r0
1000ee36:	4141      	adcs	r1, r0
1000ee38:	4689      	mov	r9, r1
1000ee3a:	2c00      	cmp	r4, #0
1000ee3c:	d127      	bne.n	1000ee8e <__gedf2+0x8e>
1000ee3e:	432a      	orrs	r2, r5
1000ee40:	d125      	bne.n	1000ee8e <__gedf2+0x8e>
1000ee42:	2000      	movs	r0, #0
1000ee44:	2900      	cmp	r1, #0
1000ee46:	d10e      	bne.n	1000ee66 <__gedf2+0x66>
1000ee48:	e008      	b.n	1000ee5c <__gedf2+0x5c>
1000ee4a:	1c39      	adds	r1, r7, #0
1000ee4c:	4301      	orrs	r1, r0
1000ee4e:	d12e      	bne.n	1000eeae <__gedf2+0xae>
1000ee50:	42b4      	cmp	r4, r6
1000ee52:	d026      	beq.n	1000eea2 <__gedf2+0xa2>
1000ee54:	2c00      	cmp	r4, #0
1000ee56:	d00b      	beq.n	1000ee70 <__gedf2+0x70>
1000ee58:	459a      	cmp	sl, r3
1000ee5a:	d00d      	beq.n	1000ee78 <__gedf2+0x78>
1000ee5c:	4653      	mov	r3, sl
1000ee5e:	4259      	negs	r1, r3
1000ee60:	2301      	movs	r3, #1
1000ee62:	4319      	orrs	r1, r3
1000ee64:	1c08      	adds	r0, r1, #0
1000ee66:	bc1c      	pop	{r2, r3, r4}
1000ee68:	4690      	mov	r8, r2
1000ee6a:	4699      	mov	r9, r3
1000ee6c:	46a2      	mov	sl, r4
1000ee6e:	bdf0      	pop	{r4, r5, r6, r7, pc}
1000ee70:	432a      	orrs	r2, r5
1000ee72:	d0f3      	beq.n	1000ee5c <__gedf2+0x5c>
1000ee74:	459a      	cmp	sl, r3
1000ee76:	d1f1      	bne.n	1000ee5c <__gedf2+0x5c>
1000ee78:	42a6      	cmp	r6, r4
1000ee7a:	dcef      	bgt.n	1000ee5c <__gedf2+0x5c>
1000ee7c:	da1a      	bge.n	1000eeb4 <__gedf2+0xb4>
1000ee7e:	4650      	mov	r0, sl
1000ee80:	4241      	negs	r1, r0
1000ee82:	4148      	adcs	r0, r1
1000ee84:	2301      	movs	r3, #1
1000ee86:	4241      	negs	r1, r0
1000ee88:	4319      	orrs	r1, r3
1000ee8a:	1c08      	adds	r0, r1, #0
1000ee8c:	e7eb      	b.n	1000ee66 <__gedf2+0x66>
1000ee8e:	464a      	mov	r2, r9
1000ee90:	2a00      	cmp	r2, #0
1000ee92:	d0e1      	beq.n	1000ee58 <__gedf2+0x58>
1000ee94:	4258      	negs	r0, r3
1000ee96:	4158      	adcs	r0, r3
1000ee98:	2201      	movs	r2, #1
1000ee9a:	4241      	negs	r1, r0
1000ee9c:	4311      	orrs	r1, r2
1000ee9e:	1c08      	adds	r0, r1, #0
1000eea0:	e7e1      	b.n	1000ee66 <__gedf2+0x66>
1000eea2:	1c29      	adds	r1, r5, #0
1000eea4:	4311      	orrs	r1, r2
1000eea6:	d102      	bne.n	1000eeae <__gedf2+0xae>
1000eea8:	2e00      	cmp	r6, #0
1000eeaa:	d0c2      	beq.n	1000ee32 <__gedf2+0x32>
1000eeac:	e7d4      	b.n	1000ee58 <__gedf2+0x58>
1000eeae:	2002      	movs	r0, #2
1000eeb0:	4240      	negs	r0, r0
1000eeb2:	e7d8      	b.n	1000ee66 <__gedf2+0x66>
1000eeb4:	42af      	cmp	r7, r5
1000eeb6:	d8d1      	bhi.n	1000ee5c <__gedf2+0x5c>
1000eeb8:	d009      	beq.n	1000eece <__gedf2+0xce>
1000eeba:	2000      	movs	r0, #0
1000eebc:	42af      	cmp	r7, r5
1000eebe:	d2d2      	bcs.n	1000ee66 <__gedf2+0x66>
1000eec0:	4650      	mov	r0, sl
1000eec2:	4241      	negs	r1, r0
1000eec4:	4148      	adcs	r0, r1
1000eec6:	2301      	movs	r3, #1
1000eec8:	4240      	negs	r0, r0
1000eeca:	4318      	orrs	r0, r3
1000eecc:	e7cb      	b.n	1000ee66 <__gedf2+0x66>
1000eece:	45c4      	cmp	ip, r8
1000eed0:	d8c4      	bhi.n	1000ee5c <__gedf2+0x5c>
1000eed2:	2000      	movs	r0, #0
1000eed4:	45c4      	cmp	ip, r8
1000eed6:	d3f3      	bcc.n	1000eec0 <__gedf2+0xc0>
1000eed8:	e7c5      	b.n	1000ee66 <__gedf2+0x66>
1000eeda:	46c0      	nop			; (mov r8, r8)
1000eedc:	000007ff 	.word	0x000007ff

1000eee0 <__ledf2>:
1000eee0:	b5f0      	push	{r4, r5, r6, r7, lr}
1000eee2:	465f      	mov	r7, fp
1000eee4:	464d      	mov	r5, r9
1000eee6:	4644      	mov	r4, r8
1000eee8:	4656      	mov	r6, sl
1000eeea:	4680      	mov	r8, r0
1000eeec:	b4f0      	push	{r4, r5, r6, r7}
1000eeee:	1c06      	adds	r6, r0, #0
1000eef0:	0308      	lsls	r0, r1, #12
1000eef2:	0b00      	lsrs	r0, r0, #12
1000eef4:	4684      	mov	ip, r0
1000eef6:	482c      	ldr	r0, [pc, #176]	; (1000efa8 <__ledf2+0xc8>)
1000eef8:	004c      	lsls	r4, r1, #1
1000eefa:	031f      	lsls	r7, r3, #12
1000eefc:	005d      	lsls	r5, r3, #1
1000eefe:	0fc9      	lsrs	r1, r1, #31
1000ef00:	0d64      	lsrs	r4, r4, #21
1000ef02:	468b      	mov	fp, r1
1000ef04:	4691      	mov	r9, r2
1000ef06:	0b3f      	lsrs	r7, r7, #12
1000ef08:	0d6d      	lsrs	r5, r5, #21
1000ef0a:	0fdb      	lsrs	r3, r3, #31
1000ef0c:	4284      	cmp	r4, r0
1000ef0e:	d012      	beq.n	1000ef36 <__ledf2+0x56>
1000ef10:	4285      	cmp	r5, r0
1000ef12:	d025      	beq.n	1000ef60 <__ledf2+0x80>
1000ef14:	2c00      	cmp	r4, #0
1000ef16:	d114      	bne.n	1000ef42 <__ledf2+0x62>
1000ef18:	4661      	mov	r1, ip
1000ef1a:	430e      	orrs	r6, r1
1000ef1c:	4270      	negs	r0, r6
1000ef1e:	4146      	adcs	r6, r0
1000ef20:	2d00      	cmp	r5, #0
1000ef22:	d035      	beq.n	1000ef90 <__ledf2+0xb0>
1000ef24:	2e00      	cmp	r6, #0
1000ef26:	d021      	beq.n	1000ef6c <__ledf2+0x8c>
1000ef28:	4258      	negs	r0, r3
1000ef2a:	4158      	adcs	r0, r3
1000ef2c:	2101      	movs	r1, #1
1000ef2e:	4243      	negs	r3, r0
1000ef30:	430b      	orrs	r3, r1
1000ef32:	1c18      	adds	r0, r3, #0
1000ef34:	e00e      	b.n	1000ef54 <__ledf2+0x74>
1000ef36:	4661      	mov	r1, ip
1000ef38:	2002      	movs	r0, #2
1000ef3a:	4331      	orrs	r1, r6
1000ef3c:	d10a      	bne.n	1000ef54 <__ledf2+0x74>
1000ef3e:	42a5      	cmp	r5, r4
1000ef40:	d00e      	beq.n	1000ef60 <__ledf2+0x80>
1000ef42:	2d00      	cmp	r5, #0
1000ef44:	d112      	bne.n	1000ef6c <__ledf2+0x8c>
1000ef46:	433a      	orrs	r2, r7
1000ef48:	d110      	bne.n	1000ef6c <__ledf2+0x8c>
1000ef4a:	465b      	mov	r3, fp
1000ef4c:	4259      	negs	r1, r3
1000ef4e:	2301      	movs	r3, #1
1000ef50:	4319      	orrs	r1, r3
1000ef52:	1c08      	adds	r0, r1, #0
1000ef54:	bc3c      	pop	{r2, r3, r4, r5}
1000ef56:	4690      	mov	r8, r2
1000ef58:	4699      	mov	r9, r3
1000ef5a:	46a2      	mov	sl, r4
1000ef5c:	46ab      	mov	fp, r5
1000ef5e:	bdf0      	pop	{r4, r5, r6, r7, pc}
1000ef60:	1c39      	adds	r1, r7, #0
1000ef62:	2002      	movs	r0, #2
1000ef64:	4311      	orrs	r1, r2
1000ef66:	d1f5      	bne.n	1000ef54 <__ledf2+0x74>
1000ef68:	2c00      	cmp	r4, #0
1000ef6a:	d0d5      	beq.n	1000ef18 <__ledf2+0x38>
1000ef6c:	459b      	cmp	fp, r3
1000ef6e:	d1ec      	bne.n	1000ef4a <__ledf2+0x6a>
1000ef70:	42ac      	cmp	r4, r5
1000ef72:	dcea      	bgt.n	1000ef4a <__ledf2+0x6a>
1000ef74:	db05      	blt.n	1000ef82 <__ledf2+0xa2>
1000ef76:	45bc      	cmp	ip, r7
1000ef78:	d8e7      	bhi.n	1000ef4a <__ledf2+0x6a>
1000ef7a:	d00f      	beq.n	1000ef9c <__ledf2+0xbc>
1000ef7c:	2000      	movs	r0, #0
1000ef7e:	45bc      	cmp	ip, r7
1000ef80:	d2e8      	bcs.n	1000ef54 <__ledf2+0x74>
1000ef82:	4658      	mov	r0, fp
1000ef84:	4241      	negs	r1, r0
1000ef86:	4148      	adcs	r0, r1
1000ef88:	4241      	negs	r1, r0
1000ef8a:	2001      	movs	r0, #1
1000ef8c:	4308      	orrs	r0, r1
1000ef8e:	e7e1      	b.n	1000ef54 <__ledf2+0x74>
1000ef90:	433a      	orrs	r2, r7
1000ef92:	d1c7      	bne.n	1000ef24 <__ledf2+0x44>
1000ef94:	2000      	movs	r0, #0
1000ef96:	2e00      	cmp	r6, #0
1000ef98:	d1dc      	bne.n	1000ef54 <__ledf2+0x74>
1000ef9a:	e7d6      	b.n	1000ef4a <__ledf2+0x6a>
1000ef9c:	45c8      	cmp	r8, r9
1000ef9e:	d8d4      	bhi.n	1000ef4a <__ledf2+0x6a>
1000efa0:	2000      	movs	r0, #0
1000efa2:	45c8      	cmp	r8, r9
1000efa4:	d3ed      	bcc.n	1000ef82 <__ledf2+0xa2>
1000efa6:	e7d5      	b.n	1000ef54 <__ledf2+0x74>
1000efa8:	000007ff 	.word	0x000007ff

1000efac <__libc_init_array>:
1000efac:	4b0e      	ldr	r3, [pc, #56]	; (1000efe8 <__libc_init_array+0x3c>)
1000efae:	b570      	push	{r4, r5, r6, lr}
1000efb0:	2500      	movs	r5, #0
1000efb2:	1c1e      	adds	r6, r3, #0
1000efb4:	4c0d      	ldr	r4, [pc, #52]	; (1000efec <__libc_init_array+0x40>)
1000efb6:	1ae4      	subs	r4, r4, r3
1000efb8:	10a4      	asrs	r4, r4, #2
1000efba:	42a5      	cmp	r5, r4
1000efbc:	d004      	beq.n	1000efc8 <__libc_init_array+0x1c>
1000efbe:	00ab      	lsls	r3, r5, #2
1000efc0:	58f3      	ldr	r3, [r6, r3]
1000efc2:	4798      	blx	r3
1000efc4:	3501      	adds	r5, #1
1000efc6:	e7f8      	b.n	1000efba <__libc_init_array+0xe>
1000efc8:	f000 feca 	bl	1000fd60 <_init>
1000efcc:	4b08      	ldr	r3, [pc, #32]	; (1000eff0 <__libc_init_array+0x44>)
1000efce:	2500      	movs	r5, #0
1000efd0:	1c1e      	adds	r6, r3, #0
1000efd2:	4c08      	ldr	r4, [pc, #32]	; (1000eff4 <__libc_init_array+0x48>)
1000efd4:	1ae4      	subs	r4, r4, r3
1000efd6:	10a4      	asrs	r4, r4, #2
1000efd8:	42a5      	cmp	r5, r4
1000efda:	d004      	beq.n	1000efe6 <__libc_init_array+0x3a>
1000efdc:	00ab      	lsls	r3, r5, #2
1000efde:	58f3      	ldr	r3, [r6, r3]
1000efe0:	4798      	blx	r3
1000efe2:	3501      	adds	r5, #1
1000efe4:	e7f8      	b.n	1000efd8 <__libc_init_array+0x2c>
1000efe6:	bd70      	pop	{r4, r5, r6, pc}
1000efe8:	1000fd6c 	.word	0x1000fd6c
1000efec:	1000fd6c 	.word	0x1000fd6c
1000eff0:	1000fd6c 	.word	0x1000fd6c
1000eff4:	1000fd70 	.word	0x1000fd70

1000eff8 <memcmp>:
1000eff8:	b530      	push	{r4, r5, lr}
1000effa:	2400      	movs	r4, #0
1000effc:	4294      	cmp	r4, r2
1000effe:	d008      	beq.n	1000f012 <memcmp+0x1a>
1000f000:	5d03      	ldrb	r3, [r0, r4]
1000f002:	1c65      	adds	r5, r4, #1
1000f004:	5d0c      	ldrb	r4, [r1, r4]
1000f006:	42a3      	cmp	r3, r4
1000f008:	d001      	beq.n	1000f00e <memcmp+0x16>
1000f00a:	1b18      	subs	r0, r3, r4
1000f00c:	e002      	b.n	1000f014 <memcmp+0x1c>
1000f00e:	1c2c      	adds	r4, r5, #0
1000f010:	e7f4      	b.n	1000effc <memcmp+0x4>
1000f012:	2000      	movs	r0, #0
1000f014:	bd30      	pop	{r4, r5, pc}

1000f016 <memcpy>:
1000f016:	2300      	movs	r3, #0
1000f018:	b510      	push	{r4, lr}
1000f01a:	4293      	cmp	r3, r2
1000f01c:	d003      	beq.n	1000f026 <memcpy+0x10>
1000f01e:	5ccc      	ldrb	r4, [r1, r3]
1000f020:	54c4      	strb	r4, [r0, r3]
1000f022:	3301      	adds	r3, #1
1000f024:	e7f9      	b.n	1000f01a <memcpy+0x4>
1000f026:	bd10      	pop	{r4, pc}

1000f028 <memset>:
1000f028:	1c03      	adds	r3, r0, #0
1000f02a:	1882      	adds	r2, r0, r2
1000f02c:	4293      	cmp	r3, r2
1000f02e:	d002      	beq.n	1000f036 <memset+0xe>
1000f030:	7019      	strb	r1, [r3, #0]
1000f032:	3301      	adds	r3, #1
1000f034:	e7fa      	b.n	1000f02c <memset+0x4>
1000f036:	4770      	bx	lr

1000f038 <_puts_r>:
1000f038:	b570      	push	{r4, r5, r6, lr}
1000f03a:	1c05      	adds	r5, r0, #0
1000f03c:	1c0e      	adds	r6, r1, #0
1000f03e:	2800      	cmp	r0, #0
1000f040:	d004      	beq.n	1000f04c <_puts_r+0x14>
1000f042:	6983      	ldr	r3, [r0, #24]
1000f044:	2b00      	cmp	r3, #0
1000f046:	d101      	bne.n	1000f04c <_puts_r+0x14>
1000f048:	f000 faf2 	bl	1000f630 <__sinit>
1000f04c:	68ac      	ldr	r4, [r5, #8]
1000f04e:	89a3      	ldrh	r3, [r4, #12]
1000f050:	071b      	lsls	r3, r3, #28
1000f052:	d502      	bpl.n	1000f05a <_puts_r+0x22>
1000f054:	6923      	ldr	r3, [r4, #16]
1000f056:	2b00      	cmp	r3, #0
1000f058:	d119      	bne.n	1000f08e <_puts_r+0x56>
1000f05a:	1c28      	adds	r0, r5, #0
1000f05c:	1c21      	adds	r1, r4, #0
1000f05e:	f000 f97b 	bl	1000f358 <__swsetup_r>
1000f062:	2800      	cmp	r0, #0
1000f064:	d013      	beq.n	1000f08e <_puts_r+0x56>
1000f066:	2001      	movs	r0, #1
1000f068:	4240      	negs	r0, r0
1000f06a:	e045      	b.n	1000f0f8 <_puts_r+0xc0>
1000f06c:	7831      	ldrb	r1, [r6, #0]
1000f06e:	2b00      	cmp	r3, #0
1000f070:	da1b      	bge.n	1000f0aa <_puts_r+0x72>
1000f072:	69a2      	ldr	r2, [r4, #24]
1000f074:	4293      	cmp	r3, r2
1000f076:	da11      	bge.n	1000f09c <_puts_r+0x64>
1000f078:	1c22      	adds	r2, r4, #0
1000f07a:	1c28      	adds	r0, r5, #0
1000f07c:	f000 f914 	bl	1000f2a8 <__swbuf_r>
1000f080:	3001      	adds	r0, #1
1000f082:	4242      	negs	r2, r0
1000f084:	4142      	adcs	r2, r0
1000f086:	b2d0      	uxtb	r0, r2
1000f088:	2800      	cmp	r0, #0
1000f08a:	d1ec      	bne.n	1000f066 <_puts_r+0x2e>
1000f08c:	3601      	adds	r6, #1
1000f08e:	68a3      	ldr	r3, [r4, #8]
1000f090:	7832      	ldrb	r2, [r6, #0]
1000f092:	3b01      	subs	r3, #1
1000f094:	60a3      	str	r3, [r4, #8]
1000f096:	2a00      	cmp	r2, #0
1000f098:	d1e8      	bne.n	1000f06c <_puts_r+0x34>
1000f09a:	e00c      	b.n	1000f0b6 <_puts_r+0x7e>
1000f09c:	6823      	ldr	r3, [r4, #0]
1000f09e:	7019      	strb	r1, [r3, #0]
1000f0a0:	6823      	ldr	r3, [r4, #0]
1000f0a2:	7819      	ldrb	r1, [r3, #0]
1000f0a4:	290a      	cmp	r1, #10
1000f0a6:	d103      	bne.n	1000f0b0 <_puts_r+0x78>
1000f0a8:	e7e6      	b.n	1000f078 <_puts_r+0x40>
1000f0aa:	6823      	ldr	r3, [r4, #0]
1000f0ac:	7019      	strb	r1, [r3, #0]
1000f0ae:	6823      	ldr	r3, [r4, #0]
1000f0b0:	3301      	adds	r3, #1
1000f0b2:	6023      	str	r3, [r4, #0]
1000f0b4:	e7ea      	b.n	1000f08c <_puts_r+0x54>
1000f0b6:	2b00      	cmp	r3, #0
1000f0b8:	da17      	bge.n	1000f0ea <_puts_r+0xb2>
1000f0ba:	69a2      	ldr	r2, [r4, #24]
1000f0bc:	4293      	cmp	r3, r2
1000f0be:	db08      	blt.n	1000f0d2 <_puts_r+0x9a>
1000f0c0:	230a      	movs	r3, #10
1000f0c2:	6822      	ldr	r2, [r4, #0]
1000f0c4:	7013      	strb	r3, [r2, #0]
1000f0c6:	6823      	ldr	r3, [r4, #0]
1000f0c8:	7819      	ldrb	r1, [r3, #0]
1000f0ca:	290a      	cmp	r1, #10
1000f0cc:	d111      	bne.n	1000f0f2 <_puts_r+0xba>
1000f0ce:	1c28      	adds	r0, r5, #0
1000f0d0:	e001      	b.n	1000f0d6 <_puts_r+0x9e>
1000f0d2:	1c28      	adds	r0, r5, #0
1000f0d4:	210a      	movs	r1, #10
1000f0d6:	1c22      	adds	r2, r4, #0
1000f0d8:	f000 f8e6 	bl	1000f2a8 <__swbuf_r>
1000f0dc:	3001      	adds	r0, #1
1000f0de:	4242      	negs	r2, r0
1000f0e0:	4142      	adcs	r2, r0
1000f0e2:	b2d0      	uxtb	r0, r2
1000f0e4:	2800      	cmp	r0, #0
1000f0e6:	d006      	beq.n	1000f0f6 <_puts_r+0xbe>
1000f0e8:	e7bd      	b.n	1000f066 <_puts_r+0x2e>
1000f0ea:	230a      	movs	r3, #10
1000f0ec:	6822      	ldr	r2, [r4, #0]
1000f0ee:	7013      	strb	r3, [r2, #0]
1000f0f0:	6823      	ldr	r3, [r4, #0]
1000f0f2:	3301      	adds	r3, #1
1000f0f4:	6023      	str	r3, [r4, #0]
1000f0f6:	200a      	movs	r0, #10
1000f0f8:	bd70      	pop	{r4, r5, r6, pc}
	...

1000f0fc <puts>:
1000f0fc:	b508      	push	{r3, lr}
1000f0fe:	4b03      	ldr	r3, [pc, #12]	; (1000f10c <puts+0x10>)
1000f100:	1c01      	adds	r1, r0, #0
1000f102:	6818      	ldr	r0, [r3, #0]
1000f104:	f7ff ff98 	bl	1000f038 <_puts_r>
1000f108:	bd08      	pop	{r3, pc}
1000f10a:	46c0      	nop			; (mov r8, r8)
1000f10c:	1000fde8 	.word	0x1000fde8

1000f110 <rand>:
1000f110:	4b15      	ldr	r3, [pc, #84]	; (1000f168 <rand+0x58>)
1000f112:	b510      	push	{r4, lr}
1000f114:	681c      	ldr	r4, [r3, #0]
1000f116:	6ba3      	ldr	r3, [r4, #56]	; 0x38
1000f118:	2b00      	cmp	r3, #0
1000f11a:	d115      	bne.n	1000f148 <rand+0x38>
1000f11c:	2018      	movs	r0, #24
1000f11e:	f000 fb71 	bl	1000f804 <malloc>
1000f122:	4b12      	ldr	r3, [pc, #72]	; (1000f16c <rand+0x5c>)
1000f124:	63a0      	str	r0, [r4, #56]	; 0x38
1000f126:	8003      	strh	r3, [r0, #0]
1000f128:	4b11      	ldr	r3, [pc, #68]	; (1000f170 <rand+0x60>)
1000f12a:	2201      	movs	r2, #1
1000f12c:	8043      	strh	r3, [r0, #2]
1000f12e:	4b11      	ldr	r3, [pc, #68]	; (1000f174 <rand+0x64>)
1000f130:	8083      	strh	r3, [r0, #4]
1000f132:	4b11      	ldr	r3, [pc, #68]	; (1000f178 <rand+0x68>)
1000f134:	80c3      	strh	r3, [r0, #6]
1000f136:	4b11      	ldr	r3, [pc, #68]	; (1000f17c <rand+0x6c>)
1000f138:	8103      	strh	r3, [r0, #8]
1000f13a:	2305      	movs	r3, #5
1000f13c:	8143      	strh	r3, [r0, #10]
1000f13e:	3306      	adds	r3, #6
1000f140:	8183      	strh	r3, [r0, #12]
1000f142:	2300      	movs	r3, #0
1000f144:	6102      	str	r2, [r0, #16]
1000f146:	6143      	str	r3, [r0, #20]
1000f148:	6ba4      	ldr	r4, [r4, #56]	; 0x38
1000f14a:	4a0d      	ldr	r2, [pc, #52]	; (1000f180 <rand+0x70>)
1000f14c:	6920      	ldr	r0, [r4, #16]
1000f14e:	6961      	ldr	r1, [r4, #20]
1000f150:	4b0c      	ldr	r3, [pc, #48]	; (1000f184 <rand+0x74>)
1000f152:	f000 fccf 	bl	1000faf4 <__aeabi_lmul>
1000f156:	2201      	movs	r2, #1
1000f158:	2300      	movs	r3, #0
1000f15a:	1880      	adds	r0, r0, r2
1000f15c:	4159      	adcs	r1, r3
1000f15e:	6120      	str	r0, [r4, #16]
1000f160:	6161      	str	r1, [r4, #20]
1000f162:	0048      	lsls	r0, r1, #1
1000f164:	0840      	lsrs	r0, r0, #1
1000f166:	bd10      	pop	{r4, pc}
1000f168:	1000fde8 	.word	0x1000fde8
1000f16c:	0000330e 	.word	0x0000330e
1000f170:	ffffabcd 	.word	0xffffabcd
1000f174:	00001234 	.word	0x00001234
1000f178:	ffffe66d 	.word	0xffffe66d
1000f17c:	ffffdeec 	.word	0xffffdeec
1000f180:	4c957f2d 	.word	0x4c957f2d
1000f184:	5851f42d 	.word	0x5851f42d

1000f188 <setbuf>:
1000f188:	b508      	push	{r3, lr}
1000f18a:	424a      	negs	r2, r1
1000f18c:	414a      	adcs	r2, r1
1000f18e:	2380      	movs	r3, #128	; 0x80
1000f190:	0052      	lsls	r2, r2, #1
1000f192:	00db      	lsls	r3, r3, #3
1000f194:	f000 f802 	bl	1000f19c <setvbuf>
1000f198:	bd08      	pop	{r3, pc}
	...

1000f19c <setvbuf>:
1000f19c:	b5f7      	push	{r0, r1, r2, r4, r5, r6, r7, lr}
1000f19e:	1c1e      	adds	r6, r3, #0
1000f1a0:	4b3c      	ldr	r3, [pc, #240]	; (1000f294 <setvbuf+0xf8>)
1000f1a2:	1c04      	adds	r4, r0, #0
1000f1a4:	681d      	ldr	r5, [r3, #0]
1000f1a6:	1c0f      	adds	r7, r1, #0
1000f1a8:	9201      	str	r2, [sp, #4]
1000f1aa:	2d00      	cmp	r5, #0
1000f1ac:	d005      	beq.n	1000f1ba <setvbuf+0x1e>
1000f1ae:	69ab      	ldr	r3, [r5, #24]
1000f1b0:	2b00      	cmp	r3, #0
1000f1b2:	d102      	bne.n	1000f1ba <setvbuf+0x1e>
1000f1b4:	1c28      	adds	r0, r5, #0
1000f1b6:	f000 fa3b 	bl	1000f630 <__sinit>
1000f1ba:	4b37      	ldr	r3, [pc, #220]	; (1000f298 <setvbuf+0xfc>)
1000f1bc:	429c      	cmp	r4, r3
1000f1be:	d101      	bne.n	1000f1c4 <setvbuf+0x28>
1000f1c0:	686c      	ldr	r4, [r5, #4]
1000f1c2:	e008      	b.n	1000f1d6 <setvbuf+0x3a>
1000f1c4:	4b35      	ldr	r3, [pc, #212]	; (1000f29c <setvbuf+0x100>)
1000f1c6:	429c      	cmp	r4, r3
1000f1c8:	d101      	bne.n	1000f1ce <setvbuf+0x32>
1000f1ca:	68ac      	ldr	r4, [r5, #8]
1000f1cc:	e003      	b.n	1000f1d6 <setvbuf+0x3a>
1000f1ce:	4b34      	ldr	r3, [pc, #208]	; (1000f2a0 <setvbuf+0x104>)
1000f1d0:	429c      	cmp	r4, r3
1000f1d2:	d100      	bne.n	1000f1d6 <setvbuf+0x3a>
1000f1d4:	68ec      	ldr	r4, [r5, #12]
1000f1d6:	9b01      	ldr	r3, [sp, #4]
1000f1d8:	2b02      	cmp	r3, #2
1000f1da:	d858      	bhi.n	1000f28e <setvbuf+0xf2>
1000f1dc:	2e00      	cmp	r6, #0
1000f1de:	db56      	blt.n	1000f28e <setvbuf+0xf2>
1000f1e0:	1c28      	adds	r0, r5, #0
1000f1e2:	1c21      	adds	r1, r4, #0
1000f1e4:	f000 f9b6 	bl	1000f554 <_fflush_r>
1000f1e8:	2300      	movs	r3, #0
1000f1ea:	6063      	str	r3, [r4, #4]
1000f1ec:	61a3      	str	r3, [r4, #24]
1000f1ee:	89a3      	ldrh	r3, [r4, #12]
1000f1f0:	061b      	lsls	r3, r3, #24
1000f1f2:	d503      	bpl.n	1000f1fc <setvbuf+0x60>
1000f1f4:	1c28      	adds	r0, r5, #0
1000f1f6:	6921      	ldr	r1, [r4, #16]
1000f1f8:	f000 fb0e 	bl	1000f818 <_free_r>
1000f1fc:	2283      	movs	r2, #131	; 0x83
1000f1fe:	89a3      	ldrh	r3, [r4, #12]
1000f200:	4393      	bics	r3, r2
1000f202:	81a3      	strh	r3, [r4, #12]
1000f204:	9b01      	ldr	r3, [sp, #4]
1000f206:	2b02      	cmp	r3, #2
1000f208:	d013      	beq.n	1000f232 <setvbuf+0x96>
1000f20a:	2f00      	cmp	r7, #0
1000f20c:	d125      	bne.n	1000f25a <setvbuf+0xbe>
1000f20e:	2e00      	cmp	r6, #0
1000f210:	d101      	bne.n	1000f216 <setvbuf+0x7a>
1000f212:	2680      	movs	r6, #128	; 0x80
1000f214:	00f6      	lsls	r6, r6, #3
1000f216:	1c30      	adds	r0, r6, #0
1000f218:	f000 faf4 	bl	1000f804 <malloc>
1000f21c:	1e07      	subs	r7, r0, #0
1000f21e:	d118      	bne.n	1000f252 <setvbuf+0xb6>
1000f220:	2080      	movs	r0, #128	; 0x80
1000f222:	00c0      	lsls	r0, r0, #3
1000f224:	f000 faee 	bl	1000f804 <malloc>
1000f228:	1e07      	subs	r7, r0, #0
1000f22a:	d110      	bne.n	1000f24e <setvbuf+0xb2>
1000f22c:	2001      	movs	r0, #1
1000f22e:	4240      	negs	r0, r0
1000f230:	e000      	b.n	1000f234 <setvbuf+0x98>
1000f232:	2000      	movs	r0, #0
1000f234:	2202      	movs	r2, #2
1000f236:	89a3      	ldrh	r3, [r4, #12]
1000f238:	4313      	orrs	r3, r2
1000f23a:	81a3      	strh	r3, [r4, #12]
1000f23c:	2300      	movs	r3, #0
1000f23e:	60a3      	str	r3, [r4, #8]
1000f240:	1c23      	adds	r3, r4, #0
1000f242:	3347      	adds	r3, #71	; 0x47
1000f244:	6023      	str	r3, [r4, #0]
1000f246:	6123      	str	r3, [r4, #16]
1000f248:	2301      	movs	r3, #1
1000f24a:	6163      	str	r3, [r4, #20]
1000f24c:	e021      	b.n	1000f292 <setvbuf+0xf6>
1000f24e:	2680      	movs	r6, #128	; 0x80
1000f250:	00f6      	lsls	r6, r6, #3
1000f252:	2280      	movs	r2, #128	; 0x80
1000f254:	89a3      	ldrh	r3, [r4, #12]
1000f256:	4313      	orrs	r3, r2
1000f258:	81a3      	strh	r3, [r4, #12]
1000f25a:	9b01      	ldr	r3, [sp, #4]
1000f25c:	2b01      	cmp	r3, #1
1000f25e:	d105      	bne.n	1000f26c <setvbuf+0xd0>
1000f260:	89a3      	ldrh	r3, [r4, #12]
1000f262:	9a01      	ldr	r2, [sp, #4]
1000f264:	431a      	orrs	r2, r3
1000f266:	4273      	negs	r3, r6
1000f268:	81a2      	strh	r2, [r4, #12]
1000f26a:	61a3      	str	r3, [r4, #24]
1000f26c:	4b0d      	ldr	r3, [pc, #52]	; (1000f2a4 <setvbuf+0x108>)
1000f26e:	2000      	movs	r0, #0
1000f270:	62ab      	str	r3, [r5, #40]	; 0x28
1000f272:	89a2      	ldrh	r2, [r4, #12]
1000f274:	6027      	str	r7, [r4, #0]
1000f276:	6127      	str	r7, [r4, #16]
1000f278:	6166      	str	r6, [r4, #20]
1000f27a:	0713      	lsls	r3, r2, #28
1000f27c:	d509      	bpl.n	1000f292 <setvbuf+0xf6>
1000f27e:	2303      	movs	r3, #3
1000f280:	401a      	ands	r2, r3
1000f282:	4253      	negs	r3, r2
1000f284:	4153      	adcs	r3, r2
1000f286:	425b      	negs	r3, r3
1000f288:	401e      	ands	r6, r3
1000f28a:	60a6      	str	r6, [r4, #8]
1000f28c:	e001      	b.n	1000f292 <setvbuf+0xf6>
1000f28e:	2001      	movs	r0, #1
1000f290:	4240      	negs	r0, r0
1000f292:	bdfe      	pop	{r1, r2, r3, r4, r5, r6, r7, pc}
1000f294:	1000fde8 	.word	0x1000fde8
1000f298:	1000fd00 	.word	0x1000fd00
1000f29c:	1000fd20 	.word	0x1000fd20
1000f2a0:	1000fd40 	.word	0x1000fd40
1000f2a4:	1000f5ad 	.word	0x1000f5ad

1000f2a8 <__swbuf_r>:
1000f2a8:	b570      	push	{r4, r5, r6, lr}
1000f2aa:	1c05      	adds	r5, r0, #0
1000f2ac:	1c0e      	adds	r6, r1, #0
1000f2ae:	1c14      	adds	r4, r2, #0
1000f2b0:	2800      	cmp	r0, #0
1000f2b2:	d004      	beq.n	1000f2be <__swbuf_r+0x16>
1000f2b4:	6983      	ldr	r3, [r0, #24]
1000f2b6:	2b00      	cmp	r3, #0
1000f2b8:	d101      	bne.n	1000f2be <__swbuf_r+0x16>
1000f2ba:	f000 f9b9 	bl	1000f630 <__sinit>
1000f2be:	4b23      	ldr	r3, [pc, #140]	; (1000f34c <__swbuf_r+0xa4>)
1000f2c0:	429c      	cmp	r4, r3
1000f2c2:	d101      	bne.n	1000f2c8 <__swbuf_r+0x20>
1000f2c4:	686c      	ldr	r4, [r5, #4]
1000f2c6:	e008      	b.n	1000f2da <__swbuf_r+0x32>
1000f2c8:	4b21      	ldr	r3, [pc, #132]	; (1000f350 <__swbuf_r+0xa8>)
1000f2ca:	429c      	cmp	r4, r3
1000f2cc:	d101      	bne.n	1000f2d2 <__swbuf_r+0x2a>
1000f2ce:	68ac      	ldr	r4, [r5, #8]
1000f2d0:	e003      	b.n	1000f2da <__swbuf_r+0x32>
1000f2d2:	4b20      	ldr	r3, [pc, #128]	; (1000f354 <__swbuf_r+0xac>)
1000f2d4:	429c      	cmp	r4, r3
1000f2d6:	d100      	bne.n	1000f2da <__swbuf_r+0x32>
1000f2d8:	68ec      	ldr	r4, [r5, #12]
1000f2da:	69a3      	ldr	r3, [r4, #24]
1000f2dc:	60a3      	str	r3, [r4, #8]
1000f2de:	89a3      	ldrh	r3, [r4, #12]
1000f2e0:	071b      	lsls	r3, r3, #28
1000f2e2:	d50a      	bpl.n	1000f2fa <__swbuf_r+0x52>
1000f2e4:	6923      	ldr	r3, [r4, #16]
1000f2e6:	2b00      	cmp	r3, #0
1000f2e8:	d007      	beq.n	1000f2fa <__swbuf_r+0x52>
1000f2ea:	6823      	ldr	r3, [r4, #0]
1000f2ec:	6922      	ldr	r2, [r4, #16]
1000f2ee:	b2f6      	uxtb	r6, r6
1000f2f0:	1a98      	subs	r0, r3, r2
1000f2f2:	6963      	ldr	r3, [r4, #20]
1000f2f4:	4298      	cmp	r0, r3
1000f2f6:	db0f      	blt.n	1000f318 <__swbuf_r+0x70>
1000f2f8:	e008      	b.n	1000f30c <__swbuf_r+0x64>
1000f2fa:	1c28      	adds	r0, r5, #0
1000f2fc:	1c21      	adds	r1, r4, #0
1000f2fe:	f000 f82b 	bl	1000f358 <__swsetup_r>
1000f302:	2800      	cmp	r0, #0
1000f304:	d0f1      	beq.n	1000f2ea <__swbuf_r+0x42>
1000f306:	2001      	movs	r0, #1
1000f308:	4240      	negs	r0, r0
1000f30a:	e01d      	b.n	1000f348 <__swbuf_r+0xa0>
1000f30c:	1c28      	adds	r0, r5, #0
1000f30e:	1c21      	adds	r1, r4, #0
1000f310:	f000 f920 	bl	1000f554 <_fflush_r>
1000f314:	2800      	cmp	r0, #0
1000f316:	d1f6      	bne.n	1000f306 <__swbuf_r+0x5e>
1000f318:	68a3      	ldr	r3, [r4, #8]
1000f31a:	3001      	adds	r0, #1
1000f31c:	3b01      	subs	r3, #1
1000f31e:	60a3      	str	r3, [r4, #8]
1000f320:	6823      	ldr	r3, [r4, #0]
1000f322:	1c5a      	adds	r2, r3, #1
1000f324:	6022      	str	r2, [r4, #0]
1000f326:	701e      	strb	r6, [r3, #0]
1000f328:	6963      	ldr	r3, [r4, #20]
1000f32a:	4298      	cmp	r0, r3
1000f32c:	d005      	beq.n	1000f33a <__swbuf_r+0x92>
1000f32e:	89a3      	ldrh	r3, [r4, #12]
1000f330:	1c30      	adds	r0, r6, #0
1000f332:	07db      	lsls	r3, r3, #31
1000f334:	d508      	bpl.n	1000f348 <__swbuf_r+0xa0>
1000f336:	2e0a      	cmp	r6, #10
1000f338:	d106      	bne.n	1000f348 <__swbuf_r+0xa0>
1000f33a:	1c28      	adds	r0, r5, #0
1000f33c:	1c21      	adds	r1, r4, #0
1000f33e:	f000 f909 	bl	1000f554 <_fflush_r>
1000f342:	2800      	cmp	r0, #0
1000f344:	d1df      	bne.n	1000f306 <__swbuf_r+0x5e>
1000f346:	1c30      	adds	r0, r6, #0
1000f348:	bd70      	pop	{r4, r5, r6, pc}
1000f34a:	46c0      	nop			; (mov r8, r8)
1000f34c:	1000fd00 	.word	0x1000fd00
1000f350:	1000fd20 	.word	0x1000fd20
1000f354:	1000fd40 	.word	0x1000fd40

1000f358 <__swsetup_r>:
1000f358:	4b35      	ldr	r3, [pc, #212]	; (1000f430 <__swsetup_r+0xd8>)
1000f35a:	b570      	push	{r4, r5, r6, lr}
1000f35c:	681d      	ldr	r5, [r3, #0]
1000f35e:	1c06      	adds	r6, r0, #0
1000f360:	1c0c      	adds	r4, r1, #0
1000f362:	2d00      	cmp	r5, #0
1000f364:	d005      	beq.n	1000f372 <__swsetup_r+0x1a>
1000f366:	69ab      	ldr	r3, [r5, #24]
1000f368:	2b00      	cmp	r3, #0
1000f36a:	d102      	bne.n	1000f372 <__swsetup_r+0x1a>
1000f36c:	1c28      	adds	r0, r5, #0
1000f36e:	f000 f95f 	bl	1000f630 <__sinit>
1000f372:	4b30      	ldr	r3, [pc, #192]	; (1000f434 <__swsetup_r+0xdc>)
1000f374:	429c      	cmp	r4, r3
1000f376:	d101      	bne.n	1000f37c <__swsetup_r+0x24>
1000f378:	686c      	ldr	r4, [r5, #4]
1000f37a:	e008      	b.n	1000f38e <__swsetup_r+0x36>
1000f37c:	4b2e      	ldr	r3, [pc, #184]	; (1000f438 <__swsetup_r+0xe0>)
1000f37e:	429c      	cmp	r4, r3
1000f380:	d101      	bne.n	1000f386 <__swsetup_r+0x2e>
1000f382:	68ac      	ldr	r4, [r5, #8]
1000f384:	e003      	b.n	1000f38e <__swsetup_r+0x36>
1000f386:	4b2d      	ldr	r3, [pc, #180]	; (1000f43c <__swsetup_r+0xe4>)
1000f388:	429c      	cmp	r4, r3
1000f38a:	d100      	bne.n	1000f38e <__swsetup_r+0x36>
1000f38c:	68ec      	ldr	r4, [r5, #12]
1000f38e:	89a3      	ldrh	r3, [r4, #12]
1000f390:	b29a      	uxth	r2, r3
1000f392:	0711      	lsls	r1, r2, #28
1000f394:	d423      	bmi.n	1000f3de <__swsetup_r+0x86>
1000f396:	06d1      	lsls	r1, r2, #27
1000f398:	d407      	bmi.n	1000f3aa <__swsetup_r+0x52>
1000f39a:	2209      	movs	r2, #9
1000f39c:	2001      	movs	r0, #1
1000f39e:	6032      	str	r2, [r6, #0]
1000f3a0:	3237      	adds	r2, #55	; 0x37
1000f3a2:	4313      	orrs	r3, r2
1000f3a4:	81a3      	strh	r3, [r4, #12]
1000f3a6:	4240      	negs	r0, r0
1000f3a8:	e040      	b.n	1000f42c <__swsetup_r+0xd4>
1000f3aa:	0753      	lsls	r3, r2, #29
1000f3ac:	d513      	bpl.n	1000f3d6 <__swsetup_r+0x7e>
1000f3ae:	6b61      	ldr	r1, [r4, #52]	; 0x34
1000f3b0:	2900      	cmp	r1, #0
1000f3b2:	d008      	beq.n	1000f3c6 <__swsetup_r+0x6e>
1000f3b4:	1c23      	adds	r3, r4, #0
1000f3b6:	3344      	adds	r3, #68	; 0x44
1000f3b8:	4299      	cmp	r1, r3
1000f3ba:	d002      	beq.n	1000f3c2 <__swsetup_r+0x6a>
1000f3bc:	1c30      	adds	r0, r6, #0
1000f3be:	f000 fa2b 	bl	1000f818 <_free_r>
1000f3c2:	2300      	movs	r3, #0
1000f3c4:	6363      	str	r3, [r4, #52]	; 0x34
1000f3c6:	2224      	movs	r2, #36	; 0x24
1000f3c8:	89a3      	ldrh	r3, [r4, #12]
1000f3ca:	4393      	bics	r3, r2
1000f3cc:	81a3      	strh	r3, [r4, #12]
1000f3ce:	2300      	movs	r3, #0
1000f3d0:	6063      	str	r3, [r4, #4]
1000f3d2:	6923      	ldr	r3, [r4, #16]
1000f3d4:	6023      	str	r3, [r4, #0]
1000f3d6:	2208      	movs	r2, #8
1000f3d8:	89a3      	ldrh	r3, [r4, #12]
1000f3da:	4313      	orrs	r3, r2
1000f3dc:	81a3      	strh	r3, [r4, #12]
1000f3de:	6923      	ldr	r3, [r4, #16]
1000f3e0:	2b00      	cmp	r3, #0
1000f3e2:	d10b      	bne.n	1000f3fc <__swsetup_r+0xa4>
1000f3e4:	23a0      	movs	r3, #160	; 0xa0
1000f3e6:	89a2      	ldrh	r2, [r4, #12]
1000f3e8:	009b      	lsls	r3, r3, #2
1000f3ea:	4013      	ands	r3, r2
1000f3ec:	2280      	movs	r2, #128	; 0x80
1000f3ee:	0092      	lsls	r2, r2, #2
1000f3f0:	4293      	cmp	r3, r2
1000f3f2:	d003      	beq.n	1000f3fc <__swsetup_r+0xa4>
1000f3f4:	1c30      	adds	r0, r6, #0
1000f3f6:	1c21      	adds	r1, r4, #0
1000f3f8:	f000 f9ac 	bl	1000f754 <__smakebuf_r>
1000f3fc:	2301      	movs	r3, #1
1000f3fe:	89a2      	ldrh	r2, [r4, #12]
1000f400:	4013      	ands	r3, r2
1000f402:	d005      	beq.n	1000f410 <__swsetup_r+0xb8>
1000f404:	2300      	movs	r3, #0
1000f406:	60a3      	str	r3, [r4, #8]
1000f408:	6963      	ldr	r3, [r4, #20]
1000f40a:	425b      	negs	r3, r3
1000f40c:	61a3      	str	r3, [r4, #24]
1000f40e:	e003      	b.n	1000f418 <__swsetup_r+0xc0>
1000f410:	0791      	lsls	r1, r2, #30
1000f412:	d400      	bmi.n	1000f416 <__swsetup_r+0xbe>
1000f414:	6963      	ldr	r3, [r4, #20]
1000f416:	60a3      	str	r3, [r4, #8]
1000f418:	2000      	movs	r0, #0
1000f41a:	6923      	ldr	r3, [r4, #16]
1000f41c:	4283      	cmp	r3, r0
1000f41e:	d105      	bne.n	1000f42c <__swsetup_r+0xd4>
1000f420:	0613      	lsls	r3, r2, #24
1000f422:	d503      	bpl.n	1000f42c <__swsetup_r+0xd4>
1000f424:	2340      	movs	r3, #64	; 0x40
1000f426:	431a      	orrs	r2, r3
1000f428:	81a2      	strh	r2, [r4, #12]
1000f42a:	3801      	subs	r0, #1
1000f42c:	bd70      	pop	{r4, r5, r6, pc}
1000f42e:	46c0      	nop			; (mov r8, r8)
1000f430:	1000fde8 	.word	0x1000fde8
1000f434:	1000fd00 	.word	0x1000fd00
1000f438:	1000fd20 	.word	0x1000fd20
1000f43c:	1000fd40 	.word	0x1000fd40

1000f440 <__sflush_r>:
1000f440:	b5f7      	push	{r0, r1, r2, r4, r5, r6, r7, lr}
1000f442:	898a      	ldrh	r2, [r1, #12]
1000f444:	1c05      	adds	r5, r0, #0
1000f446:	1c0c      	adds	r4, r1, #0
1000f448:	0713      	lsls	r3, r2, #28
1000f44a:	d45e      	bmi.n	1000f50a <__sflush_r+0xca>
1000f44c:	684b      	ldr	r3, [r1, #4]
1000f44e:	2b00      	cmp	r3, #0
1000f450:	dc02      	bgt.n	1000f458 <__sflush_r+0x18>
1000f452:	6c0b      	ldr	r3, [r1, #64]	; 0x40
1000f454:	2b00      	cmp	r3, #0
1000f456:	dd1a      	ble.n	1000f48e <__sflush_r+0x4e>
1000f458:	6ae7      	ldr	r7, [r4, #44]	; 0x2c
1000f45a:	2f00      	cmp	r7, #0
1000f45c:	d017      	beq.n	1000f48e <__sflush_r+0x4e>
1000f45e:	2300      	movs	r3, #0
1000f460:	682e      	ldr	r6, [r5, #0]
1000f462:	602b      	str	r3, [r5, #0]
1000f464:	2380      	movs	r3, #128	; 0x80
1000f466:	015b      	lsls	r3, r3, #5
1000f468:	401a      	ands	r2, r3
1000f46a:	d001      	beq.n	1000f470 <__sflush_r+0x30>
1000f46c:	6d62      	ldr	r2, [r4, #84]	; 0x54
1000f46e:	e015      	b.n	1000f49c <__sflush_r+0x5c>
1000f470:	1c28      	adds	r0, r5, #0
1000f472:	6a21      	ldr	r1, [r4, #32]
1000f474:	2301      	movs	r3, #1
1000f476:	47b8      	blx	r7
1000f478:	1c02      	adds	r2, r0, #0
1000f47a:	1c43      	adds	r3, r0, #1
1000f47c:	d10e      	bne.n	1000f49c <__sflush_r+0x5c>
1000f47e:	682b      	ldr	r3, [r5, #0]
1000f480:	2b00      	cmp	r3, #0
1000f482:	d00b      	beq.n	1000f49c <__sflush_r+0x5c>
1000f484:	2b1d      	cmp	r3, #29
1000f486:	d001      	beq.n	1000f48c <__sflush_r+0x4c>
1000f488:	2b16      	cmp	r3, #22
1000f48a:	d102      	bne.n	1000f492 <__sflush_r+0x52>
1000f48c:	602e      	str	r6, [r5, #0]
1000f48e:	2000      	movs	r0, #0
1000f490:	e05e      	b.n	1000f550 <__sflush_r+0x110>
1000f492:	2140      	movs	r1, #64	; 0x40
1000f494:	89a3      	ldrh	r3, [r4, #12]
1000f496:	430b      	orrs	r3, r1
1000f498:	81a3      	strh	r3, [r4, #12]
1000f49a:	e059      	b.n	1000f550 <__sflush_r+0x110>
1000f49c:	89a3      	ldrh	r3, [r4, #12]
1000f49e:	075b      	lsls	r3, r3, #29
1000f4a0:	d506      	bpl.n	1000f4b0 <__sflush_r+0x70>
1000f4a2:	6863      	ldr	r3, [r4, #4]
1000f4a4:	1ad2      	subs	r2, r2, r3
1000f4a6:	6b63      	ldr	r3, [r4, #52]	; 0x34
1000f4a8:	2b00      	cmp	r3, #0
1000f4aa:	d001      	beq.n	1000f4b0 <__sflush_r+0x70>
1000f4ac:	6c23      	ldr	r3, [r4, #64]	; 0x40
1000f4ae:	1ad2      	subs	r2, r2, r3
1000f4b0:	2300      	movs	r3, #0
1000f4b2:	1c28      	adds	r0, r5, #0
1000f4b4:	6a21      	ldr	r1, [r4, #32]
1000f4b6:	6ae7      	ldr	r7, [r4, #44]	; 0x2c
1000f4b8:	47b8      	blx	r7
1000f4ba:	89a3      	ldrh	r3, [r4, #12]
1000f4bc:	1c42      	adds	r2, r0, #1
1000f4be:	d106      	bne.n	1000f4ce <__sflush_r+0x8e>
1000f4c0:	682a      	ldr	r2, [r5, #0]
1000f4c2:	2a00      	cmp	r2, #0
1000f4c4:	d003      	beq.n	1000f4ce <__sflush_r+0x8e>
1000f4c6:	2a1d      	cmp	r2, #29
1000f4c8:	d001      	beq.n	1000f4ce <__sflush_r+0x8e>
1000f4ca:	2a16      	cmp	r2, #22
1000f4cc:	d119      	bne.n	1000f502 <__sflush_r+0xc2>
1000f4ce:	2200      	movs	r2, #0
1000f4d0:	6062      	str	r2, [r4, #4]
1000f4d2:	6922      	ldr	r2, [r4, #16]
1000f4d4:	6022      	str	r2, [r4, #0]
1000f4d6:	04db      	lsls	r3, r3, #19
1000f4d8:	d505      	bpl.n	1000f4e6 <__sflush_r+0xa6>
1000f4da:	1c43      	adds	r3, r0, #1
1000f4dc:	d102      	bne.n	1000f4e4 <__sflush_r+0xa4>
1000f4de:	682b      	ldr	r3, [r5, #0]
1000f4e0:	2b00      	cmp	r3, #0
1000f4e2:	d100      	bne.n	1000f4e6 <__sflush_r+0xa6>
1000f4e4:	6560      	str	r0, [r4, #84]	; 0x54
1000f4e6:	6b61      	ldr	r1, [r4, #52]	; 0x34
1000f4e8:	602e      	str	r6, [r5, #0]
1000f4ea:	2900      	cmp	r1, #0
1000f4ec:	d0cf      	beq.n	1000f48e <__sflush_r+0x4e>
1000f4ee:	1c23      	adds	r3, r4, #0
1000f4f0:	3344      	adds	r3, #68	; 0x44
1000f4f2:	4299      	cmp	r1, r3
1000f4f4:	d002      	beq.n	1000f4fc <__sflush_r+0xbc>
1000f4f6:	1c28      	adds	r0, r5, #0
1000f4f8:	f000 f98e 	bl	1000f818 <_free_r>
1000f4fc:	2000      	movs	r0, #0
1000f4fe:	6360      	str	r0, [r4, #52]	; 0x34
1000f500:	e026      	b.n	1000f550 <__sflush_r+0x110>
1000f502:	2240      	movs	r2, #64	; 0x40
1000f504:	4313      	orrs	r3, r2
1000f506:	81a3      	strh	r3, [r4, #12]
1000f508:	e022      	b.n	1000f550 <__sflush_r+0x110>
1000f50a:	690f      	ldr	r7, [r1, #16]
1000f50c:	2f00      	cmp	r7, #0
1000f50e:	d0be      	beq.n	1000f48e <__sflush_r+0x4e>
1000f510:	680b      	ldr	r3, [r1, #0]
1000f512:	600f      	str	r7, [r1, #0]
1000f514:	1bdb      	subs	r3, r3, r7
1000f516:	9301      	str	r3, [sp, #4]
1000f518:	2300      	movs	r3, #0
1000f51a:	0792      	lsls	r2, r2, #30
1000f51c:	d100      	bne.n	1000f520 <__sflush_r+0xe0>
1000f51e:	694b      	ldr	r3, [r1, #20]
1000f520:	60a3      	str	r3, [r4, #8]
1000f522:	9b01      	ldr	r3, [sp, #4]
1000f524:	2b00      	cmp	r3, #0
1000f526:	ddb2      	ble.n	1000f48e <__sflush_r+0x4e>
1000f528:	1c28      	adds	r0, r5, #0
1000f52a:	6a21      	ldr	r1, [r4, #32]
1000f52c:	1c3a      	adds	r2, r7, #0
1000f52e:	9b01      	ldr	r3, [sp, #4]
1000f530:	6aa6      	ldr	r6, [r4, #40]	; 0x28
1000f532:	47b0      	blx	r6
1000f534:	2800      	cmp	r0, #0
1000f536:	dc06      	bgt.n	1000f546 <__sflush_r+0x106>
1000f538:	2240      	movs	r2, #64	; 0x40
1000f53a:	2001      	movs	r0, #1
1000f53c:	89a3      	ldrh	r3, [r4, #12]
1000f53e:	4240      	negs	r0, r0
1000f540:	4313      	orrs	r3, r2
1000f542:	81a3      	strh	r3, [r4, #12]
1000f544:	e004      	b.n	1000f550 <__sflush_r+0x110>
1000f546:	9b01      	ldr	r3, [sp, #4]
1000f548:	183f      	adds	r7, r7, r0
1000f54a:	1a1b      	subs	r3, r3, r0
1000f54c:	9301      	str	r3, [sp, #4]
1000f54e:	e7e8      	b.n	1000f522 <__sflush_r+0xe2>
1000f550:	bdfe      	pop	{r1, r2, r3, r4, r5, r6, r7, pc}
	...

1000f554 <_fflush_r>:
1000f554:	b538      	push	{r3, r4, r5, lr}
1000f556:	690b      	ldr	r3, [r1, #16]
1000f558:	1c05      	adds	r5, r0, #0
1000f55a:	1c0c      	adds	r4, r1, #0
1000f55c:	2b00      	cmp	r3, #0
1000f55e:	d101      	bne.n	1000f564 <_fflush_r+0x10>
1000f560:	2000      	movs	r0, #0
1000f562:	e01c      	b.n	1000f59e <_fflush_r+0x4a>
1000f564:	2800      	cmp	r0, #0
1000f566:	d004      	beq.n	1000f572 <_fflush_r+0x1e>
1000f568:	6983      	ldr	r3, [r0, #24]
1000f56a:	2b00      	cmp	r3, #0
1000f56c:	d101      	bne.n	1000f572 <_fflush_r+0x1e>
1000f56e:	f000 f85f 	bl	1000f630 <__sinit>
1000f572:	4b0b      	ldr	r3, [pc, #44]	; (1000f5a0 <_fflush_r+0x4c>)
1000f574:	429c      	cmp	r4, r3
1000f576:	d101      	bne.n	1000f57c <_fflush_r+0x28>
1000f578:	686c      	ldr	r4, [r5, #4]
1000f57a:	e008      	b.n	1000f58e <_fflush_r+0x3a>
1000f57c:	4b09      	ldr	r3, [pc, #36]	; (1000f5a4 <_fflush_r+0x50>)
1000f57e:	429c      	cmp	r4, r3
1000f580:	d101      	bne.n	1000f586 <_fflush_r+0x32>
1000f582:	68ac      	ldr	r4, [r5, #8]
1000f584:	e003      	b.n	1000f58e <_fflush_r+0x3a>
1000f586:	4b08      	ldr	r3, [pc, #32]	; (1000f5a8 <_fflush_r+0x54>)
1000f588:	429c      	cmp	r4, r3
1000f58a:	d100      	bne.n	1000f58e <_fflush_r+0x3a>
1000f58c:	68ec      	ldr	r4, [r5, #12]
1000f58e:	220c      	movs	r2, #12
1000f590:	5ea3      	ldrsh	r3, [r4, r2]
1000f592:	2b00      	cmp	r3, #0
1000f594:	d0e4      	beq.n	1000f560 <_fflush_r+0xc>
1000f596:	1c28      	adds	r0, r5, #0
1000f598:	1c21      	adds	r1, r4, #0
1000f59a:	f7ff ff51 	bl	1000f440 <__sflush_r>
1000f59e:	bd38      	pop	{r3, r4, r5, pc}
1000f5a0:	1000fd00 	.word	0x1000fd00
1000f5a4:	1000fd20 	.word	0x1000fd20
1000f5a8:	1000fd40 	.word	0x1000fd40

1000f5ac <_cleanup_r>:
1000f5ac:	b508      	push	{r3, lr}
1000f5ae:	4902      	ldr	r1, [pc, #8]	; (1000f5b8 <_cleanup_r+0xc>)
1000f5b0:	f000 f8ae 	bl	1000f710 <_fwalk_reent>
1000f5b4:	bd08      	pop	{r3, pc}
1000f5b6:	46c0      	nop			; (mov r8, r8)
1000f5b8:	1000f555 	.word	0x1000f555

1000f5bc <std.isra.0>:
1000f5bc:	2300      	movs	r3, #0
1000f5be:	b510      	push	{r4, lr}
1000f5c0:	1c04      	adds	r4, r0, #0
1000f5c2:	6003      	str	r3, [r0, #0]
1000f5c4:	6043      	str	r3, [r0, #4]
1000f5c6:	6083      	str	r3, [r0, #8]
1000f5c8:	8181      	strh	r1, [r0, #12]
1000f5ca:	6643      	str	r3, [r0, #100]	; 0x64
1000f5cc:	81c2      	strh	r2, [r0, #14]
1000f5ce:	6103      	str	r3, [r0, #16]
1000f5d0:	6143      	str	r3, [r0, #20]
1000f5d2:	6183      	str	r3, [r0, #24]
1000f5d4:	1c19      	adds	r1, r3, #0
1000f5d6:	2208      	movs	r2, #8
1000f5d8:	305c      	adds	r0, #92	; 0x5c
1000f5da:	f7ff fd25 	bl	1000f028 <memset>
1000f5de:	4b05      	ldr	r3, [pc, #20]	; (1000f5f4 <std.isra.0+0x38>)
1000f5e0:	6224      	str	r4, [r4, #32]
1000f5e2:	6263      	str	r3, [r4, #36]	; 0x24
1000f5e4:	4b04      	ldr	r3, [pc, #16]	; (1000f5f8 <std.isra.0+0x3c>)
1000f5e6:	62a3      	str	r3, [r4, #40]	; 0x28
1000f5e8:	4b04      	ldr	r3, [pc, #16]	; (1000f5fc <std.isra.0+0x40>)
1000f5ea:	62e3      	str	r3, [r4, #44]	; 0x2c
1000f5ec:	4b04      	ldr	r3, [pc, #16]	; (1000f600 <std.isra.0+0x44>)
1000f5ee:	6323      	str	r3, [r4, #48]	; 0x30
1000f5f0:	bd10      	pop	{r4, pc}
1000f5f2:	46c0      	nop			; (mov r8, r8)
1000f5f4:	1000f979 	.word	0x1000f979
1000f5f8:	1000f9a1 	.word	0x1000f9a1
1000f5fc:	1000f9d9 	.word	0x1000f9d9
1000f600:	1000fa05 	.word	0x1000fa05

1000f604 <__sfmoreglue>:
1000f604:	b570      	push	{r4, r5, r6, lr}
1000f606:	2568      	movs	r5, #104	; 0x68
1000f608:	1e4b      	subs	r3, r1, #1
1000f60a:	435d      	muls	r5, r3
1000f60c:	1c0e      	adds	r6, r1, #0
1000f60e:	1c29      	adds	r1, r5, #0
1000f610:	3174      	adds	r1, #116	; 0x74
1000f612:	f000 f947 	bl	1000f8a4 <_malloc_r>
1000f616:	1e04      	subs	r4, r0, #0
1000f618:	d008      	beq.n	1000f62c <__sfmoreglue+0x28>
1000f61a:	2100      	movs	r1, #0
1000f61c:	1c2a      	adds	r2, r5, #0
1000f61e:	6001      	str	r1, [r0, #0]
1000f620:	6046      	str	r6, [r0, #4]
1000f622:	300c      	adds	r0, #12
1000f624:	60a0      	str	r0, [r4, #8]
1000f626:	3268      	adds	r2, #104	; 0x68
1000f628:	f7ff fcfe 	bl	1000f028 <memset>
1000f62c:	1c20      	adds	r0, r4, #0
1000f62e:	bd70      	pop	{r4, r5, r6, pc}

1000f630 <__sinit>:
1000f630:	6983      	ldr	r3, [r0, #24]
1000f632:	b513      	push	{r0, r1, r4, lr}
1000f634:	2b00      	cmp	r3, #0
1000f636:	d128      	bne.n	1000f68a <__sinit+0x5a>
1000f638:	6483      	str	r3, [r0, #72]	; 0x48
1000f63a:	64c3      	str	r3, [r0, #76]	; 0x4c
1000f63c:	6503      	str	r3, [r0, #80]	; 0x50
1000f63e:	4b13      	ldr	r3, [pc, #76]	; (1000f68c <__sinit+0x5c>)
1000f640:	4a13      	ldr	r2, [pc, #76]	; (1000f690 <__sinit+0x60>)
1000f642:	681b      	ldr	r3, [r3, #0]
1000f644:	6282      	str	r2, [r0, #40]	; 0x28
1000f646:	9301      	str	r3, [sp, #4]
1000f648:	4298      	cmp	r0, r3
1000f64a:	d101      	bne.n	1000f650 <__sinit+0x20>
1000f64c:	2301      	movs	r3, #1
1000f64e:	6183      	str	r3, [r0, #24]
1000f650:	1c04      	adds	r4, r0, #0
1000f652:	f000 f81f 	bl	1000f694 <__sfp>
1000f656:	6060      	str	r0, [r4, #4]
1000f658:	1c20      	adds	r0, r4, #0
1000f65a:	f000 f81b 	bl	1000f694 <__sfp>
1000f65e:	60a0      	str	r0, [r4, #8]
1000f660:	1c20      	adds	r0, r4, #0
1000f662:	f000 f817 	bl	1000f694 <__sfp>
1000f666:	2104      	movs	r1, #4
1000f668:	60e0      	str	r0, [r4, #12]
1000f66a:	2200      	movs	r2, #0
1000f66c:	6860      	ldr	r0, [r4, #4]
1000f66e:	f7ff ffa5 	bl	1000f5bc <std.isra.0>
1000f672:	68a0      	ldr	r0, [r4, #8]
1000f674:	2109      	movs	r1, #9
1000f676:	2201      	movs	r2, #1
1000f678:	f7ff ffa0 	bl	1000f5bc <std.isra.0>
1000f67c:	68e0      	ldr	r0, [r4, #12]
1000f67e:	2112      	movs	r1, #18
1000f680:	2202      	movs	r2, #2
1000f682:	f7ff ff9b 	bl	1000f5bc <std.isra.0>
1000f686:	2301      	movs	r3, #1
1000f688:	61a3      	str	r3, [r4, #24]
1000f68a:	bd13      	pop	{r0, r1, r4, pc}
1000f68c:	1000fcfc 	.word	0x1000fcfc
1000f690:	1000f5ad 	.word	0x1000f5ad

1000f694 <__sfp>:
1000f694:	b5f8      	push	{r3, r4, r5, r6, r7, lr}
1000f696:	4b1d      	ldr	r3, [pc, #116]	; (1000f70c <__sfp+0x78>)
1000f698:	1c06      	adds	r6, r0, #0
1000f69a:	681d      	ldr	r5, [r3, #0]
1000f69c:	69ab      	ldr	r3, [r5, #24]
1000f69e:	2b00      	cmp	r3, #0
1000f6a0:	d102      	bne.n	1000f6a8 <__sfp+0x14>
1000f6a2:	1c28      	adds	r0, r5, #0
1000f6a4:	f7ff ffc4 	bl	1000f630 <__sinit>
1000f6a8:	3548      	adds	r5, #72	; 0x48
1000f6aa:	68ac      	ldr	r4, [r5, #8]
1000f6ac:	686b      	ldr	r3, [r5, #4]
1000f6ae:	3b01      	subs	r3, #1
1000f6b0:	d405      	bmi.n	1000f6be <__sfp+0x2a>
1000f6b2:	220c      	movs	r2, #12
1000f6b4:	5ea7      	ldrsh	r7, [r4, r2]
1000f6b6:	2f00      	cmp	r7, #0
1000f6b8:	d010      	beq.n	1000f6dc <__sfp+0x48>
1000f6ba:	3468      	adds	r4, #104	; 0x68
1000f6bc:	e7f7      	b.n	1000f6ae <__sfp+0x1a>
1000f6be:	682b      	ldr	r3, [r5, #0]
1000f6c0:	2b00      	cmp	r3, #0
1000f6c2:	d106      	bne.n	1000f6d2 <__sfp+0x3e>
1000f6c4:	1c30      	adds	r0, r6, #0
1000f6c6:	2104      	movs	r1, #4
1000f6c8:	f7ff ff9c 	bl	1000f604 <__sfmoreglue>
1000f6cc:	6028      	str	r0, [r5, #0]
1000f6ce:	2800      	cmp	r0, #0
1000f6d0:	d001      	beq.n	1000f6d6 <__sfp+0x42>
1000f6d2:	682d      	ldr	r5, [r5, #0]
1000f6d4:	e7e9      	b.n	1000f6aa <__sfp+0x16>
1000f6d6:	230c      	movs	r3, #12
1000f6d8:	6033      	str	r3, [r6, #0]
1000f6da:	e016      	b.n	1000f70a <__sfp+0x76>
1000f6dc:	2301      	movs	r3, #1
1000f6de:	1c20      	adds	r0, r4, #0
1000f6e0:	425b      	negs	r3, r3
1000f6e2:	81e3      	strh	r3, [r4, #14]
1000f6e4:	3302      	adds	r3, #2
1000f6e6:	81a3      	strh	r3, [r4, #12]
1000f6e8:	6667      	str	r7, [r4, #100]	; 0x64
1000f6ea:	6027      	str	r7, [r4, #0]
1000f6ec:	60a7      	str	r7, [r4, #8]
1000f6ee:	6067      	str	r7, [r4, #4]
1000f6f0:	6127      	str	r7, [r4, #16]
1000f6f2:	6167      	str	r7, [r4, #20]
1000f6f4:	61a7      	str	r7, [r4, #24]
1000f6f6:	305c      	adds	r0, #92	; 0x5c
1000f6f8:	1c39      	adds	r1, r7, #0
1000f6fa:	2208      	movs	r2, #8
1000f6fc:	f7ff fc94 	bl	1000f028 <memset>
1000f700:	1c20      	adds	r0, r4, #0
1000f702:	6367      	str	r7, [r4, #52]	; 0x34
1000f704:	63a7      	str	r7, [r4, #56]	; 0x38
1000f706:	64a7      	str	r7, [r4, #72]	; 0x48
1000f708:	64e7      	str	r7, [r4, #76]	; 0x4c
1000f70a:	bdf8      	pop	{r3, r4, r5, r6, r7, pc}
1000f70c:	1000fcfc 	.word	0x1000fcfc

1000f710 <_fwalk_reent>:
1000f710:	b5f7      	push	{r0, r1, r2, r4, r5, r6, r7, lr}
1000f712:	1c04      	adds	r4, r0, #0
1000f714:	1c07      	adds	r7, r0, #0
1000f716:	2600      	movs	r6, #0
1000f718:	9101      	str	r1, [sp, #4]
1000f71a:	3448      	adds	r4, #72	; 0x48
1000f71c:	2c00      	cmp	r4, #0
1000f71e:	d016      	beq.n	1000f74e <_fwalk_reent+0x3e>
1000f720:	6863      	ldr	r3, [r4, #4]
1000f722:	68a5      	ldr	r5, [r4, #8]
1000f724:	9300      	str	r3, [sp, #0]
1000f726:	9b00      	ldr	r3, [sp, #0]
1000f728:	3b01      	subs	r3, #1
1000f72a:	9300      	str	r3, [sp, #0]
1000f72c:	d40d      	bmi.n	1000f74a <_fwalk_reent+0x3a>
1000f72e:	89ab      	ldrh	r3, [r5, #12]
1000f730:	2b01      	cmp	r3, #1
1000f732:	d908      	bls.n	1000f746 <_fwalk_reent+0x36>
1000f734:	220e      	movs	r2, #14
1000f736:	5eab      	ldrsh	r3, [r5, r2]
1000f738:	3301      	adds	r3, #1
1000f73a:	d004      	beq.n	1000f746 <_fwalk_reent+0x36>
1000f73c:	1c38      	adds	r0, r7, #0
1000f73e:	1c29      	adds	r1, r5, #0
1000f740:	9b01      	ldr	r3, [sp, #4]
1000f742:	4798      	blx	r3
1000f744:	4306      	orrs	r6, r0
1000f746:	3568      	adds	r5, #104	; 0x68
1000f748:	e7ed      	b.n	1000f726 <_fwalk_reent+0x16>
1000f74a:	6824      	ldr	r4, [r4, #0]
1000f74c:	e7e6      	b.n	1000f71c <_fwalk_reent+0xc>
1000f74e:	1c30      	adds	r0, r6, #0
1000f750:	bdfe      	pop	{r1, r2, r3, r4, r5, r6, r7, pc}
	...

1000f754 <__smakebuf_r>:
1000f754:	b5f0      	push	{r4, r5, r6, r7, lr}
1000f756:	898b      	ldrh	r3, [r1, #12]
1000f758:	b091      	sub	sp, #68	; 0x44
1000f75a:	079b      	lsls	r3, r3, #30
1000f75c:	d506      	bpl.n	1000f76c <__smakebuf_r+0x18>
1000f75e:	1c0b      	adds	r3, r1, #0
1000f760:	3347      	adds	r3, #71	; 0x47
1000f762:	600b      	str	r3, [r1, #0]
1000f764:	610b      	str	r3, [r1, #16]
1000f766:	2301      	movs	r3, #1
1000f768:	614b      	str	r3, [r1, #20]
1000f76a:	e045      	b.n	1000f7f8 <__smakebuf_r+0xa4>
1000f76c:	1c0c      	adds	r4, r1, #0
1000f76e:	230e      	movs	r3, #14
1000f770:	5ec9      	ldrsh	r1, [r1, r3]
1000f772:	1c06      	adds	r6, r0, #0
1000f774:	2900      	cmp	r1, #0
1000f776:	da04      	bge.n	1000f782 <__smakebuf_r+0x2e>
1000f778:	2380      	movs	r3, #128	; 0x80
1000f77a:	89a5      	ldrh	r5, [r4, #12]
1000f77c:	401d      	ands	r5, r3
1000f77e:	d110      	bne.n	1000f7a2 <__smakebuf_r+0x4e>
1000f780:	e00c      	b.n	1000f79c <__smakebuf_r+0x48>
1000f782:	aa01      	add	r2, sp, #4
1000f784:	f000 f96a 	bl	1000fa5c <_fstat_r>
1000f788:	2800      	cmp	r0, #0
1000f78a:	dbf5      	blt.n	1000f778 <__smakebuf_r+0x24>
1000f78c:	23f0      	movs	r3, #240	; 0xf0
1000f78e:	9d02      	ldr	r5, [sp, #8]
1000f790:	021b      	lsls	r3, r3, #8
1000f792:	401d      	ands	r5, r3
1000f794:	4b19      	ldr	r3, [pc, #100]	; (1000f7fc <__smakebuf_r+0xa8>)
1000f796:	18ed      	adds	r5, r5, r3
1000f798:	426b      	negs	r3, r5
1000f79a:	415d      	adcs	r5, r3
1000f79c:	2780      	movs	r7, #128	; 0x80
1000f79e:	00ff      	lsls	r7, r7, #3
1000f7a0:	e001      	b.n	1000f7a6 <__smakebuf_r+0x52>
1000f7a2:	2500      	movs	r5, #0
1000f7a4:	2740      	movs	r7, #64	; 0x40
1000f7a6:	1c30      	adds	r0, r6, #0
1000f7a8:	1c39      	adds	r1, r7, #0
1000f7aa:	f000 f87b 	bl	1000f8a4 <_malloc_r>
1000f7ae:	2800      	cmp	r0, #0
1000f7b0:	d10c      	bne.n	1000f7cc <__smakebuf_r+0x78>
1000f7b2:	89a3      	ldrh	r3, [r4, #12]
1000f7b4:	059a      	lsls	r2, r3, #22
1000f7b6:	d41f      	bmi.n	1000f7f8 <__smakebuf_r+0xa4>
1000f7b8:	2202      	movs	r2, #2
1000f7ba:	4313      	orrs	r3, r2
1000f7bc:	81a3      	strh	r3, [r4, #12]
1000f7be:	1c23      	adds	r3, r4, #0
1000f7c0:	3347      	adds	r3, #71	; 0x47
1000f7c2:	6023      	str	r3, [r4, #0]
1000f7c4:	6123      	str	r3, [r4, #16]
1000f7c6:	2301      	movs	r3, #1
1000f7c8:	6163      	str	r3, [r4, #20]
1000f7ca:	e015      	b.n	1000f7f8 <__smakebuf_r+0xa4>
1000f7cc:	2280      	movs	r2, #128	; 0x80
1000f7ce:	4b0c      	ldr	r3, [pc, #48]	; (1000f800 <__smakebuf_r+0xac>)
1000f7d0:	62b3      	str	r3, [r6, #40]	; 0x28
1000f7d2:	89a3      	ldrh	r3, [r4, #12]
1000f7d4:	6020      	str	r0, [r4, #0]
1000f7d6:	4313      	orrs	r3, r2
1000f7d8:	81a3      	strh	r3, [r4, #12]
1000f7da:	6120      	str	r0, [r4, #16]
1000f7dc:	6167      	str	r7, [r4, #20]
1000f7de:	2d00      	cmp	r5, #0
1000f7e0:	d00a      	beq.n	1000f7f8 <__smakebuf_r+0xa4>
1000f7e2:	230e      	movs	r3, #14
1000f7e4:	5ee1      	ldrsh	r1, [r4, r3]
1000f7e6:	1c30      	adds	r0, r6, #0
1000f7e8:	f000 f94a 	bl	1000fa80 <_isatty_r>
1000f7ec:	2800      	cmp	r0, #0
1000f7ee:	d003      	beq.n	1000f7f8 <__smakebuf_r+0xa4>
1000f7f0:	2201      	movs	r2, #1
1000f7f2:	89a3      	ldrh	r3, [r4, #12]
1000f7f4:	4313      	orrs	r3, r2
1000f7f6:	81a3      	strh	r3, [r4, #12]
1000f7f8:	b011      	add	sp, #68	; 0x44
1000f7fa:	bdf0      	pop	{r4, r5, r6, r7, pc}
1000f7fc:	ffffe000 	.word	0xffffe000
1000f800:	1000f5ad 	.word	0x1000f5ad

1000f804 <malloc>:
1000f804:	b508      	push	{r3, lr}
1000f806:	4b03      	ldr	r3, [pc, #12]	; (1000f814 <malloc+0x10>)
1000f808:	1c01      	adds	r1, r0, #0
1000f80a:	6818      	ldr	r0, [r3, #0]
1000f80c:	f000 f84a 	bl	1000f8a4 <_malloc_r>
1000f810:	bd08      	pop	{r3, pc}
1000f812:	46c0      	nop			; (mov r8, r8)
1000f814:	1000fde8 	.word	0x1000fde8

1000f818 <_free_r>:
1000f818:	b530      	push	{r4, r5, lr}
1000f81a:	2900      	cmp	r1, #0
1000f81c:	d03e      	beq.n	1000f89c <_free_r+0x84>
1000f81e:	3904      	subs	r1, #4
1000f820:	680b      	ldr	r3, [r1, #0]
1000f822:	2b00      	cmp	r3, #0
1000f824:	da00      	bge.n	1000f828 <_free_r+0x10>
1000f826:	18c9      	adds	r1, r1, r3
1000f828:	4a1d      	ldr	r2, [pc, #116]	; (1000f8a0 <_free_r+0x88>)
1000f82a:	6813      	ldr	r3, [r2, #0]
1000f82c:	1c14      	adds	r4, r2, #0
1000f82e:	2b00      	cmp	r3, #0
1000f830:	d102      	bne.n	1000f838 <_free_r+0x20>
1000f832:	604b      	str	r3, [r1, #4]
1000f834:	6011      	str	r1, [r2, #0]
1000f836:	e031      	b.n	1000f89c <_free_r+0x84>
1000f838:	4299      	cmp	r1, r3
1000f83a:	d20d      	bcs.n	1000f858 <_free_r+0x40>
1000f83c:	6808      	ldr	r0, [r1, #0]
1000f83e:	180a      	adds	r2, r1, r0
1000f840:	429a      	cmp	r2, r3
1000f842:	d103      	bne.n	1000f84c <_free_r+0x34>
1000f844:	6813      	ldr	r3, [r2, #0]
1000f846:	18c3      	adds	r3, r0, r3
1000f848:	600b      	str	r3, [r1, #0]
1000f84a:	6853      	ldr	r3, [r2, #4]
1000f84c:	604b      	str	r3, [r1, #4]
1000f84e:	6021      	str	r1, [r4, #0]
1000f850:	e024      	b.n	1000f89c <_free_r+0x84>
1000f852:	428a      	cmp	r2, r1
1000f854:	d803      	bhi.n	1000f85e <_free_r+0x46>
1000f856:	1c13      	adds	r3, r2, #0
1000f858:	685a      	ldr	r2, [r3, #4]
1000f85a:	2a00      	cmp	r2, #0
1000f85c:	d1f9      	bne.n	1000f852 <_free_r+0x3a>
1000f85e:	681d      	ldr	r5, [r3, #0]
1000f860:	195c      	adds	r4, r3, r5
1000f862:	428c      	cmp	r4, r1
1000f864:	d10b      	bne.n	1000f87e <_free_r+0x66>
1000f866:	6809      	ldr	r1, [r1, #0]
1000f868:	1869      	adds	r1, r5, r1
1000f86a:	1858      	adds	r0, r3, r1
1000f86c:	6019      	str	r1, [r3, #0]
1000f86e:	4290      	cmp	r0, r2
1000f870:	d114      	bne.n	1000f89c <_free_r+0x84>
1000f872:	6810      	ldr	r0, [r2, #0]
1000f874:	6852      	ldr	r2, [r2, #4]
1000f876:	1809      	adds	r1, r1, r0
1000f878:	6019      	str	r1, [r3, #0]
1000f87a:	605a      	str	r2, [r3, #4]
1000f87c:	e00e      	b.n	1000f89c <_free_r+0x84>
1000f87e:	428c      	cmp	r4, r1
1000f880:	d902      	bls.n	1000f888 <_free_r+0x70>
1000f882:	230c      	movs	r3, #12
1000f884:	6003      	str	r3, [r0, #0]
1000f886:	e009      	b.n	1000f89c <_free_r+0x84>
1000f888:	6808      	ldr	r0, [r1, #0]
1000f88a:	180c      	adds	r4, r1, r0
1000f88c:	4294      	cmp	r4, r2
1000f88e:	d103      	bne.n	1000f898 <_free_r+0x80>
1000f890:	6814      	ldr	r4, [r2, #0]
1000f892:	6852      	ldr	r2, [r2, #4]
1000f894:	1900      	adds	r0, r0, r4
1000f896:	6008      	str	r0, [r1, #0]
1000f898:	604a      	str	r2, [r1, #4]
1000f89a:	6059      	str	r1, [r3, #4]
1000f89c:	bd30      	pop	{r4, r5, pc}
1000f89e:	46c0      	nop			; (mov r8, r8)
1000f8a0:	1001052c 	.word	0x1001052c

1000f8a4 <_malloc_r>:
1000f8a4:	2303      	movs	r3, #3
1000f8a6:	b570      	push	{r4, r5, r6, lr}
1000f8a8:	1ccc      	adds	r4, r1, #3
1000f8aa:	439c      	bics	r4, r3
1000f8ac:	3408      	adds	r4, #8
1000f8ae:	1c05      	adds	r5, r0, #0
1000f8b0:	2c0c      	cmp	r4, #12
1000f8b2:	d201      	bcs.n	1000f8b8 <_malloc_r+0x14>
1000f8b4:	240c      	movs	r4, #12
1000f8b6:	e005      	b.n	1000f8c4 <_malloc_r+0x20>
1000f8b8:	2c00      	cmp	r4, #0
1000f8ba:	da03      	bge.n	1000f8c4 <_malloc_r+0x20>
1000f8bc:	230c      	movs	r3, #12
1000f8be:	2000      	movs	r0, #0
1000f8c0:	602b      	str	r3, [r5, #0]
1000f8c2:	e042      	b.n	1000f94a <_malloc_r+0xa6>
1000f8c4:	428c      	cmp	r4, r1
1000f8c6:	d3f9      	bcc.n	1000f8bc <_malloc_r+0x18>
1000f8c8:	4a20      	ldr	r2, [pc, #128]	; (1000f94c <_malloc_r+0xa8>)
1000f8ca:	6813      	ldr	r3, [r2, #0]
1000f8cc:	1c10      	adds	r0, r2, #0
1000f8ce:	1c19      	adds	r1, r3, #0
1000f8d0:	2900      	cmp	r1, #0
1000f8d2:	d013      	beq.n	1000f8fc <_malloc_r+0x58>
1000f8d4:	680a      	ldr	r2, [r1, #0]
1000f8d6:	1b12      	subs	r2, r2, r4
1000f8d8:	d40d      	bmi.n	1000f8f6 <_malloc_r+0x52>
1000f8da:	2a0b      	cmp	r2, #11
1000f8dc:	d902      	bls.n	1000f8e4 <_malloc_r+0x40>
1000f8de:	600a      	str	r2, [r1, #0]
1000f8e0:	188b      	adds	r3, r1, r2
1000f8e2:	e01f      	b.n	1000f924 <_malloc_r+0x80>
1000f8e4:	428b      	cmp	r3, r1
1000f8e6:	d102      	bne.n	1000f8ee <_malloc_r+0x4a>
1000f8e8:	685a      	ldr	r2, [r3, #4]
1000f8ea:	6002      	str	r2, [r0, #0]
1000f8ec:	e01b      	b.n	1000f926 <_malloc_r+0x82>
1000f8ee:	684a      	ldr	r2, [r1, #4]
1000f8f0:	605a      	str	r2, [r3, #4]
1000f8f2:	1c0b      	adds	r3, r1, #0
1000f8f4:	e017      	b.n	1000f926 <_malloc_r+0x82>
1000f8f6:	1c0b      	adds	r3, r1, #0
1000f8f8:	6849      	ldr	r1, [r1, #4]
1000f8fa:	e7e9      	b.n	1000f8d0 <_malloc_r+0x2c>
1000f8fc:	4e14      	ldr	r6, [pc, #80]	; (1000f950 <_malloc_r+0xac>)
1000f8fe:	6833      	ldr	r3, [r6, #0]
1000f900:	2b00      	cmp	r3, #0
1000f902:	d103      	bne.n	1000f90c <_malloc_r+0x68>
1000f904:	1c28      	adds	r0, r5, #0
1000f906:	f000 f825 	bl	1000f954 <_sbrk_r>
1000f90a:	6030      	str	r0, [r6, #0]
1000f90c:	1c28      	adds	r0, r5, #0
1000f90e:	1c21      	adds	r1, r4, #0
1000f910:	f000 f820 	bl	1000f954 <_sbrk_r>
1000f914:	1c03      	adds	r3, r0, #0
1000f916:	1c42      	adds	r2, r0, #1
1000f918:	d0d0      	beq.n	1000f8bc <_malloc_r+0x18>
1000f91a:	2203      	movs	r2, #3
1000f91c:	1cc6      	adds	r6, r0, #3
1000f91e:	4396      	bics	r6, r2
1000f920:	4286      	cmp	r6, r0
1000f922:	d10a      	bne.n	1000f93a <_malloc_r+0x96>
1000f924:	601c      	str	r4, [r3, #0]
1000f926:	1c18      	adds	r0, r3, #0
1000f928:	2107      	movs	r1, #7
1000f92a:	300b      	adds	r0, #11
1000f92c:	1d1a      	adds	r2, r3, #4
1000f92e:	4388      	bics	r0, r1
1000f930:	1a82      	subs	r2, r0, r2
1000f932:	d00a      	beq.n	1000f94a <_malloc_r+0xa6>
1000f934:	4251      	negs	r1, r2
1000f936:	5099      	str	r1, [r3, r2]
1000f938:	e007      	b.n	1000f94a <_malloc_r+0xa6>
1000f93a:	1a31      	subs	r1, r6, r0
1000f93c:	1c28      	adds	r0, r5, #0
1000f93e:	f000 f809 	bl	1000f954 <_sbrk_r>
1000f942:	1c43      	adds	r3, r0, #1
1000f944:	d0ba      	beq.n	1000f8bc <_malloc_r+0x18>
1000f946:	1c33      	adds	r3, r6, #0
1000f948:	e7ec      	b.n	1000f924 <_malloc_r+0x80>
1000f94a:	bd70      	pop	{r4, r5, r6, pc}
1000f94c:	1001052c 	.word	0x1001052c
1000f950:	10010528 	.word	0x10010528

1000f954 <_sbrk_r>:
1000f954:	b538      	push	{r3, r4, r5, lr}
1000f956:	2300      	movs	r3, #0
1000f958:	4c06      	ldr	r4, [pc, #24]	; (1000f974 <_sbrk_r+0x20>)
1000f95a:	1c05      	adds	r5, r0, #0
1000f95c:	1c08      	adds	r0, r1, #0
1000f95e:	6023      	str	r3, [r4, #0]
1000f960:	f7f9 fc60 	bl	10009224 <_sbrk>
1000f964:	1c43      	adds	r3, r0, #1
1000f966:	d103      	bne.n	1000f970 <_sbrk_r+0x1c>
1000f968:	6823      	ldr	r3, [r4, #0]
1000f96a:	2b00      	cmp	r3, #0
1000f96c:	d000      	beq.n	1000f970 <_sbrk_r+0x1c>
1000f96e:	602b      	str	r3, [r5, #0]
1000f970:	bd38      	pop	{r3, r4, r5, pc}
1000f972:	46c0      	nop			; (mov r8, r8)
1000f974:	100119b0 	.word	0x100119b0

1000f978 <__sread>:
1000f978:	b538      	push	{r3, r4, r5, lr}
1000f97a:	1c0c      	adds	r4, r1, #0
1000f97c:	250e      	movs	r5, #14
1000f97e:	5f49      	ldrsh	r1, [r1, r5]
1000f980:	f000 f8a4 	bl	1000facc <_read_r>
1000f984:	2800      	cmp	r0, #0
1000f986:	db03      	blt.n	1000f990 <__sread+0x18>
1000f988:	6d63      	ldr	r3, [r4, #84]	; 0x54
1000f98a:	181b      	adds	r3, r3, r0
1000f98c:	6563      	str	r3, [r4, #84]	; 0x54
1000f98e:	e003      	b.n	1000f998 <__sread+0x20>
1000f990:	89a2      	ldrh	r2, [r4, #12]
1000f992:	4b02      	ldr	r3, [pc, #8]	; (1000f99c <__sread+0x24>)
1000f994:	4013      	ands	r3, r2
1000f996:	81a3      	strh	r3, [r4, #12]
1000f998:	bd38      	pop	{r3, r4, r5, pc}
1000f99a:	46c0      	nop			; (mov r8, r8)
1000f99c:	ffffefff 	.word	0xffffefff

1000f9a0 <__swrite>:
1000f9a0:	b5f8      	push	{r3, r4, r5, r6, r7, lr}
1000f9a2:	1c1e      	adds	r6, r3, #0
1000f9a4:	898b      	ldrh	r3, [r1, #12]
1000f9a6:	1c05      	adds	r5, r0, #0
1000f9a8:	1c0c      	adds	r4, r1, #0
1000f9aa:	1c17      	adds	r7, r2, #0
1000f9ac:	05db      	lsls	r3, r3, #23
1000f9ae:	d505      	bpl.n	1000f9bc <__swrite+0x1c>
1000f9b0:	230e      	movs	r3, #14
1000f9b2:	5ec9      	ldrsh	r1, [r1, r3]
1000f9b4:	2200      	movs	r2, #0
1000f9b6:	2302      	movs	r3, #2
1000f9b8:	f000 f874 	bl	1000faa4 <_lseek_r>
1000f9bc:	89a2      	ldrh	r2, [r4, #12]
1000f9be:	4b05      	ldr	r3, [pc, #20]	; (1000f9d4 <__swrite+0x34>)
1000f9c0:	1c28      	adds	r0, r5, #0
1000f9c2:	4013      	ands	r3, r2
1000f9c4:	81a3      	strh	r3, [r4, #12]
1000f9c6:	1c3a      	adds	r2, r7, #0
1000f9c8:	230e      	movs	r3, #14
1000f9ca:	5ee1      	ldrsh	r1, [r4, r3]
1000f9cc:	1c33      	adds	r3, r6, #0
1000f9ce:	f000 f81f 	bl	1000fa10 <_write_r>
1000f9d2:	bdf8      	pop	{r3, r4, r5, r6, r7, pc}
1000f9d4:	ffffefff 	.word	0xffffefff

1000f9d8 <__sseek>:
1000f9d8:	b538      	push	{r3, r4, r5, lr}
1000f9da:	1c0c      	adds	r4, r1, #0
1000f9dc:	250e      	movs	r5, #14
1000f9de:	5f49      	ldrsh	r1, [r1, r5]
1000f9e0:	f000 f860 	bl	1000faa4 <_lseek_r>
1000f9e4:	89a3      	ldrh	r3, [r4, #12]
1000f9e6:	1c42      	adds	r2, r0, #1
1000f9e8:	d103      	bne.n	1000f9f2 <__sseek+0x1a>
1000f9ea:	4a05      	ldr	r2, [pc, #20]	; (1000fa00 <__sseek+0x28>)
1000f9ec:	4013      	ands	r3, r2
1000f9ee:	81a3      	strh	r3, [r4, #12]
1000f9f0:	e004      	b.n	1000f9fc <__sseek+0x24>
1000f9f2:	2280      	movs	r2, #128	; 0x80
1000f9f4:	0152      	lsls	r2, r2, #5
1000f9f6:	4313      	orrs	r3, r2
1000f9f8:	81a3      	strh	r3, [r4, #12]
1000f9fa:	6560      	str	r0, [r4, #84]	; 0x54
1000f9fc:	bd38      	pop	{r3, r4, r5, pc}
1000f9fe:	46c0      	nop			; (mov r8, r8)
1000fa00:	ffffefff 	.word	0xffffefff

1000fa04 <__sclose>:
1000fa04:	b508      	push	{r3, lr}
1000fa06:	230e      	movs	r3, #14
1000fa08:	5ec9      	ldrsh	r1, [r1, r3]
1000fa0a:	f000 f815 	bl	1000fa38 <_close_r>
1000fa0e:	bd08      	pop	{r3, pc}

1000fa10 <_write_r>:
1000fa10:	b538      	push	{r3, r4, r5, lr}
1000fa12:	1c05      	adds	r5, r0, #0
1000fa14:	2000      	movs	r0, #0
1000fa16:	4c07      	ldr	r4, [pc, #28]	; (1000fa34 <_write_r+0x24>)
1000fa18:	6020      	str	r0, [r4, #0]
1000fa1a:	1c08      	adds	r0, r1, #0
1000fa1c:	1c11      	adds	r1, r2, #0
1000fa1e:	1c1a      	adds	r2, r3, #0
1000fa20:	f7f9 fbe6 	bl	100091f0 <_write>
1000fa24:	1c43      	adds	r3, r0, #1
1000fa26:	d103      	bne.n	1000fa30 <_write_r+0x20>
1000fa28:	6823      	ldr	r3, [r4, #0]
1000fa2a:	2b00      	cmp	r3, #0
1000fa2c:	d000      	beq.n	1000fa30 <_write_r+0x20>
1000fa2e:	602b      	str	r3, [r5, #0]
1000fa30:	bd38      	pop	{r3, r4, r5, pc}
1000fa32:	46c0      	nop			; (mov r8, r8)
1000fa34:	100119b0 	.word	0x100119b0

1000fa38 <_close_r>:
1000fa38:	b538      	push	{r3, r4, r5, lr}
1000fa3a:	2300      	movs	r3, #0
1000fa3c:	4c06      	ldr	r4, [pc, #24]	; (1000fa58 <_close_r+0x20>)
1000fa3e:	1c05      	adds	r5, r0, #0
1000fa40:	1c08      	adds	r0, r1, #0
1000fa42:	6023      	str	r3, [r4, #0]
1000fa44:	f7f9 fbfe 	bl	10009244 <_close>
1000fa48:	1c43      	adds	r3, r0, #1
1000fa4a:	d103      	bne.n	1000fa54 <_close_r+0x1c>
1000fa4c:	6823      	ldr	r3, [r4, #0]
1000fa4e:	2b00      	cmp	r3, #0
1000fa50:	d000      	beq.n	1000fa54 <_close_r+0x1c>
1000fa52:	602b      	str	r3, [r5, #0]
1000fa54:	bd38      	pop	{r3, r4, r5, pc}
1000fa56:	46c0      	nop			; (mov r8, r8)
1000fa58:	100119b0 	.word	0x100119b0

1000fa5c <_fstat_r>:
1000fa5c:	b538      	push	{r3, r4, r5, lr}
1000fa5e:	2300      	movs	r3, #0
1000fa60:	4c06      	ldr	r4, [pc, #24]	; (1000fa7c <_fstat_r+0x20>)
1000fa62:	1c05      	adds	r5, r0, #0
1000fa64:	1c08      	adds	r0, r1, #0
1000fa66:	1c11      	adds	r1, r2, #0
1000fa68:	6023      	str	r3, [r4, #0]
1000fa6a:	f7f9 fbee 	bl	1000924a <_fstat>
1000fa6e:	1c43      	adds	r3, r0, #1
1000fa70:	d103      	bne.n	1000fa7a <_fstat_r+0x1e>
1000fa72:	6823      	ldr	r3, [r4, #0]
1000fa74:	2b00      	cmp	r3, #0
1000fa76:	d000      	beq.n	1000fa7a <_fstat_r+0x1e>
1000fa78:	602b      	str	r3, [r5, #0]
1000fa7a:	bd38      	pop	{r3, r4, r5, pc}
1000fa7c:	100119b0 	.word	0x100119b0

1000fa80 <_isatty_r>:
1000fa80:	b538      	push	{r3, r4, r5, lr}
1000fa82:	2300      	movs	r3, #0
1000fa84:	4c06      	ldr	r4, [pc, #24]	; (1000faa0 <_isatty_r+0x20>)
1000fa86:	1c05      	adds	r5, r0, #0
1000fa88:	1c08      	adds	r0, r1, #0
1000fa8a:	6023      	str	r3, [r4, #0]
1000fa8c:	f7f9 fbe2 	bl	10009254 <_isatty>
1000fa90:	1c43      	adds	r3, r0, #1
1000fa92:	d103      	bne.n	1000fa9c <_isatty_r+0x1c>
1000fa94:	6823      	ldr	r3, [r4, #0]
1000fa96:	2b00      	cmp	r3, #0
1000fa98:	d000      	beq.n	1000fa9c <_isatty_r+0x1c>
1000fa9a:	602b      	str	r3, [r5, #0]
1000fa9c:	bd38      	pop	{r3, r4, r5, pc}
1000fa9e:	46c0      	nop			; (mov r8, r8)
1000faa0:	100119b0 	.word	0x100119b0

1000faa4 <_lseek_r>:
1000faa4:	b538      	push	{r3, r4, r5, lr}
1000faa6:	1c05      	adds	r5, r0, #0
1000faa8:	2000      	movs	r0, #0
1000faaa:	4c07      	ldr	r4, [pc, #28]	; (1000fac8 <_lseek_r+0x24>)
1000faac:	6020      	str	r0, [r4, #0]
1000faae:	1c08      	adds	r0, r1, #0
1000fab0:	1c11      	adds	r1, r2, #0
1000fab2:	1c1a      	adds	r2, r3, #0
1000fab4:	f7f9 fbd0 	bl	10009258 <_lseek>
1000fab8:	1c43      	adds	r3, r0, #1
1000faba:	d103      	bne.n	1000fac4 <_lseek_r+0x20>
1000fabc:	6823      	ldr	r3, [r4, #0]
1000fabe:	2b00      	cmp	r3, #0
1000fac0:	d000      	beq.n	1000fac4 <_lseek_r+0x20>
1000fac2:	602b      	str	r3, [r5, #0]
1000fac4:	bd38      	pop	{r3, r4, r5, pc}
1000fac6:	46c0      	nop			; (mov r8, r8)
1000fac8:	100119b0 	.word	0x100119b0

1000facc <_read_r>:
1000facc:	b538      	push	{r3, r4, r5, lr}
1000face:	1c05      	adds	r5, r0, #0
1000fad0:	2000      	movs	r0, #0
1000fad2:	4c07      	ldr	r4, [pc, #28]	; (1000faf0 <_read_r+0x24>)
1000fad4:	6020      	str	r0, [r4, #0]
1000fad6:	1c08      	adds	r0, r1, #0
1000fad8:	1c11      	adds	r1, r2, #0
1000fada:	1c1a      	adds	r2, r3, #0
1000fadc:	f7f9 fb6c 	bl	100091b8 <_read>
1000fae0:	1c43      	adds	r3, r0, #1
1000fae2:	d103      	bne.n	1000faec <_read_r+0x20>
1000fae4:	6823      	ldr	r3, [r4, #0]
1000fae6:	2b00      	cmp	r3, #0
1000fae8:	d000      	beq.n	1000faec <_read_r+0x20>
1000faea:	602b      	str	r3, [r5, #0]
1000faec:	bd38      	pop	{r3, r4, r5, pc}
1000faee:	46c0      	nop			; (mov r8, r8)
1000faf0:	100119b0 	.word	0x100119b0

1000faf4 <__aeabi_lmul>:
1000faf4:	b5f0      	push	{r4, r5, r6, r7, lr}
1000faf6:	464f      	mov	r7, r9
1000faf8:	4646      	mov	r6, r8
1000fafa:	0405      	lsls	r5, r0, #16
1000fafc:	0c2d      	lsrs	r5, r5, #16
1000fafe:	1c2c      	adds	r4, r5, #0
1000fb00:	b4c0      	push	{r6, r7}
1000fb02:	0417      	lsls	r7, r2, #16
1000fb04:	0c16      	lsrs	r6, r2, #16
1000fb06:	0c3f      	lsrs	r7, r7, #16
1000fb08:	4699      	mov	r9, r3
1000fb0a:	0c03      	lsrs	r3, r0, #16
1000fb0c:	437c      	muls	r4, r7
1000fb0e:	4375      	muls	r5, r6
1000fb10:	435f      	muls	r7, r3
1000fb12:	4373      	muls	r3, r6
1000fb14:	197d      	adds	r5, r7, r5
1000fb16:	0c26      	lsrs	r6, r4, #16
1000fb18:	19ad      	adds	r5, r5, r6
1000fb1a:	469c      	mov	ip, r3
1000fb1c:	42af      	cmp	r7, r5
1000fb1e:	d903      	bls.n	1000fb28 <__aeabi_lmul+0x34>
1000fb20:	2380      	movs	r3, #128	; 0x80
1000fb22:	025b      	lsls	r3, r3, #9
1000fb24:	4698      	mov	r8, r3
1000fb26:	44c4      	add	ip, r8
1000fb28:	464b      	mov	r3, r9
1000fb2a:	4351      	muls	r1, r2
1000fb2c:	4343      	muls	r3, r0
1000fb2e:	0424      	lsls	r4, r4, #16
1000fb30:	0c2e      	lsrs	r6, r5, #16
1000fb32:	0c24      	lsrs	r4, r4, #16
1000fb34:	042d      	lsls	r5, r5, #16
1000fb36:	4466      	add	r6, ip
1000fb38:	192c      	adds	r4, r5, r4
1000fb3a:	1859      	adds	r1, r3, r1
1000fb3c:	1989      	adds	r1, r1, r6
1000fb3e:	1c20      	adds	r0, r4, #0
1000fb40:	bc0c      	pop	{r2, r3}
1000fb42:	4690      	mov	r8, r2
1000fb44:	4699      	mov	r9, r3
1000fb46:	bdf0      	pop	{r4, r5, r6, r7, pc}
1000fb48:	34333231 	.word	0x34333231
1000fb4c:	ab003635 	.word	0xab003635
1000fb50:	cdabefcd 	.word	0xcdabefcd
1000fb54:	00571cef 	.word	0x00571cef
1000fb58:	5300be5a 	.word	0x5300be5a
1000fb5c:	00000050 	.word	0x00000050

1000fb60 <ble_mgr_gatt_server_handle>:
	...
1000fb78:	1000926b 1000926f 10009279 00000000     k...o...y.......
1000fb88:	52424153 4d532d45 00000053              SABRE-SMS...

1000fb94 <ble_mgr_gap_handle>:
1000fb94:	1000925d 10009719 10009261 00000000     ].......a.......
1000fba4:	00000000 10009a35 10009285 100092f1     ....5...........
1000fbb4:	10009411 10009361 10009591 10009429     ....a.......)...
1000fbc4:	10009759 10009689 100092f5 10009ba1     Y...............
	...

1000fbe0 <CSWTCH.92>:
1000fbe0:	01050505 00010501                       ........

1000fbe8 <CSWTCH.93>:
1000fbe8:	10010874 10010888 100105dc 100108c0     t...............
1000fbf8:	100105d8 10010860 10010e04 656d6954     ....`.......Time
1000fc08:	74203272 67676972 0a0d7265 00000000     r2 trigger......

1000fc18 <startup_template_app_gap_cb>:
	...
1000fc2c:	1000a989 1000a9c9 00000000 00000000     ................
1000fc3c:	1000a9e1 00000000 00000000 00000000     ................
1000fc4c:	00000000 1000a9e1 00000000 00000000     ................
	...

1000fc64 <startup_template_app_gatt_server_cb>:
1000fc64:	1000a9a1 00000000 1000a9ab 00000000     ................
	...
1000fc8c:	656d7441 6f43206c 002e7072                       Atmel Corp.

1000fc97 <CSWTCH.51>:
1000fc97:	03010300 03030303 03030303 02020303              ...............

1000fca6 <CSWTCH.49>:
1000fca6:	02100402                                         ...

1000fca9 <client_conf_uuid>:
1000fca9:	29042902                                         .)

1000fcab <presentation_format_uuid>:
1000fcab:	29012904                                         .)

1000fcad <user_desc_uuid>:
1000fcad:	29032901                                         .)

1000fcaf <server_conf_uuid>:
1000fcaf:	29002903                                         .)

1000fcb1 <extended_props_uuid>:
1000fcb1:	28022900                                         .)

1000fcb3 <include_uuid>:
1000fcb3:	28032802                                         .(

1000fcb5 <char_uuid>:
1000fcb5:	b4002803 921000e1 921000e1 861000e1     .(..............
1000fcc5:	7a1000e1 7a1000e0 7a1000e0 861000e1     ...z...z...z....
1000fcd5:	7a1000e1 7a1000e0 7a1000e1 861000e0     ...z...z...z....
1000fce5:	7e1000e1 7e1000e0 7e1000e0 941000e0     ...~...~...~....
1000fcf5:	431000e3 88000000                                ...C...

1000fcfc <_global_impure_ptr>:
1000fcfc:	1000fd88                                ....

1000fd00 <__sf_fake_stdin>:
	...

1000fd20 <__sf_fake_stdout>:
	...

1000fd40 <__sf_fake_stderr>:
	...

1000fd60 <_init>:
1000fd60:	b5f8      	push	{r3, r4, r5, r6, r7, lr}
1000fd62:	46c0      	nop			; (mov r8, r8)
1000fd64:	bcf8      	pop	{r3, r4, r5, r6, r7}
1000fd66:	bc08      	pop	{r3}
1000fd68:	469e      	mov	lr, r3
1000fd6a:	4770      	bx	lr

1000fd6c <__init_array_start>:
1000fd6c:	1000807d 	.word	0x1000807d

1000fd70 <_fini>:
1000fd70:	b5f8      	push	{r3, r4, r5, r6, r7, lr}
1000fd72:	46c0      	nop			; (mov r8, r8)
1000fd74:	bcf8      	pop	{r3, r4, r5, r6, r7}
1000fd76:	bc08      	pop	{r3}
1000fd78:	469e      	mov	lr, r3
1000fd7a:	4770      	bx	lr

1000fd7c <__fini_array_start>:
1000fd7c:	10008055 	.word	0x10008055
