
SMSnode2.elf:     file format elf32-littlearm

Sections:
Idx Name          Size      VMA       LMA       File off  Algn
  0 .text         0000c7d4  10008000  10008000  00008000  2**2
                  CONTENTS, ALLOC, LOAD, READONLY, CODE
  1 .relocate     000000b0  100147d4  100147d4  000147d4  2**2
                  CONTENTS, ALLOC, LOAD, DATA
  2 .bss          00001d88  10014884  10014884  00014884  2**2
                  ALLOC
  3 .stack        00001004  1001660c  1001660c  00014884  2**0
                  ALLOC
  4 .ARM.attributes 00000028  00000000  00000000  00014884  2**0
                  CONTENTS, READONLY
  5 .comment      000000b4  00000000  00000000  000148ac  2**0
                  CONTENTS, READONLY
  6 .debug_frame  00000bc0  00000000  00000000  00014960  2**2
                  CONTENTS, READONLY, DEBUGGING

Disassembly of section .text:

10008000 <app_entry>:
10008000:	4813      	ldr	r0, [pc, #76]	; (10008050 <app_entry+0x50>)
10008002:	4914      	ldr	r1, [pc, #80]	; (10008054 <app_entry+0x54>)
10008004:	b510      	push	{r4, lr}
10008006:	4288      	cmp	r0, r1
10008008:	d00d      	beq.n	10008026 <app_entry+0x26>
1000800a:	4b13      	ldr	r3, [pc, #76]	; (10008058 <app_entry+0x58>)
1000800c:	4299      	cmp	r1, r3
1000800e:	d20a      	bcs.n	10008026 <app_entry+0x26>
10008010:	43ca      	mvns	r2, r1
10008012:	18d2      	adds	r2, r2, r3
10008014:	2300      	movs	r3, #0
10008016:	0892      	lsrs	r2, r2, #2
10008018:	3201      	adds	r2, #1
1000801a:	0092      	lsls	r2, r2, #2
1000801c:	58c4      	ldr	r4, [r0, r3]
1000801e:	50cc      	str	r4, [r1, r3]
10008020:	3304      	adds	r3, #4
10008022:	4293      	cmp	r3, r2
10008024:	d1fa      	bne.n	1000801c <app_entry+0x1c>
10008026:	480d      	ldr	r0, [pc, #52]	; (1000805c <app_entry+0x5c>)
10008028:	4b0d      	ldr	r3, [pc, #52]	; (10008060 <app_entry+0x60>)
1000802a:	4298      	cmp	r0, r3
1000802c:	d20b      	bcs.n	10008046 <app_entry+0x46>
1000802e:	43c1      	mvns	r1, r0
10008030:	2400      	movs	r4, #0
10008032:	18c9      	adds	r1, r1, r3
10008034:	2300      	movs	r3, #0
10008036:	0889      	lsrs	r1, r1, #2
10008038:	3101      	adds	r1, #1
1000803a:	0089      	lsls	r1, r1, #2
1000803c:	18c2      	adds	r2, r0, r3
1000803e:	3304      	adds	r3, #4
10008040:	6014      	str	r4, [r2, #0]
10008042:	428b      	cmp	r3, r1
10008044:	d1fa      	bne.n	1000803c <app_entry+0x3c>
10008046:	4b07      	ldr	r3, [pc, #28]	; (10008064 <app_entry+0x64>)
10008048:	4798      	blx	r3
1000804a:	4b07      	ldr	r3, [pc, #28]	; (10008068 <app_entry+0x68>)
1000804c:	4798      	blx	r3
1000804e:	bd10      	pop	{r4, pc}
10008050:	100147d4 	.word	0x100147d4
10008054:	100147d4 	.word	0x100147d4
10008058:	10014884 	.word	0x10014884
1000805c:	10014884 	.word	0x10014884
10008060:	1001660c 	.word	0x1001660c
10008064:	10012f65 	.word	0x10012f65
10008068:	1000a331 	.word	0x1000a331

1000806c <__do_global_dtors_aux>:
1000806c:	b510      	push	{r4, lr}
1000806e:	4c06      	ldr	r4, [pc, #24]	; (10008088 <__do_global_dtors_aux+0x1c>)
10008070:	7823      	ldrb	r3, [r4, #0]
10008072:	2b00      	cmp	r3, #0
10008074:	d107      	bne.n	10008086 <__do_global_dtors_aux+0x1a>
10008076:	4b05      	ldr	r3, [pc, #20]	; (1000808c <__do_global_dtors_aux+0x20>)
10008078:	2b00      	cmp	r3, #0
1000807a:	d002      	beq.n	10008082 <__do_global_dtors_aux+0x16>
1000807c:	4804      	ldr	r0, [pc, #16]	; (10008090 <__do_global_dtors_aux+0x24>)
1000807e:	e000      	b.n	10008082 <__do_global_dtors_aux+0x16>
10008080:	bf00      	nop
10008082:	2301      	movs	r3, #1
10008084:	7023      	strb	r3, [r4, #0]
10008086:	bd10      	pop	{r4, pc}
10008088:	10014884 	.word	0x10014884
1000808c:	00000000 	.word	0x00000000
10008090:	100147d4 	.word	0x100147d4

10008094 <frame_dummy>:
10008094:	4b08      	ldr	r3, [pc, #32]	; (100080b8 <frame_dummy+0x24>)
10008096:	b510      	push	{r4, lr}
10008098:	2b00      	cmp	r3, #0
1000809a:	d003      	beq.n	100080a4 <frame_dummy+0x10>
1000809c:	4907      	ldr	r1, [pc, #28]	; (100080bc <frame_dummy+0x28>)
1000809e:	4808      	ldr	r0, [pc, #32]	; (100080c0 <frame_dummy+0x2c>)
100080a0:	e000      	b.n	100080a4 <frame_dummy+0x10>
100080a2:	bf00      	nop
100080a4:	4807      	ldr	r0, [pc, #28]	; (100080c4 <frame_dummy+0x30>)
100080a6:	6803      	ldr	r3, [r0, #0]
100080a8:	2b00      	cmp	r3, #0
100080aa:	d100      	bne.n	100080ae <frame_dummy+0x1a>
100080ac:	bd10      	pop	{r4, pc}
100080ae:	4b06      	ldr	r3, [pc, #24]	; (100080c8 <frame_dummy+0x34>)
100080b0:	2b00      	cmp	r3, #0
100080b2:	d0fb      	beq.n	100080ac <frame_dummy+0x18>
100080b4:	4798      	blx	r3
100080b6:	e7f9      	b.n	100080ac <frame_dummy+0x18>
100080b8:	00000000 	.word	0x00000000
100080bc:	10014888 	.word	0x10014888
100080c0:	100147d4 	.word	0x100147d4
100080c4:	100147d4 	.word	0x100147d4
100080c8:	00000000 	.word	0x00000000

100080cc <i2c_write>:
100080cc:	b570      	push	{r4, r5, r6, lr}
100080ce:	b082      	sub	sp, #8
100080d0:	000d      	movs	r5, r1
100080d2:	4669      	mov	r1, sp
100080d4:	1d8c      	adds	r4, r1, #6
100080d6:	2100      	movs	r1, #0
100080d8:	8021      	strh	r1, [r4, #0]
100080da:	4915      	ldr	r1, [pc, #84]	; (10008130 <i2c_write+0x64>)
100080dc:	8008      	strh	r0, [r1, #0]
100080de:	1c50      	adds	r0, r2, #1
100080e0:	b2c0      	uxtb	r0, r0
100080e2:	8048      	strh	r0, [r1, #2]
100080e4:	6848      	ldr	r0, [r1, #4]
100080e6:	7005      	strb	r5, [r0, #0]
100080e8:	2000      	movs	r0, #0
100080ea:	2a00      	cmp	r2, #0
100080ec:	d007      	beq.n	100080fe <i2c_write+0x32>
100080ee:	1c45      	adds	r5, r0, #1
100080f0:	684e      	ldr	r6, [r1, #4]
100080f2:	5c18      	ldrb	r0, [r3, r0]
100080f4:	5570      	strb	r0, [r6, r5]
100080f6:	0028      	movs	r0, r5
100080f8:	b2ed      	uxtb	r5, r5
100080fa:	4295      	cmp	r5, r2
100080fc:	d3f7      	bcc.n	100080ee <i2c_write+0x22>
100080fe:	2300      	movs	r3, #0
10008100:	4d0c      	ldr	r5, [pc, #48]	; (10008134 <i2c_write+0x68>)
10008102:	480d      	ldr	r0, [pc, #52]	; (10008138 <i2c_write+0x6c>)
10008104:	702b      	strb	r3, [r5, #0]
10008106:	4b0d      	ldr	r3, [pc, #52]	; (1000813c <i2c_write+0x70>)
10008108:	4798      	blx	r3
1000810a:	4a0d      	ldr	r2, [pc, #52]	; (10008140 <i2c_write+0x74>)
1000810c:	e006      	b.n	1000811c <i2c_write+0x50>
1000810e:	8823      	ldrh	r3, [r4, #0]
10008110:	3301      	adds	r3, #1
10008112:	b29b      	uxth	r3, r3
10008114:	8023      	strh	r3, [r4, #0]
10008116:	8823      	ldrh	r3, [r4, #0]
10008118:	4293      	cmp	r3, r2
1000811a:	d805      	bhi.n	10008128 <i2c_write+0x5c>
1000811c:	782b      	ldrb	r3, [r5, #0]
1000811e:	2b00      	cmp	r3, #0
10008120:	d0f5      	beq.n	1000810e <i2c_write+0x42>
10008122:	2000      	movs	r0, #0
10008124:	b002      	add	sp, #8
10008126:	bd70      	pop	{r4, r5, r6, pc}
10008128:	2001      	movs	r0, #1
1000812a:	4240      	negs	r0, r0
1000812c:	e7fa      	b.n	10008124 <i2c_write+0x58>
1000812e:	46c0      	nop			; (mov r8, r8)
10008130:	1001514c 	.word	0x1001514c
10008134:	10014fde 	.word	0x10014fde
10008138:	100151f0 	.word	0x100151f0
1000813c:	1000af15 	.word	0x1000af15
10008140:	000003e7 	.word	0x000003e7

10008144 <set_int_enable>:
10008144:	2324      	movs	r3, #36	; 0x24
10008146:	b570      	push	{r4, r5, r6, lr}
10008148:	4c17      	ldr	r4, [pc, #92]	; (100081a8 <set_int_enable+0x64>)
1000814a:	b082      	sub	sp, #8
1000814c:	5ce3      	ldrb	r3, [r4, r3]
1000814e:	2b00      	cmp	r3, #0
10008150:	d012      	beq.n	10008178 <set_int_enable+0x34>
10008152:	466b      	mov	r3, sp
10008154:	1ddd      	adds	r5, r3, #7
10008156:	2800      	cmp	r0, #0
10008158:	d117      	bne.n	1000818a <set_int_enable+0x46>
1000815a:	7028      	strb	r0, [r5, #0]
1000815c:	6823      	ldr	r3, [r4, #0]
1000815e:	2201      	movs	r2, #1
10008160:	7c59      	ldrb	r1, [r3, #17]
10008162:	6863      	ldr	r3, [r4, #4]
10008164:	4e11      	ldr	r6, [pc, #68]	; (100081ac <set_int_enable+0x68>)
10008166:	7818      	ldrb	r0, [r3, #0]
10008168:	002b      	movs	r3, r5
1000816a:	47b0      	blx	r6
1000816c:	2800      	cmp	r0, #0
1000816e:	d118      	bne.n	100081a2 <set_int_enable+0x5e>
10008170:	782b      	ldrb	r3, [r5, #0]
10008172:	7463      	strb	r3, [r4, #17]
10008174:	b002      	add	sp, #8
10008176:	bd70      	pop	{r4, r5, r6, pc}
10008178:	7aa3      	ldrb	r3, [r4, #10]
1000817a:	2b00      	cmp	r3, #0
1000817c:	d011      	beq.n	100081a2 <set_int_enable+0x5e>
1000817e:	2800      	cmp	r0, #0
10008180:	d106      	bne.n	10008190 <set_int_enable+0x4c>
10008182:	466b      	mov	r3, sp
10008184:	1ddd      	adds	r5, r3, #7
10008186:	71d8      	strb	r0, [r3, #7]
10008188:	e7e8      	b.n	1000815c <set_int_enable+0x18>
1000818a:	2302      	movs	r3, #2
1000818c:	702b      	strb	r3, [r5, #0]
1000818e:	e7e5      	b.n	1000815c <set_int_enable+0x18>
10008190:	7c63      	ldrb	r3, [r4, #17]
10008192:	2000      	movs	r0, #0
10008194:	2b00      	cmp	r3, #0
10008196:	d1ed      	bne.n	10008174 <set_int_enable+0x30>
10008198:	466b      	mov	r3, sp
1000819a:	1ddd      	adds	r5, r3, #7
1000819c:	2301      	movs	r3, #1
1000819e:	702b      	strb	r3, [r5, #0]
100081a0:	e7dc      	b.n	1000815c <set_int_enable+0x18>
100081a2:	2001      	movs	r0, #1
100081a4:	4240      	negs	r0, r0
100081a6:	e7e5      	b.n	10008174 <set_int_enable+0x30>
100081a8:	100147d4 	.word	0x100147d4
100081ac:	100080cd 	.word	0x100080cd

100081b0 <i2c_read>:
100081b0:	b5f0      	push	{r4, r5, r6, r7, lr}
100081b2:	4656      	mov	r6, sl
100081b4:	4644      	mov	r4, r8
100081b6:	465f      	mov	r7, fp
100081b8:	464d      	mov	r5, r9
100081ba:	b4f0      	push	{r4, r5, r6, r7}
100081bc:	b083      	sub	sp, #12
100081be:	469b      	mov	fp, r3
100081c0:	466b      	mov	r3, sp
100081c2:	1d9c      	adds	r4, r3, #6
100081c4:	2300      	movs	r3, #0
100081c6:	4692      	mov	sl, r2
100081c8:	2201      	movs	r2, #1
100081ca:	8023      	strh	r3, [r4, #0]
100081cc:	4b2a      	ldr	r3, [pc, #168]	; (10008278 <i2c_read+0xc8>)
100081ce:	4e2b      	ldr	r6, [pc, #172]	; (1000827c <i2c_read+0xcc>)
100081d0:	805a      	strh	r2, [r3, #2]
100081d2:	4652      	mov	r2, sl
100081d4:	8072      	strh	r2, [r6, #2]
100081d6:	685a      	ldr	r2, [r3, #4]
100081d8:	b280      	uxth	r0, r0
100081da:	8018      	strh	r0, [r3, #0]
100081dc:	8030      	strh	r0, [r6, #0]
100081de:	7011      	strb	r1, [r2, #0]
100081e0:	2200      	movs	r2, #0
100081e2:	4d27      	ldr	r5, [pc, #156]	; (10008280 <i2c_read+0xd0>)
100081e4:	0019      	movs	r1, r3
100081e6:	4827      	ldr	r0, [pc, #156]	; (10008284 <i2c_read+0xd4>)
100081e8:	4b27      	ldr	r3, [pc, #156]	; (10008288 <i2c_read+0xd8>)
100081ea:	702a      	strb	r2, [r5, #0]
100081ec:	4798      	blx	r3
100081ee:	4a27      	ldr	r2, [pc, #156]	; (1000828c <i2c_read+0xdc>)
100081f0:	e006      	b.n	10008200 <i2c_read+0x50>
100081f2:	8823      	ldrh	r3, [r4, #0]
100081f4:	3301      	adds	r3, #1
100081f6:	b29b      	uxth	r3, r3
100081f8:	8023      	strh	r3, [r4, #0]
100081fa:	8823      	ldrh	r3, [r4, #0]
100081fc:	4293      	cmp	r3, r2
100081fe:	d831      	bhi.n	10008264 <i2c_read+0xb4>
10008200:	782b      	ldrb	r3, [r5, #0]
10008202:	2b00      	cmp	r3, #0
10008204:	d0f5      	beq.n	100081f2 <i2c_read+0x42>
10008206:	2300      	movs	r3, #0
10008208:	4d21      	ldr	r5, [pc, #132]	; (10008290 <i2c_read+0xe0>)
1000820a:	0031      	movs	r1, r6
1000820c:	702b      	strb	r3, [r5, #0]
1000820e:	481d      	ldr	r0, [pc, #116]	; (10008284 <i2c_read+0xd4>)
10008210:	4b20      	ldr	r3, [pc, #128]	; (10008294 <i2c_read+0xe4>)
10008212:	4798      	blx	r3
10008214:	4b20      	ldr	r3, [pc, #128]	; (10008298 <i2c_read+0xe8>)
10008216:	4f1d      	ldr	r7, [pc, #116]	; (1000828c <i2c_read+0xdc>)
10008218:	4699      	mov	r9, r3
1000821a:	4b20      	ldr	r3, [pc, #128]	; (1000829c <i2c_read+0xec>)
1000821c:	4698      	mov	r8, r3
1000821e:	e00a      	b.n	10008236 <i2c_read+0x86>
10008220:	8823      	ldrh	r3, [r4, #0]
10008222:	4648      	mov	r0, r9
10008224:	3301      	adds	r3, #1
10008226:	b29b      	uxth	r3, r3
10008228:	8023      	strh	r3, [r4, #0]
1000822a:	8821      	ldrh	r1, [r4, #0]
1000822c:	b289      	uxth	r1, r1
1000822e:	47c0      	blx	r8
10008230:	8823      	ldrh	r3, [r4, #0]
10008232:	42bb      	cmp	r3, r7
10008234:	d819      	bhi.n	1000826a <i2c_read+0xba>
10008236:	782b      	ldrb	r3, [r5, #0]
10008238:	2b00      	cmp	r3, #0
1000823a:	d0f1      	beq.n	10008220 <i2c_read+0x70>
1000823c:	4652      	mov	r2, sl
1000823e:	2300      	movs	r3, #0
10008240:	2a00      	cmp	r2, #0
10008242:	d007      	beq.n	10008254 <i2c_read+0xa4>
10008244:	4659      	mov	r1, fp
10008246:	6872      	ldr	r2, [r6, #4]
10008248:	5cd2      	ldrb	r2, [r2, r3]
1000824a:	54ca      	strb	r2, [r1, r3]
1000824c:	3301      	adds	r3, #1
1000824e:	b2da      	uxtb	r2, r3
10008250:	4552      	cmp	r2, sl
10008252:	d3f7      	bcc.n	10008244 <i2c_read+0x94>
10008254:	2000      	movs	r0, #0
10008256:	b003      	add	sp, #12
10008258:	bc3c      	pop	{r2, r3, r4, r5}
1000825a:	4690      	mov	r8, r2
1000825c:	4699      	mov	r9, r3
1000825e:	46a2      	mov	sl, r4
10008260:	46ab      	mov	fp, r5
10008262:	bdf0      	pop	{r4, r5, r6, r7, pc}
10008264:	2001      	movs	r0, #1
10008266:	4240      	negs	r0, r0
10008268:	e7f5      	b.n	10008256 <i2c_read+0xa6>
1000826a:	4806      	ldr	r0, [pc, #24]	; (10008284 <i2c_read+0xd4>)
1000826c:	4b0c      	ldr	r3, [pc, #48]	; (100082a0 <i2c_read+0xf0>)
1000826e:	4798      	blx	r3
10008270:	2001      	movs	r0, #1
10008272:	4240      	negs	r0, r0
10008274:	e7ef      	b.n	10008256 <i2c_read+0xa6>
10008276:	46c0      	nop			; (mov r8, r8)
10008278:	1001514c 	.word	0x1001514c
1000827c:	1001511c 	.word	0x1001511c
10008280:	10014fde 	.word	0x10014fde
10008284:	100151f0 	.word	0x100151f0
10008288:	1000af59 	.word	0x1000af59
1000828c:	000003e7 	.word	0x000003e7
10008290:	1001509a 	.word	0x1001509a
10008294:	1000aec5 	.word	0x1000aec5
10008298:	10014060 	.word	0x10014060
1000829c:	1001313d 	.word	0x1001313d
100082a0:	1000ae99 	.word	0x1000ae99

100082a4 <mpu_reset_fifo>:
100082a4:	b570      	push	{r4, r5, r6, lr}
100082a6:	4c54      	ldr	r4, [pc, #336]	; (100083f8 <mpu_reset_fifo+0x154>)
100082a8:	b082      	sub	sp, #8
100082aa:	7aa3      	ldrb	r3, [r4, #10]
100082ac:	2b00      	cmp	r3, #0
100082ae:	d100      	bne.n	100082b2 <mpu_reset_fifo+0xe>
100082b0:	e08f      	b.n	100083d2 <mpu_reset_fifo+0x12e>
100082b2:	466b      	mov	r3, sp
100082b4:	1ddd      	adds	r5, r3, #7
100082b6:	2300      	movs	r3, #0
100082b8:	702b      	strb	r3, [r5, #0]
100082ba:	6823      	ldr	r3, [r4, #0]
100082bc:	2201      	movs	r2, #1
100082be:	7c59      	ldrb	r1, [r3, #17]
100082c0:	6863      	ldr	r3, [r4, #4]
100082c2:	4e4e      	ldr	r6, [pc, #312]	; (100083fc <mpu_reset_fifo+0x158>)
100082c4:	7818      	ldrb	r0, [r3, #0]
100082c6:	002b      	movs	r3, r5
100082c8:	47b0      	blx	r6
100082ca:	2800      	cmp	r0, #0
100082cc:	d000      	beq.n	100082d0 <mpu_reset_fifo+0x2c>
100082ce:	e080      	b.n	100083d2 <mpu_reset_fifo+0x12e>
100082d0:	6823      	ldr	r3, [r4, #0]
100082d2:	2201      	movs	r2, #1
100082d4:	7959      	ldrb	r1, [r3, #5]
100082d6:	6863      	ldr	r3, [r4, #4]
100082d8:	7818      	ldrb	r0, [r3, #0]
100082da:	002b      	movs	r3, r5
100082dc:	47b0      	blx	r6
100082de:	2800      	cmp	r0, #0
100082e0:	d177      	bne.n	100083d2 <mpu_reset_fifo+0x12e>
100082e2:	6823      	ldr	r3, [r4, #0]
100082e4:	2201      	movs	r2, #1
100082e6:	7919      	ldrb	r1, [r3, #4]
100082e8:	6863      	ldr	r3, [r4, #4]
100082ea:	7818      	ldrb	r0, [r3, #0]
100082ec:	002b      	movs	r3, r5
100082ee:	47b0      	blx	r6
100082f0:	2800      	cmp	r0, #0
100082f2:	d16e      	bne.n	100083d2 <mpu_reset_fifo+0x12e>
100082f4:	2324      	movs	r3, #36	; 0x24
100082f6:	5ce3      	ldrb	r3, [r4, r3]
100082f8:	2b00      	cmp	r3, #0
100082fa:	d034      	beq.n	10008366 <mpu_reset_fifo+0xc2>
100082fc:	230c      	movs	r3, #12
100082fe:	702b      	strb	r3, [r5, #0]
10008300:	6823      	ldr	r3, [r4, #0]
10008302:	2201      	movs	r2, #1
10008304:	7919      	ldrb	r1, [r3, #4]
10008306:	6863      	ldr	r3, [r4, #4]
10008308:	7818      	ldrb	r0, [r3, #0]
1000830a:	002b      	movs	r3, r5
1000830c:	47b0      	blx	r6
1000830e:	2800      	cmp	r0, #0
10008310:	d15f      	bne.n	100083d2 <mpu_reset_fifo+0x12e>
10008312:	4b3b      	ldr	r3, [pc, #236]	; (10008400 <mpu_reset_fifo+0x15c>)
10008314:	3032      	adds	r0, #50	; 0x32
10008316:	4798      	blx	r3
10008318:	23c0      	movs	r3, #192	; 0xc0
1000831a:	702b      	strb	r3, [r5, #0]
1000831c:	7aa3      	ldrb	r3, [r4, #10]
1000831e:	07db      	lsls	r3, r3, #31
10008320:	d461      	bmi.n	100083e6 <mpu_reset_fifo+0x142>
10008322:	6823      	ldr	r3, [r4, #0]
10008324:	2201      	movs	r2, #1
10008326:	7919      	ldrb	r1, [r3, #4]
10008328:	6863      	ldr	r3, [r4, #4]
1000832a:	7818      	ldrb	r0, [r3, #0]
1000832c:	002b      	movs	r3, r5
1000832e:	47b0      	blx	r6
10008330:	2800      	cmp	r0, #0
10008332:	d14e      	bne.n	100083d2 <mpu_reset_fifo+0x12e>
10008334:	7c63      	ldrb	r3, [r4, #17]
10008336:	2b00      	cmp	r3, #0
10008338:	d158      	bne.n	100083ec <mpu_reset_fifo+0x148>
1000833a:	702b      	strb	r3, [r5, #0]
1000833c:	6823      	ldr	r3, [r4, #0]
1000833e:	2201      	movs	r2, #1
10008340:	7c59      	ldrb	r1, [r3, #17]
10008342:	6863      	ldr	r3, [r4, #4]
10008344:	7818      	ldrb	r0, [r3, #0]
10008346:	002b      	movs	r3, r5
10008348:	47b0      	blx	r6
1000834a:	2800      	cmp	r0, #0
1000834c:	d141      	bne.n	100083d2 <mpu_reset_fifo+0x12e>
1000834e:	6823      	ldr	r3, [r4, #0]
10008350:	7028      	strb	r0, [r5, #0]
10008352:	7959      	ldrb	r1, [r3, #5]
10008354:	6863      	ldr	r3, [r4, #4]
10008356:	2201      	movs	r2, #1
10008358:	7818      	ldrb	r0, [r3, #0]
1000835a:	002b      	movs	r3, r5
1000835c:	47b0      	blx	r6
1000835e:	1e43      	subs	r3, r0, #1
10008360:	4198      	sbcs	r0, r3
10008362:	4240      	negs	r0, r0
10008364:	e037      	b.n	100083d6 <mpu_reset_fifo+0x132>
10008366:	2304      	movs	r3, #4
10008368:	702b      	strb	r3, [r5, #0]
1000836a:	6823      	ldr	r3, [r4, #0]
1000836c:	2201      	movs	r2, #1
1000836e:	7919      	ldrb	r1, [r3, #4]
10008370:	6863      	ldr	r3, [r4, #4]
10008372:	7818      	ldrb	r0, [r3, #0]
10008374:	002b      	movs	r3, r5
10008376:	47b0      	blx	r6
10008378:	2800      	cmp	r0, #0
1000837a:	d12a      	bne.n	100083d2 <mpu_reset_fifo+0x12e>
1000837c:	7ca3      	ldrb	r3, [r4, #18]
1000837e:	2b00      	cmp	r3, #0
10008380:	d02b      	beq.n	100083da <mpu_reset_fifo+0x136>
10008382:	2340      	movs	r3, #64	; 0x40
10008384:	702b      	strb	r3, [r5, #0]
10008386:	6823      	ldr	r3, [r4, #0]
10008388:	2201      	movs	r2, #1
1000838a:	7919      	ldrb	r1, [r3, #4]
1000838c:	6863      	ldr	r3, [r4, #4]
1000838e:	7818      	ldrb	r0, [r3, #0]
10008390:	002b      	movs	r3, r5
10008392:	47b0      	blx	r6
10008394:	2800      	cmp	r0, #0
10008396:	d11c      	bne.n	100083d2 <mpu_reset_fifo+0x12e>
10008398:	4b19      	ldr	r3, [pc, #100]	; (10008400 <mpu_reset_fifo+0x15c>)
1000839a:	3032      	adds	r0, #50	; 0x32
1000839c:	4798      	blx	r3
1000839e:	7c63      	ldrb	r3, [r4, #17]
100083a0:	2b00      	cmp	r3, #0
100083a2:	d026      	beq.n	100083f2 <mpu_reset_fifo+0x14e>
100083a4:	2301      	movs	r3, #1
100083a6:	702b      	strb	r3, [r5, #0]
100083a8:	6823      	ldr	r3, [r4, #0]
100083aa:	2201      	movs	r2, #1
100083ac:	7c59      	ldrb	r1, [r3, #17]
100083ae:	6863      	ldr	r3, [r4, #4]
100083b0:	7818      	ldrb	r0, [r3, #0]
100083b2:	002b      	movs	r3, r5
100083b4:	47b0      	blx	r6
100083b6:	2800      	cmp	r0, #0
100083b8:	d10b      	bne.n	100083d2 <mpu_reset_fifo+0x12e>
100083ba:	0023      	movs	r3, r4
100083bc:	6822      	ldr	r2, [r4, #0]
100083be:	3310      	adds	r3, #16
100083c0:	7951      	ldrb	r1, [r2, #5]
100083c2:	6862      	ldr	r2, [r4, #4]
100083c4:	7810      	ldrb	r0, [r2, #0]
100083c6:	2201      	movs	r2, #1
100083c8:	47b0      	blx	r6
100083ca:	1e43      	subs	r3, r0, #1
100083cc:	4198      	sbcs	r0, r3
100083ce:	4240      	negs	r0, r0
100083d0:	e001      	b.n	100083d6 <mpu_reset_fifo+0x132>
100083d2:	2001      	movs	r0, #1
100083d4:	4240      	negs	r0, r0
100083d6:	b002      	add	sp, #8
100083d8:	bd70      	pop	{r4, r5, r6, pc}
100083da:	7aa3      	ldrb	r3, [r4, #10]
100083dc:	07db      	lsls	r3, r3, #31
100083de:	d5d0      	bpl.n	10008382 <mpu_reset_fifo+0xde>
100083e0:	2360      	movs	r3, #96	; 0x60
100083e2:	702b      	strb	r3, [r5, #0]
100083e4:	e7cf      	b.n	10008386 <mpu_reset_fifo+0xe2>
100083e6:	23e0      	movs	r3, #224	; 0xe0
100083e8:	702b      	strb	r3, [r5, #0]
100083ea:	e79a      	b.n	10008322 <mpu_reset_fifo+0x7e>
100083ec:	2302      	movs	r3, #2
100083ee:	702b      	strb	r3, [r5, #0]
100083f0:	e7a4      	b.n	1000833c <mpu_reset_fifo+0x98>
100083f2:	702b      	strb	r3, [r5, #0]
100083f4:	e7d8      	b.n	100083a8 <mpu_reset_fifo+0x104>
100083f6:	46c0      	nop			; (mov r8, r8)
100083f8:	100147d4 	.word	0x100147d4
100083fc:	100080cd 	.word	0x100080cd
10008400:	1000a59d 	.word	0x1000a59d

10008404 <mpu_get_gyro_fsr>:
10008404:	4b0e      	ldr	r3, [pc, #56]	; (10008440 <mpu_get_gyro_fsr+0x3c>)
10008406:	7a1b      	ldrb	r3, [r3, #8]
10008408:	2b01      	cmp	r3, #1
1000840a:	d014      	beq.n	10008436 <mpu_get_gyro_fsr+0x32>
1000840c:	2b00      	cmp	r3, #0
1000840e:	d00f      	beq.n	10008430 <mpu_get_gyro_fsr+0x2c>
10008410:	2b02      	cmp	r3, #2
10008412:	d006      	beq.n	10008422 <mpu_get_gyro_fsr+0x1e>
10008414:	2b03      	cmp	r3, #3
10008416:	d108      	bne.n	1000842a <mpu_get_gyro_fsr+0x26>
10008418:	23fa      	movs	r3, #250	; 0xfa
1000841a:	00db      	lsls	r3, r3, #3
1000841c:	8003      	strh	r3, [r0, #0]
1000841e:	2000      	movs	r0, #0
10008420:	4770      	bx	lr
10008422:	23fa      	movs	r3, #250	; 0xfa
10008424:	009b      	lsls	r3, r3, #2
10008426:	8003      	strh	r3, [r0, #0]
10008428:	e7f9      	b.n	1000841e <mpu_get_gyro_fsr+0x1a>
1000842a:	2300      	movs	r3, #0
1000842c:	8003      	strh	r3, [r0, #0]
1000842e:	e7f6      	b.n	1000841e <mpu_get_gyro_fsr+0x1a>
10008430:	23fa      	movs	r3, #250	; 0xfa
10008432:	8003      	strh	r3, [r0, #0]
10008434:	e7f3      	b.n	1000841e <mpu_get_gyro_fsr+0x1a>
10008436:	23fa      	movs	r3, #250	; 0xfa
10008438:	005b      	lsls	r3, r3, #1
1000843a:	8003      	strh	r3, [r0, #0]
1000843c:	e7ef      	b.n	1000841e <mpu_get_gyro_fsr+0x1a>
1000843e:	46c0      	nop			; (mov r8, r8)
10008440:	100147d4 	.word	0x100147d4

10008444 <mpu_set_gyro_fsr>:
10008444:	b570      	push	{r4, r5, r6, lr}
10008446:	4c20      	ldr	r4, [pc, #128]	; (100084c8 <mpu_set_gyro_fsr+0x84>)
10008448:	b082      	sub	sp, #8
1000844a:	7aa3      	ldrb	r3, [r4, #10]
1000844c:	2b00      	cmp	r3, #0
1000844e:	d02a      	beq.n	100084a6 <mpu_set_gyro_fsr+0x62>
10008450:	23fa      	movs	r3, #250	; 0xfa
10008452:	005b      	lsls	r3, r3, #1
10008454:	4298      	cmp	r0, r3
10008456:	d030      	beq.n	100084ba <mpu_set_gyro_fsr+0x76>
10008458:	d90d      	bls.n	10008476 <mpu_set_gyro_fsr+0x32>
1000845a:	23fa      	movs	r3, #250	; 0xfa
1000845c:	009b      	lsls	r3, r3, #2
1000845e:	4298      	cmp	r0, r3
10008460:	d025      	beq.n	100084ae <mpu_set_gyro_fsr+0x6a>
10008462:	23fa      	movs	r3, #250	; 0xfa
10008464:	00db      	lsls	r3, r3, #3
10008466:	4298      	cmp	r0, r3
10008468:	d11d      	bne.n	100084a6 <mpu_set_gyro_fsr+0x62>
1000846a:	466b      	mov	r3, sp
1000846c:	1ddd      	adds	r5, r3, #7
1000846e:	2318      	movs	r3, #24
10008470:	702b      	strb	r3, [r5, #0]
10008472:	3b15      	subs	r3, #21
10008474:	e005      	b.n	10008482 <mpu_set_gyro_fsr+0x3e>
10008476:	28fa      	cmp	r0, #250	; 0xfa
10008478:	d115      	bne.n	100084a6 <mpu_set_gyro_fsr+0x62>
1000847a:	466b      	mov	r3, sp
1000847c:	1ddd      	adds	r5, r3, #7
1000847e:	2300      	movs	r3, #0
10008480:	702b      	strb	r3, [r5, #0]
10008482:	7a22      	ldrb	r2, [r4, #8]
10008484:	2000      	movs	r0, #0
10008486:	429a      	cmp	r2, r3
10008488:	d00f      	beq.n	100084aa <mpu_set_gyro_fsr+0x66>
1000848a:	6823      	ldr	r3, [r4, #0]
1000848c:	2201      	movs	r2, #1
1000848e:	7999      	ldrb	r1, [r3, #6]
10008490:	6863      	ldr	r3, [r4, #4]
10008492:	4e0e      	ldr	r6, [pc, #56]	; (100084cc <mpu_set_gyro_fsr+0x88>)
10008494:	7818      	ldrb	r0, [r3, #0]
10008496:	002b      	movs	r3, r5
10008498:	47b0      	blx	r6
1000849a:	2800      	cmp	r0, #0
1000849c:	d103      	bne.n	100084a6 <mpu_set_gyro_fsr+0x62>
1000849e:	782b      	ldrb	r3, [r5, #0]
100084a0:	08db      	lsrs	r3, r3, #3
100084a2:	7223      	strb	r3, [r4, #8]
100084a4:	e001      	b.n	100084aa <mpu_set_gyro_fsr+0x66>
100084a6:	2001      	movs	r0, #1
100084a8:	4240      	negs	r0, r0
100084aa:	b002      	add	sp, #8
100084ac:	bd70      	pop	{r4, r5, r6, pc}
100084ae:	466b      	mov	r3, sp
100084b0:	1ddd      	adds	r5, r3, #7
100084b2:	2310      	movs	r3, #16
100084b4:	702b      	strb	r3, [r5, #0]
100084b6:	3b0e      	subs	r3, #14
100084b8:	e7e3      	b.n	10008482 <mpu_set_gyro_fsr+0x3e>
100084ba:	466b      	mov	r3, sp
100084bc:	1ddd      	adds	r5, r3, #7
100084be:	2308      	movs	r3, #8
100084c0:	702b      	strb	r3, [r5, #0]
100084c2:	3b07      	subs	r3, #7
100084c4:	e7dd      	b.n	10008482 <mpu_set_gyro_fsr+0x3e>
100084c6:	46c0      	nop			; (mov r8, r8)
100084c8:	100147d4 	.word	0x100147d4
100084cc:	100080cd 	.word	0x100080cd

100084d0 <mpu_get_accel_fsr>:
100084d0:	4a10      	ldr	r2, [pc, #64]	; (10008514 <mpu_get_accel_fsr+0x44>)
100084d2:	0001      	movs	r1, r0
100084d4:	7a53      	ldrb	r3, [r2, #9]
100084d6:	2b01      	cmp	r3, #1
100084d8:	d018      	beq.n	1000850c <mpu_get_accel_fsr+0x3c>
100084da:	2b00      	cmp	r3, #0
100084dc:	d013      	beq.n	10008506 <mpu_get_accel_fsr+0x36>
100084de:	2b02      	cmp	r3, #2
100084e0:	d00b      	beq.n	100084fa <mpu_get_accel_fsr+0x2a>
100084e2:	2b03      	cmp	r3, #3
100084e4:	d10c      	bne.n	10008500 <mpu_get_accel_fsr+0x30>
100084e6:	2310      	movs	r3, #16
100084e8:	7003      	strb	r3, [r0, #0]
100084ea:	7cd3      	ldrb	r3, [r2, #19]
100084ec:	2000      	movs	r0, #0
100084ee:	2b00      	cmp	r3, #0
100084f0:	d002      	beq.n	100084f8 <mpu_get_accel_fsr+0x28>
100084f2:	780b      	ldrb	r3, [r1, #0]
100084f4:	005b      	lsls	r3, r3, #1
100084f6:	700b      	strb	r3, [r1, #0]
100084f8:	4770      	bx	lr
100084fa:	2308      	movs	r3, #8
100084fc:	7003      	strb	r3, [r0, #0]
100084fe:	e7f4      	b.n	100084ea <mpu_get_accel_fsr+0x1a>
10008500:	2001      	movs	r0, #1
10008502:	4240      	negs	r0, r0
10008504:	e7f8      	b.n	100084f8 <mpu_get_accel_fsr+0x28>
10008506:	2302      	movs	r3, #2
10008508:	7003      	strb	r3, [r0, #0]
1000850a:	e7ee      	b.n	100084ea <mpu_get_accel_fsr+0x1a>
1000850c:	2304      	movs	r3, #4
1000850e:	7003      	strb	r3, [r0, #0]
10008510:	e7eb      	b.n	100084ea <mpu_get_accel_fsr+0x1a>
10008512:	46c0      	nop			; (mov r8, r8)
10008514:	100147d4 	.word	0x100147d4

10008518 <mpu_set_accel_fsr>:
10008518:	b570      	push	{r4, r5, r6, lr}
1000851a:	4c1d      	ldr	r4, [pc, #116]	; (10008590 <mpu_set_accel_fsr+0x78>)
1000851c:	b082      	sub	sp, #8
1000851e:	7aa3      	ldrb	r3, [r4, #10]
10008520:	2b00      	cmp	r3, #0
10008522:	d024      	beq.n	1000856e <mpu_set_accel_fsr+0x56>
10008524:	2804      	cmp	r0, #4
10008526:	d02c      	beq.n	10008582 <mpu_set_accel_fsr+0x6a>
10008528:	d909      	bls.n	1000853e <mpu_set_accel_fsr+0x26>
1000852a:	2808      	cmp	r0, #8
1000852c:	d023      	beq.n	10008576 <mpu_set_accel_fsr+0x5e>
1000852e:	2810      	cmp	r0, #16
10008530:	d11d      	bne.n	1000856e <mpu_set_accel_fsr+0x56>
10008532:	466b      	mov	r3, sp
10008534:	1ddd      	adds	r5, r3, #7
10008536:	2318      	movs	r3, #24
10008538:	702b      	strb	r3, [r5, #0]
1000853a:	3b15      	subs	r3, #21
1000853c:	e005      	b.n	1000854a <mpu_set_accel_fsr+0x32>
1000853e:	2802      	cmp	r0, #2
10008540:	d115      	bne.n	1000856e <mpu_set_accel_fsr+0x56>
10008542:	466b      	mov	r3, sp
10008544:	1ddd      	adds	r5, r3, #7
10008546:	2300      	movs	r3, #0
10008548:	702b      	strb	r3, [r5, #0]
1000854a:	7a62      	ldrb	r2, [r4, #9]
1000854c:	2000      	movs	r0, #0
1000854e:	429a      	cmp	r2, r3
10008550:	d00f      	beq.n	10008572 <mpu_set_accel_fsr+0x5a>
10008552:	6823      	ldr	r3, [r4, #0]
10008554:	2201      	movs	r2, #1
10008556:	79d9      	ldrb	r1, [r3, #7]
10008558:	6863      	ldr	r3, [r4, #4]
1000855a:	4e0e      	ldr	r6, [pc, #56]	; (10008594 <mpu_set_accel_fsr+0x7c>)
1000855c:	7818      	ldrb	r0, [r3, #0]
1000855e:	002b      	movs	r3, r5
10008560:	47b0      	blx	r6
10008562:	2800      	cmp	r0, #0
10008564:	d103      	bne.n	1000856e <mpu_set_accel_fsr+0x56>
10008566:	782b      	ldrb	r3, [r5, #0]
10008568:	08db      	lsrs	r3, r3, #3
1000856a:	7263      	strb	r3, [r4, #9]
1000856c:	e001      	b.n	10008572 <mpu_set_accel_fsr+0x5a>
1000856e:	2001      	movs	r0, #1
10008570:	4240      	negs	r0, r0
10008572:	b002      	add	sp, #8
10008574:	bd70      	pop	{r4, r5, r6, pc}
10008576:	466b      	mov	r3, sp
10008578:	1ddd      	adds	r5, r3, #7
1000857a:	2310      	movs	r3, #16
1000857c:	702b      	strb	r3, [r5, #0]
1000857e:	3b0e      	subs	r3, #14
10008580:	e7e3      	b.n	1000854a <mpu_set_accel_fsr+0x32>
10008582:	466b      	mov	r3, sp
10008584:	1ddd      	adds	r5, r3, #7
10008586:	2308      	movs	r3, #8
10008588:	702b      	strb	r3, [r5, #0]
1000858a:	3b07      	subs	r3, #7
1000858c:	e7dd      	b.n	1000854a <mpu_set_accel_fsr+0x32>
1000858e:	46c0      	nop			; (mov r8, r8)
10008590:	100147d4 	.word	0x100147d4
10008594:	100080cd 	.word	0x100080cd

10008598 <mpu_set_lpf>:
10008598:	b570      	push	{r4, r5, r6, lr}
1000859a:	4c1b      	ldr	r4, [pc, #108]	; (10008608 <mpu_set_lpf+0x70>)
1000859c:	b082      	sub	sp, #8
1000859e:	7aa3      	ldrb	r3, [r4, #10]
100085a0:	2b00      	cmp	r3, #0
100085a2:	d026      	beq.n	100085f2 <mpu_set_lpf+0x5a>
100085a4:	466b      	mov	r3, sp
100085a6:	1ddd      	adds	r5, r3, #7
100085a8:	28bb      	cmp	r0, #187	; 0xbb
100085aa:	d815      	bhi.n	100085d8 <mpu_set_lpf+0x40>
100085ac:	2861      	cmp	r0, #97	; 0x61
100085ae:	d916      	bls.n	100085de <mpu_set_lpf+0x46>
100085b0:	2302      	movs	r3, #2
100085b2:	702b      	strb	r3, [r5, #0]
100085b4:	7ae2      	ldrb	r2, [r4, #11]
100085b6:	2000      	movs	r0, #0
100085b8:	429a      	cmp	r2, r3
100085ba:	d00b      	beq.n	100085d4 <mpu_set_lpf+0x3c>
100085bc:	6823      	ldr	r3, [r4, #0]
100085be:	2201      	movs	r2, #1
100085c0:	7899      	ldrb	r1, [r3, #2]
100085c2:	6863      	ldr	r3, [r4, #4]
100085c4:	4e11      	ldr	r6, [pc, #68]	; (1000860c <mpu_set_lpf+0x74>)
100085c6:	7818      	ldrb	r0, [r3, #0]
100085c8:	002b      	movs	r3, r5
100085ca:	47b0      	blx	r6
100085cc:	2800      	cmp	r0, #0
100085ce:	d110      	bne.n	100085f2 <mpu_set_lpf+0x5a>
100085d0:	782b      	ldrb	r3, [r5, #0]
100085d2:	72e3      	strb	r3, [r4, #11]
100085d4:	b002      	add	sp, #8
100085d6:	bd70      	pop	{r4, r5, r6, pc}
100085d8:	2301      	movs	r3, #1
100085da:	702b      	strb	r3, [r5, #0]
100085dc:	e7ea      	b.n	100085b4 <mpu_set_lpf+0x1c>
100085de:	2829      	cmp	r0, #41	; 0x29
100085e0:	d804      	bhi.n	100085ec <mpu_set_lpf+0x54>
100085e2:	2813      	cmp	r0, #19
100085e4:	d908      	bls.n	100085f8 <mpu_set_lpf+0x60>
100085e6:	2304      	movs	r3, #4
100085e8:	702b      	strb	r3, [r5, #0]
100085ea:	e7e3      	b.n	100085b4 <mpu_set_lpf+0x1c>
100085ec:	2303      	movs	r3, #3
100085ee:	702b      	strb	r3, [r5, #0]
100085f0:	e7e0      	b.n	100085b4 <mpu_set_lpf+0x1c>
100085f2:	2001      	movs	r0, #1
100085f4:	4240      	negs	r0, r0
100085f6:	e7ed      	b.n	100085d4 <mpu_set_lpf+0x3c>
100085f8:	2809      	cmp	r0, #9
100085fa:	d902      	bls.n	10008602 <mpu_set_lpf+0x6a>
100085fc:	2305      	movs	r3, #5
100085fe:	702b      	strb	r3, [r5, #0]
10008600:	e7d8      	b.n	100085b4 <mpu_set_lpf+0x1c>
10008602:	2306      	movs	r3, #6
10008604:	702b      	strb	r3, [r5, #0]
10008606:	e7d5      	b.n	100085b4 <mpu_set_lpf+0x1c>
10008608:	100147d4 	.word	0x100147d4
1000860c:	100080cd 	.word	0x100080cd

10008610 <mpu_get_sample_rate>:
10008610:	2224      	movs	r2, #36	; 0x24
10008612:	4b05      	ldr	r3, [pc, #20]	; (10008628 <mpu_get_sample_rate+0x18>)
10008614:	5c9a      	ldrb	r2, [r3, r2]
10008616:	2a00      	cmp	r2, #0
10008618:	d103      	bne.n	10008622 <mpu_get_sample_rate+0x12>
1000861a:	89db      	ldrh	r3, [r3, #14]
1000861c:	8003      	strh	r3, [r0, #0]
1000861e:	2000      	movs	r0, #0
10008620:	4770      	bx	lr
10008622:	2001      	movs	r0, #1
10008624:	4240      	negs	r0, r0
10008626:	e7fb      	b.n	10008620 <mpu_get_sample_rate+0x10>
10008628:	100147d4 	.word	0x100147d4

1000862c <mpu_set_compass_sample_rate>:
1000862c:	b530      	push	{r4, r5, lr}
1000862e:	0001      	movs	r1, r0
10008630:	b083      	sub	sp, #12
10008632:	2800      	cmp	r0, #0
10008634:	d020      	beq.n	10008678 <mpu_set_compass_sample_rate+0x4c>
10008636:	4c12      	ldr	r4, [pc, #72]	; (10008680 <mpu_set_compass_sample_rate+0x54>)
10008638:	89e0      	ldrh	r0, [r4, #14]
1000863a:	4281      	cmp	r1, r0
1000863c:	d81c      	bhi.n	10008678 <mpu_set_compass_sample_rate+0x4c>
1000863e:	2964      	cmp	r1, #100	; 0x64
10008640:	d81a      	bhi.n	10008678 <mpu_set_compass_sample_rate+0x4c>
10008642:	4b10      	ldr	r3, [pc, #64]	; (10008684 <mpu_set_compass_sample_rate+0x58>)
10008644:	4798      	blx	r3
10008646:	466b      	mov	r3, sp
10008648:	3801      	subs	r0, #1
1000864a:	71d8      	strb	r0, [r3, #7]
1000864c:	2324      	movs	r3, #36	; 0x24
1000864e:	6822      	ldr	r2, [r4, #0]
10008650:	4d0d      	ldr	r5, [pc, #52]	; (10008688 <mpu_set_compass_sample_rate+0x5c>)
10008652:	5cd1      	ldrb	r1, [r2, r3]
10008654:	6863      	ldr	r3, [r4, #4]
10008656:	2201      	movs	r2, #1
10008658:	7818      	ldrb	r0, [r3, #0]
1000865a:	466b      	mov	r3, sp
1000865c:	3307      	adds	r3, #7
1000865e:	47a8      	blx	r5
10008660:	1e05      	subs	r5, r0, #0
10008662:	d109      	bne.n	10008678 <mpu_set_compass_sample_rate+0x4c>
10008664:	466b      	mov	r3, sp
10008666:	79d9      	ldrb	r1, [r3, #7]
10008668:	89e0      	ldrh	r0, [r4, #14]
1000866a:	3101      	adds	r1, #1
1000866c:	4b07      	ldr	r3, [pc, #28]	; (1000868c <mpu_set_compass_sample_rate+0x60>)
1000866e:	4798      	blx	r3
10008670:	8520      	strh	r0, [r4, #40]	; 0x28
10008672:	0028      	movs	r0, r5
10008674:	b003      	add	sp, #12
10008676:	bd30      	pop	{r4, r5, pc}
10008678:	2501      	movs	r5, #1
1000867a:	426d      	negs	r5, r5
1000867c:	e7f9      	b.n	10008672 <mpu_set_compass_sample_rate+0x46>
1000867e:	46c0      	nop			; (mov r8, r8)
10008680:	100147d4 	.word	0x100147d4
10008684:	1001126d 	.word	0x1001126d
10008688:	100080cd 	.word	0x100080cd
1000868c:	10011381 	.word	0x10011381

10008690 <mpu_configure_fifo>:
10008690:	2324      	movs	r3, #36	; 0x24
10008692:	b570      	push	{r4, r5, r6, lr}
10008694:	4d14      	ldr	r5, [pc, #80]	; (100086e8 <mpu_configure_fifo+0x58>)
10008696:	2400      	movs	r4, #0
10008698:	5ceb      	ldrb	r3, [r5, r3]
1000869a:	2b00      	cmp	r3, #0
1000869c:	d113      	bne.n	100086c6 <mpu_configure_fifo+0x36>
1000869e:	7aac      	ldrb	r4, [r5, #10]
100086a0:	2c00      	cmp	r4, #0
100086a2:	d01d      	beq.n	100086e0 <mpu_configure_fifo+0x50>
100086a4:	3301      	adds	r3, #1
100086a6:	4398      	bics	r0, r3
100086a8:	4004      	ands	r4, r0
100086aa:	7c2e      	ldrb	r6, [r5, #16]
100086ac:	742c      	strb	r4, [r5, #16]
100086ae:	1b04      	subs	r4, r0, r4
100086b0:	1e63      	subs	r3, r4, #1
100086b2:	419c      	sbcs	r4, r3
100086b4:	4264      	negs	r4, r4
100086b6:	2800      	cmp	r0, #0
100086b8:	d107      	bne.n	100086ca <mpu_configure_fifo+0x3a>
100086ba:	7d2b      	ldrb	r3, [r5, #20]
100086bc:	2b00      	cmp	r3, #0
100086be:	d000      	beq.n	100086c2 <mpu_configure_fifo+0x32>
100086c0:	2001      	movs	r0, #1
100086c2:	4b0a      	ldr	r3, [pc, #40]	; (100086ec <mpu_configure_fifo+0x5c>)
100086c4:	4798      	blx	r3
100086c6:	0020      	movs	r0, r4
100086c8:	bd70      	pop	{r4, r5, r6, pc}
100086ca:	4b08      	ldr	r3, [pc, #32]	; (100086ec <mpu_configure_fifo+0x5c>)
100086cc:	2001      	movs	r0, #1
100086ce:	4798      	blx	r3
100086d0:	4b07      	ldr	r3, [pc, #28]	; (100086f0 <mpu_configure_fifo+0x60>)
100086d2:	4798      	blx	r3
100086d4:	2800      	cmp	r0, #0
100086d6:	d0f6      	beq.n	100086c6 <mpu_configure_fifo+0x36>
100086d8:	2401      	movs	r4, #1
100086da:	742e      	strb	r6, [r5, #16]
100086dc:	4264      	negs	r4, r4
100086de:	e7f2      	b.n	100086c6 <mpu_configure_fifo+0x36>
100086e0:	2401      	movs	r4, #1
100086e2:	4264      	negs	r4, r4
100086e4:	e7ef      	b.n	100086c6 <mpu_configure_fifo+0x36>
100086e6:	46c0      	nop			; (mov r8, r8)
100086e8:	100147d4 	.word	0x100147d4
100086ec:	10008145 	.word	0x10008145
100086f0:	100082a5 	.word	0x100082a5

100086f4 <mpu_read_fifo_stream>:
100086f4:	b5f0      	push	{r4, r5, r6, r7, lr}
100086f6:	4657      	mov	r7, sl
100086f8:	464e      	mov	r6, r9
100086fa:	4645      	mov	r5, r8
100086fc:	2324      	movs	r3, #36	; 0x24
100086fe:	b4e0      	push	{r5, r6, r7}
10008700:	4c2c      	ldr	r4, [pc, #176]	; (100087b4 <mpu_read_fifo_stream+0xc0>)
10008702:	b082      	sub	sp, #8
10008704:	5ce3      	ldrb	r3, [r4, r3]
10008706:	0007      	movs	r7, r0
10008708:	468a      	mov	sl, r1
1000870a:	4691      	mov	r9, r2
1000870c:	2b00      	cmp	r3, #0
1000870e:	d046      	beq.n	1000879e <mpu_read_fifo_stream+0xaa>
10008710:	7aa3      	ldrb	r3, [r4, #10]
10008712:	2b00      	cmp	r3, #0
10008714:	d03d      	beq.n	10008792 <mpu_read_fifo_stream+0x9e>
10008716:	6823      	ldr	r3, [r4, #0]
10008718:	ae01      	add	r6, sp, #4
1000871a:	7b19      	ldrb	r1, [r3, #12]
1000871c:	6863      	ldr	r3, [r4, #4]
1000871e:	4d26      	ldr	r5, [pc, #152]	; (100087b8 <mpu_read_fifo_stream+0xc4>)
10008720:	7818      	ldrb	r0, [r3, #0]
10008722:	2202      	movs	r2, #2
10008724:	0033      	movs	r3, r6
10008726:	46a8      	mov	r8, r5
10008728:	47a8      	blx	r5
1000872a:	2800      	cmp	r0, #0
1000872c:	d12e      	bne.n	1000878c <mpu_read_fifo_stream+0x98>
1000872e:	7835      	ldrb	r5, [r6, #0]
10008730:	7873      	ldrb	r3, [r6, #1]
10008732:	022d      	lsls	r5, r5, #8
10008734:	431d      	orrs	r5, r3
10008736:	42bd      	cmp	r5, r7
10008738:	d326      	bcc.n	10008788 <mpu_read_fifo_stream+0x94>
1000873a:	6860      	ldr	r0, [r4, #4]
1000873c:	8843      	ldrh	r3, [r0, #2]
1000873e:	085b      	lsrs	r3, r3, #1
10008740:	429d      	cmp	r5, r3
10008742:	d90b      	bls.n	1000875c <mpu_read_fifo_stream+0x68>
10008744:	6823      	ldr	r3, [r4, #0]
10008746:	7800      	ldrb	r0, [r0, #0]
10008748:	7cd9      	ldrb	r1, [r3, #19]
1000874a:	2201      	movs	r2, #1
1000874c:	0033      	movs	r3, r6
1000874e:	47c0      	blx	r8
10008750:	2800      	cmp	r0, #0
10008752:	d11b      	bne.n	1000878c <mpu_read_fifo_stream+0x98>
10008754:	7833      	ldrb	r3, [r6, #0]
10008756:	06db      	lsls	r3, r3, #27
10008758:	d427      	bmi.n	100087aa <mpu_read_fifo_stream+0xb6>
1000875a:	6860      	ldr	r0, [r4, #4]
1000875c:	6823      	ldr	r3, [r4, #0]
1000875e:	b2fa      	uxtb	r2, r7
10008760:	7b59      	ldrb	r1, [r3, #13]
10008762:	7800      	ldrb	r0, [r0, #0]
10008764:	4653      	mov	r3, sl
10008766:	47c0      	blx	r8
10008768:	1e04      	subs	r4, r0, #0
1000876a:	d10f      	bne.n	1000878c <mpu_read_fifo_stream+0x98>
1000876c:	4b13      	ldr	r3, [pc, #76]	; (100087bc <mpu_read_fifo_stream+0xc8>)
1000876e:	0039      	movs	r1, r7
10008770:	0028      	movs	r0, r5
10008772:	4798      	blx	r3
10008774:	464b      	mov	r3, r9
10008776:	3801      	subs	r0, #1
10008778:	7018      	strb	r0, [r3, #0]
1000877a:	0020      	movs	r0, r4
1000877c:	b002      	add	sp, #8
1000877e:	bc1c      	pop	{r2, r3, r4}
10008780:	4690      	mov	r8, r2
10008782:	4699      	mov	r9, r3
10008784:	46a2      	mov	sl, r4
10008786:	bdf0      	pop	{r4, r5, r6, r7, pc}
10008788:	464b      	mov	r3, r9
1000878a:	7018      	strb	r0, [r3, #0]
1000878c:	2401      	movs	r4, #1
1000878e:	4264      	negs	r4, r4
10008790:	e7f3      	b.n	1000877a <mpu_read_fifo_stream+0x86>
10008792:	2401      	movs	r4, #1
10008794:	480a      	ldr	r0, [pc, #40]	; (100087c0 <mpu_read_fifo_stream+0xcc>)
10008796:	4b0b      	ldr	r3, [pc, #44]	; (100087c4 <mpu_read_fifo_stream+0xd0>)
10008798:	4798      	blx	r3
1000879a:	4264      	negs	r4, r4
1000879c:	e7ed      	b.n	1000877a <mpu_read_fifo_stream+0x86>
1000879e:	2401      	movs	r4, #1
100087a0:	4809      	ldr	r0, [pc, #36]	; (100087c8 <mpu_read_fifo_stream+0xd4>)
100087a2:	4b08      	ldr	r3, [pc, #32]	; (100087c4 <mpu_read_fifo_stream+0xd0>)
100087a4:	4798      	blx	r3
100087a6:	4264      	negs	r4, r4
100087a8:	e7e7      	b.n	1000877a <mpu_read_fifo_stream+0x86>
100087aa:	2402      	movs	r4, #2
100087ac:	4b07      	ldr	r3, [pc, #28]	; (100087cc <mpu_read_fifo_stream+0xd8>)
100087ae:	4798      	blx	r3
100087b0:	4264      	negs	r4, r4
100087b2:	e7e2      	b.n	1000877a <mpu_read_fifo_stream+0x86>
100087b4:	100147d4 	.word	0x100147d4
100087b8:	100081b1 	.word	0x100081b1
100087bc:	1001126d 	.word	0x1001126d
100087c0:	10014074 	.word	0x10014074
100087c4:	1001313d 	.word	0x1001313d
100087c8:	10014068 	.word	0x10014068
100087cc:	100082a5 	.word	0x100082a5

100087d0 <mpu_set_bypass>:
100087d0:	b5f0      	push	{r4, r5, r6, r7, lr}
100087d2:	4c36      	ldr	r4, [pc, #216]	; (100088ac <mpu_set_bypass+0xdc>)
100087d4:	b083      	sub	sp, #12
100087d6:	7ca3      	ldrb	r3, [r4, #18]
100087d8:	0006      	movs	r6, r0
100087da:	4283      	cmp	r3, r0
100087dc:	d05f      	beq.n	1000889e <mpu_set_bypass+0xce>
100087de:	466b      	mov	r3, sp
100087e0:	1ddd      	adds	r5, r3, #7
100087e2:	6823      	ldr	r3, [r4, #0]
100087e4:	2201      	movs	r2, #1
100087e6:	7919      	ldrb	r1, [r3, #4]
100087e8:	6863      	ldr	r3, [r4, #4]
100087ea:	4f31      	ldr	r7, [pc, #196]	; (100088b0 <mpu_set_bypass+0xe0>)
100087ec:	7818      	ldrb	r0, [r3, #0]
100087ee:	002b      	movs	r3, r5
100087f0:	2e00      	cmp	r6, #0
100087f2:	d02e      	beq.n	10008852 <mpu_set_bypass+0x82>
100087f4:	47b8      	blx	r7
100087f6:	2800      	cmp	r0, #0
100087f8:	d155      	bne.n	100088a6 <mpu_set_bypass+0xd6>
100087fa:	2220      	movs	r2, #32
100087fc:	782b      	ldrb	r3, [r5, #0]
100087fe:	4f2d      	ldr	r7, [pc, #180]	; (100088b4 <mpu_set_bypass+0xe4>)
10008800:	4393      	bics	r3, r2
10008802:	702b      	strb	r3, [r5, #0]
10008804:	6823      	ldr	r3, [r4, #0]
10008806:	3a1f      	subs	r2, #31
10008808:	7919      	ldrb	r1, [r3, #4]
1000880a:	6863      	ldr	r3, [r4, #4]
1000880c:	7818      	ldrb	r0, [r3, #0]
1000880e:	002b      	movs	r3, r5
10008810:	47b8      	blx	r7
10008812:	2800      	cmp	r0, #0
10008814:	d147      	bne.n	100088a6 <mpu_set_bypass+0xd6>
10008816:	4b28      	ldr	r3, [pc, #160]	; (100088b8 <mpu_set_bypass+0xe8>)
10008818:	3003      	adds	r0, #3
1000881a:	4798      	blx	r3
1000881c:	2302      	movs	r3, #2
1000881e:	702b      	strb	r3, [r5, #0]
10008820:	3320      	adds	r3, #32
10008822:	5ce3      	ldrb	r3, [r4, r3]
10008824:	2b00      	cmp	r3, #0
10008826:	d137      	bne.n	10008898 <mpu_set_bypass+0xc8>
10008828:	2323      	movs	r3, #35	; 0x23
1000882a:	5ce3      	ldrb	r3, [r4, r3]
1000882c:	2b00      	cmp	r3, #0
1000882e:	d003      	beq.n	10008838 <mpu_set_bypass+0x68>
10008830:	2330      	movs	r3, #48	; 0x30
10008832:	782a      	ldrb	r2, [r5, #0]
10008834:	4313      	orrs	r3, r2
10008836:	702b      	strb	r3, [r5, #0]
10008838:	6823      	ldr	r3, [r4, #0]
1000883a:	2201      	movs	r2, #1
1000883c:	7dd9      	ldrb	r1, [r3, #23]
1000883e:	6863      	ldr	r3, [r4, #4]
10008840:	7818      	ldrb	r0, [r3, #0]
10008842:	002b      	movs	r3, r5
10008844:	47b8      	blx	r7
10008846:	2800      	cmp	r0, #0
10008848:	d12d      	bne.n	100088a6 <mpu_set_bypass+0xd6>
1000884a:	2000      	movs	r0, #0
1000884c:	74a6      	strb	r6, [r4, #18]
1000884e:	b003      	add	sp, #12
10008850:	bdf0      	pop	{r4, r5, r6, r7, pc}
10008852:	47b8      	blx	r7
10008854:	2800      	cmp	r0, #0
10008856:	d126      	bne.n	100088a6 <mpu_set_bypass+0xd6>
10008858:	7aa3      	ldrb	r3, [r4, #10]
1000885a:	07db      	lsls	r3, r3, #31
1000885c:	d417      	bmi.n	1000888e <mpu_set_bypass+0xbe>
1000885e:	2220      	movs	r2, #32
10008860:	782b      	ldrb	r3, [r5, #0]
10008862:	4393      	bics	r3, r2
10008864:	702b      	strb	r3, [r5, #0]
10008866:	6823      	ldr	r3, [r4, #0]
10008868:	2201      	movs	r2, #1
1000886a:	7919      	ldrb	r1, [r3, #4]
1000886c:	6863      	ldr	r3, [r4, #4]
1000886e:	4f11      	ldr	r7, [pc, #68]	; (100088b4 <mpu_set_bypass+0xe4>)
10008870:	7818      	ldrb	r0, [r3, #0]
10008872:	002b      	movs	r3, r5
10008874:	47b8      	blx	r7
10008876:	2800      	cmp	r0, #0
10008878:	d115      	bne.n	100088a6 <mpu_set_bypass+0xd6>
1000887a:	4b0f      	ldr	r3, [pc, #60]	; (100088b8 <mpu_set_bypass+0xe8>)
1000887c:	3003      	adds	r0, #3
1000887e:	4798      	blx	r3
10008880:	2322      	movs	r3, #34	; 0x22
10008882:	5ce3      	ldrb	r3, [r4, r3]
10008884:	2b00      	cmp	r3, #0
10008886:	d00c      	beq.n	100088a2 <mpu_set_bypass+0xd2>
10008888:	2380      	movs	r3, #128	; 0x80
1000888a:	702b      	strb	r3, [r5, #0]
1000888c:	e7cc      	b.n	10008828 <mpu_set_bypass+0x58>
1000888e:	2320      	movs	r3, #32
10008890:	782a      	ldrb	r2, [r5, #0]
10008892:	4313      	orrs	r3, r2
10008894:	702b      	strb	r3, [r5, #0]
10008896:	e7e6      	b.n	10008866 <mpu_set_bypass+0x96>
10008898:	2382      	movs	r3, #130	; 0x82
1000889a:	702b      	strb	r3, [r5, #0]
1000889c:	e7c4      	b.n	10008828 <mpu_set_bypass+0x58>
1000889e:	2000      	movs	r0, #0
100088a0:	e7d5      	b.n	1000884e <mpu_set_bypass+0x7e>
100088a2:	702b      	strb	r3, [r5, #0]
100088a4:	e7c0      	b.n	10008828 <mpu_set_bypass+0x58>
100088a6:	2001      	movs	r0, #1
100088a8:	4240      	negs	r0, r0
100088aa:	e7d0      	b.n	1000884e <mpu_set_bypass+0x7e>
100088ac:	100147d4 	.word	0x100147d4
100088b0:	100081b1 	.word	0x100081b1
100088b4:	100080cd 	.word	0x100080cd
100088b8:	1000a59d 	.word	0x1000a59d

100088bc <mpu_set_int_latched>:
100088bc:	2323      	movs	r3, #35	; 0x23
100088be:	b570      	push	{r4, r5, r6, lr}
100088c0:	4c17      	ldr	r4, [pc, #92]	; (10008920 <mpu_set_int_latched+0x64>)
100088c2:	b082      	sub	sp, #8
100088c4:	5ce3      	ldrb	r3, [r4, r3]
100088c6:	0005      	movs	r5, r0
100088c8:	4283      	cmp	r3, r0
100088ca:	d024      	beq.n	10008916 <mpu_set_int_latched+0x5a>
100088cc:	466b      	mov	r3, sp
100088ce:	3307      	adds	r3, #7
100088d0:	2800      	cmp	r0, #0
100088d2:	d11d      	bne.n	10008910 <mpu_set_int_latched+0x54>
100088d4:	7018      	strb	r0, [r3, #0]
100088d6:	7ca2      	ldrb	r2, [r4, #18]
100088d8:	2a00      	cmp	r2, #0
100088da:	d003      	beq.n	100088e4 <mpu_set_int_latched+0x28>
100088dc:	2202      	movs	r2, #2
100088de:	7819      	ldrb	r1, [r3, #0]
100088e0:	430a      	orrs	r2, r1
100088e2:	701a      	strb	r2, [r3, #0]
100088e4:	2222      	movs	r2, #34	; 0x22
100088e6:	5ca2      	ldrb	r2, [r4, r2]
100088e8:	2a00      	cmp	r2, #0
100088ea:	d004      	beq.n	100088f6 <mpu_set_int_latched+0x3a>
100088ec:	2180      	movs	r1, #128	; 0x80
100088ee:	781a      	ldrb	r2, [r3, #0]
100088f0:	4249      	negs	r1, r1
100088f2:	430a      	orrs	r2, r1
100088f4:	701a      	strb	r2, [r3, #0]
100088f6:	6822      	ldr	r2, [r4, #0]
100088f8:	4e0a      	ldr	r6, [pc, #40]	; (10008924 <mpu_set_int_latched+0x68>)
100088fa:	7dd1      	ldrb	r1, [r2, #23]
100088fc:	6862      	ldr	r2, [r4, #4]
100088fe:	7810      	ldrb	r0, [r2, #0]
10008900:	2201      	movs	r2, #1
10008902:	47b0      	blx	r6
10008904:	2800      	cmp	r0, #0
10008906:	d108      	bne.n	1000891a <mpu_set_int_latched+0x5e>
10008908:	2323      	movs	r3, #35	; 0x23
1000890a:	54e5      	strb	r5, [r4, r3]
1000890c:	b002      	add	sp, #8
1000890e:	bd70      	pop	{r4, r5, r6, pc}
10008910:	2230      	movs	r2, #48	; 0x30
10008912:	701a      	strb	r2, [r3, #0]
10008914:	e7df      	b.n	100088d6 <mpu_set_int_latched+0x1a>
10008916:	2000      	movs	r0, #0
10008918:	e7f8      	b.n	1000890c <mpu_set_int_latched+0x50>
1000891a:	2001      	movs	r0, #1
1000891c:	4240      	negs	r0, r0
1000891e:	e7f5      	b.n	1000890c <mpu_set_int_latched+0x50>
10008920:	100147d4 	.word	0x100147d4
10008924:	100080cd 	.word	0x100080cd

10008928 <mpu_lp_accel_mode>:
10008928:	b570      	push	{r4, r5, r6, lr}
1000892a:	0004      	movs	r4, r0
1000892c:	b082      	sub	sp, #8
1000892e:	2828      	cmp	r0, #40	; 0x28
10008930:	d847      	bhi.n	100089c2 <mpu_lp_accel_mode+0x9a>
10008932:	2800      	cmp	r0, #0
10008934:	d114      	bne.n	10008960 <mpu_lp_accel_mode+0x38>
10008936:	4b2d      	ldr	r3, [pc, #180]	; (100089ec <mpu_lp_accel_mode+0xc4>)
10008938:	2000      	movs	r0, #0
1000893a:	4798      	blx	r3
1000893c:	2207      	movs	r2, #7
1000893e:	4d2c      	ldr	r5, [pc, #176]	; (100089f0 <mpu_lp_accel_mode+0xc8>)
10008940:	ab01      	add	r3, sp, #4
10008942:	705a      	strb	r2, [r3, #1]
10008944:	682a      	ldr	r2, [r5, #0]
10008946:	701c      	strb	r4, [r3, #0]
10008948:	7d51      	ldrb	r1, [r2, #21]
1000894a:	686a      	ldr	r2, [r5, #4]
1000894c:	4c29      	ldr	r4, [pc, #164]	; (100089f4 <mpu_lp_accel_mode+0xcc>)
1000894e:	7810      	ldrb	r0, [r2, #0]
10008950:	2202      	movs	r2, #2
10008952:	47a0      	blx	r4
10008954:	1e04      	subs	r4, r0, #0
10008956:	d134      	bne.n	100089c2 <mpu_lp_accel_mode+0x9a>
10008958:	7528      	strb	r0, [r5, #20]
1000895a:	0020      	movs	r0, r4
1000895c:	b002      	add	sp, #8
1000895e:	bd70      	pop	{r4, r5, r6, pc}
10008960:	2001      	movs	r0, #1
10008962:	4b22      	ldr	r3, [pc, #136]	; (100089ec <mpu_lp_accel_mode+0xc4>)
10008964:	4798      	blx	r3
10008966:	2c01      	cmp	r4, #1
10008968:	d02e      	beq.n	100089c8 <mpu_lp_accel_mode+0xa0>
1000896a:	2c02      	cmp	r4, #2
1000896c:	d030      	beq.n	100089d0 <mpu_lp_accel_mode+0xa8>
1000896e:	2c05      	cmp	r4, #5
10008970:	d923      	bls.n	100089ba <mpu_lp_accel_mode+0x92>
10008972:	2c0a      	cmp	r4, #10
10008974:	d830      	bhi.n	100089d8 <mpu_lp_accel_mode+0xb0>
10008976:	2305      	movs	r3, #5
10008978:	ac01      	add	r4, sp, #4
1000897a:	7023      	strb	r3, [r4, #0]
1000897c:	4d1c      	ldr	r5, [pc, #112]	; (100089f0 <mpu_lp_accel_mode+0xc8>)
1000897e:	2201      	movs	r2, #1
10008980:	682b      	ldr	r3, [r5, #0]
10008982:	4e1c      	ldr	r6, [pc, #112]	; (100089f4 <mpu_lp_accel_mode+0xcc>)
10008984:	7a59      	ldrb	r1, [r3, #9]
10008986:	686b      	ldr	r3, [r5, #4]
10008988:	7818      	ldrb	r0, [r3, #0]
1000898a:	0023      	movs	r3, r4
1000898c:	47b0      	blx	r6
1000898e:	2800      	cmp	r0, #0
10008990:	d117      	bne.n	100089c2 <mpu_lp_accel_mode+0x9a>
10008992:	2320      	movs	r3, #32
10008994:	7023      	strb	r3, [r4, #0]
10008996:	682b      	ldr	r3, [r5, #0]
10008998:	2201      	movs	r2, #1
1000899a:	7d59      	ldrb	r1, [r3, #21]
1000899c:	686b      	ldr	r3, [r5, #4]
1000899e:	7818      	ldrb	r0, [r3, #0]
100089a0:	0023      	movs	r3, r4
100089a2:	47b0      	blx	r6
100089a4:	1e04      	subs	r4, r0, #0
100089a6:	d10c      	bne.n	100089c2 <mpu_lp_accel_mode+0x9a>
100089a8:	2308      	movs	r3, #8
100089aa:	72ab      	strb	r3, [r5, #10]
100089ac:	3b07      	subs	r3, #7
100089ae:	7328      	strb	r0, [r5, #12]
100089b0:	752b      	strb	r3, [r5, #20]
100089b2:	2000      	movs	r0, #0
100089b4:	4b10      	ldr	r3, [pc, #64]	; (100089f8 <mpu_lp_accel_mode+0xd0>)
100089b6:	4798      	blx	r3
100089b8:	e7cf      	b.n	1000895a <mpu_lp_accel_mode+0x32>
100089ba:	2304      	movs	r3, #4
100089bc:	ac01      	add	r4, sp, #4
100089be:	7023      	strb	r3, [r4, #0]
100089c0:	e7dc      	b.n	1000897c <mpu_lp_accel_mode+0x54>
100089c2:	2401      	movs	r4, #1
100089c4:	4264      	negs	r4, r4
100089c6:	e7c8      	b.n	1000895a <mpu_lp_accel_mode+0x32>
100089c8:	2302      	movs	r3, #2
100089ca:	ac01      	add	r4, sp, #4
100089cc:	7023      	strb	r3, [r4, #0]
100089ce:	e7d5      	b.n	1000897c <mpu_lp_accel_mode+0x54>
100089d0:	2303      	movs	r3, #3
100089d2:	ac01      	add	r4, sp, #4
100089d4:	7023      	strb	r3, [r4, #0]
100089d6:	e7d1      	b.n	1000897c <mpu_lp_accel_mode+0x54>
100089d8:	2c14      	cmp	r4, #20
100089da:	d803      	bhi.n	100089e4 <mpu_lp_accel_mode+0xbc>
100089dc:	2306      	movs	r3, #6
100089de:	ac01      	add	r4, sp, #4
100089e0:	7023      	strb	r3, [r4, #0]
100089e2:	e7cb      	b.n	1000897c <mpu_lp_accel_mode+0x54>
100089e4:	2307      	movs	r3, #7
100089e6:	ac01      	add	r4, sp, #4
100089e8:	7023      	strb	r3, [r4, #0]
100089ea:	e7c7      	b.n	1000897c <mpu_lp_accel_mode+0x54>
100089ec:	100088bd 	.word	0x100088bd
100089f0:	100147d4 	.word	0x100147d4
100089f4:	100080cd 	.word	0x100080cd
100089f8:	10008691 	.word	0x10008691

100089fc <mpu_set_sample_rate>:
100089fc:	b530      	push	{r4, r5, lr}
100089fe:	4c2c      	ldr	r4, [pc, #176]	; (10008ab0 <mpu_set_sample_rate+0xb4>)
10008a00:	b083      	sub	sp, #12
10008a02:	7aa3      	ldrb	r3, [r4, #10]
10008a04:	0005      	movs	r5, r0
10008a06:	2b00      	cmp	r3, #0
10008a08:	d04e      	beq.n	10008aa8 <mpu_set_sample_rate+0xac>
10008a0a:	2324      	movs	r3, #36	; 0x24
10008a0c:	5ce3      	ldrb	r3, [r4, r3]
10008a0e:	2b00      	cmp	r3, #0
10008a10:	d14a      	bne.n	10008aa8 <mpu_set_sample_rate+0xac>
10008a12:	7d23      	ldrb	r3, [r4, #20]
10008a14:	2b00      	cmp	r3, #0
10008a16:	d005      	beq.n	10008a24 <mpu_set_sample_rate+0x28>
10008a18:	1e43      	subs	r3, r0, #1
10008a1a:	2b27      	cmp	r3, #39	; 0x27
10008a1c:	d940      	bls.n	10008aa0 <mpu_set_sample_rate+0xa4>
10008a1e:	2000      	movs	r0, #0
10008a20:	4b24      	ldr	r3, [pc, #144]	; (10008ab4 <mpu_set_sample_rate+0xb8>)
10008a22:	4798      	blx	r3
10008a24:	20f9      	movs	r0, #249	; 0xf9
10008a26:	2d03      	cmp	r5, #3
10008a28:	d822      	bhi.n	10008a70 <mpu_set_sample_rate+0x74>
10008a2a:	466b      	mov	r3, sp
10008a2c:	71d8      	strb	r0, [r3, #7]
10008a2e:	6823      	ldr	r3, [r4, #0]
10008a30:	4d21      	ldr	r5, [pc, #132]	; (10008ab8 <mpu_set_sample_rate+0xbc>)
10008a32:	7859      	ldrb	r1, [r3, #1]
10008a34:	6863      	ldr	r3, [r4, #4]
10008a36:	2201      	movs	r2, #1
10008a38:	7818      	ldrb	r0, [r3, #0]
10008a3a:	466b      	mov	r3, sp
10008a3c:	3307      	adds	r3, #7
10008a3e:	47a8      	blx	r5
10008a40:	1e05      	subs	r5, r0, #0
10008a42:	d131      	bne.n	10008aa8 <mpu_set_sample_rate+0xac>
10008a44:	466b      	mov	r3, sp
10008a46:	20fa      	movs	r0, #250	; 0xfa
10008a48:	79d9      	ldrb	r1, [r3, #7]
10008a4a:	0080      	lsls	r0, r0, #2
10008a4c:	4b1b      	ldr	r3, [pc, #108]	; (10008abc <mpu_set_sample_rate+0xc0>)
10008a4e:	3101      	adds	r1, #1
10008a50:	4798      	blx	r3
10008a52:	8d23      	ldrh	r3, [r4, #40]	; 0x28
10008a54:	81e0      	strh	r0, [r4, #14]
10008a56:	1c18      	adds	r0, r3, #0
10008a58:	2b64      	cmp	r3, #100	; 0x64
10008a5a:	d816      	bhi.n	10008a8a <mpu_set_sample_rate+0x8e>
10008a5c:	4b18      	ldr	r3, [pc, #96]	; (10008ac0 <mpu_set_sample_rate+0xc4>)
10008a5e:	b280      	uxth	r0, r0
10008a60:	4798      	blx	r3
10008a62:	89e0      	ldrh	r0, [r4, #14]
10008a64:	4b17      	ldr	r3, [pc, #92]	; (10008ac4 <mpu_set_sample_rate+0xc8>)
10008a66:	0840      	lsrs	r0, r0, #1
10008a68:	4798      	blx	r3
10008a6a:	0028      	movs	r0, r5
10008a6c:	b003      	add	sp, #12
10008a6e:	bd30      	pop	{r4, r5, pc}
10008a70:	23fa      	movs	r3, #250	; 0xfa
10008a72:	1c29      	adds	r1, r5, #0
10008a74:	009b      	lsls	r3, r3, #2
10008a76:	429d      	cmp	r5, r3
10008a78:	d809      	bhi.n	10008a8e <mpu_set_sample_rate+0x92>
10008a7a:	20fa      	movs	r0, #250	; 0xfa
10008a7c:	b289      	uxth	r1, r1
10008a7e:	0080      	lsls	r0, r0, #2
10008a80:	4b0e      	ldr	r3, [pc, #56]	; (10008abc <mpu_set_sample_rate+0xc0>)
10008a82:	4798      	blx	r3
10008a84:	3801      	subs	r0, #1
10008a86:	b2c0      	uxtb	r0, r0
10008a88:	e7cf      	b.n	10008a2a <mpu_set_sample_rate+0x2e>
10008a8a:	2064      	movs	r0, #100	; 0x64
10008a8c:	e7e6      	b.n	10008a5c <mpu_set_sample_rate+0x60>
10008a8e:	20fa      	movs	r0, #250	; 0xfa
10008a90:	1c19      	adds	r1, r3, #0
10008a92:	b289      	uxth	r1, r1
10008a94:	0080      	lsls	r0, r0, #2
10008a96:	4b09      	ldr	r3, [pc, #36]	; (10008abc <mpu_set_sample_rate+0xc0>)
10008a98:	4798      	blx	r3
10008a9a:	3801      	subs	r0, #1
10008a9c:	b2c0      	uxtb	r0, r0
10008a9e:	e7c4      	b.n	10008a2a <mpu_set_sample_rate+0x2e>
10008aa0:	4b04      	ldr	r3, [pc, #16]	; (10008ab4 <mpu_set_sample_rate+0xb8>)
10008aa2:	4798      	blx	r3
10008aa4:	2500      	movs	r5, #0
10008aa6:	e7e0      	b.n	10008a6a <mpu_set_sample_rate+0x6e>
10008aa8:	2501      	movs	r5, #1
10008aaa:	426d      	negs	r5, r5
10008aac:	e7dd      	b.n	10008a6a <mpu_set_sample_rate+0x6e>
10008aae:	46c0      	nop			; (mov r8, r8)
10008ab0:	100147d4 	.word	0x100147d4
10008ab4:	10008929 	.word	0x10008929
10008ab8:	100080cd 	.word	0x100080cd
10008abc:	10011381 	.word	0x10011381
10008ac0:	1000862d 	.word	0x1000862d
10008ac4:	10008599 	.word	0x10008599

10008ac8 <mpu_set_sensors>:
10008ac8:	b5f0      	push	{r4, r5, r6, r7, lr}
10008aca:	464e      	mov	r6, r9
10008acc:	4657      	mov	r7, sl
10008ace:	4645      	mov	r5, r8
10008ad0:	2370      	movs	r3, #112	; 0x70
10008ad2:	b4e0      	push	{r5, r6, r7}
10008ad4:	4003      	ands	r3, r0
10008ad6:	b082      	sub	sp, #8
10008ad8:	0006      	movs	r6, r0
10008ada:	2b00      	cmp	r3, #0
10008adc:	d100      	bne.n	10008ae0 <mpu_set_sensors+0x18>
10008ade:	e095      	b.n	10008c0c <mpu_set_sensors+0x144>
10008ae0:	466b      	mov	r3, sp
10008ae2:	1d9d      	adds	r5, r3, #6
10008ae4:	2301      	movs	r3, #1
10008ae6:	702b      	strb	r3, [r5, #0]
10008ae8:	4c5f      	ldr	r4, [pc, #380]	; (10008c68 <mpu_set_sensors+0x1a0>)
10008aea:	4f60      	ldr	r7, [pc, #384]	; (10008c6c <mpu_set_sensors+0x1a4>)
10008aec:	6823      	ldr	r3, [r4, #0]
10008aee:	2201      	movs	r2, #1
10008af0:	7d59      	ldrb	r1, [r3, #21]
10008af2:	6863      	ldr	r3, [r4, #4]
10008af4:	46b8      	mov	r8, r7
10008af6:	7818      	ldrb	r0, [r3, #0]
10008af8:	002b      	movs	r3, r5
10008afa:	47b8      	blx	r7
10008afc:	2800      	cmp	r0, #0
10008afe:	d000      	beq.n	10008b02 <mpu_set_sensors+0x3a>
10008b00:	e0ad      	b.n	10008c5e <mpu_set_sensors+0x196>
10008b02:	2240      	movs	r2, #64	; 0x40
10008b04:	782b      	ldrb	r3, [r5, #0]
10008b06:	7028      	strb	r0, [r5, #0]
10008b08:	4393      	bics	r3, r2
10008b0a:	7323      	strb	r3, [r4, #12]
10008b0c:	4232      	tst	r2, r6
10008b0e:	d100      	bne.n	10008b12 <mpu_set_sensors+0x4a>
10008b10:	e093      	b.n	10008c3a <mpu_set_sensors+0x172>
10008b12:	06b3      	lsls	r3, r6, #26
10008b14:	d403      	bmi.n	10008b1e <mpu_set_sensors+0x56>
10008b16:	2302      	movs	r3, #2
10008b18:	782a      	ldrb	r2, [r5, #0]
10008b1a:	4313      	orrs	r3, r2
10008b1c:	702b      	strb	r3, [r5, #0]
10008b1e:	06f3      	lsls	r3, r6, #27
10008b20:	d403      	bmi.n	10008b2a <mpu_set_sensors+0x62>
10008b22:	2301      	movs	r3, #1
10008b24:	782a      	ldrb	r2, [r5, #0]
10008b26:	4313      	orrs	r3, r2
10008b28:	702b      	strb	r3, [r5, #0]
10008b2a:	0733      	lsls	r3, r6, #28
10008b2c:	d400      	bmi.n	10008b30 <mpu_set_sensors+0x68>
10008b2e:	e08a      	b.n	10008c46 <mpu_set_sensors+0x17e>
10008b30:	6823      	ldr	r3, [r4, #0]
10008b32:	2201      	movs	r2, #1
10008b34:	7d99      	ldrb	r1, [r3, #22]
10008b36:	6863      	ldr	r3, [r4, #4]
10008b38:	7818      	ldrb	r0, [r3, #0]
10008b3a:	002b      	movs	r3, r5
10008b3c:	47c0      	blx	r8
10008b3e:	2800      	cmp	r0, #0
10008b40:	d000      	beq.n	10008b44 <mpu_set_sensors+0x7c>
10008b42:	e08c      	b.n	10008c5e <mpu_set_sensors+0x196>
10008b44:	2308      	movs	r3, #8
10008b46:	0032      	movs	r2, r6
10008b48:	439a      	bics	r2, r3
10008b4a:	d041      	beq.n	10008bd0 <mpu_set_sensors+0x108>
10008b4c:	4b48      	ldr	r3, [pc, #288]	; (10008c70 <mpu_set_sensors+0x1a8>)
10008b4e:	4798      	blx	r3
10008b50:	466b      	mov	r3, sp
10008b52:	3307      	adds	r3, #7
10008b54:	469a      	mov	sl, r3
10008b56:	6823      	ldr	r3, [r4, #0]
10008b58:	2201      	movs	r2, #1
10008b5a:	7919      	ldrb	r1, [r3, #4]
10008b5c:	6863      	ldr	r3, [r4, #4]
10008b5e:	4f45      	ldr	r7, [pc, #276]	; (10008c74 <mpu_set_sensors+0x1ac>)
10008b60:	7818      	ldrb	r0, [r3, #0]
10008b62:	4653      	mov	r3, sl
10008b64:	47b8      	blx	r7
10008b66:	2800      	cmp	r0, #0
10008b68:	d000      	beq.n	10008b6c <mpu_set_sensors+0xa4>
10008b6a:	e075      	b.n	10008c58 <mpu_set_sensors+0x190>
10008b6c:	07f3      	lsls	r3, r6, #31
10008b6e:	d53c      	bpl.n	10008bea <mpu_set_sensors+0x122>
10008b70:	2311      	movs	r3, #17
10008b72:	702b      	strb	r3, [r5, #0]
10008b74:	4653      	mov	r3, sl
10008b76:	781a      	ldrb	r2, [r3, #0]
10008b78:	2320      	movs	r3, #32
10008b7a:	4313      	orrs	r3, r2
10008b7c:	4652      	mov	r2, sl
10008b7e:	7013      	strb	r3, [r2, #0]
10008b80:	2224      	movs	r2, #36	; 0x24
10008b82:	5ca2      	ldrb	r2, [r4, r2]
10008b84:	2a00      	cmp	r2, #0
10008b86:	d03c      	beq.n	10008c02 <mpu_set_sensors+0x13a>
10008b88:	2280      	movs	r2, #128	; 0x80
10008b8a:	4252      	negs	r2, r2
10008b8c:	4313      	orrs	r3, r2
10008b8e:	4652      	mov	r2, sl
10008b90:	7013      	strb	r3, [r2, #0]
10008b92:	2326      	movs	r3, #38	; 0x26
10008b94:	6822      	ldr	r2, [r4, #0]
10008b96:	5cd1      	ldrb	r1, [r2, r3]
10008b98:	6863      	ldr	r3, [r4, #4]
10008b9a:	2201      	movs	r2, #1
10008b9c:	7818      	ldrb	r0, [r3, #0]
10008b9e:	002b      	movs	r3, r5
10008ba0:	47c0      	blx	r8
10008ba2:	2800      	cmp	r0, #0
10008ba4:	d158      	bne.n	10008c58 <mpu_set_sensors+0x190>
10008ba6:	6823      	ldr	r3, [r4, #0]
10008ba8:	2201      	movs	r2, #1
10008baa:	7919      	ldrb	r1, [r3, #4]
10008bac:	6863      	ldr	r3, [r4, #4]
10008bae:	7818      	ldrb	r0, [r3, #0]
10008bb0:	4653      	mov	r3, sl
10008bb2:	47c0      	blx	r8
10008bb4:	1e05      	subs	r5, r0, #0
10008bb6:	d14f      	bne.n	10008c58 <mpu_set_sensors+0x190>
10008bb8:	7520      	strb	r0, [r4, #20]
10008bba:	4b2f      	ldr	r3, [pc, #188]	; (10008c78 <mpu_set_sensors+0x1b0>)
10008bbc:	2032      	movs	r0, #50	; 0x32
10008bbe:	72a6      	strb	r6, [r4, #10]
10008bc0:	4798      	blx	r3
10008bc2:	0028      	movs	r0, r5
10008bc4:	b002      	add	sp, #8
10008bc6:	bc1c      	pop	{r2, r3, r4}
10008bc8:	4690      	mov	r8, r2
10008bca:	4699      	mov	r9, r3
10008bcc:	46a2      	mov	sl, r4
10008bce:	bdf0      	pop	{r4, r5, r6, r7, pc}
10008bd0:	466b      	mov	r3, sp
10008bd2:	3307      	adds	r3, #7
10008bd4:	469a      	mov	sl, r3
10008bd6:	6823      	ldr	r3, [r4, #0]
10008bd8:	2201      	movs	r2, #1
10008bda:	7919      	ldrb	r1, [r3, #4]
10008bdc:	6863      	ldr	r3, [r4, #4]
10008bde:	4f25      	ldr	r7, [pc, #148]	; (10008c74 <mpu_set_sensors+0x1ac>)
10008be0:	7818      	ldrb	r0, [r3, #0]
10008be2:	4653      	mov	r3, sl
10008be4:	47b8      	blx	r7
10008be6:	2800      	cmp	r0, #0
10008be8:	d136      	bne.n	10008c58 <mpu_set_sensors+0x190>
10008bea:	2310      	movs	r3, #16
10008bec:	702b      	strb	r3, [r5, #0]
10008bee:	4653      	mov	r3, sl
10008bf0:	2220      	movs	r2, #32
10008bf2:	781b      	ldrb	r3, [r3, #0]
10008bf4:	4393      	bics	r3, r2
10008bf6:	4652      	mov	r2, sl
10008bf8:	7013      	strb	r3, [r2, #0]
10008bfa:	2224      	movs	r2, #36	; 0x24
10008bfc:	5ca2      	ldrb	r2, [r4, r2]
10008bfe:	2a00      	cmp	r2, #0
10008c00:	d1c2      	bne.n	10008b88 <mpu_set_sensors+0xc0>
10008c02:	227f      	movs	r2, #127	; 0x7f
10008c04:	4013      	ands	r3, r2
10008c06:	4652      	mov	r2, sl
10008c08:	7013      	strb	r3, [r2, #0]
10008c0a:	e7c2      	b.n	10008b92 <mpu_set_sensors+0xca>
10008c0c:	2800      	cmp	r0, #0
10008c0e:	d11f      	bne.n	10008c50 <mpu_set_sensors+0x188>
10008c10:	466b      	mov	r3, sp
10008c12:	1d9d      	adds	r5, r3, #6
10008c14:	2340      	movs	r3, #64	; 0x40
10008c16:	4c14      	ldr	r4, [pc, #80]	; (10008c68 <mpu_set_sensors+0x1a0>)
10008c18:	702b      	strb	r3, [r5, #0]
10008c1a:	4699      	mov	r9, r3
10008c1c:	6823      	ldr	r3, [r4, #0]
10008c1e:	4f13      	ldr	r7, [pc, #76]	; (10008c6c <mpu_set_sensors+0x1a4>)
10008c20:	7d59      	ldrb	r1, [r3, #21]
10008c22:	6863      	ldr	r3, [r4, #4]
10008c24:	2201      	movs	r2, #1
10008c26:	7818      	ldrb	r0, [r3, #0]
10008c28:	002b      	movs	r3, r5
10008c2a:	46b8      	mov	r8, r7
10008c2c:	47b8      	blx	r7
10008c2e:	2800      	cmp	r0, #0
10008c30:	d115      	bne.n	10008c5e <mpu_set_sensors+0x196>
10008c32:	464a      	mov	r2, r9
10008c34:	782b      	ldrb	r3, [r5, #0]
10008c36:	4393      	bics	r3, r2
10008c38:	7323      	strb	r3, [r4, #12]
10008c3a:	2304      	movs	r3, #4
10008c3c:	702b      	strb	r3, [r5, #0]
10008c3e:	06b3      	lsls	r3, r6, #26
10008c40:	d500      	bpl.n	10008c44 <mpu_set_sensors+0x17c>
10008c42:	e76c      	b.n	10008b1e <mpu_set_sensors+0x56>
10008c44:	e767      	b.n	10008b16 <mpu_set_sensors+0x4e>
10008c46:	2338      	movs	r3, #56	; 0x38
10008c48:	782a      	ldrb	r2, [r5, #0]
10008c4a:	4313      	orrs	r3, r2
10008c4c:	702b      	strb	r3, [r5, #0]
10008c4e:	e76f      	b.n	10008b30 <mpu_set_sensors+0x68>
10008c50:	466a      	mov	r2, sp
10008c52:	1d95      	adds	r5, r2, #6
10008c54:	702b      	strb	r3, [r5, #0]
10008c56:	e747      	b.n	10008ae8 <mpu_set_sensors+0x20>
10008c58:	2501      	movs	r5, #1
10008c5a:	426d      	negs	r5, r5
10008c5c:	e7b1      	b.n	10008bc2 <mpu_set_sensors+0xfa>
10008c5e:	2300      	movs	r3, #0
10008c60:	2501      	movs	r5, #1
10008c62:	72a3      	strb	r3, [r4, #10]
10008c64:	426d      	negs	r5, r5
10008c66:	e7ac      	b.n	10008bc2 <mpu_set_sensors+0xfa>
10008c68:	100147d4 	.word	0x100147d4
10008c6c:	100080cd 	.word	0x100080cd
10008c70:	100088bd 	.word	0x100088bd
10008c74:	100081b1 	.word	0x100081b1
10008c78:	1000a59d 	.word	0x1000a59d

10008c7c <mpu_init>:
10008c7c:	b5f0      	push	{r4, r5, r6, r7, lr}
10008c7e:	464d      	mov	r5, r9
10008c80:	465f      	mov	r7, fp
10008c82:	4656      	mov	r6, sl
10008c84:	4644      	mov	r4, r8
10008c86:	2380      	movs	r3, #128	; 0x80
10008c88:	b4f0      	push	{r4, r5, r6, r7}
10008c8a:	4c9d      	ldr	r4, [pc, #628]	; (10008f00 <mpu_init+0x284>)
10008c8c:	b085      	sub	sp, #20
10008c8e:	ad02      	add	r5, sp, #8
10008c90:	702b      	strb	r3, [r5, #0]
10008c92:	6823      	ldr	r3, [r4, #0]
10008c94:	0006      	movs	r6, r0
10008c96:	7d59      	ldrb	r1, [r3, #21]
10008c98:	6863      	ldr	r3, [r4, #4]
10008c9a:	2201      	movs	r2, #1
10008c9c:	7818      	ldrb	r0, [r3, #0]
10008c9e:	4f99      	ldr	r7, [pc, #612]	; (10008f04 <mpu_init+0x288>)
10008ca0:	002b      	movs	r3, r5
10008ca2:	47b8      	blx	r7
10008ca4:	4681      	mov	r9, r0
10008ca6:	2800      	cmp	r0, #0
10008ca8:	d173      	bne.n	10008d92 <mpu_init+0x116>
10008caa:	4b97      	ldr	r3, [pc, #604]	; (10008f08 <mpu_init+0x28c>)
10008cac:	2064      	movs	r0, #100	; 0x64
10008cae:	4698      	mov	r8, r3
10008cb0:	4798      	blx	r3
10008cb2:	464b      	mov	r3, r9
10008cb4:	702b      	strb	r3, [r5, #0]
10008cb6:	6823      	ldr	r3, [r4, #0]
10008cb8:	2201      	movs	r2, #1
10008cba:	7d59      	ldrb	r1, [r3, #21]
10008cbc:	6863      	ldr	r3, [r4, #4]
10008cbe:	7818      	ldrb	r0, [r3, #0]
10008cc0:	002b      	movs	r3, r5
10008cc2:	47b8      	blx	r7
10008cc4:	2800      	cmp	r0, #0
10008cc6:	d164      	bne.n	10008d92 <mpu_init+0x116>
10008cc8:	2348      	movs	r3, #72	; 0x48
10008cca:	702b      	strb	r3, [r5, #0]
10008ccc:	6823      	ldr	r3, [r4, #0]
10008cce:	74e0      	strb	r0, [r4, #19]
10008cd0:	7a19      	ldrb	r1, [r3, #8]
10008cd2:	6863      	ldr	r3, [r4, #4]
10008cd4:	2201      	movs	r2, #1
10008cd6:	7818      	ldrb	r0, [r3, #0]
10008cd8:	002b      	movs	r3, r5
10008cda:	47b8      	blx	r7
10008cdc:	1e05      	subs	r5, r0, #0
10008cde:	d158      	bne.n	10008d92 <mpu_init+0x116>
10008ce0:	23ff      	movs	r3, #255	; 0xff
10008ce2:	72a3      	strb	r3, [r4, #10]
10008ce4:	7223      	strb	r3, [r4, #8]
10008ce6:	7263      	strb	r3, [r4, #9]
10008ce8:	72e3      	strb	r3, [r4, #11]
10008cea:	74a3      	strb	r3, [r4, #18]
10008cec:	3bfe      	subs	r3, #254	; 0xfe
10008cee:	7323      	strb	r3, [r4, #12]
10008cf0:	3321      	adds	r3, #33	; 0x21
10008cf2:	54e0      	strb	r0, [r4, r3]
10008cf4:	2201      	movs	r2, #1
10008cf6:	3301      	adds	r3, #1
10008cf8:	54e0      	strb	r0, [r4, r3]
10008cfa:	7560      	strb	r0, [r4, #21]
10008cfc:	7520      	strb	r0, [r4, #20]
10008cfe:	0020      	movs	r0, r4
10008d00:	4252      	negs	r2, r2
10008d02:	81e2      	strh	r2, [r4, #14]
10008d04:	7422      	strb	r2, [r4, #16]
10008d06:	8522      	strh	r2, [r4, #40]	; 0x28
10008d08:	4b80      	ldr	r3, [pc, #512]	; (10008f0c <mpu_init+0x290>)
10008d0a:	3016      	adds	r0, #22
10008d0c:	320d      	adds	r2, #13
10008d0e:	2100      	movs	r1, #0
10008d10:	4798      	blx	r3
10008d12:	2324      	movs	r3, #36	; 0x24
10008d14:	54e5      	strb	r5, [r4, r3]
10008d16:	3301      	adds	r3, #1
10008d18:	54e5      	strb	r5, [r4, r3]
10008d1a:	20fa      	movs	r0, #250	; 0xfa
10008d1c:	4b7c      	ldr	r3, [pc, #496]	; (10008f10 <mpu_init+0x294>)
10008d1e:	84e5      	strh	r5, [r4, #38]	; 0x26
10008d20:	4798      	blx	r3
10008d22:	2800      	cmp	r0, #0
10008d24:	d135      	bne.n	10008d92 <mpu_init+0x116>
10008d26:	3004      	adds	r0, #4
10008d28:	4b7a      	ldr	r3, [pc, #488]	; (10008f14 <mpu_init+0x298>)
10008d2a:	4798      	blx	r3
10008d2c:	2800      	cmp	r0, #0
10008d2e:	d130      	bne.n	10008d92 <mpu_init+0x116>
10008d30:	302a      	adds	r0, #42	; 0x2a
10008d32:	4b79      	ldr	r3, [pc, #484]	; (10008f18 <mpu_init+0x29c>)
10008d34:	4798      	blx	r3
10008d36:	2800      	cmp	r0, #0
10008d38:	d12b      	bne.n	10008d92 <mpu_init+0x116>
10008d3a:	3032      	adds	r0, #50	; 0x32
10008d3c:	4b77      	ldr	r3, [pc, #476]	; (10008f1c <mpu_init+0x2a0>)
10008d3e:	4798      	blx	r3
10008d40:	2800      	cmp	r0, #0
10008d42:	d126      	bne.n	10008d92 <mpu_init+0x116>
10008d44:	4b76      	ldr	r3, [pc, #472]	; (10008f20 <mpu_init+0x2a4>)
10008d46:	4798      	blx	r3
10008d48:	2800      	cmp	r0, #0
10008d4a:	d122      	bne.n	10008d92 <mpu_init+0x116>
10008d4c:	2e00      	cmp	r6, #0
10008d4e:	d001      	beq.n	10008d54 <mpu_init+0xd8>
10008d50:	4b74      	ldr	r3, [pc, #464]	; (10008f24 <mpu_init+0x2a8>)
10008d52:	4798      	blx	r3
10008d54:	4b74      	ldr	r3, [pc, #464]	; (10008f28 <mpu_init+0x2ac>)
10008d56:	2001      	movs	r0, #1
10008d58:	469b      	mov	fp, r3
10008d5a:	4798      	blx	r3
10008d5c:	4b73      	ldr	r3, [pc, #460]	; (10008f2c <mpu_init+0x2b0>)
10008d5e:	250c      	movs	r5, #12
10008d60:	4699      	mov	r9, r3
10008d62:	ae01      	add	r6, sp, #4
10008d64:	0033      	movs	r3, r6
10008d66:	2201      	movs	r2, #1
10008d68:	2100      	movs	r1, #0
10008d6a:	0028      	movs	r0, r5
10008d6c:	47c8      	blx	r9
10008d6e:	2800      	cmp	r0, #0
10008d70:	d102      	bne.n	10008d78 <mpu_init+0xfc>
10008d72:	7833      	ldrb	r3, [r6, #0]
10008d74:	2b48      	cmp	r3, #72	; 0x48
10008d76:	d016      	beq.n	10008da6 <mpu_init+0x12a>
10008d78:	3501      	adds	r5, #1
10008d7a:	b2ed      	uxtb	r5, r5
10008d7c:	2d10      	cmp	r5, #16
10008d7e:	d1f1      	bne.n	10008d64 <mpu_init+0xe8>
10008d80:	200a      	movs	r0, #10
10008d82:	4b6b      	ldr	r3, [pc, #428]	; (10008f30 <mpu_init+0x2b4>)
10008d84:	4798      	blx	r3
10008d86:	1e04      	subs	r4, r0, #0
10008d88:	d103      	bne.n	10008d92 <mpu_init+0x116>
10008d8a:	4b6a      	ldr	r3, [pc, #424]	; (10008f34 <mpu_init+0x2b8>)
10008d8c:	2000      	movs	r0, #0
10008d8e:	4798      	blx	r3
10008d90:	e001      	b.n	10008d96 <mpu_init+0x11a>
10008d92:	2401      	movs	r4, #1
10008d94:	4264      	negs	r4, r4
10008d96:	0020      	movs	r0, r4
10008d98:	b005      	add	sp, #20
10008d9a:	bc3c      	pop	{r2, r3, r4, r5}
10008d9c:	4690      	mov	r8, r2
10008d9e:	4699      	mov	r9, r3
10008da0:	46a2      	mov	sl, r4
10008da2:	46ab      	mov	fp, r5
10008da4:	bdf0      	pop	{r4, r5, r6, r7, pc}
10008da6:	232a      	movs	r3, #42	; 0x2a
10008da8:	469a      	mov	sl, r3
10008daa:	54e5      	strb	r5, [r4, r3]
10008dac:	3b1a      	subs	r3, #26
10008dae:	7033      	strb	r3, [r6, #0]
10008db0:	2201      	movs	r2, #1
10008db2:	0033      	movs	r3, r6
10008db4:	210a      	movs	r1, #10
10008db6:	0028      	movs	r0, r5
10008db8:	47b8      	blx	r7
10008dba:	2800      	cmp	r0, #0
10008dbc:	d1e0      	bne.n	10008d80 <mpu_init+0x104>
10008dbe:	2001      	movs	r0, #1
10008dc0:	47c0      	blx	r8
10008dc2:	231f      	movs	r3, #31
10008dc4:	7033      	strb	r3, [r6, #0]
10008dc6:	4653      	mov	r3, sl
10008dc8:	2201      	movs	r2, #1
10008dca:	5ce0      	ldrb	r0, [r4, r3]
10008dcc:	210a      	movs	r1, #10
10008dce:	0033      	movs	r3, r6
10008dd0:	47b8      	blx	r7
10008dd2:	2800      	cmp	r0, #0
10008dd4:	d1d4      	bne.n	10008d80 <mpu_init+0x104>
10008dd6:	3001      	adds	r0, #1
10008dd8:	47c0      	blx	r8
10008dda:	4653      	mov	r3, sl
10008ddc:	2203      	movs	r2, #3
10008dde:	5ce0      	ldrb	r0, [r4, r3]
10008de0:	2110      	movs	r1, #16
10008de2:	0033      	movs	r3, r6
10008de4:	47c8      	blx	r9
10008de6:	2800      	cmp	r0, #0
10008de8:	d1ca      	bne.n	10008d80 <mpu_init+0x104>
10008dea:	7833      	ldrb	r3, [r6, #0]
10008dec:	2201      	movs	r2, #1
10008dee:	3380      	adds	r3, #128	; 0x80
10008df0:	85a3      	strh	r3, [r4, #44]	; 0x2c
10008df2:	7873      	ldrb	r3, [r6, #1]
10008df4:	210a      	movs	r1, #10
10008df6:	3380      	adds	r3, #128	; 0x80
10008df8:	85e3      	strh	r3, [r4, #46]	; 0x2e
10008dfa:	78b3      	ldrb	r3, [r6, #2]
10008dfc:	3380      	adds	r3, #128	; 0x80
10008dfe:	8623      	strh	r3, [r4, #48]	; 0x30
10008e00:	2310      	movs	r3, #16
10008e02:	7033      	strb	r3, [r6, #0]
10008e04:	4653      	mov	r3, sl
10008e06:	5ce0      	ldrb	r0, [r4, r3]
10008e08:	0033      	movs	r3, r6
10008e0a:	47b8      	blx	r7
10008e0c:	2800      	cmp	r0, #0
10008e0e:	d1b7      	bne.n	10008d80 <mpu_init+0x104>
10008e10:	3001      	adds	r0, #1
10008e12:	47c0      	blx	r8
10008e14:	2000      	movs	r0, #0
10008e16:	47d8      	blx	fp
10008e18:	2340      	movs	r3, #64	; 0x40
10008e1a:	7033      	strb	r3, [r6, #0]
10008e1c:	6823      	ldr	r3, [r4, #0]
10008e1e:	2201      	movs	r2, #1
10008e20:	7e99      	ldrb	r1, [r3, #26]
10008e22:	6863      	ldr	r3, [r4, #4]
10008e24:	7818      	ldrb	r0, [r3, #0]
10008e26:	0033      	movs	r3, r6
10008e28:	47b8      	blx	r7
10008e2a:	2800      	cmp	r0, #0
10008e2c:	d1a8      	bne.n	10008d80 <mpu_init+0x104>
10008e2e:	4653      	mov	r3, sl
10008e30:	2280      	movs	r2, #128	; 0x80
10008e32:	5ce3      	ldrb	r3, [r4, r3]
10008e34:	4252      	negs	r2, r2
10008e36:	4313      	orrs	r3, r2
10008e38:	7033      	strb	r3, [r6, #0]
10008e3a:	6823      	ldr	r3, [r4, #0]
10008e3c:	3281      	adds	r2, #129	; 0x81
10008e3e:	7f99      	ldrb	r1, [r3, #30]
10008e40:	6863      	ldr	r3, [r4, #4]
10008e42:	7818      	ldrb	r0, [r3, #0]
10008e44:	0033      	movs	r3, r6
10008e46:	47b8      	blx	r7
10008e48:	2800      	cmp	r0, #0
10008e4a:	d199      	bne.n	10008d80 <mpu_init+0x104>
10008e4c:	2302      	movs	r3, #2
10008e4e:	7033      	strb	r3, [r6, #0]
10008e50:	6823      	ldr	r3, [r4, #0]
10008e52:	2201      	movs	r2, #1
10008e54:	7fd9      	ldrb	r1, [r3, #31]
10008e56:	6863      	ldr	r3, [r4, #4]
10008e58:	7818      	ldrb	r0, [r3, #0]
10008e5a:	0033      	movs	r3, r6
10008e5c:	47b8      	blx	r7
10008e5e:	2800      	cmp	r0, #0
10008e60:	d000      	beq.n	10008e64 <mpu_init+0x1e8>
10008e62:	e78d      	b.n	10008d80 <mpu_init+0x104>
10008e64:	2388      	movs	r3, #136	; 0x88
10008e66:	6822      	ldr	r2, [r4, #0]
10008e68:	7033      	strb	r3, [r6, #0]
10008e6a:	3b68      	subs	r3, #104	; 0x68
10008e6c:	5cd1      	ldrb	r1, [r2, r3]
10008e6e:	6863      	ldr	r3, [r4, #4]
10008e70:	2201      	movs	r2, #1
10008e72:	7818      	ldrb	r0, [r3, #0]
10008e74:	0033      	movs	r3, r6
10008e76:	47b8      	blx	r7
10008e78:	2800      	cmp	r0, #0
10008e7a:	d000      	beq.n	10008e7e <mpu_init+0x202>
10008e7c:	e780      	b.n	10008d80 <mpu_init+0x104>
10008e7e:	232a      	movs	r3, #42	; 0x2a
10008e80:	5ce3      	ldrb	r3, [r4, r3]
10008e82:	6822      	ldr	r2, [r4, #0]
10008e84:	7033      	strb	r3, [r6, #0]
10008e86:	2321      	movs	r3, #33	; 0x21
10008e88:	5cd1      	ldrb	r1, [r2, r3]
10008e8a:	6863      	ldr	r3, [r4, #4]
10008e8c:	2201      	movs	r2, #1
10008e8e:	7818      	ldrb	r0, [r3, #0]
10008e90:	0033      	movs	r3, r6
10008e92:	47b8      	blx	r7
10008e94:	2800      	cmp	r0, #0
10008e96:	d000      	beq.n	10008e9a <mpu_init+0x21e>
10008e98:	e772      	b.n	10008d80 <mpu_init+0x104>
10008e9a:	230a      	movs	r3, #10
10008e9c:	6822      	ldr	r2, [r4, #0]
10008e9e:	7033      	strb	r3, [r6, #0]
10008ea0:	3318      	adds	r3, #24
10008ea2:	5cd1      	ldrb	r1, [r2, r3]
10008ea4:	6863      	ldr	r3, [r4, #4]
10008ea6:	2201      	movs	r2, #1
10008ea8:	7818      	ldrb	r0, [r3, #0]
10008eaa:	0033      	movs	r3, r6
10008eac:	47b8      	blx	r7
10008eae:	2800      	cmp	r0, #0
10008eb0:	d000      	beq.n	10008eb4 <mpu_init+0x238>
10008eb2:	e765      	b.n	10008d80 <mpu_init+0x104>
10008eb4:	2381      	movs	r3, #129	; 0x81
10008eb6:	6822      	ldr	r2, [r4, #0]
10008eb8:	7033      	strb	r3, [r6, #0]
10008eba:	3b5e      	subs	r3, #94	; 0x5e
10008ebc:	5cd1      	ldrb	r1, [r2, r3]
10008ebe:	6863      	ldr	r3, [r4, #4]
10008ec0:	2201      	movs	r2, #1
10008ec2:	7818      	ldrb	r0, [r3, #0]
10008ec4:	0033      	movs	r3, r6
10008ec6:	47b8      	blx	r7
10008ec8:	2800      	cmp	r0, #0
10008eca:	d000      	beq.n	10008ece <mpu_init+0x252>
10008ecc:	e758      	b.n	10008d80 <mpu_init+0x104>
10008ece:	2311      	movs	r3, #17
10008ed0:	6822      	ldr	r2, [r4, #0]
10008ed2:	7033      	strb	r3, [r6, #0]
10008ed4:	3315      	adds	r3, #21
10008ed6:	5cd1      	ldrb	r1, [r2, r3]
10008ed8:	6863      	ldr	r3, [r4, #4]
10008eda:	2201      	movs	r2, #1
10008edc:	7818      	ldrb	r0, [r3, #0]
10008ede:	0033      	movs	r3, r6
10008ee0:	47b8      	blx	r7
10008ee2:	2800      	cmp	r0, #0
10008ee4:	d000      	beq.n	10008ee8 <mpu_init+0x26c>
10008ee6:	e74b      	b.n	10008d80 <mpu_init+0x104>
10008ee8:	2303      	movs	r3, #3
10008eea:	6822      	ldr	r2, [r4, #0]
10008eec:	7033      	strb	r3, [r6, #0]
10008eee:	3324      	adds	r3, #36	; 0x24
10008ef0:	5cd1      	ldrb	r1, [r2, r3]
10008ef2:	6863      	ldr	r3, [r4, #4]
10008ef4:	2201      	movs	r2, #1
10008ef6:	7818      	ldrb	r0, [r3, #0]
10008ef8:	0033      	movs	r3, r6
10008efa:	47b8      	blx	r7
10008efc:	e740      	b.n	10008d80 <mpu_init+0x104>
10008efe:	46c0      	nop			; (mov r8, r8)
10008f00:	100147d4 	.word	0x100147d4
10008f04:	100080cd 	.word	0x100080cd
10008f08:	1000a59d 	.word	0x1000a59d
10008f0c:	10012ff5 	.word	0x10012ff5
10008f10:	10008445 	.word	0x10008445
10008f14:	10008519 	.word	0x10008519
10008f18:	10008599 	.word	0x10008599
10008f1c:	100089fd 	.word	0x100089fd
10008f20:	10008691 	.word	0x10008691
10008f24:	10009a65 	.word	0x10009a65
10008f28:	100087d1 	.word	0x100087d1
10008f2c:	100081b1 	.word	0x100081b1
10008f30:	1000862d 	.word	0x1000862d
10008f34:	10008ac9 	.word	0x10008ac9

10008f38 <mpu_write_mem>:
10008f38:	b5f0      	push	{r4, r5, r6, r7, lr}
10008f3a:	000d      	movs	r5, r1
10008f3c:	b083      	sub	sp, #12
10008f3e:	1e16      	subs	r6, r2, #0
10008f40:	d021      	beq.n	10008f86 <mpu_write_mem+0x4e>
10008f42:	4c12      	ldr	r4, [pc, #72]	; (10008f8c <mpu_write_mem+0x54>)
10008f44:	7aa3      	ldrb	r3, [r4, #10]
10008f46:	2b00      	cmp	r3, #0
10008f48:	d01d      	beq.n	10008f86 <mpu_write_mem+0x4e>
10008f4a:	0a02      	lsrs	r2, r0, #8
10008f4c:	ab01      	add	r3, sp, #4
10008f4e:	701a      	strb	r2, [r3, #0]
10008f50:	b2c0      	uxtb	r0, r0
10008f52:	6862      	ldr	r2, [r4, #4]
10008f54:	7058      	strb	r0, [r3, #1]
10008f56:	1840      	adds	r0, r0, r1
10008f58:	8951      	ldrh	r1, [r2, #10]
10008f5a:	4288      	cmp	r0, r1
10008f5c:	dc13      	bgt.n	10008f86 <mpu_write_mem+0x4e>
10008f5e:	6821      	ldr	r1, [r4, #0]
10008f60:	7810      	ldrb	r0, [r2, #0]
10008f62:	7ec9      	ldrb	r1, [r1, #27]
10008f64:	2202      	movs	r2, #2
10008f66:	4f0a      	ldr	r7, [pc, #40]	; (10008f90 <mpu_write_mem+0x58>)
10008f68:	47b8      	blx	r7
10008f6a:	2800      	cmp	r0, #0
10008f6c:	d10b      	bne.n	10008f86 <mpu_write_mem+0x4e>
10008f6e:	6823      	ldr	r3, [r4, #0]
10008f70:	b2ea      	uxtb	r2, r5
10008f72:	7e19      	ldrb	r1, [r3, #24]
10008f74:	6863      	ldr	r3, [r4, #4]
10008f76:	7818      	ldrb	r0, [r3, #0]
10008f78:	0033      	movs	r3, r6
10008f7a:	47b8      	blx	r7
10008f7c:	1e43      	subs	r3, r0, #1
10008f7e:	4198      	sbcs	r0, r3
10008f80:	4240      	negs	r0, r0
10008f82:	b003      	add	sp, #12
10008f84:	bdf0      	pop	{r4, r5, r6, r7, pc}
10008f86:	2001      	movs	r0, #1
10008f88:	4240      	negs	r0, r0
10008f8a:	e7fa      	b.n	10008f82 <mpu_write_mem+0x4a>
10008f8c:	100147d4 	.word	0x100147d4
10008f90:	100080cd 	.word	0x100080cd

10008f94 <mpu_set_dmp_state>:
10008f94:	b5f0      	push	{r4, r5, r6, r7, lr}
10008f96:	2624      	movs	r6, #36	; 0x24
10008f98:	4c1c      	ldr	r4, [pc, #112]	; (1000900c <mpu_set_dmp_state+0x78>)
10008f9a:	b083      	sub	sp, #12
10008f9c:	5da3      	ldrb	r3, [r4, r6]
10008f9e:	0005      	movs	r5, r0
10008fa0:	4283      	cmp	r3, r0
10008fa2:	d005      	beq.n	10008fb0 <mpu_set_dmp_state+0x1c>
10008fa4:	2800      	cmp	r0, #0
10008fa6:	d006      	beq.n	10008fb6 <mpu_set_dmp_state+0x22>
10008fa8:	2325      	movs	r3, #37	; 0x25
10008faa:	5ce3      	ldrb	r3, [r4, r3]
10008fac:	2b00      	cmp	r3, #0
10008fae:	d113      	bne.n	10008fd8 <mpu_set_dmp_state+0x44>
10008fb0:	2000      	movs	r0, #0
10008fb2:	b003      	add	sp, #12
10008fb4:	bdf0      	pop	{r4, r5, r6, r7, pc}
10008fb6:	4b16      	ldr	r3, [pc, #88]	; (10009010 <mpu_set_dmp_state+0x7c>)
10008fb8:	2000      	movs	r0, #0
10008fba:	4798      	blx	r3
10008fbc:	466b      	mov	r3, sp
10008fbe:	7c22      	ldrb	r2, [r4, #16]
10008fc0:	3307      	adds	r3, #7
10008fc2:	701a      	strb	r2, [r3, #0]
10008fc4:	6862      	ldr	r2, [r4, #4]
10008fc6:	2123      	movs	r1, #35	; 0x23
10008fc8:	7810      	ldrb	r0, [r2, #0]
10008fca:	4f12      	ldr	r7, [pc, #72]	; (10009014 <mpu_set_dmp_state+0x80>)
10008fcc:	2201      	movs	r2, #1
10008fce:	47b8      	blx	r7
10008fd0:	4b11      	ldr	r3, [pc, #68]	; (10009018 <mpu_set_dmp_state+0x84>)
10008fd2:	55a5      	strb	r5, [r4, r6]
10008fd4:	4798      	blx	r3
10008fd6:	e7eb      	b.n	10008fb0 <mpu_set_dmp_state+0x1c>
10008fd8:	4d0d      	ldr	r5, [pc, #52]	; (10009010 <mpu_set_dmp_state+0x7c>)
10008fda:	2000      	movs	r0, #0
10008fdc:	47a8      	blx	r5
10008fde:	4b0f      	ldr	r3, [pc, #60]	; (1000901c <mpu_set_dmp_state+0x88>)
10008fe0:	2000      	movs	r0, #0
10008fe2:	4798      	blx	r3
10008fe4:	8ce0      	ldrh	r0, [r4, #38]	; 0x26
10008fe6:	4b0e      	ldr	r3, [pc, #56]	; (10009020 <mpu_set_dmp_state+0x8c>)
10008fe8:	4798      	blx	r3
10008fea:	466b      	mov	r3, sp
10008fec:	2200      	movs	r2, #0
10008fee:	3307      	adds	r3, #7
10008ff0:	701a      	strb	r2, [r3, #0]
10008ff2:	6862      	ldr	r2, [r4, #4]
10008ff4:	2123      	movs	r1, #35	; 0x23
10008ff6:	7810      	ldrb	r0, [r2, #0]
10008ff8:	4f06      	ldr	r7, [pc, #24]	; (10009014 <mpu_set_dmp_state+0x80>)
10008ffa:	2201      	movs	r2, #1
10008ffc:	47b8      	blx	r7
10008ffe:	2301      	movs	r3, #1
10009000:	2001      	movs	r0, #1
10009002:	55a3      	strb	r3, [r4, r6]
10009004:	47a8      	blx	r5
10009006:	4b04      	ldr	r3, [pc, #16]	; (10009018 <mpu_set_dmp_state+0x84>)
10009008:	4798      	blx	r3
1000900a:	e7d1      	b.n	10008fb0 <mpu_set_dmp_state+0x1c>
1000900c:	100147d4 	.word	0x100147d4
10009010:	10008145 	.word	0x10008145
10009014:	100080cd 	.word	0x100080cd
10009018:	100082a5 	.word	0x100082a5
1000901c:	100087d1 	.word	0x100087d1
10009020:	100089fd 	.word	0x100089fd

10009024 <dmp_enable_gyro_cal.part.0>:
10009024:	b500      	push	{lr}
10009026:	b085      	sub	sp, #20
10009028:	2209      	movs	r2, #9
1000902a:	4906      	ldr	r1, [pc, #24]	; (10009044 <dmp_enable_gyro_cal.part.0+0x20>)
1000902c:	a801      	add	r0, sp, #4
1000902e:	4b06      	ldr	r3, [pc, #24]	; (10009048 <dmp_enable_gyro_cal.part.0+0x24>)
10009030:	4798      	blx	r3
10009032:	2097      	movs	r0, #151	; 0x97
10009034:	aa01      	add	r2, sp, #4
10009036:	2109      	movs	r1, #9
10009038:	4b04      	ldr	r3, [pc, #16]	; (1000904c <dmp_enable_gyro_cal.part.0+0x28>)
1000903a:	00c0      	lsls	r0, r0, #3
1000903c:	4798      	blx	r3
1000903e:	b005      	add	sp, #20
10009040:	bd00      	pop	{pc}
10009042:	46c0      	nop			; (mov r8, r8)
10009044:	100140bc 	.word	0x100140bc
10009048:	10012fe3 	.word	0x10012fe3
1000904c:	10008f39 	.word	0x10008f39

10009050 <dmp_set_tap_thresh>:
10009050:	b5f0      	push	{r4, r5, r6, r7, lr}
10009052:	4647      	mov	r7, r8
10009054:	b480      	push	{r7}
10009056:	0005      	movs	r5, r0
10009058:	b082      	sub	sp, #8
1000905a:	0743      	lsls	r3, r0, #29
1000905c:	d067      	beq.n	1000912e <dmp_set_tap_thresh+0xde>
1000905e:	23c8      	movs	r3, #200	; 0xc8
10009060:	00db      	lsls	r3, r3, #3
10009062:	4299      	cmp	r1, r3
10009064:	d863      	bhi.n	1000912e <dmp_set_tap_thresh+0xde>
10009066:	4b4c      	ldr	r3, [pc, #304]	; (10009198 <dmp_set_tap_thresh+0x148>)
10009068:	0008      	movs	r0, r1
1000906a:	4798      	blx	r3
1000906c:	4b4b      	ldr	r3, [pc, #300]	; (1000919c <dmp_set_tap_thresh+0x14c>)
1000906e:	494c      	ldr	r1, [pc, #304]	; (100091a0 <dmp_set_tap_thresh+0x150>)
10009070:	4798      	blx	r3
10009072:	466b      	mov	r3, sp
10009074:	1cdc      	adds	r4, r3, #3
10009076:	1c07      	adds	r7, r0, #0
10009078:	4b4a      	ldr	r3, [pc, #296]	; (100091a4 <dmp_set_tap_thresh+0x154>)
1000907a:	0020      	movs	r0, r4
1000907c:	4798      	blx	r3
1000907e:	7823      	ldrb	r3, [r4, #0]
10009080:	2b04      	cmp	r3, #4
10009082:	d100      	bne.n	10009086 <dmp_set_tap_thresh+0x36>
10009084:	e079      	b.n	1000917a <dmp_set_tap_thresh+0x12a>
10009086:	d931      	bls.n	100090ec <dmp_set_tap_thresh+0x9c>
10009088:	2b08      	cmp	r3, #8
1000908a:	d067      	beq.n	1000915c <dmp_set_tap_thresh+0x10c>
1000908c:	2b10      	cmp	r3, #16
1000908e:	d14e      	bne.n	1000912e <dmp_set_tap_thresh+0xde>
10009090:	218a      	movs	r1, #138	; 0x8a
10009092:	4b45      	ldr	r3, [pc, #276]	; (100091a8 <dmp_set_tap_thresh+0x158>)
10009094:	05c9      	lsls	r1, r1, #23
10009096:	1c38      	adds	r0, r7, #0
10009098:	4698      	mov	r8, r3
1000909a:	4798      	blx	r3
1000909c:	4c43      	ldr	r4, [pc, #268]	; (100091ac <dmp_set_tap_thresh+0x15c>)
1000909e:	47a0      	blx	r4
100090a0:	4943      	ldr	r1, [pc, #268]	; (100091b0 <dmp_set_tap_thresh+0x160>)
100090a2:	b286      	uxth	r6, r0
100090a4:	1c38      	adds	r0, r7, #0
100090a6:	47c0      	blx	r8
100090a8:	47a0      	blx	r4
100090aa:	b280      	uxth	r0, r0
100090ac:	ac01      	add	r4, sp, #4
100090ae:	0a33      	lsrs	r3, r6, #8
100090b0:	7023      	strb	r3, [r4, #0]
100090b2:	0a03      	lsrs	r3, r0, #8
100090b4:	7066      	strb	r6, [r4, #1]
100090b6:	70a3      	strb	r3, [r4, #2]
100090b8:	70e0      	strb	r0, [r4, #3]
100090ba:	07eb      	lsls	r3, r5, #31
100090bc:	d427      	bmi.n	1000910e <dmp_set_tap_thresh+0xbe>
100090be:	07ab      	lsls	r3, r5, #30
100090c0:	d43b      	bmi.n	1000913a <dmp_set_tap_thresh+0xea>
100090c2:	2000      	movs	r0, #0
100090c4:	076b      	lsls	r3, r5, #29
100090c6:	d534      	bpl.n	10009132 <dmp_set_tap_thresh+0xe2>
100090c8:	20ee      	movs	r0, #238	; 0xee
100090ca:	0022      	movs	r2, r4
100090cc:	2102      	movs	r1, #2
100090ce:	0040      	lsls	r0, r0, #1
100090d0:	4c38      	ldr	r4, [pc, #224]	; (100091b4 <dmp_set_tap_thresh+0x164>)
100090d2:	47a0      	blx	r4
100090d4:	2800      	cmp	r0, #0
100090d6:	d12a      	bne.n	1000912e <dmp_set_tap_thresh+0xde>
100090d8:	466b      	mov	r3, sp
100090da:	302d      	adds	r0, #45	; 0x2d
100090dc:	1d9a      	adds	r2, r3, #6
100090de:	2102      	movs	r1, #2
100090e0:	30ff      	adds	r0, #255	; 0xff
100090e2:	47a0      	blx	r4
100090e4:	1e43      	subs	r3, r0, #1
100090e6:	4198      	sbcs	r0, r3
100090e8:	4240      	negs	r0, r0
100090ea:	e022      	b.n	10009132 <dmp_set_tap_thresh+0xe2>
100090ec:	2b02      	cmp	r3, #2
100090ee:	d11e      	bne.n	1000912e <dmp_set_tap_thresh+0xde>
100090f0:	218d      	movs	r1, #141	; 0x8d
100090f2:	4b2d      	ldr	r3, [pc, #180]	; (100091a8 <dmp_set_tap_thresh+0x158>)
100090f4:	05c9      	lsls	r1, r1, #23
100090f6:	1c38      	adds	r0, r7, #0
100090f8:	4698      	mov	r8, r3
100090fa:	4798      	blx	r3
100090fc:	4c2b      	ldr	r4, [pc, #172]	; (100091ac <dmp_set_tap_thresh+0x15c>)
100090fe:	47a0      	blx	r4
10009100:	492d      	ldr	r1, [pc, #180]	; (100091b8 <dmp_set_tap_thresh+0x168>)
10009102:	b286      	uxth	r6, r0
10009104:	1c38      	adds	r0, r7, #0
10009106:	47c0      	blx	r8
10009108:	47a0      	blx	r4
1000910a:	b280      	uxth	r0, r0
1000910c:	e7ce      	b.n	100090ac <dmp_set_tap_thresh+0x5c>
1000910e:	20ea      	movs	r0, #234	; 0xea
10009110:	0022      	movs	r2, r4
10009112:	2102      	movs	r1, #2
10009114:	0040      	lsls	r0, r0, #1
10009116:	4e27      	ldr	r6, [pc, #156]	; (100091b4 <dmp_set_tap_thresh+0x164>)
10009118:	47b0      	blx	r6
1000911a:	2800      	cmp	r0, #0
1000911c:	d107      	bne.n	1000912e <dmp_set_tap_thresh+0xde>
1000911e:	466b      	mov	r3, sp
10009120:	3025      	adds	r0, #37	; 0x25
10009122:	1d9a      	adds	r2, r3, #6
10009124:	2102      	movs	r1, #2
10009126:	30ff      	adds	r0, #255	; 0xff
10009128:	47b0      	blx	r6
1000912a:	2800      	cmp	r0, #0
1000912c:	d0c7      	beq.n	100090be <dmp_set_tap_thresh+0x6e>
1000912e:	2001      	movs	r0, #1
10009130:	4240      	negs	r0, r0
10009132:	b002      	add	sp, #8
10009134:	bc04      	pop	{r2}
10009136:	4690      	mov	r8, r2
10009138:	bdf0      	pop	{r4, r5, r6, r7, pc}
1000913a:	20ec      	movs	r0, #236	; 0xec
1000913c:	0022      	movs	r2, r4
1000913e:	2102      	movs	r1, #2
10009140:	0040      	lsls	r0, r0, #1
10009142:	4e1c      	ldr	r6, [pc, #112]	; (100091b4 <dmp_set_tap_thresh+0x164>)
10009144:	47b0      	blx	r6
10009146:	2800      	cmp	r0, #0
10009148:	d1f1      	bne.n	1000912e <dmp_set_tap_thresh+0xde>
1000914a:	466b      	mov	r3, sp
1000914c:	3029      	adds	r0, #41	; 0x29
1000914e:	1d9a      	adds	r2, r3, #6
10009150:	2102      	movs	r1, #2
10009152:	30ff      	adds	r0, #255	; 0xff
10009154:	47b0      	blx	r6
10009156:	2800      	cmp	r0, #0
10009158:	d0b3      	beq.n	100090c2 <dmp_set_tap_thresh+0x72>
1000915a:	e7e8      	b.n	1000912e <dmp_set_tap_thresh+0xde>
1000915c:	218b      	movs	r1, #139	; 0x8b
1000915e:	4b12      	ldr	r3, [pc, #72]	; (100091a8 <dmp_set_tap_thresh+0x158>)
10009160:	05c9      	lsls	r1, r1, #23
10009162:	1c38      	adds	r0, r7, #0
10009164:	4698      	mov	r8, r3
10009166:	4798      	blx	r3
10009168:	4c10      	ldr	r4, [pc, #64]	; (100091ac <dmp_set_tap_thresh+0x15c>)
1000916a:	47a0      	blx	r4
1000916c:	4913      	ldr	r1, [pc, #76]	; (100091bc <dmp_set_tap_thresh+0x16c>)
1000916e:	b286      	uxth	r6, r0
10009170:	1c38      	adds	r0, r7, #0
10009172:	47c0      	blx	r8
10009174:	47a0      	blx	r4
10009176:	b280      	uxth	r0, r0
10009178:	e798      	b.n	100090ac <dmp_set_tap_thresh+0x5c>
1000917a:	218c      	movs	r1, #140	; 0x8c
1000917c:	4b0a      	ldr	r3, [pc, #40]	; (100091a8 <dmp_set_tap_thresh+0x158>)
1000917e:	05c9      	lsls	r1, r1, #23
10009180:	1c38      	adds	r0, r7, #0
10009182:	4698      	mov	r8, r3
10009184:	4798      	blx	r3
10009186:	4c09      	ldr	r4, [pc, #36]	; (100091ac <dmp_set_tap_thresh+0x15c>)
10009188:	47a0      	blx	r4
1000918a:	490d      	ldr	r1, [pc, #52]	; (100091c0 <dmp_set_tap_thresh+0x170>)
1000918c:	b286      	uxth	r6, r0
1000918e:	1c38      	adds	r0, r7, #0
10009190:	47c0      	blx	r8
10009192:	47a0      	blx	r4
10009194:	b280      	uxth	r0, r0
10009196:	e789      	b.n	100090ac <dmp_set_tap_thresh+0x5c>
10009198:	10012019 	.word	0x10012019
1000919c:	1001170d 	.word	0x1001170d
100091a0:	43480000 	.word	0x43480000
100091a4:	100084d1 	.word	0x100084d1
100091a8:	10011aa1 	.word	0x10011aa1
100091ac:	100116a1 	.word	0x100116a1
100091b0:	44c00000 	.word	0x44c00000
100091b4:	10008f39 	.word	0x10008f39
100091b8:	46400000 	.word	0x46400000
100091bc:	45400000 	.word	0x45400000
100091c0:	45c00000 	.word	0x45c00000

100091c4 <dmp_set_tap_axes>:
100091c4:	2301      	movs	r3, #1
100091c6:	b500      	push	{lr}
100091c8:	4003      	ands	r3, r0
100091ca:	b083      	sub	sp, #12
100091cc:	2b00      	cmp	r3, #0
100091ce:	d115      	bne.n	100091fc <dmp_set_tap_axes+0x38>
100091d0:	466a      	mov	r2, sp
100091d2:	3207      	adds	r2, #7
100091d4:	7013      	strb	r3, [r2, #0]
100091d6:	0783      	lsls	r3, r0, #30
100091d8:	d503      	bpl.n	100091e2 <dmp_set_tap_axes+0x1e>
100091da:	230c      	movs	r3, #12
100091dc:	7811      	ldrb	r1, [r2, #0]
100091de:	430b      	orrs	r3, r1
100091e0:	7013      	strb	r3, [r2, #0]
100091e2:	0743      	lsls	r3, r0, #29
100091e4:	d503      	bpl.n	100091ee <dmp_set_tap_axes+0x2a>
100091e6:	2303      	movs	r3, #3
100091e8:	7811      	ldrb	r1, [r2, #0]
100091ea:	430b      	orrs	r3, r1
100091ec:	7013      	strb	r3, [r2, #0]
100091ee:	20a4      	movs	r0, #164	; 0xa4
100091f0:	2101      	movs	r1, #1
100091f2:	4b05      	ldr	r3, [pc, #20]	; (10009208 <dmp_set_tap_axes+0x44>)
100091f4:	0040      	lsls	r0, r0, #1
100091f6:	4798      	blx	r3
100091f8:	b003      	add	sp, #12
100091fa:	bd00      	pop	{pc}
100091fc:	466b      	mov	r3, sp
100091fe:	1dda      	adds	r2, r3, #7
10009200:	2330      	movs	r3, #48	; 0x30
10009202:	7013      	strb	r3, [r2, #0]
10009204:	e7e7      	b.n	100091d6 <dmp_set_tap_axes+0x12>
10009206:	46c0      	nop			; (mov r8, r8)
10009208:	10008f39 	.word	0x10008f39

1000920c <dmp_enable_gyro_cal>:
1000920c:	b500      	push	{lr}
1000920e:	b085      	sub	sp, #20
10009210:	2800      	cmp	r0, #0
10009212:	d10d      	bne.n	10009230 <dmp_enable_gyro_cal+0x24>
10009214:	4908      	ldr	r1, [pc, #32]	; (10009238 <dmp_enable_gyro_cal+0x2c>)
10009216:	2209      	movs	r2, #9
10009218:	3128      	adds	r1, #40	; 0x28
1000921a:	4b08      	ldr	r3, [pc, #32]	; (1000923c <dmp_enable_gyro_cal+0x30>)
1000921c:	a801      	add	r0, sp, #4
1000921e:	4798      	blx	r3
10009220:	2097      	movs	r0, #151	; 0x97
10009222:	aa01      	add	r2, sp, #4
10009224:	2109      	movs	r1, #9
10009226:	00c0      	lsls	r0, r0, #3
10009228:	4b05      	ldr	r3, [pc, #20]	; (10009240 <dmp_enable_gyro_cal+0x34>)
1000922a:	4798      	blx	r3
1000922c:	b005      	add	sp, #20
1000922e:	bd00      	pop	{pc}
10009230:	4b04      	ldr	r3, [pc, #16]	; (10009244 <dmp_enable_gyro_cal+0x38>)
10009232:	4798      	blx	r3
10009234:	e7fa      	b.n	1000922c <dmp_enable_gyro_cal+0x20>
10009236:	46c0      	nop			; (mov r8, r8)
10009238:	100140bc 	.word	0x100140bc
1000923c:	10012fe3 	.word	0x10012fe3
10009240:	10008f39 	.word	0x10008f39
10009244:	10009025 	.word	0x10009025

10009248 <dmp_enable_lp_quat>:
10009248:	b500      	push	{lr}
1000924a:	b083      	sub	sp, #12
1000924c:	2800      	cmp	r0, #0
1000924e:	d010      	beq.n	10009272 <dmp_enable_lp_quat+0x2a>
10009250:	23c0      	movs	r3, #192	; 0xc0
10009252:	aa01      	add	r2, sp, #4
10009254:	7013      	strb	r3, [r2, #0]
10009256:	3302      	adds	r3, #2
10009258:	7053      	strb	r3, [r2, #1]
1000925a:	3302      	adds	r3, #2
1000925c:	7093      	strb	r3, [r2, #2]
1000925e:	3302      	adds	r3, #2
10009260:	70d3      	strb	r3, [r2, #3]
10009262:	2104      	movs	r1, #4
10009264:	4b05      	ldr	r3, [pc, #20]	; (1000927c <dmp_enable_lp_quat+0x34>)
10009266:	4806      	ldr	r0, [pc, #24]	; (10009280 <dmp_enable_lp_quat+0x38>)
10009268:	4798      	blx	r3
1000926a:	4b06      	ldr	r3, [pc, #24]	; (10009284 <dmp_enable_lp_quat+0x3c>)
1000926c:	4798      	blx	r3
1000926e:	b003      	add	sp, #12
10009270:	bd00      	pop	{pc}
10009272:	4b05      	ldr	r3, [pc, #20]	; (10009288 <dmp_enable_lp_quat+0x40>)
10009274:	aa01      	add	r2, sp, #4
10009276:	9301      	str	r3, [sp, #4]
10009278:	e7f3      	b.n	10009262 <dmp_enable_lp_quat+0x1a>
1000927a:	46c0      	nop			; (mov r8, r8)
1000927c:	10008f39 	.word	0x10008f39
10009280:	00000a98 	.word	0x00000a98
10009284:	100082a5 	.word	0x100082a5
10009288:	8b8b8b8b 	.word	0x8b8b8b8b

1000928c <dmp_enable_6x_lp_quat>:
1000928c:	b500      	push	{lr}
1000928e:	b083      	sub	sp, #12
10009290:	2800      	cmp	r0, #0
10009292:	d010      	beq.n	100092b6 <dmp_enable_6x_lp_quat+0x2a>
10009294:	2320      	movs	r3, #32
10009296:	aa01      	add	r2, sp, #4
10009298:	7013      	strb	r3, [r2, #0]
1000929a:	3308      	adds	r3, #8
1000929c:	7053      	strb	r3, [r2, #1]
1000929e:	3308      	adds	r3, #8
100092a0:	7093      	strb	r3, [r2, #2]
100092a2:	3308      	adds	r3, #8
100092a4:	70d3      	strb	r3, [r2, #3]
100092a6:	2104      	movs	r1, #4
100092a8:	4b05      	ldr	r3, [pc, #20]	; (100092c0 <dmp_enable_6x_lp_quat+0x34>)
100092aa:	4806      	ldr	r0, [pc, #24]	; (100092c4 <dmp_enable_6x_lp_quat+0x38>)
100092ac:	4798      	blx	r3
100092ae:	4b06      	ldr	r3, [pc, #24]	; (100092c8 <dmp_enable_6x_lp_quat+0x3c>)
100092b0:	4798      	blx	r3
100092b2:	b003      	add	sp, #12
100092b4:	bd00      	pop	{pc}
100092b6:	4b05      	ldr	r3, [pc, #20]	; (100092cc <dmp_enable_6x_lp_quat+0x40>)
100092b8:	aa01      	add	r2, sp, #4
100092ba:	9301      	str	r3, [sp, #4]
100092bc:	e7f3      	b.n	100092a6 <dmp_enable_6x_lp_quat+0x1a>
100092be:	46c0      	nop			; (mov r8, r8)
100092c0:	10008f39 	.word	0x10008f39
100092c4:	00000a9e 	.word	0x00000a9e
100092c8:	100082a5 	.word	0x100082a5
100092cc:	a3a3a3a3 	.word	0xa3a3a3a3

100092d0 <dmp_enable_feature>:
100092d0:	b5f0      	push	{r4, r5, r6, r7, lr}
100092d2:	4645      	mov	r5, r8
100092d4:	464e      	mov	r6, r9
100092d6:	4657      	mov	r7, sl
100092d8:	2302      	movs	r3, #2
100092da:	b4e0      	push	{r5, r6, r7}
100092dc:	b084      	sub	sp, #16
100092de:	ac01      	add	r4, sp, #4
100092e0:	7023      	strb	r3, [r4, #0]
100092e2:	33c8      	adds	r3, #200	; 0xc8
100092e4:	7063      	strb	r3, [r4, #1]
100092e6:	3319      	adds	r3, #25
100092e8:	0005      	movs	r5, r0
100092ea:	70a3      	strb	r3, [r4, #2]
100092ec:	0022      	movs	r2, r4
100092ee:	3bda      	subs	r3, #218	; 0xda
100092f0:	2104      	movs	r1, #4
100092f2:	2068      	movs	r0, #104	; 0x68
100092f4:	4e7c      	ldr	r6, [pc, #496]	; (100094e8 <dmp_enable_feature+0x218>)
100092f6:	70e3      	strb	r3, [r4, #3]
100092f8:	47b0      	blx	r6
100092fa:	2240      	movs	r2, #64	; 0x40
100092fc:	23a3      	movs	r3, #163	; 0xa3
100092fe:	402a      	ands	r2, r5
10009300:	7023      	strb	r3, [r4, #0]
10009302:	4690      	mov	r8, r2
10009304:	d100      	bne.n	10009308 <dmp_enable_feature+0x38>
10009306:	e0e1      	b.n	100094cc <dmp_enable_feature+0x1fc>
10009308:	331d      	adds	r3, #29
1000930a:	7063      	strb	r3, [r4, #1]
1000930c:	3308      	adds	r3, #8
1000930e:	70a3      	strb	r3, [r4, #2]
10009310:	3b06      	subs	r3, #6
10009312:	70e3      	strb	r3, [r4, #3]
10009314:	27c0      	movs	r7, #192	; 0xc0
10009316:	007f      	lsls	r7, r7, #1
10009318:	402f      	ands	r7, r5
1000931a:	d100      	bne.n	1000931e <dmp_enable_feature+0x4e>
1000931c:	e0d1      	b.n	100094c2 <dmp_enable_feature+0x1f2>
1000931e:	23c4      	movs	r3, #196	; 0xc4
10009320:	7123      	strb	r3, [r4, #4]
10009322:	3308      	adds	r3, #8
10009324:	7163      	strb	r3, [r4, #5]
10009326:	3b06      	subs	r3, #6
10009328:	71a3      	strb	r3, [r4, #6]
1000932a:	23a3      	movs	r3, #163	; 0xa3
1000932c:	0022      	movs	r2, r4
1000932e:	210a      	movs	r1, #10
10009330:	486e      	ldr	r0, [pc, #440]	; (100094ec <dmp_enable_feature+0x21c>)
10009332:	71e3      	strb	r3, [r4, #7]
10009334:	7223      	strb	r3, [r4, #8]
10009336:	7263      	strb	r3, [r4, #9]
10009338:	47b0      	blx	r6
1000933a:	2303      	movs	r3, #3
1000933c:	402b      	ands	r3, r5
1000933e:	4699      	mov	r9, r3
10009340:	d100      	bne.n	10009344 <dmp_enable_feature+0x74>
10009342:	e0bb      	b.n	100094bc <dmp_enable_feature+0x1ec>
10009344:	2320      	movs	r3, #32
10009346:	7023      	strb	r3, [r4, #0]
10009348:	0022      	movs	r2, r4
1000934a:	2101      	movs	r1, #1
1000934c:	4868      	ldr	r0, [pc, #416]	; (100094f0 <dmp_enable_feature+0x220>)
1000934e:	47b0      	blx	r6
10009350:	06ab      	lsls	r3, r5, #26
10009352:	d400      	bmi.n	10009356 <dmp_enable_feature+0x86>
10009354:	e0ae      	b.n	100094b4 <dmp_enable_feature+0x1e4>
10009356:	4b67      	ldr	r3, [pc, #412]	; (100094f4 <dmp_enable_feature+0x224>)
10009358:	4798      	blx	r3
1000935a:	2f00      	cmp	r7, #0
1000935c:	d00e      	beq.n	1000937c <dmp_enable_feature+0xac>
1000935e:	05eb      	lsls	r3, r5, #23
10009360:	d500      	bpl.n	10009364 <dmp_enable_feature+0x94>
10009362:	e0b7      	b.n	100094d4 <dmp_enable_feature+0x204>
10009364:	23b0      	movs	r3, #176	; 0xb0
10009366:	7023      	strb	r3, [r4, #0]
10009368:	3b30      	subs	r3, #48	; 0x30
1000936a:	7063      	strb	r3, [r4, #1]
1000936c:	3334      	adds	r3, #52	; 0x34
1000936e:	70a3      	strb	r3, [r4, #2]
10009370:	3b24      	subs	r3, #36	; 0x24
10009372:	70e3      	strb	r3, [r4, #3]
10009374:	0022      	movs	r2, r4
10009376:	2104      	movs	r1, #4
10009378:	485f      	ldr	r0, [pc, #380]	; (100094f8 <dmp_enable_feature+0x228>)
1000937a:	47b0      	blx	r6
1000937c:	07eb      	lsls	r3, r5, #31
1000937e:	d400      	bmi.n	10009382 <dmp_enable_feature+0xb2>
10009380:	e090      	b.n	100094a4 <dmp_enable_feature+0x1d4>
10009382:	208b      	movs	r0, #139	; 0x8b
10009384:	23f8      	movs	r3, #248	; 0xf8
10009386:	0022      	movs	r2, r4
10009388:	2101      	movs	r1, #1
1000938a:	0100      	lsls	r0, r0, #4
1000938c:	7023      	strb	r3, [r4, #0]
1000938e:	47b0      	blx	r6
10009390:	21fa      	movs	r1, #250	; 0xfa
10009392:	4b5a      	ldr	r3, [pc, #360]	; (100094fc <dmp_enable_feature+0x22c>)
10009394:	2007      	movs	r0, #7
10009396:	4798      	blx	r3
10009398:	4b59      	ldr	r3, [pc, #356]	; (10009500 <dmp_enable_feature+0x230>)
1000939a:	2007      	movs	r0, #7
1000939c:	4798      	blx	r3
1000939e:	2300      	movs	r3, #0
100093a0:	469a      	mov	sl, r3
100093a2:	2050      	movs	r0, #80	; 0x50
100093a4:	466b      	mov	r3, sp
100093a6:	4652      	mov	r2, sl
100093a8:	2101      	movs	r1, #1
100093aa:	701a      	strb	r2, [r3, #0]
100093ac:	30ff      	adds	r0, #255	; 0xff
100093ae:	466a      	mov	r2, sp
100093b0:	47b0      	blx	r6
100093b2:	466b      	mov	r3, sp
100093b4:	4652      	mov	r2, sl
100093b6:	20ef      	movs	r0, #239	; 0xef
100093b8:	701a      	strb	r2, [r3, #0]
100093ba:	2314      	movs	r3, #20
100093bc:	466a      	mov	r2, sp
100093be:	2102      	movs	r1, #2
100093c0:	0040      	lsls	r0, r0, #1
100093c2:	7053      	strb	r3, [r2, #1]
100093c4:	47b0      	blx	r6
100093c6:	466b      	mov	r3, sp
100093c8:	4652      	mov	r2, sl
100093ca:	20ed      	movs	r0, #237	; 0xed
100093cc:	701a      	strb	r2, [r3, #0]
100093ce:	2364      	movs	r3, #100	; 0x64
100093d0:	466a      	mov	r2, sp
100093d2:	2102      	movs	r1, #2
100093d4:	0040      	lsls	r0, r0, #1
100093d6:	7053      	strb	r3, [r2, #1]
100093d8:	47b0      	blx	r6
100093da:	466b      	mov	r3, sp
100093dc:	4652      	mov	r2, sl
100093de:	701a      	strb	r2, [r3, #0]
100093e0:	466a      	mov	r2, sp
100093e2:	238e      	movs	r3, #142	; 0x8e
100093e4:	20ae      	movs	r0, #174	; 0xae
100093e6:	7053      	strb	r3, [r2, #1]
100093e8:	336b      	adds	r3, #107	; 0x6b
100093ea:	7093      	strb	r3, [r2, #2]
100093ec:	2104      	movs	r1, #4
100093ee:	3b69      	subs	r3, #105	; 0x69
100093f0:	0040      	lsls	r0, r0, #1
100093f2:	70d3      	strb	r3, [r2, #3]
100093f4:	47b0      	blx	r6
100093f6:	466b      	mov	r3, sp
100093f8:	4652      	mov	r2, sl
100093fa:	20ad      	movs	r0, #173	; 0xad
100093fc:	701a      	strb	r2, [r3, #0]
100093fe:	2308      	movs	r3, #8
10009400:	466a      	mov	r2, sp
10009402:	2102      	movs	r1, #2
10009404:	0040      	lsls	r0, r0, #1
10009406:	7053      	strb	r3, [r2, #1]
10009408:	47b0      	blx	r6
1000940a:	466b      	mov	r3, sp
1000940c:	4652      	mov	r2, sl
1000940e:	20ac      	movs	r0, #172	; 0xac
10009410:	701a      	strb	r2, [r3, #0]
10009412:	2302      	movs	r3, #2
10009414:	466a      	mov	r2, sp
10009416:	2102      	movs	r1, #2
10009418:	0040      	lsls	r0, r0, #1
1000941a:	7053      	strb	r3, [r2, #1]
1000941c:	47b0      	blx	r6
1000941e:	07ab      	lsls	r3, r5, #30
10009420:	d53d      	bpl.n	1000949e <dmp_enable_feature+0x1ce>
10009422:	23d9      	movs	r3, #217	; 0xd9
10009424:	7023      	strb	r3, [r4, #0]
10009426:	0022      	movs	r2, r4
10009428:	2101      	movs	r1, #1
1000942a:	4836      	ldr	r0, [pc, #216]	; (10009504 <dmp_enable_feature+0x234>)
1000942c:	47b0      	blx	r6
1000942e:	076b      	lsls	r3, r5, #29
10009430:	d531      	bpl.n	10009496 <dmp_enable_feature+0x1c6>
10009432:	2001      	movs	r0, #1
10009434:	4b34      	ldr	r3, [pc, #208]	; (10009508 <dmp_enable_feature+0x238>)
10009436:	4798      	blx	r3
10009438:	06eb      	lsls	r3, r5, #27
1000943a:	d528      	bpl.n	1000948e <dmp_enable_feature+0x1be>
1000943c:	2001      	movs	r0, #1
1000943e:	4b33      	ldr	r3, [pc, #204]	; (1000950c <dmp_enable_feature+0x23c>)
10009440:	4798      	blx	r3
10009442:	2308      	movs	r3, #8
10009444:	4c32      	ldr	r4, [pc, #200]	; (10009510 <dmp_enable_feature+0x240>)
10009446:	432b      	orrs	r3, r5
10009448:	8163      	strh	r3, [r4, #10]
1000944a:	4b32      	ldr	r3, [pc, #200]	; (10009514 <dmp_enable_feature+0x244>)
1000944c:	4798      	blx	r3
1000944e:	4643      	mov	r3, r8
10009450:	2b00      	cmp	r3, #0
10009452:	d119      	bne.n	10009488 <dmp_enable_feature+0x1b8>
10009454:	4643      	mov	r3, r8
10009456:	73a3      	strb	r3, [r4, #14]
10009458:	2f00      	cmp	r7, #0
1000945a:	d002      	beq.n	10009462 <dmp_enable_feature+0x192>
1000945c:	7ba3      	ldrb	r3, [r4, #14]
1000945e:	3306      	adds	r3, #6
10009460:	73a3      	strb	r3, [r4, #14]
10009462:	2314      	movs	r3, #20
10009464:	422b      	tst	r3, r5
10009466:	d002      	beq.n	1000946e <dmp_enable_feature+0x19e>
10009468:	7ba3      	ldrb	r3, [r4, #14]
1000946a:	3310      	adds	r3, #16
1000946c:	73a3      	strb	r3, [r4, #14]
1000946e:	464b      	mov	r3, r9
10009470:	2b00      	cmp	r3, #0
10009472:	d002      	beq.n	1000947a <dmp_enable_feature+0x1aa>
10009474:	7ba3      	ldrb	r3, [r4, #14]
10009476:	3304      	adds	r3, #4
10009478:	73a3      	strb	r3, [r4, #14]
1000947a:	2000      	movs	r0, #0
1000947c:	b004      	add	sp, #16
1000947e:	bc1c      	pop	{r2, r3, r4}
10009480:	4690      	mov	r8, r2
10009482:	4699      	mov	r9, r3
10009484:	46a2      	mov	sl, r4
10009486:	bdf0      	pop	{r4, r5, r6, r7, pc}
10009488:	2306      	movs	r3, #6
1000948a:	73a3      	strb	r3, [r4, #14]
1000948c:	e7e4      	b.n	10009458 <dmp_enable_feature+0x188>
1000948e:	4b1f      	ldr	r3, [pc, #124]	; (1000950c <dmp_enable_feature+0x23c>)
10009490:	2000      	movs	r0, #0
10009492:	4798      	blx	r3
10009494:	e7d5      	b.n	10009442 <dmp_enable_feature+0x172>
10009496:	4b1c      	ldr	r3, [pc, #112]	; (10009508 <dmp_enable_feature+0x238>)
10009498:	2000      	movs	r0, #0
1000949a:	4798      	blx	r3
1000949c:	e7cc      	b.n	10009438 <dmp_enable_feature+0x168>
1000949e:	23d8      	movs	r3, #216	; 0xd8
100094a0:	7023      	strb	r3, [r4, #0]
100094a2:	e7c0      	b.n	10009426 <dmp_enable_feature+0x156>
100094a4:	208b      	movs	r0, #139	; 0x8b
100094a6:	23d8      	movs	r3, #216	; 0xd8
100094a8:	0022      	movs	r2, r4
100094aa:	2101      	movs	r1, #1
100094ac:	0100      	lsls	r0, r0, #4
100094ae:	7023      	strb	r3, [r4, #0]
100094b0:	47b0      	blx	r6
100094b2:	e7b4      	b.n	1000941e <dmp_enable_feature+0x14e>
100094b4:	4b18      	ldr	r3, [pc, #96]	; (10009518 <dmp_enable_feature+0x248>)
100094b6:	2000      	movs	r0, #0
100094b8:	4798      	blx	r3
100094ba:	e74e      	b.n	1000935a <dmp_enable_feature+0x8a>
100094bc:	23d8      	movs	r3, #216	; 0xd8
100094be:	7023      	strb	r3, [r4, #0]
100094c0:	e742      	b.n	10009348 <dmp_enable_feature+0x78>
100094c2:	23a3      	movs	r3, #163	; 0xa3
100094c4:	7123      	strb	r3, [r4, #4]
100094c6:	7163      	strb	r3, [r4, #5]
100094c8:	71a3      	strb	r3, [r4, #6]
100094ca:	e72e      	b.n	1000932a <dmp_enable_feature+0x5a>
100094cc:	7063      	strb	r3, [r4, #1]
100094ce:	70a3      	strb	r3, [r4, #2]
100094d0:	70e3      	strb	r3, [r4, #3]
100094d2:	e71f      	b.n	10009314 <dmp_enable_feature+0x44>
100094d4:	23b2      	movs	r3, #178	; 0xb2
100094d6:	7023      	strb	r3, [r4, #0]
100094d8:	3b27      	subs	r3, #39	; 0x27
100094da:	7063      	strb	r3, [r4, #1]
100094dc:	332b      	adds	r3, #43	; 0x2b
100094de:	70a3      	strb	r3, [r4, #2]
100094e0:	3b1b      	subs	r3, #27
100094e2:	70e3      	strb	r3, [r4, #3]
100094e4:	e746      	b.n	10009374 <dmp_enable_feature+0xa4>
100094e6:	46c0      	nop			; (mov r8, r8)
100094e8:	10008f39 	.word	0x10008f39
100094ec:	00000aa7 	.word	0x00000aa7
100094f0:	00000ab6 	.word	0x00000ab6
100094f4:	10009025 	.word	0x10009025
100094f8:	00000aa2 	.word	0x00000aa2
100094fc:	10009051 	.word	0x10009051
10009500:	100091c5 	.word	0x100091c5
10009504:	0000073d 	.word	0x0000073d
10009508:	10009249 	.word	0x10009249
1000950c:	1000928d 	.word	0x1000928d
10009510:	100148a0 	.word	0x100148a0
10009514:	100082a5 	.word	0x100082a5
10009518:	1000920d 	.word	0x1000920d

1000951c <dmp_read_fifo>:
1000951c:	b5f0      	push	{r4, r5, r6, r7, lr}
1000951e:	464e      	mov	r6, r9
10009520:	4657      	mov	r7, sl
10009522:	2300      	movs	r3, #0
10009524:	b4c0      	push	{r6, r7}
10009526:	b089      	sub	sp, #36	; 0x24
10009528:	4691      	mov	r9, r2
1000952a:	9a10      	ldr	r2, [sp, #64]	; 0x40
1000952c:	4d55      	ldr	r5, [pc, #340]	; (10009684 <dmp_read_fifo+0x168>)
1000952e:	8013      	strh	r3, [r2, #0]
10009530:	0006      	movs	r6, r0
10009532:	000f      	movs	r7, r1
10009534:	7ba8      	ldrb	r0, [r5, #14]
10009536:	9a11      	ldr	r2, [sp, #68]	; 0x44
10009538:	4669      	mov	r1, sp
1000953a:	4b53      	ldr	r3, [pc, #332]	; (10009688 <dmp_read_fifo+0x16c>)
1000953c:	4798      	blx	r3
1000953e:	1e04      	subs	r4, r0, #0
10009540:	d141      	bne.n	100095c6 <dmp_read_fifo+0xaa>
10009542:	2314      	movs	r3, #20
10009544:	8968      	ldrh	r0, [r5, #10]
10009546:	4203      	tst	r3, r0
10009548:	d143      	bne.n	100095d2 <dmp_read_fifo+0xb6>
1000954a:	2300      	movs	r3, #0
1000954c:	0642      	lsls	r2, r0, #25
1000954e:	d519      	bpl.n	10009584 <dmp_read_fifo+0x68>
10009550:	0019      	movs	r1, r3
10009552:	466a      	mov	r2, sp
10009554:	4469      	add	r1, sp
10009556:	5cd2      	ldrb	r2, [r2, r3]
10009558:	784c      	ldrb	r4, [r1, #1]
1000955a:	0212      	lsls	r2, r2, #8
1000955c:	4322      	orrs	r2, r4
1000955e:	803a      	strh	r2, [r7, #0]
10009560:	788a      	ldrb	r2, [r1, #2]
10009562:	78cc      	ldrb	r4, [r1, #3]
10009564:	0212      	lsls	r2, r2, #8
10009566:	4322      	orrs	r2, r4
10009568:	807a      	strh	r2, [r7, #2]
1000956a:	790a      	ldrb	r2, [r1, #4]
1000956c:	7949      	ldrb	r1, [r1, #5]
1000956e:	0212      	lsls	r2, r2, #8
10009570:	430a      	orrs	r2, r1
10009572:	80ba      	strh	r2, [r7, #4]
10009574:	9a10      	ldr	r2, [sp, #64]	; 0x40
10009576:	3306      	adds	r3, #6
10009578:	8811      	ldrh	r1, [r2, #0]
1000957a:	2208      	movs	r2, #8
1000957c:	430a      	orrs	r2, r1
1000957e:	9910      	ldr	r1, [sp, #64]	; 0x40
10009580:	b2db      	uxtb	r3, r3
10009582:	800a      	strh	r2, [r1, #0]
10009584:	22c0      	movs	r2, #192	; 0xc0
10009586:	0052      	lsls	r2, r2, #1
10009588:	4210      	tst	r0, r2
1000958a:	d019      	beq.n	100095c0 <dmp_read_fifo+0xa4>
1000958c:	0019      	movs	r1, r3
1000958e:	466a      	mov	r2, sp
10009590:	4469      	add	r1, sp
10009592:	5cd2      	ldrb	r2, [r2, r3]
10009594:	784f      	ldrb	r7, [r1, #1]
10009596:	0212      	lsls	r2, r2, #8
10009598:	433a      	orrs	r2, r7
1000959a:	8032      	strh	r2, [r6, #0]
1000959c:	788a      	ldrb	r2, [r1, #2]
1000959e:	78cf      	ldrb	r7, [r1, #3]
100095a0:	0212      	lsls	r2, r2, #8
100095a2:	433a      	orrs	r2, r7
100095a4:	8072      	strh	r2, [r6, #2]
100095a6:	790a      	ldrb	r2, [r1, #4]
100095a8:	7949      	ldrb	r1, [r1, #5]
100095aa:	0212      	lsls	r2, r2, #8
100095ac:	430a      	orrs	r2, r1
100095ae:	80b2      	strh	r2, [r6, #4]
100095b0:	9a10      	ldr	r2, [sp, #64]	; 0x40
100095b2:	3306      	adds	r3, #6
100095b4:	8811      	ldrh	r1, [r2, #0]
100095b6:	2270      	movs	r2, #112	; 0x70
100095b8:	430a      	orrs	r2, r1
100095ba:	9910      	ldr	r1, [sp, #64]	; 0x40
100095bc:	b2db      	uxtb	r3, r3
100095be:	800a      	strh	r2, [r1, #0]
100095c0:	0782      	lsls	r2, r0, #30
100095c2:	d13f      	bne.n	10009644 <dmp_read_fifo+0x128>
100095c4:	2400      	movs	r4, #0
100095c6:	0020      	movs	r0, r4
100095c8:	b009      	add	sp, #36	; 0x24
100095ca:	bc0c      	pop	{r2, r3}
100095cc:	4691      	mov	r9, r2
100095ce:	469a      	mov	sl, r3
100095d0:	bdf0      	pop	{r4, r5, r6, r7, pc}
100095d2:	9b00      	ldr	r3, [sp, #0]
100095d4:	ba1b      	rev	r3, r3
100095d6:	469c      	mov	ip, r3
100095d8:	464b      	mov	r3, r9
100095da:	4662      	mov	r2, ip
100095dc:	601a      	str	r2, [r3, #0]
100095de:	9b01      	ldr	r3, [sp, #4]
100095e0:	ba19      	rev	r1, r3
100095e2:	464b      	mov	r3, r9
100095e4:	6059      	str	r1, [r3, #4]
100095e6:	9b02      	ldr	r3, [sp, #8]
100095e8:	1409      	asrs	r1, r1, #16
100095ea:	ba1b      	rev	r3, r3
100095ec:	469a      	mov	sl, r3
100095ee:	464b      	mov	r3, r9
100095f0:	4652      	mov	r2, sl
100095f2:	609a      	str	r2, [r3, #8]
100095f4:	464a      	mov	r2, r9
100095f6:	9b03      	ldr	r3, [sp, #12]
100095f8:	4349      	muls	r1, r1
100095fa:	ba1b      	rev	r3, r3
100095fc:	60d3      	str	r3, [r2, #12]
100095fe:	4662      	mov	r2, ip
10009600:	1412      	asrs	r2, r2, #16
10009602:	4694      	mov	ip, r2
10009604:	4652      	mov	r2, sl
10009606:	141b      	asrs	r3, r3, #16
10009608:	469a      	mov	sl, r3
1000960a:	4663      	mov	r3, ip
1000960c:	1412      	asrs	r2, r2, #16
1000960e:	4691      	mov	r9, r2
10009610:	435b      	muls	r3, r3
10009612:	464a      	mov	r2, r9
10009614:	469c      	mov	ip, r3
10009616:	4653      	mov	r3, sl
10009618:	4352      	muls	r2, r2
1000961a:	435b      	muls	r3, r3
1000961c:	4461      	add	r1, ip
1000961e:	1889      	adds	r1, r1, r2
10009620:	18c9      	adds	r1, r1, r3
10009622:	23f1      	movs	r3, #241	; 0xf1
10009624:	061b      	lsls	r3, r3, #24
10009626:	469c      	mov	ip, r3
10009628:	2380      	movs	r3, #128	; 0x80
1000962a:	4461      	add	r1, ip
1000962c:	049b      	lsls	r3, r3, #18
1000962e:	4299      	cmp	r1, r3
10009630:	d822      	bhi.n	10009678 <dmp_read_fifo+0x15c>
10009632:	2280      	movs	r2, #128	; 0x80
10009634:	9b10      	ldr	r3, [sp, #64]	; 0x40
10009636:	0052      	lsls	r2, r2, #1
10009638:	881b      	ldrh	r3, [r3, #0]
1000963a:	4313      	orrs	r3, r2
1000963c:	9a10      	ldr	r2, [sp, #64]	; 0x40
1000963e:	8013      	strh	r3, [r2, #0]
10009640:	2310      	movs	r3, #16
10009642:	e783      	b.n	1000954c <dmp_read_fifo+0x30>
10009644:	446b      	add	r3, sp
10009646:	001c      	movs	r4, r3
10009648:	78de      	ldrb	r6, [r3, #3]
1000964a:	785b      	ldrb	r3, [r3, #1]
1000964c:	07da      	lsls	r2, r3, #31
1000964e:	d50a      	bpl.n	10009666 <dmp_read_fifo+0x14a>
10009650:	682a      	ldr	r2, [r5, #0]
10009652:	2a00      	cmp	r2, #0
10009654:	d007      	beq.n	10009666 <dmp_read_fifo+0x14a>
10009656:	2007      	movs	r0, #7
10009658:	0001      	movs	r1, r0
1000965a:	08f3      	lsrs	r3, r6, #3
1000965c:	4031      	ands	r1, r6
1000965e:	4018      	ands	r0, r3
10009660:	3101      	adds	r1, #1
10009662:	4790      	blx	r2
10009664:	7863      	ldrb	r3, [r4, #1]
10009666:	071b      	lsls	r3, r3, #28
10009668:	d5ac      	bpl.n	100095c4 <dmp_read_fifo+0xa8>
1000966a:	686b      	ldr	r3, [r5, #4]
1000966c:	2b00      	cmp	r3, #0
1000966e:	d0a9      	beq.n	100095c4 <dmp_read_fifo+0xa8>
10009670:	09b0      	lsrs	r0, r6, #6
10009672:	4798      	blx	r3
10009674:	2400      	movs	r4, #0
10009676:	e7a6      	b.n	100095c6 <dmp_read_fifo+0xaa>
10009678:	4b04      	ldr	r3, [pc, #16]	; (1000968c <dmp_read_fifo+0x170>)
1000967a:	4798      	blx	r3
1000967c:	9b10      	ldr	r3, [sp, #64]	; 0x40
1000967e:	801c      	strh	r4, [r3, #0]
10009680:	3c01      	subs	r4, #1
10009682:	e7a0      	b.n	100095c6 <dmp_read_fifo+0xaa>
10009684:	100148a0 	.word	0x100148a0
10009688:	100086f5 	.word	0x100086f5
1000968c:	100082a5 	.word	0x100082a5

10009690 <sms_service_advertise>:
10009690:	b530      	push	{r4, r5, lr}
10009692:	4b0c      	ldr	r3, [pc, #48]	; (100096c4 <sms_service_advertise+0x34>)
10009694:	b085      	sub	sp, #20
10009696:	4798      	blx	r3
10009698:	1e04      	subs	r4, r0, #0
1000969a:	d002      	beq.n	100096a2 <sms_service_advertise+0x12>
1000969c:	0020      	movs	r0, r4
1000969e:	b005      	add	sp, #20
100096a0:	bd30      	pop	{r4, r5, pc}
100096a2:	231e      	movs	r3, #30
100096a4:	9301      	str	r3, [sp, #4]
100096a6:	23c8      	movs	r3, #200	; 0xc8
100096a8:	00db      	lsls	r3, r3, #3
100096aa:	9002      	str	r0, [sp, #8]
100096ac:	9300      	str	r3, [sp, #0]
100096ae:	2200      	movs	r2, #0
100096b0:	2300      	movs	r3, #0
100096b2:	2101      	movs	r1, #1
100096b4:	2000      	movs	r0, #0
100096b6:	4d04      	ldr	r5, [pc, #16]	; (100096c8 <sms_service_advertise+0x38>)
100096b8:	47a8      	blx	r5
100096ba:	2800      	cmp	r0, #0
100096bc:	d0ee      	beq.n	1000969c <sms_service_advertise+0xc>
100096be:	34e2      	adds	r4, #226	; 0xe2
100096c0:	e7ec      	b.n	1000969c <sms_service_advertise+0xc>
100096c2:	46c0      	nop			; (mov r8, r8)
100096c4:	1000d4f5 	.word	0x1000d4f5
100096c8:	1000ea75 	.word	0x1000ea75

100096cc <sms_button_bt1_callback>:
100096cc:	b510      	push	{r4, lr}
100096ce:	4b08      	ldr	r3, [pc, #32]	; (100096f0 <sms_button_bt1_callback+0x24>)
100096d0:	781b      	ldrb	r3, [r3, #0]
100096d2:	2b00      	cmp	r3, #0
100096d4:	d00b      	beq.n	100096ee <sms_button_bt1_callback+0x22>
100096d6:	201f      	movs	r0, #31
100096d8:	4b06      	ldr	r3, [pc, #24]	; (100096f4 <sms_button_bt1_callback+0x28>)
100096da:	4798      	blx	r3
100096dc:	2201      	movs	r2, #1
100096de:	4b06      	ldr	r3, [pc, #24]	; (100096f8 <sms_button_bt1_callback+0x2c>)
100096e0:	2102      	movs	r1, #2
100096e2:	701a      	strb	r2, [r3, #0]
100096e4:	201f      	movs	r0, #31
100096e6:	2300      	movs	r3, #0
100096e8:	2200      	movs	r2, #0
100096ea:	4c04      	ldr	r4, [pc, #16]	; (100096fc <sms_button_bt1_callback+0x30>)
100096ec:	47a0      	blx	r4
100096ee:	bd10      	pop	{r4, pc}
100096f0:	100148b0 	.word	0x100148b0
100096f4:	1000ad09 	.word	0x1000ad09
100096f8:	10014fdc 	.word	0x10014fdc
100096fc:	1000daf5 	.word	0x1000daf5

10009700 <sms_button_bt2_callback>:
10009700:	b510      	push	{r4, lr}
10009702:	4b08      	ldr	r3, [pc, #32]	; (10009724 <sms_button_bt2_callback+0x24>)
10009704:	781b      	ldrb	r3, [r3, #0]
10009706:	2b00      	cmp	r3, #0
10009708:	d00b      	beq.n	10009722 <sms_button_bt2_callback+0x22>
1000970a:	2017      	movs	r0, #23
1000970c:	4b06      	ldr	r3, [pc, #24]	; (10009728 <sms_button_bt2_callback+0x28>)
1000970e:	4798      	blx	r3
10009710:	2202      	movs	r2, #2
10009712:	4b06      	ldr	r3, [pc, #24]	; (1000972c <sms_button_bt2_callback+0x2c>)
10009714:	2102      	movs	r1, #2
10009716:	701a      	strb	r2, [r3, #0]
10009718:	2017      	movs	r0, #23
1000971a:	2300      	movs	r3, #0
1000971c:	2200      	movs	r2, #0
1000971e:	4c04      	ldr	r4, [pc, #16]	; (10009730 <sms_button_bt2_callback+0x30>)
10009720:	47a0      	blx	r4
10009722:	bd10      	pop	{r4, pc}
10009724:	100148b0 	.word	0x100148b0
10009728:	1000ad09 	.word	0x1000ad09
1000972c:	10014fdc 	.word	0x10014fdc
10009730:	1000daf5 	.word	0x1000daf5

10009734 <sms_button_configure_gpio>:
10009734:	b5f0      	push	{r4, r5, r6, r7, lr}
10009736:	b083      	sub	sp, #12
10009738:	ac01      	add	r4, sp, #4
1000973a:	0020      	movs	r0, r4
1000973c:	4f0a      	ldr	r7, [pc, #40]	; (10009768 <sms_button_configure_gpio+0x34>)
1000973e:	47b8      	blx	r7
10009740:	2302      	movs	r3, #2
10009742:	2500      	movs	r5, #0
10009744:	0021      	movs	r1, r4
10009746:	7063      	strb	r3, [r4, #1]
10009748:	4e08      	ldr	r6, [pc, #32]	; (1000976c <sms_button_configure_gpio+0x38>)
1000974a:	3b01      	subs	r3, #1
1000974c:	201f      	movs	r0, #31
1000974e:	70e3      	strb	r3, [r4, #3]
10009750:	7025      	strb	r5, [r4, #0]
10009752:	47b0      	blx	r6
10009754:	0020      	movs	r0, r4
10009756:	47b8      	blx	r7
10009758:	0021      	movs	r1, r4
1000975a:	2017      	movs	r0, #23
1000975c:	7025      	strb	r5, [r4, #0]
1000975e:	7065      	strb	r5, [r4, #1]
10009760:	47b0      	blx	r6
10009762:	b003      	add	sp, #12
10009764:	bdf0      	pop	{r4, r5, r6, r7, pc}
10009766:	46c0      	nop			; (mov r8, r8)
10009768:	1000a961 	.word	0x1000a961
1000976c:	1000a971 	.word	0x1000a971

10009770 <sms_button_register_callbacks>:
10009770:	b510      	push	{r4, lr}
10009772:	2202      	movs	r2, #2
10009774:	4905      	ldr	r1, [pc, #20]	; (1000978c <sms_button_register_callbacks+0x1c>)
10009776:	4c06      	ldr	r4, [pc, #24]	; (10009790 <sms_button_register_callbacks+0x20>)
10009778:	2017      	movs	r0, #23
1000977a:	47a0      	blx	r4
1000977c:	4b05      	ldr	r3, [pc, #20]	; (10009794 <sms_button_register_callbacks+0x24>)
1000977e:	2017      	movs	r0, #23
10009780:	4798      	blx	r3
10009782:	2202      	movs	r2, #2
10009784:	4904      	ldr	r1, [pc, #16]	; (10009798 <sms_button_register_callbacks+0x28>)
10009786:	201f      	movs	r0, #31
10009788:	47a0      	blx	r4
1000978a:	bd10      	pop	{r4, pc}
1000978c:	10009701 	.word	0x10009701
10009790:	1000abf9 	.word	0x1000abf9
10009794:	1000acd5 	.word	0x1000acd5
10009798:	100096cd 	.word	0x100096cd

1000979c <sms_button_bt1_fn>:
1000979c:	b510      	push	{r4, lr}
1000979e:	490b      	ldr	r1, [pc, #44]	; (100097cc <sms_button_bt1_fn+0x30>)
100097a0:	780b      	ldrb	r3, [r1, #0]
100097a2:	2bff      	cmp	r3, #255	; 0xff
100097a4:	d00f      	beq.n	100097c6 <sms_button_bt1_fn+0x2a>
100097a6:	3301      	adds	r3, #1
100097a8:	b2db      	uxtb	r3, r3
100097aa:	4c09      	ldr	r4, [pc, #36]	; (100097d0 <sms_button_bt1_fn+0x34>)
100097ac:	700b      	strb	r3, [r1, #0]
100097ae:	8aa0      	ldrh	r0, [r4, #20]
100097b0:	2201      	movs	r2, #1
100097b2:	4b08      	ldr	r3, [pc, #32]	; (100097d4 <sms_button_bt1_fn+0x38>)
100097b4:	4798      	blx	r3
100097b6:	2800      	cmp	r0, #0
100097b8:	d104      	bne.n	100097c4 <sms_button_bt1_fn+0x28>
100097ba:	4b07      	ldr	r3, [pc, #28]	; (100097d8 <sms_button_bt1_fn+0x3c>)
100097bc:	8aa1      	ldrh	r1, [r4, #20]
100097be:	8818      	ldrh	r0, [r3, #0]
100097c0:	4b06      	ldr	r3, [pc, #24]	; (100097dc <sms_button_bt1_fn+0x40>)
100097c2:	4798      	blx	r3
100097c4:	bd10      	pop	{r4, pc}
100097c6:	2300      	movs	r3, #0
100097c8:	e7ef      	b.n	100097aa <sms_button_bt1_fn+0xe>
100097ca:	46c0      	nop			; (mov r8, r8)
100097cc:	10014ff0 	.word	0x10014ff0
100097d0:	10014ff8 	.word	0x10014ff8
100097d4:	1000f335 	.word	0x1000f335
100097d8:	10015098 	.word	0x10015098
100097dc:	1000f4d5 	.word	0x1000f4d5

100097e0 <sms_button_bt2_fn>:
100097e0:	b510      	push	{r4, lr}
100097e2:	4b1c      	ldr	r3, [pc, #112]	; (10009854 <sms_button_bt2_fn+0x74>)
100097e4:	4798      	blx	r3
100097e6:	4b1c      	ldr	r3, [pc, #112]	; (10009858 <sms_button_bt2_fn+0x78>)
100097e8:	4798      	blx	r3
100097ea:	2800      	cmp	r0, #0
100097ec:	d00c      	beq.n	10009808 <sms_button_bt2_fn+0x28>
100097ee:	2200      	movs	r2, #0
100097f0:	4b1a      	ldr	r3, [pc, #104]	; (1000985c <sms_button_bt2_fn+0x7c>)
100097f2:	701a      	strb	r2, [r3, #0]
100097f4:	4b1a      	ldr	r3, [pc, #104]	; (10009860 <sms_button_bt2_fn+0x80>)
100097f6:	781b      	ldrb	r3, [r3, #0]
100097f8:	2b00      	cmp	r3, #0
100097fa:	d116      	bne.n	1000982a <sms_button_bt2_fn+0x4a>
100097fc:	4a19      	ldr	r2, [pc, #100]	; (10009864 <sms_button_bt2_fn+0x84>)
100097fe:	7013      	strb	r3, [r2, #0]
10009800:	2017      	movs	r0, #23
10009802:	4b19      	ldr	r3, [pc, #100]	; (10009868 <sms_button_bt2_fn+0x88>)
10009804:	4798      	blx	r3
10009806:	bd10      	pop	{r4, pc}
10009808:	2201      	movs	r2, #1
1000980a:	4b14      	ldr	r3, [pc, #80]	; (1000985c <sms_button_bt2_fn+0x7c>)
1000980c:	701a      	strb	r2, [r3, #0]
1000980e:	4b14      	ldr	r3, [pc, #80]	; (10009860 <sms_button_bt2_fn+0x80>)
10009810:	781b      	ldrb	r3, [r3, #0]
10009812:	2b00      	cmp	r3, #0
10009814:	d10d      	bne.n	10009832 <sms_button_bt2_fn+0x52>
10009816:	2203      	movs	r2, #3
10009818:	4b12      	ldr	r3, [pc, #72]	; (10009864 <sms_button_bt2_fn+0x84>)
1000981a:	4814      	ldr	r0, [pc, #80]	; (1000986c <sms_button_bt2_fn+0x8c>)
1000981c:	701a      	strb	r2, [r3, #0]
1000981e:	4b14      	ldr	r3, [pc, #80]	; (10009870 <sms_button_bt2_fn+0x90>)
10009820:	4798      	blx	r3
10009822:	2001      	movs	r0, #1
10009824:	4b13      	ldr	r3, [pc, #76]	; (10009874 <sms_button_bt2_fn+0x94>)
10009826:	4798      	blx	r3
10009828:	e7ea      	b.n	10009800 <sms_button_bt2_fn+0x20>
1000982a:	2202      	movs	r2, #2
1000982c:	4b0d      	ldr	r3, [pc, #52]	; (10009864 <sms_button_bt2_fn+0x84>)
1000982e:	701a      	strb	r2, [r3, #0]
10009830:	e7e6      	b.n	10009800 <sms_button_bt2_fn+0x20>
10009832:	4b0c      	ldr	r3, [pc, #48]	; (10009864 <sms_button_bt2_fn+0x84>)
10009834:	4c10      	ldr	r4, [pc, #64]	; (10009878 <sms_button_bt2_fn+0x98>)
10009836:	3205      	adds	r2, #5
10009838:	701a      	strb	r2, [r3, #0]
1000983a:	0020      	movs	r0, r4
1000983c:	4b0c      	ldr	r3, [pc, #48]	; (10009870 <sms_button_bt2_fn+0x90>)
1000983e:	4798      	blx	r3
10009840:	4b0e      	ldr	r3, [pc, #56]	; (1000987c <sms_button_bt2_fn+0x9c>)
10009842:	4798      	blx	r3
10009844:	4b0e      	ldr	r3, [pc, #56]	; (10009880 <sms_button_bt2_fn+0xa0>)
10009846:	1a24      	subs	r4, r4, r0
10009848:	60dc      	str	r4, [r3, #12]
1000984a:	68da      	ldr	r2, [r3, #12]
1000984c:	0952      	lsrs	r2, r2, #5
1000984e:	60da      	str	r2, [r3, #12]
10009850:	e7d6      	b.n	10009800 <sms_button_bt2_fn+0x20>
10009852:	46c0      	nop			; (mov r8, r8)
10009854:	10009afd 	.word	0x10009afd
10009858:	10009de1 	.word	0x10009de1
1000985c:	100150f4 	.word	0x100150f4
10009860:	100150c8 	.word	0x100150c8
10009864:	10014ff7 	.word	0x10014ff7
10009868:	1000acd5 	.word	0x1000acd5
1000986c:	00000ccc 	.word	0x00000ccc
10009870:	1000a20d 	.word	0x1000a20d
10009874:	1000a235 	.word	0x1000a235
10009878:	46500000 	.word	0x46500000
1000987c:	1000a5fd 	.word	0x1000a5fd
10009880:	10014fe0 	.word	0x10014fe0

10009884 <sms_button_service_init>:
10009884:	b510      	push	{r4, lr}
10009886:	2402      	movs	r4, #2
10009888:	62c1      	str	r1, [r0, #44]	; 0x2c
1000988a:	2101      	movs	r1, #1
1000988c:	2300      	movs	r3, #0
1000988e:	2200      	movs	r2, #0
10009890:	7004      	strb	r4, [r0, #0]
10009892:	3455      	adds	r4, #85	; 0x55
10009894:	70c4      	strb	r4, [r0, #3]
10009896:	3c3b      	subs	r4, #59	; 0x3b
10009898:	7104      	strb	r4, [r0, #4]
1000989a:	34a2      	adds	r4, #162	; 0xa2
1000989c:	71c4      	strb	r4, [r0, #7]
1000989e:	3c64      	subs	r4, #100	; 0x64
100098a0:	7204      	strb	r4, [r0, #8]
100098a2:	3c2a      	subs	r4, #42	; 0x2a
100098a4:	72c4      	strb	r4, [r0, #11]
100098a6:	3420      	adds	r4, #32
100098a8:	7304      	strb	r4, [r0, #12]
100098aa:	346b      	adds	r4, #107	; 0x6b
100098ac:	73c4      	strb	r4, [r0, #15]
100098ae:	7404      	strb	r4, [r0, #16]
100098b0:	3ca9      	subs	r4, #169	; 0xa9
100098b2:	8504      	strh	r4, [r0, #40]	; 0x28
100098b4:	8601      	strh	r1, [r0, #48]	; 0x30
100098b6:	8641      	strh	r1, [r0, #50]	; 0x32
100098b8:	3c01      	subs	r4, #1
100098ba:	3133      	adds	r1, #51	; 0x33
100098bc:	7043      	strb	r3, [r0, #1]
100098be:	7083      	strb	r3, [r0, #2]
100098c0:	7143      	strb	r3, [r0, #5]
100098c2:	7183      	strb	r3, [r0, #6]
100098c4:	7243      	strb	r3, [r0, #9]
100098c6:	7283      	strb	r3, [r0, #10]
100098c8:	7343      	strb	r3, [r0, #13]
100098ca:	7383      	strb	r3, [r0, #14]
100098cc:	8242      	strh	r2, [r0, #18]
100098ce:	5444      	strb	r4, [r0, r1]
100098d0:	3110      	adds	r1, #16
100098d2:	6382      	str	r2, [r0, #56]	; 0x38
100098d4:	8782      	strh	r2, [r0, #60]	; 0x3c
100098d6:	87c2      	strh	r2, [r0, #62]	; 0x3e
100098d8:	5443      	strb	r3, [r0, r1]
100098da:	3101      	adds	r1, #1
100098dc:	5443      	strb	r3, [r0, r1]
100098de:	3101      	adds	r1, #1
100098e0:	5443      	strb	r3, [r0, r1]
100098e2:	2348      	movs	r3, #72	; 0x48
100098e4:	52c2      	strh	r2, [r0, r3]
100098e6:	3302      	adds	r3, #2
100098e8:	52c2      	strh	r2, [r0, r3]
100098ea:	3302      	adds	r3, #2
100098ec:	52c2      	strh	r2, [r0, r3]
100098ee:	6402      	str	r2, [r0, #64]	; 0x40
100098f0:	bd10      	pop	{r4, pc}
100098f2:	46c0      	nop			; (mov r8, r8)

100098f4 <sms_button_primary_service_define>:
100098f4:	2301      	movs	r3, #1
100098f6:	b510      	push	{r4, lr}
100098f8:	b082      	sub	sp, #8
100098fa:	9301      	str	r3, [sp, #4]
100098fc:	0003      	movs	r3, r0
100098fe:	0001      	movs	r1, r0
10009900:	3314      	adds	r3, #20
10009902:	9300      	str	r3, [sp, #0]
10009904:	3112      	adds	r1, #18
10009906:	2300      	movs	r3, #0
10009908:	2200      	movs	r2, #0
1000990a:	4c02      	ldr	r4, [pc, #8]	; (10009914 <sms_button_primary_service_define+0x20>)
1000990c:	47a0      	blx	r4
1000990e:	b002      	add	sp, #8
10009910:	bd10      	pop	{r4, pc}
10009912:	46c0      	nop			; (mov r8, r8)
10009914:	1000f301 	.word	0x1000f301

10009918 <i2c_master_write_callback>:
10009918:	2201      	movs	r2, #1
1000991a:	4b01      	ldr	r3, [pc, #4]	; (10009920 <i2c_master_write_callback+0x8>)
1000991c:	701a      	strb	r2, [r3, #0]
1000991e:	4770      	bx	lr
10009920:	10014fde 	.word	0x10014fde

10009924 <i2c_master_read_callback>:
10009924:	2201      	movs	r2, #1
10009926:	4b01      	ldr	r3, [pc, #4]	; (1000992c <i2c_master_read_callback+0x8>)
10009928:	701a      	strb	r2, [r3, #0]
1000992a:	4770      	bx	lr
1000992c:	1001509a 	.word	0x1001509a

10009930 <i2c_master_configure>:
10009930:	b570      	push	{r4, r5, r6, lr}
10009932:	2010      	movs	r0, #16
10009934:	b086      	sub	sp, #24
10009936:	4e19      	ldr	r6, [pc, #100]	; (1000999c <i2c_master_configure+0x6c>)
10009938:	47b0      	blx	r6
1000993a:	4d19      	ldr	r5, [pc, #100]	; (100099a0 <i2c_master_configure+0x70>)
1000993c:	0004      	movs	r4, r0
1000993e:	6068      	str	r0, [r5, #4]
10009940:	2010      	movs	r0, #16
10009942:	47b0      	blx	r6
10009944:	4917      	ldr	r1, [pc, #92]	; (100099a4 <i2c_master_configure+0x74>)
10009946:	2300      	movs	r3, #0
10009948:	6048      	str	r0, [r1, #4]
1000994a:	2200      	movs	r2, #0
1000994c:	0020      	movs	r0, r4
1000994e:	e000      	b.n	10009952 <i2c_master_configure+0x22>
10009950:	6868      	ldr	r0, [r5, #4]
10009952:	54c2      	strb	r2, [r0, r3]
10009954:	6848      	ldr	r0, [r1, #4]
10009956:	54c2      	strb	r2, [r0, r3]
10009958:	3301      	adds	r3, #1
1000995a:	2b10      	cmp	r3, #16
1000995c:	d1f8      	bne.n	10009950 <i2c_master_configure+0x20>
1000995e:	ac01      	add	r4, sp, #4
10009960:	4b11      	ldr	r3, [pc, #68]	; (100099a8 <i2c_master_configure+0x78>)
10009962:	0020      	movs	r0, r4
10009964:	4798      	blx	r3
10009966:	2303      	movs	r3, #3
10009968:	7023      	strb	r3, [r4, #0]
1000996a:	3305      	adds	r3, #5
1000996c:	8063      	strh	r3, [r4, #2]
1000996e:	6063      	str	r3, [r4, #4]
10009970:	3301      	adds	r3, #1
10009972:	60e3      	str	r3, [r4, #12]
10009974:	4d0d      	ldr	r5, [pc, #52]	; (100099ac <i2c_master_configure+0x7c>)
10009976:	3b07      	subs	r3, #7
10009978:	4e0d      	ldr	r6, [pc, #52]	; (100099b0 <i2c_master_configure+0x80>)
1000997a:	60a3      	str	r3, [r4, #8]
1000997c:	6123      	str	r3, [r4, #16]
1000997e:	0022      	movs	r2, r4
10009980:	490c      	ldr	r1, [pc, #48]	; (100099b4 <i2c_master_configure+0x84>)
10009982:	0028      	movs	r0, r5
10009984:	47b0      	blx	r6
10009986:	2800      	cmp	r0, #0
10009988:	d1f9      	bne.n	1000997e <i2c_master_configure+0x4e>
1000998a:	2128      	movs	r1, #40	; 0x28
1000998c:	682a      	ldr	r2, [r5, #0]
1000998e:	5c53      	ldrb	r3, [r2, r1]
10009990:	07db      	lsls	r3, r3, #31
10009992:	d4fc      	bmi.n	1000998e <i2c_master_configure+0x5e>
10009994:	2301      	movs	r3, #1
10009996:	7513      	strb	r3, [r2, #20]
10009998:	b006      	add	sp, #24
1000999a:	bd70      	pop	{r4, r5, r6, pc}
1000999c:	10012fb1 	.word	0x10012fb1
100099a0:	1001514c 	.word	0x1001514c
100099a4:	1001511c 	.word	0x1001511c
100099a8:	1000ada1 	.word	0x1000ada1
100099ac:	100151f0 	.word	0x100151f0
100099b0:	1000adb9 	.word	0x1000adb9
100099b4:	40003000 	.word	0x40003000

100099b8 <i2c_master_configure_callbacks>:
100099b8:	2300      	movs	r3, #0
100099ba:	4a0c      	ldr	r2, [pc, #48]	; (100099ec <i2c_master_configure_callbacks+0x34>)
100099bc:	b570      	push	{r4, r5, r6, lr}
100099be:	4c0c      	ldr	r4, [pc, #48]	; (100099f0 <i2c_master_configure_callbacks+0x38>)
100099c0:	7013      	strb	r3, [r2, #0]
100099c2:	4a0c      	ldr	r2, [pc, #48]	; (100099f4 <i2c_master_configure_callbacks+0x3c>)
100099c4:	4d0c      	ldr	r5, [pc, #48]	; (100099f8 <i2c_master_configure_callbacks+0x40>)
100099c6:	7013      	strb	r3, [r2, #0]
100099c8:	0020      	movs	r0, r4
100099ca:	2200      	movs	r2, #0
100099cc:	490b      	ldr	r1, [pc, #44]	; (100099fc <i2c_master_configure_callbacks+0x44>)
100099ce:	47a8      	blx	r5
100099d0:	2201      	movs	r2, #1
100099d2:	490b      	ldr	r1, [pc, #44]	; (10009a00 <i2c_master_configure_callbacks+0x48>)
100099d4:	0020      	movs	r0, r4
100099d6:	47a8      	blx	r5
100099d8:	2301      	movs	r3, #1
100099da:	7c62      	ldrb	r2, [r4, #17]
100099dc:	4313      	orrs	r3, r2
100099de:	7463      	strb	r3, [r4, #17]
100099e0:	2302      	movs	r3, #2
100099e2:	7c62      	ldrb	r2, [r4, #17]
100099e4:	4313      	orrs	r3, r2
100099e6:	7463      	strb	r3, [r4, #17]
100099e8:	bd70      	pop	{r4, r5, r6, pc}
100099ea:	46c0      	nop			; (mov r8, r8)
100099ec:	10014fde 	.word	0x10014fde
100099f0:	100151f0 	.word	0x100151f0
100099f4:	1001509a 	.word	0x1001509a
100099f8:	1000aeb1 	.word	0x1000aeb1
100099fc:	10009919 	.word	0x10009919
10009a00:	10009925 	.word	0x10009925

10009a04 <sms_imu_interrupt_callback>:
10009a04:	b510      	push	{r4, lr}
10009a06:	201d      	movs	r0, #29
10009a08:	4b05      	ldr	r3, [pc, #20]	; (10009a20 <sms_imu_interrupt_callback+0x1c>)
10009a0a:	4798      	blx	r3
10009a0c:	2203      	movs	r2, #3
10009a0e:	4b05      	ldr	r3, [pc, #20]	; (10009a24 <sms_imu_interrupt_callback+0x20>)
10009a10:	2102      	movs	r1, #2
10009a12:	701a      	strb	r2, [r3, #0]
10009a14:	201d      	movs	r0, #29
10009a16:	2300      	movs	r3, #0
10009a18:	2200      	movs	r2, #0
10009a1a:	4c03      	ldr	r4, [pc, #12]	; (10009a28 <sms_imu_interrupt_callback+0x24>)
10009a1c:	47a0      	blx	r4
10009a1e:	bd10      	pop	{r4, pc}
10009a20:	1000ad09 	.word	0x1000ad09
10009a24:	10014fdc 	.word	0x10014fdc
10009a28:	1000daf5 	.word	0x1000daf5

10009a2c <sms_imu_configure_gpio>:
10009a2c:	b5f0      	push	{r4, r5, r6, r7, lr}
10009a2e:	b083      	sub	sp, #12
10009a30:	ac01      	add	r4, sp, #4
10009a32:	0020      	movs	r0, r4
10009a34:	4f09      	ldr	r7, [pc, #36]	; (10009a5c <sms_imu_configure_gpio+0x30>)
10009a36:	47b8      	blx	r7
10009a38:	2300      	movs	r3, #0
10009a3a:	2601      	movs	r6, #1
10009a3c:	0021      	movs	r1, r4
10009a3e:	7023      	strb	r3, [r4, #0]
10009a40:	4d07      	ldr	r5, [pc, #28]	; (10009a60 <sms_imu_configure_gpio+0x34>)
10009a42:	3302      	adds	r3, #2
10009a44:	201d      	movs	r0, #29
10009a46:	7063      	strb	r3, [r4, #1]
10009a48:	70e6      	strb	r6, [r4, #3]
10009a4a:	47a8      	blx	r5
10009a4c:	0020      	movs	r0, r4
10009a4e:	47b8      	blx	r7
10009a50:	0021      	movs	r1, r4
10009a52:	2005      	movs	r0, #5
10009a54:	7026      	strb	r6, [r4, #0]
10009a56:	47a8      	blx	r5
10009a58:	b003      	add	sp, #12
10009a5a:	bdf0      	pop	{r4, r5, r6, r7, pc}
10009a5c:	1000a961 	.word	0x1000a961
10009a60:	1000a971 	.word	0x1000a971

10009a64 <sms_imu_register_callbacks>:
10009a64:	b510      	push	{r4, lr}
10009a66:	2202      	movs	r2, #2
10009a68:	4902      	ldr	r1, [pc, #8]	; (10009a74 <sms_imu_register_callbacks+0x10>)
10009a6a:	201d      	movs	r0, #29
10009a6c:	4b02      	ldr	r3, [pc, #8]	; (10009a78 <sms_imu_register_callbacks+0x14>)
10009a6e:	4798      	blx	r3
10009a70:	bd10      	pop	{r4, pc}
10009a72:	46c0      	nop			; (mov r8, r8)
10009a74:	10009a05 	.word	0x10009a05
10009a78:	1000abf9 	.word	0x1000abf9

10009a7c <sms_imu_configure>:
10009a7c:	b510      	push	{r4, lr}
10009a7e:	2078      	movs	r0, #120	; 0x78
10009a80:	b082      	sub	sp, #8
10009a82:	4b16      	ldr	r3, [pc, #88]	; (10009adc <sms_imu_configure+0x60>)
10009a84:	4798      	blx	r3
10009a86:	2800      	cmp	r0, #0
10009a88:	d125      	bne.n	10009ad6 <sms_imu_configure+0x5a>
10009a8a:	2078      	movs	r0, #120	; 0x78
10009a8c:	4b14      	ldr	r3, [pc, #80]	; (10009ae0 <sms_imu_configure+0x64>)
10009a8e:	4798      	blx	r3
10009a90:	2800      	cmp	r0, #0
10009a92:	d120      	bne.n	10009ad6 <sms_imu_configure+0x5a>
10009a94:	3004      	adds	r0, #4
10009a96:	4b13      	ldr	r3, [pc, #76]	; (10009ae4 <sms_imu_configure+0x68>)
10009a98:	4798      	blx	r3
10009a9a:	2800      	cmp	r0, #0
10009a9c:	d11b      	bne.n	10009ad6 <sms_imu_configure+0x5a>
10009a9e:	a801      	add	r0, sp, #4
10009aa0:	4b11      	ldr	r3, [pc, #68]	; (10009ae8 <sms_imu_configure+0x6c>)
10009aa2:	4798      	blx	r3
10009aa4:	2800      	cmp	r0, #0
10009aa6:	d116      	bne.n	10009ad6 <sms_imu_configure+0x5a>
10009aa8:	466b      	mov	r3, sp
10009aaa:	1d98      	adds	r0, r3, #6
10009aac:	4b0f      	ldr	r3, [pc, #60]	; (10009aec <sms_imu_configure+0x70>)
10009aae:	4798      	blx	r3
10009ab0:	2800      	cmp	r0, #0
10009ab2:	d110      	bne.n	10009ad6 <sms_imu_configure+0x5a>
10009ab4:	466b      	mov	r3, sp
10009ab6:	1cd8      	adds	r0, r3, #3
10009ab8:	4b0d      	ldr	r3, [pc, #52]	; (10009af0 <sms_imu_configure+0x74>)
10009aba:	4798      	blx	r3
10009abc:	2800      	cmp	r0, #0
10009abe:	d10a      	bne.n	10009ad6 <sms_imu_configure+0x5a>
10009ac0:	30c0      	adds	r0, #192	; 0xc0
10009ac2:	4b0c      	ldr	r3, [pc, #48]	; (10009af4 <sms_imu_configure+0x78>)
10009ac4:	4798      	blx	r3
10009ac6:	1e04      	subs	r4, r0, #0
10009ac8:	d105      	bne.n	10009ad6 <sms_imu_configure+0x5a>
10009aca:	201d      	movs	r0, #29
10009acc:	4b0a      	ldr	r3, [pc, #40]	; (10009af8 <sms_imu_configure+0x7c>)
10009ace:	4798      	blx	r3
10009ad0:	0020      	movs	r0, r4
10009ad2:	b002      	add	sp, #8
10009ad4:	bd10      	pop	{r4, pc}
10009ad6:	2401      	movs	r4, #1
10009ad8:	4264      	negs	r4, r4
10009ada:	e7f9      	b.n	10009ad0 <sms_imu_configure+0x54>
10009adc:	10008ac9 	.word	0x10008ac9
10009ae0:	10008691 	.word	0x10008691
10009ae4:	100089fd 	.word	0x100089fd
10009ae8:	10008611 	.word	0x10008611
10009aec:	10008405 	.word	0x10008405
10009af0:	100084d1 	.word	0x100084d1
10009af4:	100092d1 	.word	0x100092d1
10009af8:	1000acd5 	.word	0x1000acd5

10009afc <sms_imu_startup>:
10009afc:	2300      	movs	r3, #0
10009afe:	b530      	push	{r4, r5, lr}
10009b00:	4c0f      	ldr	r4, [pc, #60]	; (10009b40 <sms_imu_startup+0x44>)
10009b02:	b083      	sub	sp, #12
10009b04:	7063      	strb	r3, [r4, #1]
10009b06:	4b0f      	ldr	r3, [pc, #60]	; (10009b44 <sms_imu_startup+0x48>)
10009b08:	4668      	mov	r0, sp
10009b0a:	9300      	str	r3, [sp, #0]
10009b0c:	231d      	movs	r3, #29
10009b0e:	9301      	str	r3, [sp, #4]
10009b10:	4b0d      	ldr	r3, [pc, #52]	; (10009b48 <sms_imu_startup+0x4c>)
10009b12:	4798      	blx	r3
10009b14:	2800      	cmp	r0, #0
10009b16:	d00a      	beq.n	10009b2e <sms_imu_startup+0x32>
10009b18:	2128      	movs	r1, #40	; 0x28
10009b1a:	4a0c      	ldr	r2, [pc, #48]	; (10009b4c <sms_imu_startup+0x50>)
10009b1c:	5c53      	ldrb	r3, [r2, r1]
10009b1e:	07db      	lsls	r3, r3, #31
10009b20:	0fdb      	lsrs	r3, r3, #31
10009b22:	b2db      	uxtb	r3, r3
10009b24:	2b00      	cmp	r3, #0
10009b26:	d1f9      	bne.n	10009b1c <sms_imu_startup+0x20>
10009b28:	7513      	strb	r3, [r2, #20]
10009b2a:	b003      	add	sp, #12
10009b2c:	bd30      	pop	{r4, r5, pc}
10009b2e:	2501      	movs	r5, #1
10009b30:	4b07      	ldr	r3, [pc, #28]	; (10009b50 <sms_imu_startup+0x54>)
10009b32:	7025      	strb	r5, [r4, #0]
10009b34:	4798      	blx	r3
10009b36:	2800      	cmp	r0, #0
10009b38:	d0f7      	beq.n	10009b2a <sms_imu_startup+0x2e>
10009b3a:	7065      	strb	r5, [r4, #1]
10009b3c:	e7f5      	b.n	10009b2a <sms_imu_startup+0x2e>
10009b3e:	46c0      	nop			; (mov r8, r8)
10009b40:	100150c8 	.word	0x100150c8
10009b44:	10009a05 	.word	0x10009a05
10009b48:	10008c7d 	.word	0x10008c7d
10009b4c:	100151f0 	.word	0x100151f0
10009b50:	10009a7d 	.word	0x10009a7d

10009b54 <sms_imu_poll_data>:
10009b54:	b530      	push	{r4, r5, lr}
10009b56:	2324      	movs	r3, #36	; 0x24
10009b58:	2401      	movs	r4, #1
10009b5a:	4a2e      	ldr	r2, [pc, #184]	; (10009c14 <sms_imu_poll_data+0xc0>)
10009b5c:	b08d      	sub	sp, #52	; 0x34
10009b5e:	54d4      	strb	r4, [r2, r3]
10009b60:	3b1b      	subs	r3, #27
10009b62:	446b      	add	r3, sp
10009b64:	9301      	str	r3, [sp, #4]
10009b66:	230a      	movs	r3, #10
10009b68:	446b      	add	r3, sp
10009b6a:	9300      	str	r3, [sp, #0]
10009b6c:	aa08      	add	r2, sp, #32
10009b6e:	ab03      	add	r3, sp, #12
10009b70:	a906      	add	r1, sp, #24
10009b72:	a804      	add	r0, sp, #16
10009b74:	4d28      	ldr	r5, [pc, #160]	; (10009c18 <sms_imu_poll_data+0xc4>)
10009b76:	47a8      	blx	r5
10009b78:	2800      	cmp	r0, #0
10009b7a:	d009      	beq.n	10009b90 <sms_imu_poll_data+0x3c>
10009b7c:	1c43      	adds	r3, r0, #1
10009b7e:	d046      	beq.n	10009c0e <sms_imu_poll_data+0xba>
10009b80:	1c83      	adds	r3, r0, #2
10009b82:	d037      	beq.n	10009bf4 <sms_imu_poll_data+0xa0>
10009b84:	201d      	movs	r0, #29
10009b86:	4b25      	ldr	r3, [pc, #148]	; (10009c1c <sms_imu_poll_data+0xc8>)
10009b88:	4798      	blx	r3
10009b8a:	2000      	movs	r0, #0
10009b8c:	b00d      	add	sp, #52	; 0x34
10009b8e:	bd30      	pop	{r4, r5, pc}
10009b90:	466b      	mov	r3, sp
10009b92:	4923      	ldr	r1, [pc, #140]	; (10009c20 <sms_imu_poll_data+0xcc>)
10009b94:	2218      	movs	r2, #24
10009b96:	5e9b      	ldrsh	r3, [r3, r2]
10009b98:	4c22      	ldr	r4, [pc, #136]	; (10009c24 <sms_imu_poll_data+0xd0>)
10009b9a:	700b      	strb	r3, [r1, #0]
10009b9c:	121b      	asrs	r3, r3, #8
10009b9e:	704b      	strb	r3, [r1, #1]
10009ba0:	466b      	mov	r3, sp
10009ba2:	221a      	movs	r2, #26
10009ba4:	5e9b      	ldrsh	r3, [r3, r2]
10009ba6:	708b      	strb	r3, [r1, #2]
10009ba8:	121b      	asrs	r3, r3, #8
10009baa:	70cb      	strb	r3, [r1, #3]
10009bac:	466b      	mov	r3, sp
10009bae:	221c      	movs	r2, #28
10009bb0:	5e9b      	ldrsh	r3, [r3, r2]
10009bb2:	710b      	strb	r3, [r1, #4]
10009bb4:	121b      	asrs	r3, r3, #8
10009bb6:	714b      	strb	r3, [r1, #5]
10009bb8:	466b      	mov	r3, sp
10009bba:	2210      	movs	r2, #16
10009bbc:	5e9b      	ldrsh	r3, [r3, r2]
10009bbe:	718b      	strb	r3, [r1, #6]
10009bc0:	121b      	asrs	r3, r3, #8
10009bc2:	71cb      	strb	r3, [r1, #7]
10009bc4:	466b      	mov	r3, sp
10009bc6:	2212      	movs	r2, #18
10009bc8:	5e9b      	ldrsh	r3, [r3, r2]
10009bca:	720b      	strb	r3, [r1, #8]
10009bcc:	121b      	asrs	r3, r3, #8
10009bce:	724b      	strb	r3, [r1, #9]
10009bd0:	466b      	mov	r3, sp
10009bd2:	2214      	movs	r2, #20
10009bd4:	5e9b      	ldrsh	r3, [r3, r2]
10009bd6:	220c      	movs	r2, #12
10009bd8:	728b      	strb	r3, [r1, #10]
10009bda:	121b      	asrs	r3, r3, #8
10009bdc:	72cb      	strb	r3, [r1, #11]
10009bde:	8aa0      	ldrh	r0, [r4, #20]
10009be0:	4b11      	ldr	r3, [pc, #68]	; (10009c28 <sms_imu_poll_data+0xd4>)
10009be2:	4798      	blx	r3
10009be4:	2800      	cmp	r0, #0
10009be6:	d1cd      	bne.n	10009b84 <sms_imu_poll_data+0x30>
10009be8:	4b10      	ldr	r3, [pc, #64]	; (10009c2c <sms_imu_poll_data+0xd8>)
10009bea:	8aa1      	ldrh	r1, [r4, #20]
10009bec:	8818      	ldrh	r0, [r3, #0]
10009bee:	4b10      	ldr	r3, [pc, #64]	; (10009c30 <sms_imu_poll_data+0xdc>)
10009bf0:	4798      	blx	r3
10009bf2:	e7c7      	b.n	10009b84 <sms_imu_poll_data+0x30>
10009bf4:	30c2      	adds	r0, #194	; 0xc2
10009bf6:	4b0f      	ldr	r3, [pc, #60]	; (10009c34 <sms_imu_poll_data+0xe0>)
10009bf8:	4798      	blx	r3
10009bfa:	2800      	cmp	r0, #0
10009bfc:	d104      	bne.n	10009c08 <sms_imu_poll_data+0xb4>
10009bfe:	2001      	movs	r0, #1
10009c00:	4b0d      	ldr	r3, [pc, #52]	; (10009c38 <sms_imu_poll_data+0xe4>)
10009c02:	4798      	blx	r3
10009c04:	2800      	cmp	r0, #0
10009c06:	d0bd      	beq.n	10009b84 <sms_imu_poll_data+0x30>
10009c08:	2001      	movs	r0, #1
10009c0a:	4240      	negs	r0, r0
10009c0c:	e7be      	b.n	10009b8c <sms_imu_poll_data+0x38>
10009c0e:	4b0b      	ldr	r3, [pc, #44]	; (10009c3c <sms_imu_poll_data+0xe8>)
10009c10:	705c      	strb	r4, [r3, #1]
10009c12:	e7b7      	b.n	10009b84 <sms_imu_poll_data+0x30>
10009c14:	100147d4 	.word	0x100147d4
10009c18:	1000951d 	.word	0x1000951d
10009c1c:	1000acd5 	.word	0x1000acd5
10009c20:	100151e4 	.word	0x100151e4
10009c24:	10015048 	.word	0x10015048
10009c28:	1000f335 	.word	0x1000f335
10009c2c:	10015098 	.word	0x10015098
10009c30:	1000f4d5 	.word	0x1000f4d5
10009c34:	100092d1 	.word	0x100092d1
10009c38:	10008f95 	.word	0x10008f95
10009c3c:	100150c8 	.word	0x100150c8

10009c40 <sms_imu_service_init>:
10009c40:	b530      	push	{r4, r5, lr}
10009c42:	2402      	movs	r4, #2
10009c44:	62c1      	str	r1, [r0, #44]	; 0x2c
10009c46:	210c      	movs	r1, #12
10009c48:	2300      	movs	r3, #0
10009c4a:	2200      	movs	r2, #0
10009c4c:	2512      	movs	r5, #18
10009c4e:	7004      	strb	r4, [r0, #0]
10009c50:	3455      	adds	r4, #85	; 0x55
10009c52:	70c4      	strb	r4, [r0, #3]
10009c54:	3c3b      	subs	r4, #59	; 0x3b
10009c56:	7104      	strb	r4, [r0, #4]
10009c58:	34a2      	adds	r4, #162	; 0xa2
10009c5a:	71c4      	strb	r4, [r0, #7]
10009c5c:	3c64      	subs	r4, #100	; 0x64
10009c5e:	7204      	strb	r4, [r0, #8]
10009c60:	3c2a      	subs	r4, #42	; 0x2a
10009c62:	72c4      	strb	r4, [r0, #11]
10009c64:	3420      	adds	r4, #32
10009c66:	7304      	strb	r4, [r0, #12]
10009c68:	8601      	strh	r1, [r0, #48]	; 0x30
10009c6a:	8641      	strh	r1, [r0, #50]	; 0x32
10009c6c:	3c3f      	subs	r4, #63	; 0x3f
10009c6e:	3128      	adds	r1, #40	; 0x28
10009c70:	7043      	strb	r3, [r0, #1]
10009c72:	7083      	strb	r3, [r0, #2]
10009c74:	7143      	strb	r3, [r0, #5]
10009c76:	7183      	strb	r3, [r0, #6]
10009c78:	7243      	strb	r3, [r0, #9]
10009c7a:	7283      	strb	r3, [r0, #10]
10009c7c:	7343      	strb	r3, [r0, #13]
10009c7e:	7383      	strb	r3, [r0, #14]
10009c80:	8505      	strh	r5, [r0, #40]	; 0x28
10009c82:	8242      	strh	r2, [r0, #18]
10009c84:	73c4      	strb	r4, [r0, #15]
10009c86:	7404      	strb	r4, [r0, #16]
10009c88:	5444      	strb	r4, [r0, r1]
10009c8a:	3110      	adds	r1, #16
10009c8c:	6382      	str	r2, [r0, #56]	; 0x38
10009c8e:	8782      	strh	r2, [r0, #60]	; 0x3c
10009c90:	87c2      	strh	r2, [r0, #62]	; 0x3e
10009c92:	5443      	strb	r3, [r0, r1]
10009c94:	3101      	adds	r1, #1
10009c96:	5443      	strb	r3, [r0, r1]
10009c98:	3101      	adds	r1, #1
10009c9a:	5443      	strb	r3, [r0, r1]
10009c9c:	2348      	movs	r3, #72	; 0x48
10009c9e:	52c2      	strh	r2, [r0, r3]
10009ca0:	3302      	adds	r3, #2
10009ca2:	52c2      	strh	r2, [r0, r3]
10009ca4:	3302      	adds	r3, #2
10009ca6:	52c2      	strh	r2, [r0, r3]
10009ca8:	6402      	str	r2, [r0, #64]	; 0x40
10009caa:	bd30      	pop	{r4, r5, pc}

10009cac <sms_imu_primary_service_define>:
10009cac:	2301      	movs	r3, #1
10009cae:	b510      	push	{r4, lr}
10009cb0:	b082      	sub	sp, #8
10009cb2:	9301      	str	r3, [sp, #4]
10009cb4:	0003      	movs	r3, r0
10009cb6:	0001      	movs	r1, r0
10009cb8:	3314      	adds	r3, #20
10009cba:	9300      	str	r3, [sp, #0]
10009cbc:	3112      	adds	r1, #18
10009cbe:	2300      	movs	r3, #0
10009cc0:	2200      	movs	r2, #0
10009cc2:	4c02      	ldr	r4, [pc, #8]	; (10009ccc <sms_imu_primary_service_define+0x20>)
10009cc4:	47a0      	blx	r4
10009cc6:	b002      	add	sp, #8
10009cc8:	bd10      	pop	{r4, pc}
10009cca:	46c0      	nop			; (mov r8, r8)
10009ccc:	1000f301 	.word	0x1000f301

10009cd0 <sms_pressure_ms58_read_prom>:
10009cd0:	b5f0      	push	{r4, r5, r6, r7, lr}
10009cd2:	4657      	mov	r7, sl
10009cd4:	464e      	mov	r6, r9
10009cd6:	4645      	mov	r5, r8
10009cd8:	23a2      	movs	r3, #162	; 0xa2
10009cda:	b4e0      	push	{r5, r6, r7}
10009cdc:	4d3a      	ldr	r5, [pc, #232]	; (10009dc8 <sms_pressure_ms58_read_prom+0xf8>)
10009cde:	4c3b      	ldr	r4, [pc, #236]	; (10009dcc <sms_pressure_ms58_read_prom+0xfc>)
10009ce0:	702b      	strb	r3, [r5, #0]
10009ce2:	2300      	movs	r3, #0
10009ce4:	706b      	strb	r3, [r5, #1]
10009ce6:	70ab      	strb	r3, [r5, #2]
10009ce8:	4b39      	ldr	r3, [pc, #228]	; (10009dd0 <sms_pressure_ms58_read_prom+0x100>)
10009cea:	b082      	sub	sp, #8
10009cec:	4699      	mov	r9, r3
10009cee:	4b39      	ldr	r3, [pc, #228]	; (10009dd4 <sms_pressure_ms58_read_prom+0x104>)
10009cf0:	4f39      	ldr	r7, [pc, #228]	; (10009dd8 <sms_pressure_ms58_read_prom+0x108>)
10009cf2:	4698      	mov	r8, r3
10009cf4:	2303      	movs	r3, #3
10009cf6:	002a      	movs	r2, r5
10009cf8:	469a      	mov	sl, r3
10009cfa:	9300      	str	r3, [sp, #0]
10009cfc:	4649      	mov	r1, r9
10009cfe:	0023      	movs	r3, r4
10009d00:	4640      	mov	r0, r8
10009d02:	47b8      	blx	r7
10009d04:	7863      	ldrb	r3, [r4, #1]
10009d06:	78a2      	ldrb	r2, [r4, #2]
10009d08:	4e34      	ldr	r6, [pc, #208]	; (10009ddc <sms_pressure_ms58_read_prom+0x10c>)
10009d0a:	021b      	lsls	r3, r3, #8
10009d0c:	4313      	orrs	r3, r2
10009d0e:	80b3      	strh	r3, [r6, #4]
10009d10:	23a4      	movs	r3, #164	; 0xa4
10009d12:	702b      	strb	r3, [r5, #0]
10009d14:	4653      	mov	r3, sl
10009d16:	002a      	movs	r2, r5
10009d18:	9300      	str	r3, [sp, #0]
10009d1a:	4649      	mov	r1, r9
10009d1c:	0023      	movs	r3, r4
10009d1e:	4640      	mov	r0, r8
10009d20:	47b8      	blx	r7
10009d22:	7863      	ldrb	r3, [r4, #1]
10009d24:	78a2      	ldrb	r2, [r4, #2]
10009d26:	021b      	lsls	r3, r3, #8
10009d28:	4313      	orrs	r3, r2
10009d2a:	80f3      	strh	r3, [r6, #6]
10009d2c:	23a6      	movs	r3, #166	; 0xa6
10009d2e:	702b      	strb	r3, [r5, #0]
10009d30:	4653      	mov	r3, sl
10009d32:	002a      	movs	r2, r5
10009d34:	9300      	str	r3, [sp, #0]
10009d36:	4649      	mov	r1, r9
10009d38:	0023      	movs	r3, r4
10009d3a:	4640      	mov	r0, r8
10009d3c:	47b8      	blx	r7
10009d3e:	7863      	ldrb	r3, [r4, #1]
10009d40:	78a2      	ldrb	r2, [r4, #2]
10009d42:	021b      	lsls	r3, r3, #8
10009d44:	4313      	orrs	r3, r2
10009d46:	8133      	strh	r3, [r6, #8]
10009d48:	23a8      	movs	r3, #168	; 0xa8
10009d4a:	702b      	strb	r3, [r5, #0]
10009d4c:	4653      	mov	r3, sl
10009d4e:	002a      	movs	r2, r5
10009d50:	9300      	str	r3, [sp, #0]
10009d52:	4649      	mov	r1, r9
10009d54:	0023      	movs	r3, r4
10009d56:	4640      	mov	r0, r8
10009d58:	47b8      	blx	r7
10009d5a:	7863      	ldrb	r3, [r4, #1]
10009d5c:	78a2      	ldrb	r2, [r4, #2]
10009d5e:	021b      	lsls	r3, r3, #8
10009d60:	4313      	orrs	r3, r2
10009d62:	8173      	strh	r3, [r6, #10]
10009d64:	23aa      	movs	r3, #170	; 0xaa
10009d66:	702b      	strb	r3, [r5, #0]
10009d68:	4653      	mov	r3, sl
10009d6a:	002a      	movs	r2, r5
10009d6c:	9300      	str	r3, [sp, #0]
10009d6e:	4649      	mov	r1, r9
10009d70:	0023      	movs	r3, r4
10009d72:	4640      	mov	r0, r8
10009d74:	47b8      	blx	r7
10009d76:	7863      	ldrb	r3, [r4, #1]
10009d78:	78a2      	ldrb	r2, [r4, #2]
10009d7a:	021b      	lsls	r3, r3, #8
10009d7c:	4313      	orrs	r3, r2
10009d7e:	81b3      	strh	r3, [r6, #12]
10009d80:	23ac      	movs	r3, #172	; 0xac
10009d82:	702b      	strb	r3, [r5, #0]
10009d84:	4653      	mov	r3, sl
10009d86:	002a      	movs	r2, r5
10009d88:	9300      	str	r3, [sp, #0]
10009d8a:	4649      	mov	r1, r9
10009d8c:	0023      	movs	r3, r4
10009d8e:	4640      	mov	r0, r8
10009d90:	47b8      	blx	r7
10009d92:	7863      	ldrb	r3, [r4, #1]
10009d94:	78a2      	ldrb	r2, [r4, #2]
10009d96:	021b      	lsls	r3, r3, #8
10009d98:	4313      	orrs	r3, r2
10009d9a:	81f3      	strh	r3, [r6, #14]
10009d9c:	23ae      	movs	r3, #174	; 0xae
10009d9e:	702b      	strb	r3, [r5, #0]
10009da0:	4653      	mov	r3, sl
10009da2:	002a      	movs	r2, r5
10009da4:	9300      	str	r3, [sp, #0]
10009da6:	4649      	mov	r1, r9
10009da8:	0023      	movs	r3, r4
10009daa:	4640      	mov	r0, r8
10009dac:	47b8      	blx	r7
10009dae:	2000      	movs	r0, #0
10009db0:	7863      	ldrb	r3, [r4, #1]
10009db2:	78a2      	ldrb	r2, [r4, #2]
10009db4:	021b      	lsls	r3, r3, #8
10009db6:	4313      	orrs	r3, r2
10009db8:	8233      	strh	r3, [r6, #16]
10009dba:	b002      	add	sp, #8
10009dbc:	bc1c      	pop	{r2, r3, r4}
10009dbe:	4690      	mov	r8, r2
10009dc0:	4699      	mov	r9, r3
10009dc2:	46a2      	mov	sl, r4
10009dc4:	bdf0      	pop	{r4, r5, r6, r7, pc}
10009dc6:	46c0      	nop			; (mov r8, r8)
10009dc8:	100150e4 	.word	0x100150e4
10009dcc:	100150d4 	.word	0x100150d4
10009dd0:	10015130 	.word	0x10015130
10009dd4:	10015154 	.word	0x10015154
10009dd8:	1000a18d 	.word	0x1000a18d
10009ddc:	100150f4 	.word	0x100150f4

10009de0 <sms_pressure_ms58_init>:
10009de0:	2300      	movs	r3, #0
10009de2:	2124      	movs	r1, #36	; 0x24
10009de4:	b510      	push	{r4, lr}
10009de6:	4a0a      	ldr	r2, [pc, #40]	; (10009e10 <sms_pressure_ms58_init+0x30>)
10009de8:	b082      	sub	sp, #8
10009dea:	7013      	strb	r3, [r2, #0]
10009dec:	3301      	adds	r3, #1
10009dee:	5453      	strb	r3, [r2, r1]
10009df0:	4a08      	ldr	r2, [pc, #32]	; (10009e14 <sms_pressure_ms58_init+0x34>)
10009df2:	3906      	subs	r1, #6
10009df4:	7011      	strb	r1, [r2, #0]
10009df6:	4c08      	ldr	r4, [pc, #32]	; (10009e18 <sms_pressure_ms58_init+0x38>)
10009df8:	4908      	ldr	r1, [pc, #32]	; (10009e1c <sms_pressure_ms58_init+0x3c>)
10009dfa:	9300      	str	r3, [sp, #0]
10009dfc:	4808      	ldr	r0, [pc, #32]	; (10009e20 <sms_pressure_ms58_init+0x40>)
10009dfe:	4b09      	ldr	r3, [pc, #36]	; (10009e24 <sms_pressure_ms58_init+0x44>)
10009e00:	47a0      	blx	r4
10009e02:	2003      	movs	r0, #3
10009e04:	4b08      	ldr	r3, [pc, #32]	; (10009e28 <sms_pressure_ms58_init+0x48>)
10009e06:	4798      	blx	r3
10009e08:	4b08      	ldr	r3, [pc, #32]	; (10009e2c <sms_pressure_ms58_init+0x4c>)
10009e0a:	4798      	blx	r3
10009e0c:	b002      	add	sp, #8
10009e0e:	bd10      	pop	{r4, pc}
10009e10:	100150f4 	.word	0x100150f4
10009e14:	100150e4 	.word	0x100150e4
10009e18:	1000a18d 	.word	0x1000a18d
10009e1c:	10015130 	.word	0x10015130
10009e20:	10015154 	.word	0x10015154
10009e24:	100150d4 	.word	0x100150d4
10009e28:	1000a59d 	.word	0x1000a59d
10009e2c:	10009cd1 	.word	0x10009cd1

10009e30 <sms_pressure_ms58_conv_read>:
10009e30:	b5f0      	push	{r4, r5, r6, r7, lr}
10009e32:	4644      	mov	r4, r8
10009e34:	465f      	mov	r7, fp
10009e36:	4656      	mov	r6, sl
10009e38:	464d      	mov	r5, r9
10009e3a:	2324      	movs	r3, #36	; 0x24
10009e3c:	b4f0      	push	{r4, r5, r6, r7}
10009e3e:	4a2f      	ldr	r2, [pc, #188]	; (10009efc <sms_pressure_ms58_conv_read+0xcc>)
10009e40:	4698      	mov	r8, r3
10009e42:	5cd3      	ldrb	r3, [r2, r3]
10009e44:	b083      	sub	sp, #12
10009e46:	4c2e      	ldr	r4, [pc, #184]	; (10009f00 <sms_pressure_ms58_conv_read+0xd0>)
10009e48:	2b00      	cmp	r3, #0
10009e4a:	d02e      	beq.n	10009eaa <sms_pressure_ms58_conv_read+0x7a>
10009e4c:	4b2d      	ldr	r3, [pc, #180]	; (10009f04 <sms_pressure_ms58_conv_read+0xd4>)
10009e4e:	2600      	movs	r6, #0
10009e50:	469b      	mov	fp, r3
10009e52:	4b2d      	ldr	r3, [pc, #180]	; (10009f08 <sms_pressure_ms58_conv_read+0xd8>)
10009e54:	4f2d      	ldr	r7, [pc, #180]	; (10009f0c <sms_pressure_ms58_conv_read+0xdc>)
10009e56:	469a      	mov	sl, r3
10009e58:	2304      	movs	r3, #4
10009e5a:	7026      	strb	r6, [r4, #0]
10009e5c:	7066      	strb	r6, [r4, #1]
10009e5e:	70a6      	strb	r6, [r4, #2]
10009e60:	70e6      	strb	r6, [r4, #3]
10009e62:	0022      	movs	r2, r4
10009e64:	9300      	str	r3, [sp, #0]
10009e66:	4659      	mov	r1, fp
10009e68:	003b      	movs	r3, r7
10009e6a:	4d29      	ldr	r5, [pc, #164]	; (10009f10 <sms_pressure_ms58_conv_read+0xe0>)
10009e6c:	4650      	mov	r0, sl
10009e6e:	47a8      	blx	r5
10009e70:	787b      	ldrb	r3, [r7, #1]
10009e72:	4659      	mov	r1, fp
10009e74:	041a      	lsls	r2, r3, #16
10009e76:	78bb      	ldrb	r3, [r7, #2]
10009e78:	4650      	mov	r0, sl
10009e7a:	021b      	lsls	r3, r3, #8
10009e7c:	4313      	orrs	r3, r2
10009e7e:	78fa      	ldrb	r2, [r7, #3]
10009e80:	4313      	orrs	r3, r2
10009e82:	4a1e      	ldr	r2, [pc, #120]	; (10009efc <sms_pressure_ms58_conv_read+0xcc>)
10009e84:	6153      	str	r3, [r2, #20]
10009e86:	2352      	movs	r3, #82	; 0x52
10009e88:	7023      	strb	r3, [r4, #0]
10009e8a:	3b51      	subs	r3, #81	; 0x51
10009e8c:	9300      	str	r3, [sp, #0]
10009e8e:	0022      	movs	r2, r4
10009e90:	003b      	movs	r3, r7
10009e92:	47a8      	blx	r5
10009e94:	4643      	mov	r3, r8
10009e96:	4a19      	ldr	r2, [pc, #100]	; (10009efc <sms_pressure_ms58_conv_read+0xcc>)
10009e98:	54d6      	strb	r6, [r2, r3]
10009e9a:	2000      	movs	r0, #0
10009e9c:	b003      	add	sp, #12
10009e9e:	bc3c      	pop	{r2, r3, r4, r5}
10009ea0:	4690      	mov	r8, r2
10009ea2:	4699      	mov	r9, r3
10009ea4:	46a2      	mov	sl, r4
10009ea6:	46ab      	mov	fp, r5
10009ea8:	bdf0      	pop	{r4, r5, r6, r7, pc}
10009eaa:	7023      	strb	r3, [r4, #0]
10009eac:	7063      	strb	r3, [r4, #1]
10009eae:	70a3      	strb	r3, [r4, #2]
10009eb0:	70e3      	strb	r3, [r4, #3]
10009eb2:	4b14      	ldr	r3, [pc, #80]	; (10009f04 <sms_pressure_ms58_conv_read+0xd4>)
10009eb4:	4e15      	ldr	r6, [pc, #84]	; (10009f0c <sms_pressure_ms58_conv_read+0xdc>)
10009eb6:	469a      	mov	sl, r3
10009eb8:	4b13      	ldr	r3, [pc, #76]	; (10009f08 <sms_pressure_ms58_conv_read+0xd8>)
10009eba:	0022      	movs	r2, r4
10009ebc:	4699      	mov	r9, r3
10009ebe:	2304      	movs	r3, #4
10009ec0:	4651      	mov	r1, sl
10009ec2:	9300      	str	r3, [sp, #0]
10009ec4:	4f12      	ldr	r7, [pc, #72]	; (10009f10 <sms_pressure_ms58_conv_read+0xe0>)
10009ec6:	0033      	movs	r3, r6
10009ec8:	4648      	mov	r0, r9
10009eca:	47b8      	blx	r7
10009ecc:	7873      	ldrb	r3, [r6, #1]
10009ece:	4651      	mov	r1, sl
10009ed0:	041a      	lsls	r2, r3, #16
10009ed2:	78b3      	ldrb	r3, [r6, #2]
10009ed4:	4648      	mov	r0, r9
10009ed6:	021b      	lsls	r3, r3, #8
10009ed8:	4313      	orrs	r3, r2
10009eda:	78f2      	ldrb	r2, [r6, #3]
10009edc:	4313      	orrs	r3, r2
10009ede:	4a07      	ldr	r2, [pc, #28]	; (10009efc <sms_pressure_ms58_conv_read+0xcc>)
10009ee0:	6193      	str	r3, [r2, #24]
10009ee2:	2342      	movs	r3, #66	; 0x42
10009ee4:	7023      	strb	r3, [r4, #0]
10009ee6:	3b41      	subs	r3, #65	; 0x41
10009ee8:	469b      	mov	fp, r3
10009eea:	9300      	str	r3, [sp, #0]
10009eec:	0022      	movs	r2, r4
10009eee:	0033      	movs	r3, r6
10009ef0:	47b8      	blx	r7
10009ef2:	4643      	mov	r3, r8
10009ef4:	465a      	mov	r2, fp
10009ef6:	4901      	ldr	r1, [pc, #4]	; (10009efc <sms_pressure_ms58_conv_read+0xcc>)
10009ef8:	54ca      	strb	r2, [r1, r3]
10009efa:	e7ce      	b.n	10009e9a <sms_pressure_ms58_conv_read+0x6a>
10009efc:	100150f4 	.word	0x100150f4
10009f00:	100150e4 	.word	0x100150e4
10009f04:	10015130 	.word	0x10015130
10009f08:	10015154 	.word	0x10015154
10009f0c:	100150d4 	.word	0x100150d4
10009f10:	1000a18d 	.word	0x1000a18d

10009f14 <sms_pressure_ms58_calculate>:
10009f14:	b5f0      	push	{r4, r5, r6, r7, lr}
10009f16:	4657      	mov	r7, sl
10009f18:	464e      	mov	r6, r9
10009f1a:	4645      	mov	r5, r8
10009f1c:	b4e0      	push	{r5, r6, r7}
10009f1e:	4e32      	ldr	r6, [pc, #200]	; (10009fe8 <sms_pressure_ms58_calculate+0xd4>)
10009f20:	2100      	movs	r1, #0
10009f22:	89b7      	ldrh	r7, [r6, #12]
10009f24:	69b3      	ldr	r3, [r6, #24]
10009f26:	023f      	lsls	r7, r7, #8
10009f28:	1bdf      	subs	r7, r3, r7
10009f2a:	17fb      	asrs	r3, r7, #31
10009f2c:	4698      	mov	r8, r3
10009f2e:	4b2f      	ldr	r3, [pc, #188]	; (10009fec <sms_pressure_ms58_calculate+0xd8>)
10009f30:	89f0      	ldrh	r0, [r6, #14]
10009f32:	469a      	mov	sl, r3
10009f34:	003a      	movs	r2, r7
10009f36:	4643      	mov	r3, r8
10009f38:	47d0      	blx	sl
10009f3a:	23fa      	movs	r3, #250	; 0xfa
10009f3c:	00db      	lsls	r3, r3, #3
10009f3e:	4699      	mov	r9, r3
10009f40:	0249      	lsls	r1, r1, #9
10009f42:	0dc0      	lsrs	r0, r0, #23
10009f44:	4308      	orrs	r0, r1
10009f46:	4481      	add	r9, r0
10009f48:	464b      	mov	r3, r9
10009f4a:	8930      	ldrh	r0, [r6, #8]
10009f4c:	003a      	movs	r2, r7
10009f4e:	6233      	str	r3, [r6, #32]
10009f50:	2100      	movs	r1, #0
10009f52:	4643      	mov	r3, r8
10009f54:	47d0      	blx	sl
10009f56:	060c      	lsls	r4, r1, #24
10009f58:	120b      	asrs	r3, r1, #8
10009f5a:	2100      	movs	r1, #0
10009f5c:	0a02      	lsrs	r2, r0, #8
10009f5e:	4322      	orrs	r2, r4
10009f60:	88b4      	ldrh	r4, [r6, #4]
10009f62:	03e0      	lsls	r0, r4, #15
10009f64:	1880      	adds	r0, r0, r2
10009f66:	4159      	adcs	r1, r3
10009f68:	6972      	ldr	r2, [r6, #20]
10009f6a:	2300      	movs	r3, #0
10009f6c:	47d0      	blx	sl
10009f6e:	02cb      	lsls	r3, r1, #11
10009f70:	0d44      	lsrs	r4, r0, #21
10009f72:	003a      	movs	r2, r7
10009f74:	8970      	ldrh	r0, [r6, #10]
10009f76:	431c      	orrs	r4, r3
10009f78:	154d      	asrs	r5, r1, #21
10009f7a:	4643      	mov	r3, r8
10009f7c:	2100      	movs	r1, #0
10009f7e:	47d0      	blx	sl
10009f80:	064f      	lsls	r7, r1, #25
10009f82:	11cb      	asrs	r3, r1, #7
10009f84:	2100      	movs	r1, #0
10009f86:	09c2      	lsrs	r2, r0, #7
10009f88:	433a      	orrs	r2, r7
10009f8a:	88f7      	ldrh	r7, [r6, #6]
10009f8c:	0438      	lsls	r0, r7, #16
10009f8e:	1812      	adds	r2, r2, r0
10009f90:	414b      	adcs	r3, r1
10009f92:	1aa4      	subs	r4, r4, r2
10009f94:	419d      	sbcs	r5, r3
10009f96:	046b      	lsls	r3, r5, #17
10009f98:	0be4      	lsrs	r4, r4, #15
10009f9a:	431c      	orrs	r4, r3
10009f9c:	464b      	mov	r3, r9
10009f9e:	4914      	ldr	r1, [pc, #80]	; (10009ff0 <sms_pressure_ms58_calculate+0xdc>)
10009fa0:	61f4      	str	r4, [r6, #28]
10009fa2:	700b      	strb	r3, [r1, #0]
10009fa4:	464b      	mov	r3, r9
10009fa6:	121b      	asrs	r3, r3, #8
10009fa8:	704b      	strb	r3, [r1, #1]
10009faa:	464b      	mov	r3, r9
10009fac:	141b      	asrs	r3, r3, #16
10009fae:	708b      	strb	r3, [r1, #2]
10009fb0:	464b      	mov	r3, r9
10009fb2:	1618      	asrs	r0, r3, #24
10009fb4:	1223      	asrs	r3, r4, #8
10009fb6:	710c      	strb	r4, [r1, #4]
10009fb8:	714b      	strb	r3, [r1, #5]
10009fba:	1423      	asrs	r3, r4, #16
10009fbc:	1624      	asrs	r4, r4, #24
10009fbe:	71cc      	strb	r4, [r1, #7]
10009fc0:	4c0c      	ldr	r4, [pc, #48]	; (10009ff4 <sms_pressure_ms58_calculate+0xe0>)
10009fc2:	718b      	strb	r3, [r1, #6]
10009fc4:	70c8      	strb	r0, [r1, #3]
10009fc6:	8aa0      	ldrh	r0, [r4, #20]
10009fc8:	2208      	movs	r2, #8
10009fca:	4b0b      	ldr	r3, [pc, #44]	; (10009ff8 <sms_pressure_ms58_calculate+0xe4>)
10009fcc:	4798      	blx	r3
10009fce:	2800      	cmp	r0, #0
10009fd0:	d104      	bne.n	10009fdc <sms_pressure_ms58_calculate+0xc8>
10009fd2:	4b0a      	ldr	r3, [pc, #40]	; (10009ffc <sms_pressure_ms58_calculate+0xe8>)
10009fd4:	8aa1      	ldrh	r1, [r4, #20]
10009fd6:	8818      	ldrh	r0, [r3, #0]
10009fd8:	4b09      	ldr	r3, [pc, #36]	; (1000a000 <sms_pressure_ms58_calculate+0xec>)
10009fda:	4798      	blx	r3
10009fdc:	bc1c      	pop	{r2, r3, r4}
10009fde:	4690      	mov	r8, r2
10009fe0:	4699      	mov	r9, r3
10009fe2:	46a2      	mov	sl, r4
10009fe4:	bdf0      	pop	{r4, r5, r6, r7, pc}
10009fe6:	46c0      	nop			; (mov r8, r8)
10009fe8:	100150f4 	.word	0x100150f4
10009fec:	10011649 	.word	0x10011649
10009ff0:	10015180 	.word	0x10015180
10009ff4:	10015188 	.word	0x10015188
10009ff8:	1000f335 	.word	0x1000f335
10009ffc:	10015098 	.word	0x10015098
1000a000:	1000f4d5 	.word	0x1000f4d5

1000a004 <sms_pressure_ms58_poll_data>:
1000a004:	b510      	push	{r4, lr}
1000a006:	4b06      	ldr	r3, [pc, #24]	; (1000a020 <sms_pressure_ms58_poll_data+0x1c>)
1000a008:	4798      	blx	r3
1000a00a:	2800      	cmp	r0, #0
1000a00c:	d104      	bne.n	1000a018 <sms_pressure_ms58_poll_data+0x14>
1000a00e:	2324      	movs	r3, #36	; 0x24
1000a010:	4a04      	ldr	r2, [pc, #16]	; (1000a024 <sms_pressure_ms58_poll_data+0x20>)
1000a012:	5cd3      	ldrb	r3, [r2, r3]
1000a014:	2b00      	cmp	r3, #0
1000a016:	d100      	bne.n	1000a01a <sms_pressure_ms58_poll_data+0x16>
1000a018:	bd10      	pop	{r4, pc}
1000a01a:	4b03      	ldr	r3, [pc, #12]	; (1000a028 <sms_pressure_ms58_poll_data+0x24>)
1000a01c:	4798      	blx	r3
1000a01e:	e7fb      	b.n	1000a018 <sms_pressure_ms58_poll_data+0x14>
1000a020:	10009e31 	.word	0x10009e31
1000a024:	100150f4 	.word	0x100150f4
1000a028:	10009f15 	.word	0x10009f15

1000a02c <sms_pressure_service_init>:
1000a02c:	b510      	push	{r4, lr}
1000a02e:	2402      	movs	r4, #2
1000a030:	62c1      	str	r1, [r0, #44]	; 0x2c
1000a032:	2108      	movs	r1, #8
1000a034:	2300      	movs	r3, #0
1000a036:	2200      	movs	r2, #0
1000a038:	7004      	strb	r4, [r0, #0]
1000a03a:	3455      	adds	r4, #85	; 0x55
1000a03c:	70c4      	strb	r4, [r0, #3]
1000a03e:	3c3b      	subs	r4, #59	; 0x3b
1000a040:	7104      	strb	r4, [r0, #4]
1000a042:	34a2      	adds	r4, #162	; 0xa2
1000a044:	71c4      	strb	r4, [r0, #7]
1000a046:	3c64      	subs	r4, #100	; 0x64
1000a048:	7204      	strb	r4, [r0, #8]
1000a04a:	3c2a      	subs	r4, #42	; 0x2a
1000a04c:	72c4      	strb	r4, [r0, #11]
1000a04e:	3420      	adds	r4, #32
1000a050:	7304      	strb	r4, [r0, #12]
1000a052:	349e      	adds	r4, #158	; 0x9e
1000a054:	73c4      	strb	r4, [r0, #15]
1000a056:	7404      	strb	r4, [r0, #16]
1000a058:	3cdc      	subs	r4, #220	; 0xdc
1000a05a:	8504      	strh	r4, [r0, #40]	; 0x28
1000a05c:	8601      	strh	r1, [r0, #48]	; 0x30
1000a05e:	8641      	strh	r1, [r0, #50]	; 0x32
1000a060:	3c01      	subs	r4, #1
1000a062:	312c      	adds	r1, #44	; 0x2c
1000a064:	7043      	strb	r3, [r0, #1]
1000a066:	7083      	strb	r3, [r0, #2]
1000a068:	7143      	strb	r3, [r0, #5]
1000a06a:	7183      	strb	r3, [r0, #6]
1000a06c:	7243      	strb	r3, [r0, #9]
1000a06e:	7283      	strb	r3, [r0, #10]
1000a070:	7343      	strb	r3, [r0, #13]
1000a072:	7383      	strb	r3, [r0, #14]
1000a074:	8242      	strh	r2, [r0, #18]
1000a076:	5444      	strb	r4, [r0, r1]
1000a078:	3110      	adds	r1, #16
1000a07a:	6382      	str	r2, [r0, #56]	; 0x38
1000a07c:	8782      	strh	r2, [r0, #60]	; 0x3c
1000a07e:	87c2      	strh	r2, [r0, #62]	; 0x3e
1000a080:	5443      	strb	r3, [r0, r1]
1000a082:	3101      	adds	r1, #1
1000a084:	5443      	strb	r3, [r0, r1]
1000a086:	3101      	adds	r1, #1
1000a088:	5443      	strb	r3, [r0, r1]
1000a08a:	2348      	movs	r3, #72	; 0x48
1000a08c:	52c2      	strh	r2, [r0, r3]
1000a08e:	3302      	adds	r3, #2
1000a090:	52c2      	strh	r2, [r0, r3]
1000a092:	3302      	adds	r3, #2
1000a094:	52c2      	strh	r2, [r0, r3]
1000a096:	6402      	str	r2, [r0, #64]	; 0x40
1000a098:	bd10      	pop	{r4, pc}
1000a09a:	46c0      	nop			; (mov r8, r8)

1000a09c <sms_pressure_primary_service_define>:
1000a09c:	2301      	movs	r3, #1
1000a09e:	b510      	push	{r4, lr}
1000a0a0:	b082      	sub	sp, #8
1000a0a2:	9301      	str	r3, [sp, #4]
1000a0a4:	0003      	movs	r3, r0
1000a0a6:	0001      	movs	r1, r0
1000a0a8:	3314      	adds	r3, #20
1000a0aa:	9300      	str	r3, [sp, #0]
1000a0ac:	3112      	adds	r1, #18
1000a0ae:	2300      	movs	r3, #0
1000a0b0:	2200      	movs	r2, #0
1000a0b2:	4c02      	ldr	r4, [pc, #8]	; (1000a0bc <sms_pressure_primary_service_define+0x20>)
1000a0b4:	47a0      	blx	r4
1000a0b6:	b002      	add	sp, #8
1000a0b8:	bd10      	pop	{r4, pc}
1000a0ba:	46c0      	nop			; (mov r8, r8)
1000a0bc:	1000f301 	.word	0x1000f301

1000a0c0 <spi_master_transceived_callback>:
1000a0c0:	2201      	movs	r2, #1
1000a0c2:	4b01      	ldr	r3, [pc, #4]	; (1000a0c8 <spi_master_transceived_callback+0x8>)
1000a0c4:	701a      	strb	r2, [r3, #0]
1000a0c6:	4770      	bx	lr
1000a0c8:	10014ff1 	.word	0x10014ff1

1000a0cc <spi_master_configure>:
1000a0cc:	b530      	push	{r4, r5, lr}
1000a0ce:	b08d      	sub	sp, #52	; 0x34
1000a0d0:	ac01      	add	r4, sp, #4
1000a0d2:	0020      	movs	r0, r4
1000a0d4:	4b13      	ldr	r3, [pc, #76]	; (1000a124 <spi_master_configure+0x58>)
1000a0d6:	4798      	blx	r3
1000a0d8:	2310      	movs	r3, #16
1000a0da:	0021      	movs	r1, r4
1000a0dc:	7023      	strb	r3, [r4, #0]
1000a0de:	4812      	ldr	r0, [pc, #72]	; (1000a128 <spi_master_configure+0x5c>)
1000a0e0:	ac02      	add	r4, sp, #8
1000a0e2:	4b12      	ldr	r3, [pc, #72]	; (1000a12c <spi_master_configure+0x60>)
1000a0e4:	4798      	blx	r3
1000a0e6:	0020      	movs	r0, r4
1000a0e8:	4b11      	ldr	r3, [pc, #68]	; (1000a130 <spi_master_configure+0x64>)
1000a0ea:	4798      	blx	r3
1000a0ec:	2368      	movs	r3, #104	; 0x68
1000a0ee:	2213      	movs	r2, #19
1000a0f0:	7123      	strb	r3, [r4, #4]
1000a0f2:	2300      	movs	r3, #0
1000a0f4:	4d0f      	ldr	r5, [pc, #60]	; (1000a134 <spi_master_configure+0x68>)
1000a0f6:	70a3      	strb	r3, [r4, #2]
1000a0f8:	60e2      	str	r2, [r4, #12]
1000a0fa:	3311      	adds	r3, #17
1000a0fc:	3a14      	subs	r2, #20
1000a0fe:	60a3      	str	r3, [r4, #8]
1000a100:	6122      	str	r2, [r4, #16]
1000a102:	3b0d      	subs	r3, #13
1000a104:	6222      	str	r2, [r4, #32]
1000a106:	3213      	adds	r2, #19
1000a108:	61a3      	str	r3, [r4, #24]
1000a10a:	61e3      	str	r3, [r4, #28]
1000a10c:	6162      	str	r2, [r4, #20]
1000a10e:	6263      	str	r3, [r4, #36]	; 0x24
1000a110:	0022      	movs	r2, r4
1000a112:	4909      	ldr	r1, [pc, #36]	; (1000a138 <spi_master_configure+0x6c>)
1000a114:	0028      	movs	r0, r5
1000a116:	4b09      	ldr	r3, [pc, #36]	; (1000a13c <spi_master_configure+0x70>)
1000a118:	4798      	blx	r3
1000a11a:	0028      	movs	r0, r5
1000a11c:	4b08      	ldr	r3, [pc, #32]	; (1000a140 <spi_master_configure+0x74>)
1000a11e:	4798      	blx	r3
1000a120:	b00d      	add	sp, #52	; 0x34
1000a122:	bd30      	pop	{r4, r5, pc}
1000a124:	1000b109 	.word	0x1000b109
1000a128:	10015130 	.word	0x10015130
1000a12c:	1000b141 	.word	0x1000b141
1000a130:	1000b115 	.word	0x1000b115
1000a134:	10015154 	.word	0x10015154
1000a138:	40007000 	.word	0x40007000
1000a13c:	1000b271 	.word	0x1000b271
1000a140:	1000b181 	.word	0x1000b181

1000a144 <spi_master_configure_callbacks>:
1000a144:	2200      	movs	r2, #0
1000a146:	b5f8      	push	{r3, r4, r5, r6, r7, lr}
1000a148:	4b0a      	ldr	r3, [pc, #40]	; (1000a174 <spi_master_configure_callbacks+0x30>)
1000a14a:	4f0b      	ldr	r7, [pc, #44]	; (1000a178 <spi_master_configure_callbacks+0x34>)
1000a14c:	4c0b      	ldr	r4, [pc, #44]	; (1000a17c <spi_master_configure_callbacks+0x38>)
1000a14e:	701a      	strb	r2, [r3, #0]
1000a150:	0039      	movs	r1, r7
1000a152:	4e0b      	ldr	r6, [pc, #44]	; (1000a180 <spi_master_configure_callbacks+0x3c>)
1000a154:	0020      	movs	r0, r4
1000a156:	3202      	adds	r2, #2
1000a158:	47b0      	blx	r6
1000a15a:	4d0a      	ldr	r5, [pc, #40]	; (1000a184 <spi_master_configure_callbacks+0x40>)
1000a15c:	2202      	movs	r2, #2
1000a15e:	0039      	movs	r1, r7
1000a160:	0028      	movs	r0, r5
1000a162:	47b0      	blx	r6
1000a164:	0020      	movs	r0, r4
1000a166:	2102      	movs	r1, #2
1000a168:	4c07      	ldr	r4, [pc, #28]	; (1000a188 <spi_master_configure_callbacks+0x44>)
1000a16a:	47a0      	blx	r4
1000a16c:	0028      	movs	r0, r5
1000a16e:	2102      	movs	r1, #2
1000a170:	47a0      	blx	r4
1000a172:	bdf8      	pop	{r3, r4, r5, r6, r7, pc}
1000a174:	10014ff1 	.word	0x10014ff1
1000a178:	1000a0c1 	.word	0x1000a0c1
1000a17c:	10015154 	.word	0x10015154
1000a180:	1000b87d 	.word	0x1000b87d
1000a184:	1001509c 	.word	0x1001509c
1000a188:	1000b891 	.word	0x1000b891

1000a18c <spi_master_transceive>:
1000a18c:	b5f8      	push	{r3, r4, r5, r6, r7, lr}
1000a18e:	465f      	mov	r7, fp
1000a190:	4656      	mov	r6, sl
1000a192:	464d      	mov	r5, r9
1000a194:	4644      	mov	r4, r8
1000a196:	b4f0      	push	{r4, r5, r6, r7}
1000a198:	4699      	mov	r9, r3
1000a19a:	ab0a      	add	r3, sp, #40	; 0x28
1000a19c:	881b      	ldrh	r3, [r3, #0]
1000a19e:	4690      	mov	r8, r2
1000a1a0:	469a      	mov	sl, r3
1000a1a2:	4b0f      	ldr	r3, [pc, #60]	; (1000a1e0 <spi_master_transceive+0x54>)
1000a1a4:	2201      	movs	r2, #1
1000a1a6:	0005      	movs	r5, r0
1000a1a8:	000f      	movs	r7, r1
1000a1aa:	469b      	mov	fp, r3
1000a1ac:	4798      	blx	r3
1000a1ae:	2300      	movs	r3, #0
1000a1b0:	4c0c      	ldr	r4, [pc, #48]	; (1000a1e4 <spi_master_transceive+0x58>)
1000a1b2:	464a      	mov	r2, r9
1000a1b4:	7023      	strb	r3, [r4, #0]
1000a1b6:	4641      	mov	r1, r8
1000a1b8:	4653      	mov	r3, sl
1000a1ba:	0028      	movs	r0, r5
1000a1bc:	4e0a      	ldr	r6, [pc, #40]	; (1000a1e8 <spi_master_transceive+0x5c>)
1000a1be:	47b0      	blx	r6
1000a1c0:	7823      	ldrb	r3, [r4, #0]
1000a1c2:	2b00      	cmp	r3, #0
1000a1c4:	d0fc      	beq.n	1000a1c0 <spi_master_transceive+0x34>
1000a1c6:	2300      	movs	r3, #0
1000a1c8:	0039      	movs	r1, r7
1000a1ca:	0028      	movs	r0, r5
1000a1cc:	2200      	movs	r2, #0
1000a1ce:	7023      	strb	r3, [r4, #0]
1000a1d0:	47d8      	blx	fp
1000a1d2:	2000      	movs	r0, #0
1000a1d4:	bc3c      	pop	{r2, r3, r4, r5}
1000a1d6:	4690      	mov	r8, r2
1000a1d8:	4699      	mov	r9, r3
1000a1da:	46a2      	mov	sl, r4
1000a1dc:	46ab      	mov	fp, r5
1000a1de:	bdf8      	pop	{r3, r4, r5, r6, r7, pc}
1000a1e0:	1000b435 	.word	0x1000b435
1000a1e4:	10014ff1 	.word	0x10014ff1
1000a1e8:	1000b8a1 	.word	0x1000b8a1

1000a1ec <sms_timer_aon_callback>:
1000a1ec:	2204      	movs	r2, #4
1000a1ee:	b510      	push	{r4, lr}
1000a1f0:	4b04      	ldr	r3, [pc, #16]	; (1000a204 <sms_timer_aon_callback+0x18>)
1000a1f2:	2103      	movs	r1, #3
1000a1f4:	701a      	strb	r2, [r3, #0]
1000a1f6:	2042      	movs	r0, #66	; 0x42
1000a1f8:	2300      	movs	r3, #0
1000a1fa:	2200      	movs	r2, #0
1000a1fc:	4c02      	ldr	r4, [pc, #8]	; (1000a208 <sms_timer_aon_callback+0x1c>)
1000a1fe:	47a0      	blx	r4
1000a200:	bd10      	pop	{r4, pc}
1000a202:	46c0      	nop			; (mov r8, r8)
1000a204:	10014fdc 	.word	0x10014fdc
1000a208:	1000daf5 	.word	0x1000daf5

1000a20c <sms_timer_aon_init>:
1000a20c:	b510      	push	{r4, lr}
1000a20e:	b082      	sub	sp, #8
1000a210:	0004      	movs	r4, r0
1000a212:	4b06      	ldr	r3, [pc, #24]	; (1000a22c <sms_timer_aon_init+0x20>)
1000a214:	4668      	mov	r0, sp
1000a216:	4798      	blx	r3
1000a218:	466a      	mov	r2, sp
1000a21a:	2300      	movs	r3, #0
1000a21c:	4668      	mov	r0, sp
1000a21e:	7053      	strb	r3, [r2, #1]
1000a220:	4b03      	ldr	r3, [pc, #12]	; (1000a230 <sms_timer_aon_init+0x24>)
1000a222:	9401      	str	r4, [sp, #4]
1000a224:	4798      	blx	r3
1000a226:	b002      	add	sp, #8
1000a228:	bd10      	pop	{r4, pc}
1000a22a:	46c0      	nop			; (mov r8, r8)
1000a22c:	1000a5ed 	.word	0x1000a5ed
1000a230:	1000a621 	.word	0x1000a621

1000a234 <sms_timer_aon_configure_callback>:
1000a234:	b510      	push	{r4, lr}
1000a236:	2800      	cmp	r0, #0
1000a238:	d107      	bne.n	1000a24a <sms_timer_aon_configure_callback+0x16>
1000a23a:	4b08      	ldr	r3, [pc, #32]	; (1000a25c <sms_timer_aon_configure_callback+0x28>)
1000a23c:	4798      	blx	r3
1000a23e:	2180      	movs	r1, #128	; 0x80
1000a240:	2380      	movs	r3, #128	; 0x80
1000a242:	4a07      	ldr	r2, [pc, #28]	; (1000a260 <sms_timer_aon_configure_callback+0x2c>)
1000a244:	0509      	lsls	r1, r1, #20
1000a246:	50d1      	str	r1, [r2, r3]
1000a248:	bd10      	pop	{r4, pc}
1000a24a:	4b06      	ldr	r3, [pc, #24]	; (1000a264 <sms_timer_aon_configure_callback+0x30>)
1000a24c:	4806      	ldr	r0, [pc, #24]	; (1000a268 <sms_timer_aon_configure_callback+0x34>)
1000a24e:	4798      	blx	r3
1000a250:	2280      	movs	r2, #128	; 0x80
1000a252:	4b03      	ldr	r3, [pc, #12]	; (1000a260 <sms_timer_aon_configure_callback+0x2c>)
1000a254:	0512      	lsls	r2, r2, #20
1000a256:	601a      	str	r2, [r3, #0]
1000a258:	e7f6      	b.n	1000a248 <sms_timer_aon_configure_callback+0x14>
1000a25a:	46c0      	nop			; (mov r8, r8)
1000a25c:	1000a615 	.word	0x1000a615
1000a260:	e000e100 	.word	0xe000e100
1000a264:	1000a609 	.word	0x1000a609
1000a268:	1000a1ed 	.word	0x1000a1ed

1000a26c <sms_dualtimer_init>:
1000a26c:	b510      	push	{r4, lr}
1000a26e:	b088      	sub	sp, #32
1000a270:	a801      	add	r0, sp, #4
1000a272:	4b07      	ldr	r3, [pc, #28]	; (1000a290 <sms_dualtimer_init+0x24>)
1000a274:	4798      	blx	r3
1000a276:	4b07      	ldr	r3, [pc, #28]	; (1000a294 <sms_dualtimer_init+0x28>)
1000a278:	a801      	add	r0, sp, #4
1000a27a:	9303      	str	r3, [sp, #12]
1000a27c:	9306      	str	r3, [sp, #24]
1000a27e:	4b06      	ldr	r3, [pc, #24]	; (1000a298 <sms_dualtimer_init+0x2c>)
1000a280:	4798      	blx	r3
1000a282:	4c06      	ldr	r4, [pc, #24]	; (1000a29c <sms_dualtimer_init+0x30>)
1000a284:	2000      	movs	r0, #0
1000a286:	47a0      	blx	r4
1000a288:	2001      	movs	r0, #1
1000a28a:	47a0      	blx	r4
1000a28c:	b008      	add	sp, #32
1000a28e:	bd10      	pop	{r4, pc}
1000a290:	1000a731 	.word	0x1000a731
1000a294:	00006590 	.word	0x00006590
1000a298:	1000a779 	.word	0x1000a779
1000a29c:	1000a755 	.word	0x1000a755

1000a2a0 <ble_connected_app_event>:
1000a2a0:	8902      	ldrh	r2, [r0, #8]
1000a2a2:	4b03      	ldr	r3, [pc, #12]	; (1000a2b0 <ble_connected_app_event+0x10>)
1000a2a4:	2000      	movs	r0, #0
1000a2a6:	801a      	strh	r2, [r3, #0]
1000a2a8:	2201      	movs	r2, #1
1000a2aa:	4b02      	ldr	r3, [pc, #8]	; (1000a2b4 <ble_connected_app_event+0x14>)
1000a2ac:	701a      	strb	r2, [r3, #0]
1000a2ae:	4770      	bx	lr
1000a2b0:	10015098 	.word	0x10015098
1000a2b4:	100148b0 	.word	0x100148b0

1000a2b8 <ble_notification_confirmed_app_event>:
1000a2b8:	78c0      	ldrb	r0, [r0, #3]
1000a2ba:	2800      	cmp	r0, #0
1000a2bc:	d000      	beq.n	1000a2c0 <ble_notification_confirmed_app_event+0x8>
1000a2be:	20e2      	movs	r0, #226	; 0xe2
1000a2c0:	4770      	bx	lr
1000a2c2:	46c0      	nop			; (mov r8, r8)

1000a2c4 <ble_char_changed_app_event>:
1000a2c4:	2000      	movs	r0, #0
1000a2c6:	4770      	bx	lr

1000a2c8 <sms_plf_event_cb>:
1000a2c8:	2201      	movs	r2, #1
1000a2ca:	4b01      	ldr	r3, [pc, #4]	; (1000a2d0 <sms_plf_event_cb+0x8>)
1000a2cc:	705a      	strb	r2, [r3, #1]
1000a2ce:	4770      	bx	lr
1000a2d0:	10014fdc 	.word	0x10014fdc

1000a2d4 <ble_disconnected_app_event>:
1000a2d4:	2200      	movs	r2, #0
1000a2d6:	b510      	push	{r4, lr}
1000a2d8:	4b02      	ldr	r3, [pc, #8]	; (1000a2e4 <ble_disconnected_app_event+0x10>)
1000a2da:	701a      	strb	r2, [r3, #0]
1000a2dc:	4b02      	ldr	r3, [pc, #8]	; (1000a2e8 <ble_disconnected_app_event+0x14>)
1000a2de:	4798      	blx	r3
1000a2e0:	2000      	movs	r0, #0
1000a2e2:	bd10      	pop	{r4, pc}
1000a2e4:	100148b0 	.word	0x100148b0
1000a2e8:	10009691 	.word	0x10009691

1000a2ec <resume_cb>:
1000a2ec:	b510      	push	{r4, lr}
1000a2ee:	4b08      	ldr	r3, [pc, #32]	; (1000a310 <resume_cb+0x24>)
1000a2f0:	4798      	blx	r3
1000a2f2:	4b08      	ldr	r3, [pc, #32]	; (1000a314 <resume_cb+0x28>)
1000a2f4:	4798      	blx	r3
1000a2f6:	4b08      	ldr	r3, [pc, #32]	; (1000a318 <resume_cb+0x2c>)
1000a2f8:	4798      	blx	r3
1000a2fa:	4b08      	ldr	r3, [pc, #32]	; (1000a31c <resume_cb+0x30>)
1000a2fc:	781b      	ldrb	r3, [r3, #0]
1000a2fe:	2b01      	cmp	r3, #1
1000a300:	d000      	beq.n	1000a304 <resume_cb+0x18>
1000a302:	bd10      	pop	{r4, pc}
1000a304:	4b06      	ldr	r3, [pc, #24]	; (1000a320 <resume_cb+0x34>)
1000a306:	4798      	blx	r3
1000a308:	4b06      	ldr	r3, [pc, #24]	; (1000a324 <resume_cb+0x38>)
1000a30a:	4798      	blx	r3
1000a30c:	e7f9      	b.n	1000a302 <resume_cb+0x16>
1000a30e:	46c0      	nop			; (mov r8, r8)
1000a310:	1000d815 	.word	0x1000d815
1000a314:	1000d58d 	.word	0x1000d58d
1000a318:	1000a26d 	.word	0x1000a26d
1000a31c:	1001480c 	.word	0x1001480c
1000a320:	1000a0cd 	.word	0x1000a0cd
1000a324:	10009931 	.word	0x10009931

1000a328 <ble_paired_app_event>:
1000a328:	2000      	movs	r0, #0
1000a32a:	4770      	bx	lr

1000a32c <ble_adv_report_event>:
1000a32c:	2000      	movs	r0, #0
1000a32e:	4770      	bx	lr

1000a330 <main>:
1000a330:	b5f8      	push	{r3, r4, r5, r6, r7, lr}
1000a332:	2300      	movs	r3, #0
1000a334:	464d      	mov	r5, r9
1000a336:	4656      	mov	r6, sl
1000a338:	4644      	mov	r4, r8
1000a33a:	465f      	mov	r7, fp
1000a33c:	4a56      	ldr	r2, [pc, #344]	; (1000a498 <main+0x168>)
1000a33e:	b4f0      	push	{r4, r5, r6, r7}
1000a340:	7013      	strb	r3, [r2, #0]
1000a342:	4c56      	ldr	r4, [pc, #344]	; (1000a49c <main+0x16c>)
1000a344:	4a56      	ldr	r2, [pc, #344]	; (1000a4a0 <main+0x170>)
1000a346:	7023      	strb	r3, [r4, #0]
1000a348:	7013      	strb	r3, [r2, #0]
1000a34a:	7063      	strb	r3, [r4, #1]
1000a34c:	7053      	strb	r3, [r2, #1]
1000a34e:	4b55      	ldr	r3, [pc, #340]	; (1000a4a4 <main+0x174>)
1000a350:	4691      	mov	r9, r2
1000a352:	4798      	blx	r3
1000a354:	4b54      	ldr	r3, [pc, #336]	; (1000a4a8 <main+0x178>)
1000a356:	4798      	blx	r3
1000a358:	4e54      	ldr	r6, [pc, #336]	; (1000a4ac <main+0x17c>)
1000a35a:	47b0      	blx	r6
1000a35c:	4b54      	ldr	r3, [pc, #336]	; (1000a4b0 <main+0x180>)
1000a35e:	4798      	blx	r3
1000a360:	2000      	movs	r0, #0
1000a362:	4b54      	ldr	r3, [pc, #336]	; (1000a4b4 <main+0x184>)
1000a364:	4798      	blx	r3
1000a366:	4b54      	ldr	r3, [pc, #336]	; (1000a4b8 <main+0x188>)
1000a368:	4798      	blx	r3
1000a36a:	4b54      	ldr	r3, [pc, #336]	; (1000a4bc <main+0x18c>)
1000a36c:	4798      	blx	r3
1000a36e:	4b54      	ldr	r3, [pc, #336]	; (1000a4c0 <main+0x190>)
1000a370:	4798      	blx	r3
1000a372:	4b54      	ldr	r3, [pc, #336]	; (1000a4c4 <main+0x194>)
1000a374:	4798      	blx	r3
1000a376:	4d54      	ldr	r5, [pc, #336]	; (1000a4c8 <main+0x198>)
1000a378:	782b      	ldrb	r3, [r5, #0]
1000a37a:	2b01      	cmp	r3, #1
1000a37c:	d109      	bne.n	1000a392 <main+0x62>
1000a37e:	4b53      	ldr	r3, [pc, #332]	; (1000a4cc <main+0x19c>)
1000a380:	4798      	blx	r3
1000a382:	4b53      	ldr	r3, [pc, #332]	; (1000a4d0 <main+0x1a0>)
1000a384:	4798      	blx	r3
1000a386:	4b53      	ldr	r3, [pc, #332]	; (1000a4d4 <main+0x1a4>)
1000a388:	4798      	blx	r3
1000a38a:	4b53      	ldr	r3, [pc, #332]	; (1000a4d8 <main+0x1a8>)
1000a38c:	4798      	blx	r3
1000a38e:	4b53      	ldr	r3, [pc, #332]	; (1000a4dc <main+0x1ac>)
1000a390:	4798      	blx	r3
1000a392:	4b53      	ldr	r3, [pc, #332]	; (1000a4e0 <main+0x1b0>)
1000a394:	4853      	ldr	r0, [pc, #332]	; (1000a4e4 <main+0x1b4>)
1000a396:	4798      	blx	r3
1000a398:	2300      	movs	r3, #0
1000a39a:	4953      	ldr	r1, [pc, #332]	; (1000a4e8 <main+0x1b8>)
1000a39c:	4f53      	ldr	r7, [pc, #332]	; (1000a4ec <main+0x1bc>)
1000a39e:	700b      	strb	r3, [r1, #0]
1000a3a0:	0038      	movs	r0, r7
1000a3a2:	4b53      	ldr	r3, [pc, #332]	; (1000a4f0 <main+0x1c0>)
1000a3a4:	4798      	blx	r3
1000a3a6:	4b53      	ldr	r3, [pc, #332]	; (1000a4f4 <main+0x1c4>)
1000a3a8:	0038      	movs	r0, r7
1000a3aa:	4798      	blx	r3
1000a3ac:	782b      	ldrb	r3, [r5, #0]
1000a3ae:	2b01      	cmp	r3, #1
1000a3b0:	d058      	beq.n	1000a464 <main+0x134>
1000a3b2:	4d51      	ldr	r5, [pc, #324]	; (1000a4f8 <main+0x1c8>)
1000a3b4:	4a51      	ldr	r2, [pc, #324]	; (1000a4fc <main+0x1cc>)
1000a3b6:	2100      	movs	r1, #0
1000a3b8:	2000      	movs	r0, #0
1000a3ba:	47a8      	blx	r5
1000a3bc:	4a50      	ldr	r2, [pc, #320]	; (1000a500 <main+0x1d0>)
1000a3be:	2102      	movs	r1, #2
1000a3c0:	2000      	movs	r0, #0
1000a3c2:	47a8      	blx	r5
1000a3c4:	484f      	ldr	r0, [pc, #316]	; (1000a504 <main+0x1d4>)
1000a3c6:	4b50      	ldr	r3, [pc, #320]	; (1000a508 <main+0x1d8>)
1000a3c8:	4798      	blx	r3
1000a3ca:	4b50      	ldr	r3, [pc, #320]	; (1000a50c <main+0x1dc>)
1000a3cc:	4798      	blx	r3
1000a3ce:	4b50      	ldr	r3, [pc, #320]	; (1000a510 <main+0x1e0>)
1000a3d0:	4d50      	ldr	r5, [pc, #320]	; (1000a514 <main+0x1e4>)
1000a3d2:	469b      	mov	fp, r3
1000a3d4:	4b50      	ldr	r3, [pc, #320]	; (1000a518 <main+0x1e8>)
1000a3d6:	4f51      	ldr	r7, [pc, #324]	; (1000a51c <main+0x1ec>)
1000a3d8:	4698      	mov	r8, r3
1000a3da:	4b51      	ldr	r3, [pc, #324]	; (1000a520 <main+0x1f0>)
1000a3dc:	469a      	mov	sl, r3
1000a3de:	2001      	movs	r0, #1
1000a3e0:	4240      	negs	r0, r0
1000a3e2:	47a8      	blx	r5
1000a3e4:	7863      	ldrb	r3, [r4, #1]
1000a3e6:	2b00      	cmp	r3, #0
1000a3e8:	d0f9      	beq.n	1000a3de <main+0xae>
1000a3ea:	47b0      	blx	r6
1000a3ec:	7823      	ldrb	r3, [r4, #0]
1000a3ee:	b2db      	uxtb	r3, r3
1000a3f0:	2b02      	cmp	r3, #2
1000a3f2:	d02e      	beq.n	1000a452 <main+0x122>
1000a3f4:	d90f      	bls.n	1000a416 <main+0xe6>
1000a3f6:	2b03      	cmp	r3, #3
1000a3f8:	d011      	beq.n	1000a41e <main+0xee>
1000a3fa:	2b04      	cmp	r3, #4
1000a3fc:	d106      	bne.n	1000a40c <main+0xdc>
1000a3fe:	2101      	movs	r1, #1
1000a400:	2005      	movs	r0, #5
1000a402:	47c0      	blx	r8
1000a404:	47d0      	blx	sl
1000a406:	2100      	movs	r1, #0
1000a408:	2005      	movs	r0, #5
1000a40a:	47c0      	blx	r8
1000a40c:	2304      	movs	r3, #4
1000a40e:	7023      	strb	r3, [r4, #0]
1000a410:	2300      	movs	r3, #0
1000a412:	7063      	strb	r3, [r4, #1]
1000a414:	e7e3      	b.n	1000a3de <main+0xae>
1000a416:	2b01      	cmp	r3, #1
1000a418:	d1f8      	bne.n	1000a40c <main+0xdc>
1000a41a:	47d8      	blx	fp
1000a41c:	e7f6      	b.n	1000a40c <main+0xdc>
1000a41e:	464b      	mov	r3, r9
1000a420:	781b      	ldrb	r3, [r3, #0]
1000a422:	2b00      	cmp	r3, #0
1000a424:	d11b      	bne.n	1000a45e <main+0x12e>
1000a426:	464b      	mov	r3, r9
1000a428:	785b      	ldrb	r3, [r3, #1]
1000a42a:	2b00      	cmp	r3, #0
1000a42c:	d114      	bne.n	1000a458 <main+0x128>
1000a42e:	4b3d      	ldr	r3, [pc, #244]	; (1000a524 <main+0x1f4>)
1000a430:	4798      	blx	r3
1000a432:	4b3d      	ldr	r3, [pc, #244]	; (1000a528 <main+0x1f8>)
1000a434:	1a18      	subs	r0, r3, r0
1000a436:	60b8      	str	r0, [r7, #8]
1000a438:	68bb      	ldr	r3, [r7, #8]
1000a43a:	68fa      	ldr	r2, [r7, #12]
1000a43c:	1a9b      	subs	r3, r3, r2
1000a43e:	4a3b      	ldr	r2, [pc, #236]	; (1000a52c <main+0x1fc>)
1000a440:	4293      	cmp	r3, r2
1000a442:	d9e3      	bls.n	1000a40c <main+0xdc>
1000a444:	4b3a      	ldr	r3, [pc, #232]	; (1000a530 <main+0x200>)
1000a446:	781b      	ldrb	r3, [r3, #0]
1000a448:	2b00      	cmp	r3, #0
1000a44a:	d0df      	beq.n	1000a40c <main+0xdc>
1000a44c:	68bb      	ldr	r3, [r7, #8]
1000a44e:	60fb      	str	r3, [r7, #12]
1000a450:	e7d5      	b.n	1000a3fe <main+0xce>
1000a452:	4b38      	ldr	r3, [pc, #224]	; (1000a534 <main+0x204>)
1000a454:	4798      	blx	r3
1000a456:	e7d9      	b.n	1000a40c <main+0xdc>
1000a458:	4b37      	ldr	r3, [pc, #220]	; (1000a538 <main+0x208>)
1000a45a:	4798      	blx	r3
1000a45c:	e7e7      	b.n	1000a42e <main+0xfe>
1000a45e:	4b37      	ldr	r3, [pc, #220]	; (1000a53c <main+0x20c>)
1000a460:	4798      	blx	r3
1000a462:	e7e0      	b.n	1000a426 <main+0xf6>
1000a464:	4b36      	ldr	r3, [pc, #216]	; (1000a540 <main+0x210>)
1000a466:	2200      	movs	r2, #0
1000a468:	0019      	movs	r1, r3
1000a46a:	310c      	adds	r1, #12
1000a46c:	701a      	strb	r2, [r3, #0]
1000a46e:	3301      	adds	r3, #1
1000a470:	428b      	cmp	r3, r1
1000a472:	d1fb      	bne.n	1000a46c <main+0x13c>
1000a474:	4d33      	ldr	r5, [pc, #204]	; (1000a544 <main+0x214>)
1000a476:	2100      	movs	r1, #0
1000a478:	0028      	movs	r0, r5
1000a47a:	4b33      	ldr	r3, [pc, #204]	; (1000a548 <main+0x218>)
1000a47c:	4798      	blx	r3
1000a47e:	0028      	movs	r0, r5
1000a480:	4b32      	ldr	r3, [pc, #200]	; (1000a54c <main+0x21c>)
1000a482:	4798      	blx	r3
1000a484:	4d32      	ldr	r5, [pc, #200]	; (1000a550 <main+0x220>)
1000a486:	2100      	movs	r1, #0
1000a488:	0028      	movs	r0, r5
1000a48a:	4b32      	ldr	r3, [pc, #200]	; (1000a554 <main+0x224>)
1000a48c:	4798      	blx	r3
1000a48e:	0028      	movs	r0, r5
1000a490:	4b31      	ldr	r3, [pc, #196]	; (1000a558 <main+0x228>)
1000a492:	4798      	blx	r3
1000a494:	e78d      	b.n	1000a3b2 <main+0x82>
1000a496:	46c0      	nop			; (mov r8, r8)
1000a498:	1001512c 	.word	0x1001512c
1000a49c:	10014fdc 	.word	0x10014fdc
1000a4a0:	100150c8 	.word	0x100150c8
1000a4a4:	1000d85d 	.word	0x1000d85d
1000a4a8:	1000ad3d 	.word	0x1000ad3d
1000a4ac:	1000ddc9 	.word	0x1000ddc9
1000a4b0:	1000d58d 	.word	0x1000d58d
1000a4b4:	1000d149 	.word	0x1000d149
1000a4b8:	1000a26d 	.word	0x1000a26d
1000a4bc:	1000a55d 	.word	0x1000a55d
1000a4c0:	10009735 	.word	0x10009735
1000a4c4:	10009771 	.word	0x10009771
1000a4c8:	1001480c 	.word	0x1001480c
1000a4cc:	10009a2d 	.word	0x10009a2d
1000a4d0:	1000a0cd 	.word	0x1000a0cd
1000a4d4:	1000a145 	.word	0x1000a145
1000a4d8:	10009931 	.word	0x10009931
1000a4dc:	100099b9 	.word	0x100099b9
1000a4e0:	1000de4d 	.word	0x1000de4d
1000a4e4:	1000a2ed 	.word	0x1000a2ed
1000a4e8:	1001509b 	.word	0x1001509b
1000a4ec:	10014ff8 	.word	0x10014ff8
1000a4f0:	10009885 	.word	0x10009885
1000a4f4:	100098f5 	.word	0x100098f5
1000a4f8:	1000d339 	.word	0x1000d339
1000a4fc:	10014108 	.word	0x10014108
1000a500:	10014154 	.word	0x10014154
1000a504:	1000a2c9 	.word	0x1000a2c9
1000a508:	1000d545 	.word	0x1000d545
1000a50c:	1000de39 	.word	0x1000de39
1000a510:	1000979d 	.word	0x1000979d
1000a514:	1000d4c5 	.word	0x1000d4c5
1000a518:	1000aacd 	.word	0x1000aacd
1000a51c:	10014fe0 	.word	0x10014fe0
1000a520:	1000a005 	.word	0x1000a005
1000a524:	1000a5fd 	.word	0x1000a5fd
1000a528:	46500000 	.word	0x46500000
1000a52c:	00007cff 	.word	0x00007cff
1000a530:	100150f4 	.word	0x100150f4
1000a534:	100097e1 	.word	0x100097e1
1000a538:	10009afd 	.word	0x10009afd
1000a53c:	10009b55 	.word	0x10009b55
1000a540:	100151d8 	.word	0x100151d8
1000a544:	10015048 	.word	0x10015048
1000a548:	10009c41 	.word	0x10009c41
1000a54c:	10009cad 	.word	0x10009cad
1000a550:	10015188 	.word	0x10015188
1000a554:	1000a02d 	.word	0x1000a02d
1000a558:	1000a09d 	.word	0x1000a09d

1000a55c <delay_init>:
1000a55c:	b570      	push	{r4, r5, r6, lr}
1000a55e:	4b09      	ldr	r3, [pc, #36]	; (1000a584 <delay_init+0x28>)
1000a560:	4798      	blx	r3
1000a562:	21fa      	movs	r1, #250	; 0xfa
1000a564:	4c08      	ldr	r4, [pc, #32]	; (1000a588 <delay_init+0x2c>)
1000a566:	0089      	lsls	r1, r1, #2
1000a568:	0005      	movs	r5, r0
1000a56a:	47a0      	blx	r4
1000a56c:	4b07      	ldr	r3, [pc, #28]	; (1000a58c <delay_init+0x30>)
1000a56e:	4908      	ldr	r1, [pc, #32]	; (1000a590 <delay_init+0x34>)
1000a570:	6018      	str	r0, [r3, #0]
1000a572:	0028      	movs	r0, r5
1000a574:	47a0      	blx	r4
1000a576:	2205      	movs	r2, #5
1000a578:	4b06      	ldr	r3, [pc, #24]	; (1000a594 <delay_init+0x38>)
1000a57a:	6018      	str	r0, [r3, #0]
1000a57c:	4b06      	ldr	r3, [pc, #24]	; (1000a598 <delay_init+0x3c>)
1000a57e:	601a      	str	r2, [r3, #0]
1000a580:	bd70      	pop	{r4, r5, r6, pc}
1000a582:	46c0      	nop			; (mov r8, r8)
1000a584:	1000b985 	.word	0x1000b985
1000a588:	1001126d 	.word	0x1001126d
1000a58c:	10014814 	.word	0x10014814
1000a590:	000f4240 	.word	0x000f4240
1000a594:	10014810 	.word	0x10014810
1000a598:	e000e010 	.word	0xe000e010

1000a59c <delay_cycles_ms>:
1000a59c:	2180      	movs	r1, #128	; 0x80
1000a59e:	b530      	push	{r4, r5, lr}
1000a5a0:	2500      	movs	r5, #0
1000a5a2:	4b08      	ldr	r3, [pc, #32]	; (1000a5c4 <delay_cycles_ms+0x28>)
1000a5a4:	4a08      	ldr	r2, [pc, #32]	; (1000a5c8 <delay_cycles_ms+0x2c>)
1000a5a6:	681c      	ldr	r4, [r3, #0]
1000a5a8:	0249      	lsls	r1, r1, #9
1000a5aa:	3801      	subs	r0, #1
1000a5ac:	d308      	bcc.n	1000a5c0 <delay_cycles_ms+0x24>
1000a5ae:	2c00      	cmp	r4, #0
1000a5b0:	d0fb      	beq.n	1000a5aa <delay_cycles_ms+0xe>
1000a5b2:	6054      	str	r4, [r2, #4]
1000a5b4:	6095      	str	r5, [r2, #8]
1000a5b6:	6813      	ldr	r3, [r2, #0]
1000a5b8:	420b      	tst	r3, r1
1000a5ba:	d0fc      	beq.n	1000a5b6 <delay_cycles_ms+0x1a>
1000a5bc:	3801      	subs	r0, #1
1000a5be:	d2f6      	bcs.n	1000a5ae <delay_cycles_ms+0x12>
1000a5c0:	bd30      	pop	{r4, r5, pc}
1000a5c2:	46c0      	nop			; (mov r8, r8)
1000a5c4:	10014814 	.word	0x10014814
1000a5c8:	e000e010 	.word	0xe000e010

1000a5cc <aon_sleep_timer_isr_handler>:
1000a5cc:	2310      	movs	r3, #16
1000a5ce:	b510      	push	{r4, lr}
1000a5d0:	4a04      	ldr	r2, [pc, #16]	; (1000a5e4 <aon_sleep_timer_isr_handler+0x18>)
1000a5d2:	6811      	ldr	r1, [r2, #0]
1000a5d4:	430b      	orrs	r3, r1
1000a5d6:	6013      	str	r3, [r2, #0]
1000a5d8:	4b03      	ldr	r3, [pc, #12]	; (1000a5e8 <aon_sleep_timer_isr_handler+0x1c>)
1000a5da:	681b      	ldr	r3, [r3, #0]
1000a5dc:	2b00      	cmp	r3, #0
1000a5de:	d000      	beq.n	1000a5e2 <aon_sleep_timer_isr_handler+0x16>
1000a5e0:	4798      	blx	r3
1000a5e2:	bd10      	pop	{r4, pc}
1000a5e4:	4000d000 	.word	0x4000d000
1000a5e8:	100148b4 	.word	0x100148b4

1000a5ec <aon_sleep_timer_get_config_defaults>:
1000a5ec:	2301      	movs	r3, #1
1000a5ee:	7003      	strb	r3, [r0, #0]
1000a5f0:	7043      	strb	r3, [r0, #1]
1000a5f2:	23fa      	movs	r3, #250	; 0xfa
1000a5f4:	01db      	lsls	r3, r3, #7
1000a5f6:	6043      	str	r3, [r0, #4]
1000a5f8:	4770      	bx	lr
1000a5fa:	46c0      	nop			; (mov r8, r8)

1000a5fc <aon_sleep_timer_get_current_value>:
1000a5fc:	4b01      	ldr	r3, [pc, #4]	; (1000a604 <aon_sleep_timer_get_current_value+0x8>)
1000a5fe:	68d8      	ldr	r0, [r3, #12]
1000a600:	4770      	bx	lr
1000a602:	46c0      	nop			; (mov r8, r8)
1000a604:	4000d000 	.word	0x4000d000

1000a608 <aon_sleep_timer_register_callback>:
1000a608:	4b01      	ldr	r3, [pc, #4]	; (1000a610 <aon_sleep_timer_register_callback+0x8>)
1000a60a:	6018      	str	r0, [r3, #0]
1000a60c:	4770      	bx	lr
1000a60e:	46c0      	nop			; (mov r8, r8)
1000a610:	100148b4 	.word	0x100148b4

1000a614 <aon_sleep_timer_unregister_callback>:
1000a614:	2200      	movs	r2, #0
1000a616:	4b01      	ldr	r3, [pc, #4]	; (1000a61c <aon_sleep_timer_unregister_callback+0x8>)
1000a618:	601a      	str	r2, [r3, #0]
1000a61a:	4770      	bx	lr
1000a61c:	100148b4 	.word	0x100148b4

1000a620 <aon_sleep_timer_init>:
1000a620:	2200      	movs	r2, #0
1000a622:	b570      	push	{r4, r5, r6, lr}
1000a624:	4b2d      	ldr	r3, [pc, #180]	; (1000a6dc <aon_sleep_timer_init+0xbc>)
1000a626:	b082      	sub	sp, #8
1000a628:	731a      	strb	r2, [r3, #12]
1000a62a:	7802      	ldrb	r2, [r0, #0]
1000a62c:	2a02      	cmp	r2, #2
1000a62e:	d046      	beq.n	1000a6be <aon_sleep_timer_init+0x9e>
1000a630:	2a01      	cmp	r2, #1
1000a632:	d04e      	beq.n	1000a6d2 <aon_sleep_timer_init+0xb2>
1000a634:	492a      	ldr	r1, [pc, #168]	; (1000a6e0 <aon_sleep_timer_init+0xc0>)
1000a636:	680a      	ldr	r2, [r1, #0]
1000a638:	0053      	lsls	r3, r2, #1
1000a63a:	d048      	beq.n	1000a6ce <aon_sleep_timer_init+0xae>
1000a63c:	242c      	movs	r4, #44	; 0x2c
1000a63e:	2500      	movs	r5, #0
1000a640:	34ff      	adds	r4, #255	; 0xff
1000a642:	600d      	str	r5, [r1, #0]
1000a644:	9501      	str	r5, [sp, #4]
1000a646:	9501      	str	r5, [sp, #4]
1000a648:	9b01      	ldr	r3, [sp, #4]
1000a64a:	42a3      	cmp	r3, r4
1000a64c:	d806      	bhi.n	1000a65c <aon_sleep_timer_init+0x3c>
1000a64e:	46c0      	nop			; (mov r8, r8)
1000a650:	9b01      	ldr	r3, [sp, #4]
1000a652:	3301      	adds	r3, #1
1000a654:	9301      	str	r3, [sp, #4]
1000a656:	9b01      	ldr	r3, [sp, #4]
1000a658:	42a3      	cmp	r3, r4
1000a65a:	d9f8      	bls.n	1000a64e <aon_sleep_timer_init+0x2e>
1000a65c:	7846      	ldrb	r6, [r0, #1]
1000a65e:	2380      	movs	r3, #128	; 0x80
1000a660:	2e00      	cmp	r6, #0
1000a662:	d11a      	bne.n	1000a69a <aon_sleep_timer_init+0x7a>
1000a664:	009b      	lsls	r3, r3, #2
1000a666:	e000      	b.n	1000a66a <aon_sleep_timer_init+0x4a>
1000a668:	680a      	ldr	r2, [r1, #0]
1000a66a:	4213      	tst	r3, r2
1000a66c:	d1fc      	bne.n	1000a668 <aon_sleep_timer_init+0x48>
1000a66e:	680a      	ldr	r2, [r1, #0]
1000a670:	0053      	lsls	r3, r2, #1
1000a672:	d1e6      	bne.n	1000a642 <aon_sleep_timer_init+0x22>
1000a674:	4b1a      	ldr	r3, [pc, #104]	; (1000a6e0 <aon_sleep_timer_init+0xc0>)
1000a676:	6842      	ldr	r2, [r0, #4]
1000a678:	605a      	str	r2, [r3, #4]
1000a67a:	2e00      	cmp	r6, #0
1000a67c:	d10f      	bne.n	1000a69e <aon_sleep_timer_init+0x7e>
1000a67e:	2201      	movs	r2, #1
1000a680:	601a      	str	r2, [r3, #0]
1000a682:	7843      	ldrb	r3, [r0, #1]
1000a684:	2b01      	cmp	r3, #1
1000a686:	d00f      	beq.n	1000a6a8 <aon_sleep_timer_init+0x88>
1000a688:	2200      	movs	r2, #0
1000a68a:	4b16      	ldr	r3, [pc, #88]	; (1000a6e4 <aon_sleep_timer_init+0xc4>)
1000a68c:	4916      	ldr	r1, [pc, #88]	; (1000a6e8 <aon_sleep_timer_init+0xc8>)
1000a68e:	601a      	str	r2, [r3, #0]
1000a690:	202b      	movs	r0, #43	; 0x2b
1000a692:	4b16      	ldr	r3, [pc, #88]	; (1000a6ec <aon_sleep_timer_init+0xcc>)
1000a694:	4798      	blx	r3
1000a696:	b002      	add	sp, #8
1000a698:	bd70      	pop	{r4, r5, r6, pc}
1000a69a:	01db      	lsls	r3, r3, #7
1000a69c:	e7e5      	b.n	1000a66a <aon_sleep_timer_init+0x4a>
1000a69e:	2202      	movs	r2, #2
1000a6a0:	601a      	str	r2, [r3, #0]
1000a6a2:	7843      	ldrb	r3, [r0, #1]
1000a6a4:	2b01      	cmp	r3, #1
1000a6a6:	d1ef      	bne.n	1000a688 <aon_sleep_timer_init+0x68>
1000a6a8:	22e0      	movs	r2, #224	; 0xe0
1000a6aa:	490d      	ldr	r1, [pc, #52]	; (1000a6e0 <aon_sleep_timer_init+0xc0>)
1000a6ac:	01d2      	lsls	r2, r2, #7
1000a6ae:	680b      	ldr	r3, [r1, #0]
1000a6b0:	4013      	ands	r3, r2
1000a6b2:	4293      	cmp	r3, r2
1000a6b4:	d1fb      	bne.n	1000a6ae <aon_sleep_timer_init+0x8e>
1000a6b6:	2200      	movs	r2, #0
1000a6b8:	4b09      	ldr	r3, [pc, #36]	; (1000a6e0 <aon_sleep_timer_init+0xc0>)
1000a6ba:	601a      	str	r2, [r3, #0]
1000a6bc:	e7e4      	b.n	1000a688 <aon_sleep_timer_init+0x68>
1000a6be:	7b19      	ldrb	r1, [r3, #12]
1000a6c0:	3201      	adds	r2, #1
1000a6c2:	430a      	orrs	r2, r1
1000a6c4:	4906      	ldr	r1, [pc, #24]	; (1000a6e0 <aon_sleep_timer_init+0xc0>)
1000a6c6:	731a      	strb	r2, [r3, #12]
1000a6c8:	680a      	ldr	r2, [r1, #0]
1000a6ca:	0053      	lsls	r3, r2, #1
1000a6cc:	d1b6      	bne.n	1000a63c <aon_sleep_timer_init+0x1c>
1000a6ce:	7846      	ldrb	r6, [r0, #1]
1000a6d0:	e7d0      	b.n	1000a674 <aon_sleep_timer_init+0x54>
1000a6d2:	7b19      	ldrb	r1, [r3, #12]
1000a6d4:	430a      	orrs	r2, r1
1000a6d6:	731a      	strb	r2, [r3, #12]
1000a6d8:	e7ac      	b.n	1000a634 <aon_sleep_timer_init+0x14>
1000a6da:	46c0      	nop			; (mov r8, r8)
1000a6dc:	4000e000 	.word	0x4000e000
1000a6e0:	4000d000 	.word	0x4000d000
1000a6e4:	100148b4 	.word	0x100148b4
1000a6e8:	1000a5cd 	.word	0x1000a5cd
1000a6ec:	1000c39d 	.word	0x1000c39d

1000a6f0 <dualtimer_isr_handler>:
1000a6f0:	b510      	push	{r4, lr}
1000a6f2:	4b0c      	ldr	r3, [pc, #48]	; (1000a724 <dualtimer_isr_handler+0x34>)
1000a6f4:	7d1a      	ldrb	r2, [r3, #20]
1000a6f6:	2a00      	cmp	r2, #0
1000a6f8:	d006      	beq.n	1000a708 <dualtimer_isr_handler+0x18>
1000a6fa:	2201      	movs	r2, #1
1000a6fc:	731a      	strb	r2, [r3, #12]
1000a6fe:	4b0a      	ldr	r3, [pc, #40]	; (1000a728 <dualtimer_isr_handler+0x38>)
1000a700:	681b      	ldr	r3, [r3, #0]
1000a702:	2b00      	cmp	r3, #0
1000a704:	d000      	beq.n	1000a708 <dualtimer_isr_handler+0x18>
1000a706:	4798      	blx	r3
1000a708:	2234      	movs	r2, #52	; 0x34
1000a70a:	4b06      	ldr	r3, [pc, #24]	; (1000a724 <dualtimer_isr_handler+0x34>)
1000a70c:	5c9a      	ldrb	r2, [r3, r2]
1000a70e:	2a00      	cmp	r2, #0
1000a710:	d007      	beq.n	1000a722 <dualtimer_isr_handler+0x32>
1000a712:	2101      	movs	r1, #1
1000a714:	222c      	movs	r2, #44	; 0x2c
1000a716:	5499      	strb	r1, [r3, r2]
1000a718:	4b04      	ldr	r3, [pc, #16]	; (1000a72c <dualtimer_isr_handler+0x3c>)
1000a71a:	681b      	ldr	r3, [r3, #0]
1000a71c:	2b00      	cmp	r3, #0
1000a71e:	d000      	beq.n	1000a722 <dualtimer_isr_handler+0x32>
1000a720:	4798      	blx	r3
1000a722:	bd10      	pop	{r4, pc}
1000a724:	40001000 	.word	0x40001000
1000a728:	100148b8 	.word	0x100148b8
1000a72c:	100148bc 	.word	0x100148bc

1000a730 <dualtimer_get_config_defaults>:
1000a730:	2202      	movs	r2, #2
1000a732:	2301      	movs	r3, #1
1000a734:	7042      	strb	r2, [r0, #1]
1000a736:	7342      	strb	r2, [r0, #13]
1000a738:	2200      	movs	r2, #0
1000a73a:	7003      	strb	r3, [r0, #0]
1000a73c:	7303      	strb	r3, [r0, #12]
1000a73e:	7083      	strb	r3, [r0, #2]
1000a740:	7383      	strb	r3, [r0, #14]
1000a742:	70c2      	strb	r2, [r0, #3]
1000a744:	73c2      	strb	r2, [r0, #15]
1000a746:	7103      	strb	r3, [r0, #4]
1000a748:	7403      	strb	r3, [r0, #16]
1000a74a:	6082      	str	r2, [r0, #8]
1000a74c:	6142      	str	r2, [r0, #20]
1000a74e:	7602      	strb	r2, [r0, #24]
1000a750:	4770      	bx	lr
1000a752:	46c0      	nop			; (mov r8, r8)

1000a754 <dualtimer_disable>:
1000a754:	2800      	cmp	r0, #0
1000a756:	d006      	beq.n	1000a766 <dualtimer_disable+0x12>
1000a758:	2228      	movs	r2, #40	; 0x28
1000a75a:	207f      	movs	r0, #127	; 0x7f
1000a75c:	4905      	ldr	r1, [pc, #20]	; (1000a774 <dualtimer_disable+0x20>)
1000a75e:	5c8b      	ldrb	r3, [r1, r2]
1000a760:	4003      	ands	r3, r0
1000a762:	548b      	strb	r3, [r1, r2]
1000a764:	4770      	bx	lr
1000a766:	217f      	movs	r1, #127	; 0x7f
1000a768:	4a02      	ldr	r2, [pc, #8]	; (1000a774 <dualtimer_disable+0x20>)
1000a76a:	7a13      	ldrb	r3, [r2, #8]
1000a76c:	400b      	ands	r3, r1
1000a76e:	7213      	strb	r3, [r2, #8]
1000a770:	e7f8      	b.n	1000a764 <dualtimer_disable+0x10>
1000a772:	46c0      	nop			; (mov r8, r8)
1000a774:	40001000 	.word	0x40001000

1000a778 <dualtimer_init>:
1000a778:	b570      	push	{r4, r5, r6, lr}
1000a77a:	0004      	movs	r4, r0
1000a77c:	4b3a      	ldr	r3, [pc, #232]	; (1000a868 <dualtimer_init+0xf0>)
1000a77e:	2004      	movs	r0, #4
1000a780:	4798      	blx	r3
1000a782:	7823      	ldrb	r3, [r4, #0]
1000a784:	2b00      	cmp	r3, #0
1000a786:	d102      	bne.n	1000a78e <dualtimer_init+0x16>
1000a788:	7b23      	ldrb	r3, [r4, #12]
1000a78a:	2b00      	cmp	r3, #0
1000a78c:	d057      	beq.n	1000a83e <dualtimer_init+0xc6>
1000a78e:	2320      	movs	r3, #32
1000a790:	2003      	movs	r0, #3
1000a792:	4936      	ldr	r1, [pc, #216]	; (1000a86c <dualtimer_init+0xf4>)
1000a794:	68ca      	ldr	r2, [r1, #12]
1000a796:	4313      	orrs	r3, r2
1000a798:	60cb      	str	r3, [r1, #12]
1000a79a:	7e22      	ldrb	r2, [r4, #24]
1000a79c:	698b      	ldr	r3, [r1, #24]
1000a79e:	4002      	ands	r2, r0
1000a7a0:	302d      	adds	r0, #45	; 0x2d
1000a7a2:	0112      	lsls	r2, r2, #4
1000a7a4:	4383      	bics	r3, r0
1000a7a6:	4313      	orrs	r3, r2
1000a7a8:	618b      	str	r3, [r1, #24]
1000a7aa:	7823      	ldrb	r3, [r4, #0]
1000a7ac:	2b00      	cmp	r3, #0
1000a7ae:	d020      	beq.n	1000a7f2 <dualtimer_init+0x7a>
1000a7b0:	7862      	ldrb	r2, [r4, #1]
1000a7b2:	2001      	movs	r0, #1
1000a7b4:	2a00      	cmp	r2, #0
1000a7b6:	d150      	bne.n	1000a85a <dualtimer_init+0xe2>
1000a7b8:	2302      	movs	r3, #2
1000a7ba:	78a1      	ldrb	r1, [r4, #2]
1000a7bc:	78e2      	ldrb	r2, [r4, #3]
1000a7be:	0049      	lsls	r1, r1, #1
1000a7c0:	4019      	ands	r1, r3
1000a7c2:	0092      	lsls	r2, r2, #2
1000a7c4:	330a      	adds	r3, #10
1000a7c6:	401a      	ands	r2, r3
1000a7c8:	000b      	movs	r3, r1
1000a7ca:	4313      	orrs	r3, r2
1000a7cc:	7922      	ldrb	r2, [r4, #4]
1000a7ce:	4303      	orrs	r3, r0
1000a7d0:	2a00      	cmp	r2, #0
1000a7d2:	d13f      	bne.n	1000a854 <dualtimer_init+0xdc>
1000a7d4:	20c4      	movs	r0, #196	; 0xc4
1000a7d6:	68a1      	ldr	r1, [r4, #8]
1000a7d8:	4a25      	ldr	r2, [pc, #148]	; (1000a870 <dualtimer_init+0xf8>)
1000a7da:	4d24      	ldr	r5, [pc, #144]	; (1000a86c <dualtimer_init+0xf4>)
1000a7dc:	6011      	str	r1, [r2, #0]
1000a7de:	2101      	movs	r1, #1
1000a7e0:	7213      	strb	r3, [r2, #8]
1000a7e2:	0040      	lsls	r0, r0, #1
1000a7e4:	5c2e      	ldrb	r6, [r5, r0]
1000a7e6:	4331      	orrs	r1, r6
1000a7e8:	5429      	strb	r1, [r5, r0]
1000a7ea:	2180      	movs	r1, #128	; 0x80
1000a7ec:	7a10      	ldrb	r0, [r2, #8]
1000a7ee:	4301      	orrs	r1, r0
1000a7f0:	7211      	strb	r1, [r2, #8]
1000a7f2:	7b22      	ldrb	r2, [r4, #12]
1000a7f4:	2a00      	cmp	r2, #0
1000a7f6:	d022      	beq.n	1000a83e <dualtimer_init+0xc6>
1000a7f8:	7b62      	ldrb	r2, [r4, #13]
1000a7fa:	2a00      	cmp	r2, #0
1000a7fc:	d124      	bne.n	1000a848 <dualtimer_init+0xd0>
1000a7fe:	2301      	movs	r3, #1
1000a800:	2002      	movs	r0, #2
1000a802:	7ba2      	ldrb	r2, [r4, #14]
1000a804:	7be1      	ldrb	r1, [r4, #15]
1000a806:	0052      	lsls	r2, r2, #1
1000a808:	4010      	ands	r0, r2
1000a80a:	220c      	movs	r2, #12
1000a80c:	0089      	lsls	r1, r1, #2
1000a80e:	400a      	ands	r2, r1
1000a810:	4302      	orrs	r2, r0
1000a812:	4313      	orrs	r3, r2
1000a814:	7c22      	ldrb	r2, [r4, #16]
1000a816:	2a00      	cmp	r2, #0
1000a818:	d001      	beq.n	1000a81e <dualtimer_init+0xa6>
1000a81a:	2220      	movs	r2, #32
1000a81c:	4313      	orrs	r3, r2
1000a81e:	6961      	ldr	r1, [r4, #20]
1000a820:	4a13      	ldr	r2, [pc, #76]	; (1000a870 <dualtimer_init+0xf8>)
1000a822:	20c4      	movs	r0, #196	; 0xc4
1000a824:	6211      	str	r1, [r2, #32]
1000a826:	2128      	movs	r1, #40	; 0x28
1000a828:	5453      	strb	r3, [r2, r1]
1000a82a:	2302      	movs	r3, #2
1000a82c:	4c0f      	ldr	r4, [pc, #60]	; (1000a86c <dualtimer_init+0xf4>)
1000a82e:	0040      	lsls	r0, r0, #1
1000a830:	5c25      	ldrb	r5, [r4, r0]
1000a832:	432b      	orrs	r3, r5
1000a834:	5423      	strb	r3, [r4, r0]
1000a836:	2380      	movs	r3, #128	; 0x80
1000a838:	5c50      	ldrb	r0, [r2, r1]
1000a83a:	4303      	orrs	r3, r0
1000a83c:	5453      	strb	r3, [r2, r1]
1000a83e:	490d      	ldr	r1, [pc, #52]	; (1000a874 <dualtimer_init+0xfc>)
1000a840:	201e      	movs	r0, #30
1000a842:	4b0d      	ldr	r3, [pc, #52]	; (1000a878 <dualtimer_init+0x100>)
1000a844:	4798      	blx	r3
1000a846:	bd70      	pop	{r4, r5, r6, pc}
1000a848:	2a01      	cmp	r2, #1
1000a84a:	d00b      	beq.n	1000a864 <dualtimer_init+0xec>
1000a84c:	2a02      	cmp	r2, #2
1000a84e:	d1d7      	bne.n	1000a800 <dualtimer_init+0x88>
1000a850:	2340      	movs	r3, #64	; 0x40
1000a852:	e7d5      	b.n	1000a800 <dualtimer_init+0x88>
1000a854:	2220      	movs	r2, #32
1000a856:	4313      	orrs	r3, r2
1000a858:	e7bc      	b.n	1000a7d4 <dualtimer_init+0x5c>
1000a85a:	3a02      	subs	r2, #2
1000a85c:	4253      	negs	r3, r2
1000a85e:	4153      	adcs	r3, r2
1000a860:	0198      	lsls	r0, r3, #6
1000a862:	e7a9      	b.n	1000a7b8 <dualtimer_init+0x40>
1000a864:	2300      	movs	r3, #0
1000a866:	e7cb      	b.n	1000a800 <dualtimer_init+0x88>
1000a868:	1000bf85 	.word	0x1000bf85
1000a86c:	4000b000 	.word	0x4000b000
1000a870:	40001000 	.word	0x40001000
1000a874:	1000a6f1 	.word	0x1000a6f1
1000a878:	1000c39d 	.word	0x1000c39d

1000a87c <gpio_port0_isr_handler>:
1000a87c:	2300      	movs	r3, #0
1000a87e:	2001      	movs	r0, #1
1000a880:	b570      	push	{r4, r5, r6, lr}
1000a882:	4e13      	ldr	r6, [pc, #76]	; (1000a8d0 <gpio_port0_isr_handler+0x54>)
1000a884:	6835      	ldr	r5, [r6, #0]
1000a886:	8f29      	ldrh	r1, [r5, #56]	; 0x38
1000a888:	b289      	uxth	r1, r1
1000a88a:	0002      	movs	r2, r0
1000a88c:	409a      	lsls	r2, r3
1000a88e:	2401      	movs	r4, #1
1000a890:	4211      	tst	r1, r2
1000a892:	d109      	bne.n	1000a8a8 <gpio_port0_isr_handler+0x2c>
1000a894:	3301      	adds	r3, #1
1000a896:	2b10      	cmp	r3, #16
1000a898:	d1f7      	bne.n	1000a88a <gpio_port0_isr_handler+0xe>
1000a89a:	2180      	movs	r1, #128	; 0x80
1000a89c:	23c0      	movs	r3, #192	; 0xc0
1000a89e:	4a0d      	ldr	r2, [pc, #52]	; (1000a8d4 <gpio_port0_isr_handler+0x58>)
1000a8a0:	0409      	lsls	r1, r1, #16
1000a8a2:	005b      	lsls	r3, r3, #1
1000a8a4:	50d1      	str	r1, [r2, r3]
1000a8a6:	bd70      	pop	{r4, r5, r6, pc}
1000a8a8:	8f29      	ldrh	r1, [r5, #56]	; 0x38
1000a8aa:	430a      	orrs	r2, r1
1000a8ac:	b292      	uxth	r2, r2
1000a8ae:	872a      	strh	r2, [r5, #56]	; 0x38
1000a8b0:	2246      	movs	r2, #70	; 0x46
1000a8b2:	5ab2      	ldrh	r2, [r6, r2]
1000a8b4:	411a      	asrs	r2, r3
1000a8b6:	4214      	tst	r4, r2
1000a8b8:	d0ef      	beq.n	1000a89a <gpio_port0_isr_handler+0x1e>
1000a8ba:	2244      	movs	r2, #68	; 0x44
1000a8bc:	5ab2      	ldrh	r2, [r6, r2]
1000a8be:	411a      	asrs	r2, r3
1000a8c0:	4214      	tst	r4, r2
1000a8c2:	d0ea      	beq.n	1000a89a <gpio_port0_isr_handler+0x1e>
1000a8c4:	009b      	lsls	r3, r3, #2
1000a8c6:	18f3      	adds	r3, r6, r3
1000a8c8:	685b      	ldr	r3, [r3, #4]
1000a8ca:	4798      	blx	r3
1000a8cc:	e7e5      	b.n	1000a89a <gpio_port0_isr_handler+0x1e>
1000a8ce:	46c0      	nop			; (mov r8, r8)
1000a8d0:	10015220 	.word	0x10015220
1000a8d4:	e000e100 	.word	0xe000e100

1000a8d8 <gpio_port1_isr_handler>:
1000a8d8:	b5f0      	push	{r4, r5, r6, r7, lr}
1000a8da:	4657      	mov	r7, sl
1000a8dc:	464e      	mov	r6, r9
1000a8de:	4645      	mov	r5, r8
1000a8e0:	b4e0      	push	{r5, r6, r7}
1000a8e2:	4e1c      	ldr	r6, [pc, #112]	; (1000a954 <gpio_port1_isr_handler+0x7c>)
1000a8e4:	2400      	movs	r4, #0
1000a8e6:	6cb3      	ldr	r3, [r6, #72]	; 0x48
1000a8e8:	2501      	movs	r5, #1
1000a8ea:	8f1f      	ldrh	r7, [r3, #56]	; 0x38
1000a8ec:	b2bf      	uxth	r7, r7
1000a8ee:	0b7b      	lsrs	r3, r7, #13
1000a8f0:	035b      	lsls	r3, r3, #13
1000a8f2:	4698      	mov	r8, r3
1000a8f4:	4b18      	ldr	r3, [pc, #96]	; (1000a958 <gpio_port1_isr_handler+0x80>)
1000a8f6:	469a      	mov	sl, r3
1000a8f8:	238e      	movs	r3, #142	; 0x8e
1000a8fa:	4699      	mov	r9, r3
1000a8fc:	e015      	b.n	1000a92a <gpio_port1_isr_handler+0x52>
1000a8fe:	002b      	movs	r3, r5
1000a900:	40a3      	lsls	r3, r4
1000a902:	421f      	tst	r7, r3
1000a904:	d00e      	beq.n	1000a924 <gpio_port1_isr_handler+0x4c>
1000a906:	6cb2      	ldr	r2, [r6, #72]	; 0x48
1000a908:	8f11      	ldrh	r1, [r2, #56]	; 0x38
1000a90a:	430b      	orrs	r3, r1
1000a90c:	b29b      	uxth	r3, r3
1000a90e:	8713      	strh	r3, [r2, #56]	; 0x38
1000a910:	464b      	mov	r3, r9
1000a912:	5af3      	ldrh	r3, [r6, r3]
1000a914:	4123      	asrs	r3, r4
1000a916:	421d      	tst	r5, r3
1000a918:	d004      	beq.n	1000a924 <gpio_port1_isr_handler+0x4c>
1000a91a:	238c      	movs	r3, #140	; 0x8c
1000a91c:	5af3      	ldrh	r3, [r6, r3]
1000a91e:	4123      	asrs	r3, r4
1000a920:	421d      	tst	r5, r3
1000a922:	d107      	bne.n	1000a934 <gpio_port1_isr_handler+0x5c>
1000a924:	3401      	adds	r4, #1
1000a926:	2c10      	cmp	r4, #16
1000a928:	d009      	beq.n	1000a93e <gpio_port1_isr_handler+0x66>
1000a92a:	4643      	mov	r3, r8
1000a92c:	2b00      	cmp	r3, #0
1000a92e:	d0e6      	beq.n	1000a8fe <gpio_port1_isr_handler+0x26>
1000a930:	47d0      	blx	sl
1000a932:	e7e4      	b.n	1000a8fe <gpio_port1_isr_handler+0x26>
1000a934:	3412      	adds	r4, #18
1000a936:	00a4      	lsls	r4, r4, #2
1000a938:	1934      	adds	r4, r6, r4
1000a93a:	6863      	ldr	r3, [r4, #4]
1000a93c:	4798      	blx	r3
1000a93e:	2180      	movs	r1, #128	; 0x80
1000a940:	23c0      	movs	r3, #192	; 0xc0
1000a942:	4a06      	ldr	r2, [pc, #24]	; (1000a95c <gpio_port1_isr_handler+0x84>)
1000a944:	0449      	lsls	r1, r1, #17
1000a946:	005b      	lsls	r3, r3, #1
1000a948:	50d1      	str	r1, [r2, r3]
1000a94a:	bc1c      	pop	{r2, r3, r4}
1000a94c:	4690      	mov	r8, r2
1000a94e:	4699      	mov	r9, r3
1000a950:	46a2      	mov	sl, r4
1000a952:	bdf0      	pop	{r4, r5, r6, r7, pc}
1000a954:	10015220 	.word	0x10015220
1000a958:	0001bc51 	.word	0x0001bc51
1000a95c:	e000e100 	.word	0xe000e100

1000a960 <gpio_get_config_defaults>:
1000a960:	2300      	movs	r3, #0
1000a962:	2201      	movs	r2, #1
1000a964:	7003      	strb	r3, [r0, #0]
1000a966:	7042      	strb	r2, [r0, #1]
1000a968:	7083      	strb	r3, [r0, #2]
1000a96a:	70c3      	strb	r3, [r0, #3]
1000a96c:	4770      	bx	lr
1000a96e:	46c0      	nop			; (mov r8, r8)

1000a970 <gpio_pin_set_config>:
1000a970:	0003      	movs	r3, r0
1000a972:	b530      	push	{r4, r5, lr}
1000a974:	2017      	movs	r0, #23
1000a976:	2b01      	cmp	r3, #1
1000a978:	d932      	bls.n	1000a9e0 <gpio_pin_set_config+0x70>
1000a97a:	2b0e      	cmp	r3, #14
1000a97c:	d030      	beq.n	1000a9e0 <gpio_pin_set_config+0x70>
1000a97e:	2b07      	cmp	r3, #7
1000a980:	d92f      	bls.n	1000a9e2 <gpio_pin_set_config+0x72>
1000a982:	2b0f      	cmp	r3, #15
1000a984:	d861      	bhi.n	1000aa4a <gpio_pin_set_config+0xda>
1000a986:	2207      	movs	r2, #7
1000a988:	0014      	movs	r4, r2
1000a98a:	401c      	ands	r4, r3
1000a98c:	00a4      	lsls	r4, r4, #2
1000a98e:	40a2      	lsls	r2, r4
1000a990:	4d49      	ldr	r5, [pc, #292]	; (1000aab8 <gpio_pin_set_config+0x148>)
1000a992:	6ca8      	ldr	r0, [r5, #72]	; 0x48
1000a994:	4390      	bics	r0, r2
1000a996:	64a8      	str	r0, [r5, #72]	; 0x48
1000a998:	001a      	movs	r2, r3
1000a99a:	3a1d      	subs	r2, #29
1000a99c:	2a02      	cmp	r2, #2
1000a99e:	d82b      	bhi.n	1000a9f8 <gpio_pin_set_config+0x88>
1000a9a0:	241f      	movs	r4, #31
1000a9a2:	4d46      	ldr	r5, [pc, #280]	; (1000aabc <gpio_pin_set_config+0x14c>)
1000a9a4:	784a      	ldrb	r2, [r1, #1]
1000a9a6:	7d28      	ldrb	r0, [r5, #20]
1000a9a8:	1ae4      	subs	r4, r4, r3
1000a9aa:	2a01      	cmp	r2, #1
1000a9ac:	d100      	bne.n	1000a9b0 <gpio_pin_set_config+0x40>
1000a9ae:	e06c      	b.n	1000aa8a <gpio_pin_set_config+0x11a>
1000a9b0:	2201      	movs	r2, #1
1000a9b2:	40a2      	lsls	r2, r4
1000a9b4:	4302      	orrs	r2, r0
1000a9b6:	b2d2      	uxtb	r2, r2
1000a9b8:	752a      	strb	r2, [r5, #20]
1000a9ba:	78ca      	ldrb	r2, [r1, #3]
1000a9bc:	2a00      	cmp	r2, #0
1000a9be:	d042      	beq.n	1000aa46 <gpio_pin_set_config+0xd6>
1000a9c0:	201f      	movs	r0, #31
1000a9c2:	1ac0      	subs	r0, r0, r3
1000a9c4:	2301      	movs	r3, #1
1000a9c6:	0080      	lsls	r0, r0, #2
1000a9c8:	4083      	lsls	r3, r0
1000a9ca:	493c      	ldr	r1, [pc, #240]	; (1000aabc <gpio_pin_set_config+0x14c>)
1000a9cc:	2000      	movs	r0, #0
1000a9ce:	880a      	ldrh	r2, [r1, #0]
1000a9d0:	4313      	orrs	r3, r2
1000a9d2:	b29b      	uxth	r3, r3
1000a9d4:	800b      	strh	r3, [r1, #0]
1000a9d6:	2302      	movs	r3, #2
1000a9d8:	4a39      	ldr	r2, [pc, #228]	; (1000aac0 <gpio_pin_set_config+0x150>)
1000a9da:	7811      	ldrb	r1, [r2, #0]
1000a9dc:	430b      	orrs	r3, r1
1000a9de:	7013      	strb	r3, [r2, #0]
1000a9e0:	bd30      	pop	{r4, r5, pc}
1000a9e2:	009d      	lsls	r5, r3, #2
1000a9e4:	3810      	subs	r0, #16
1000a9e6:	40a8      	lsls	r0, r5
1000a9e8:	4c33      	ldr	r4, [pc, #204]	; (1000aab8 <gpio_pin_set_config+0x148>)
1000a9ea:	6c62      	ldr	r2, [r4, #68]	; 0x44
1000a9ec:	4382      	bics	r2, r0
1000a9ee:	6462      	str	r2, [r4, #68]	; 0x44
1000a9f0:	001a      	movs	r2, r3
1000a9f2:	3a1d      	subs	r2, #29
1000a9f4:	2a02      	cmp	r2, #2
1000a9f6:	d9d3      	bls.n	1000a9a0 <gpio_pin_set_config+0x30>
1000a9f8:	780a      	ldrb	r2, [r1, #0]
1000a9fa:	2a00      	cmp	r2, #0
1000a9fc:	d131      	bne.n	1000aa62 <gpio_pin_set_config+0xf2>
1000a9fe:	2b0f      	cmp	r3, #15
1000aa00:	d93d      	bls.n	1000aa7e <gpio_pin_set_config+0x10e>
1000aa02:	200f      	movs	r0, #15
1000aa04:	2201      	movs	r2, #1
1000aa06:	4018      	ands	r0, r3
1000aa08:	4082      	lsls	r2, r0
1000aa0a:	482e      	ldr	r0, [pc, #184]	; (1000aac4 <gpio_pin_set_config+0x154>)
1000aa0c:	b292      	uxth	r2, r2
1000aa0e:	8282      	strh	r2, [r0, #20]
1000aa10:	784a      	ldrb	r2, [r1, #1]
1000aa12:	2a01      	cmp	r2, #1
1000aa14:	d03f      	beq.n	1000aa96 <gpio_pin_set_config+0x126>
1000aa16:	2a00      	cmp	r2, #0
1000aa18:	d00e      	beq.n	1000aa38 <gpio_pin_set_config+0xc8>
1000aa1a:	2a02      	cmp	r2, #2
1000aa1c:	d139      	bne.n	1000aa92 <gpio_pin_set_config+0x122>
1000aa1e:	2101      	movs	r1, #1
1000aa20:	4099      	lsls	r1, r3
1000aa22:	4a25      	ldr	r2, [pc, #148]	; (1000aab8 <gpio_pin_set_config+0x148>)
1000aa24:	000b      	movs	r3, r1
1000aa26:	6d50      	ldr	r0, [r2, #84]	; 0x54
1000aa28:	0001      	movs	r1, r0
1000aa2a:	4319      	orrs	r1, r3
1000aa2c:	6551      	str	r1, [r2, #84]	; 0x54
1000aa2e:	6d11      	ldr	r1, [r2, #80]	; 0x50
1000aa30:	2000      	movs	r0, #0
1000aa32:	4399      	bics	r1, r3
1000aa34:	6511      	str	r1, [r2, #80]	; 0x50
1000aa36:	e7d3      	b.n	1000a9e0 <gpio_pin_set_config+0x70>
1000aa38:	2101      	movs	r1, #1
1000aa3a:	4099      	lsls	r1, r3
1000aa3c:	000b      	movs	r3, r1
1000aa3e:	481e      	ldr	r0, [pc, #120]	; (1000aab8 <gpio_pin_set_config+0x148>)
1000aa40:	6d02      	ldr	r2, [r0, #80]	; 0x50
1000aa42:	4313      	orrs	r3, r2
1000aa44:	6503      	str	r3, [r0, #80]	; 0x50
1000aa46:	2000      	movs	r0, #0
1000aa48:	e7ca      	b.n	1000a9e0 <gpio_pin_set_config+0x70>
1000aa4a:	2b17      	cmp	r3, #23
1000aa4c:	d8a4      	bhi.n	1000a998 <gpio_pin_set_config+0x28>
1000aa4e:	2207      	movs	r2, #7
1000aa50:	0014      	movs	r4, r2
1000aa52:	401c      	ands	r4, r3
1000aa54:	00a4      	lsls	r4, r4, #2
1000aa56:	40a2      	lsls	r2, r4
1000aa58:	4d17      	ldr	r5, [pc, #92]	; (1000aab8 <gpio_pin_set_config+0x148>)
1000aa5a:	6ce8      	ldr	r0, [r5, #76]	; 0x4c
1000aa5c:	4390      	bics	r0, r2
1000aa5e:	64e8      	str	r0, [r5, #76]	; 0x4c
1000aa60:	e79a      	b.n	1000a998 <gpio_pin_set_config+0x28>
1000aa62:	2a01      	cmp	r2, #1
1000aa64:	d1ef      	bne.n	1000aa46 <gpio_pin_set_config+0xd6>
1000aa66:	2b0f      	cmp	r3, #15
1000aa68:	d91d      	bls.n	1000aaa6 <gpio_pin_set_config+0x136>
1000aa6a:	200f      	movs	r0, #15
1000aa6c:	4003      	ands	r3, r0
1000aa6e:	409a      	lsls	r2, r3
1000aa70:	4c14      	ldr	r4, [pc, #80]	; (1000aac4 <gpio_pin_set_config+0x154>)
1000aa72:	2000      	movs	r0, #0
1000aa74:	8a21      	ldrh	r1, [r4, #16]
1000aa76:	430a      	orrs	r2, r1
1000aa78:	b292      	uxth	r2, r2
1000aa7a:	8222      	strh	r2, [r4, #16]
1000aa7c:	e7b0      	b.n	1000a9e0 <gpio_pin_set_config+0x70>
1000aa7e:	3201      	adds	r2, #1
1000aa80:	409a      	lsls	r2, r3
1000aa82:	4811      	ldr	r0, [pc, #68]	; (1000aac8 <gpio_pin_set_config+0x158>)
1000aa84:	b292      	uxth	r2, r2
1000aa86:	8282      	strh	r2, [r0, #20]
1000aa88:	e7c2      	b.n	1000aa10 <gpio_pin_set_config+0xa0>
1000aa8a:	40a2      	lsls	r2, r4
1000aa8c:	4390      	bics	r0, r2
1000aa8e:	7528      	strb	r0, [r5, #20]
1000aa90:	e793      	b.n	1000a9ba <gpio_pin_set_config+0x4a>
1000aa92:	2017      	movs	r0, #23
1000aa94:	e7a4      	b.n	1000a9e0 <gpio_pin_set_config+0x70>
1000aa96:	4808      	ldr	r0, [pc, #32]	; (1000aab8 <gpio_pin_set_config+0x148>)
1000aa98:	409a      	lsls	r2, r3
1000aa9a:	6d01      	ldr	r1, [r0, #80]	; 0x50
1000aa9c:	000b      	movs	r3, r1
1000aa9e:	4393      	bics	r3, r2
1000aaa0:	6503      	str	r3, [r0, #80]	; 0x50
1000aaa2:	2000      	movs	r0, #0
1000aaa4:	e79c      	b.n	1000a9e0 <gpio_pin_set_config+0x70>
1000aaa6:	409a      	lsls	r2, r3
1000aaa8:	4807      	ldr	r0, [pc, #28]	; (1000aac8 <gpio_pin_set_config+0x158>)
1000aaaa:	8a01      	ldrh	r1, [r0, #16]
1000aaac:	430a      	orrs	r2, r1
1000aaae:	b292      	uxth	r2, r2
1000aab0:	8202      	strh	r2, [r0, #16]
1000aab2:	2000      	movs	r0, #0
1000aab4:	e794      	b.n	1000a9e0 <gpio_pin_set_config+0x70>
1000aab6:	46c0      	nop			; (mov r8, r8)
1000aab8:	4000b000 	.word	0x4000b000
1000aabc:	4000f000 	.word	0x4000f000
1000aac0:	4000e000 	.word	0x4000e000
1000aac4:	40011000 	.word	0x40011000
1000aac8:	40010000 	.word	0x40010000

1000aacc <gpio_pin_set_output_level>:
1000aacc:	280f      	cmp	r0, #15
1000aace:	d809      	bhi.n	1000aae4 <gpio_pin_set_output_level+0x18>
1000aad0:	2900      	cmp	r1, #0
1000aad2:	d012      	beq.n	1000aafa <gpio_pin_set_output_level+0x2e>
1000aad4:	490f      	ldr	r1, [pc, #60]	; (1000ab14 <gpio_pin_set_output_level+0x48>)
1000aad6:	888a      	ldrh	r2, [r1, #4]
1000aad8:	2301      	movs	r3, #1
1000aada:	4083      	lsls	r3, r0
1000aadc:	4313      	orrs	r3, r2
1000aade:	b29b      	uxth	r3, r3
1000aae0:	808b      	strh	r3, [r1, #4]
1000aae2:	e009      	b.n	1000aaf8 <gpio_pin_set_output_level+0x2c>
1000aae4:	2900      	cmp	r1, #0
1000aae6:	d10f      	bne.n	1000ab08 <gpio_pin_set_output_level+0x3c>
1000aae8:	220f      	movs	r2, #15
1000aaea:	4010      	ands	r0, r2
1000aaec:	3a0e      	subs	r2, #14
1000aaee:	4082      	lsls	r2, r0
1000aaf0:	4909      	ldr	r1, [pc, #36]	; (1000ab18 <gpio_pin_set_output_level+0x4c>)
1000aaf2:	888b      	ldrh	r3, [r1, #4]
1000aaf4:	4393      	bics	r3, r2
1000aaf6:	808b      	strh	r3, [r1, #4]
1000aaf8:	4770      	bx	lr
1000aafa:	2201      	movs	r2, #1
1000aafc:	4082      	lsls	r2, r0
1000aafe:	4905      	ldr	r1, [pc, #20]	; (1000ab14 <gpio_pin_set_output_level+0x48>)
1000ab00:	888b      	ldrh	r3, [r1, #4]
1000ab02:	4393      	bics	r3, r2
1000ab04:	808b      	strh	r3, [r1, #4]
1000ab06:	e7f7      	b.n	1000aaf8 <gpio_pin_set_output_level+0x2c>
1000ab08:	230f      	movs	r3, #15
1000ab0a:	4903      	ldr	r1, [pc, #12]	; (1000ab18 <gpio_pin_set_output_level+0x4c>)
1000ab0c:	4018      	ands	r0, r3
1000ab0e:	888a      	ldrh	r2, [r1, #4]
1000ab10:	e7e2      	b.n	1000aad8 <gpio_pin_set_output_level+0xc>
1000ab12:	46c0      	nop			; (mov r8, r8)
1000ab14:	40010000 	.word	0x40010000
1000ab18:	40011000 	.word	0x40011000

1000ab1c <gpio_pinmux_cofiguration>:
1000ab1c:	23ff      	movs	r3, #255	; 0xff
1000ab1e:	b570      	push	{r4, r5, r6, lr}
1000ab20:	0a0d      	lsrs	r5, r1, #8
1000ab22:	4019      	ands	r1, r3
1000ab24:	2807      	cmp	r0, #7
1000ab26:	d80e      	bhi.n	1000ab46 <gpio_pinmux_cofiguration+0x2a>
1000ab28:	2407      	movs	r4, #7
1000ab2a:	0086      	lsls	r6, r0, #2
1000ab2c:	40b4      	lsls	r4, r6
1000ab2e:	4b31      	ldr	r3, [pc, #196]	; (1000abf4 <gpio_pinmux_cofiguration+0xd8>)
1000ab30:	6c5a      	ldr	r2, [r3, #68]	; 0x44
1000ab32:	43a2      	bics	r2, r4
1000ab34:	000c      	movs	r4, r1
1000ab36:	40b4      	lsls	r4, r6
1000ab38:	645a      	str	r2, [r3, #68]	; 0x44
1000ab3a:	6c5a      	ldr	r2, [r3, #68]	; 0x44
1000ab3c:	4322      	orrs	r2, r4
1000ab3e:	645a      	str	r2, [r3, #68]	; 0x44
1000ab40:	2901      	cmp	r1, #1
1000ab42:	d036      	beq.n	1000abb2 <gpio_pinmux_cofiguration+0x96>
1000ab44:	bd70      	pop	{r4, r5, r6, pc}
1000ab46:	280f      	cmp	r0, #15
1000ab48:	d816      	bhi.n	1000ab78 <gpio_pinmux_cofiguration+0x5c>
1000ab4a:	2407      	movs	r4, #7
1000ab4c:	0022      	movs	r2, r4
1000ab4e:	4002      	ands	r2, r0
1000ab50:	0092      	lsls	r2, r2, #2
1000ab52:	4094      	lsls	r4, r2
1000ab54:	4b27      	ldr	r3, [pc, #156]	; (1000abf4 <gpio_pinmux_cofiguration+0xd8>)
1000ab56:	6c9e      	ldr	r6, [r3, #72]	; 0x48
1000ab58:	43a6      	bics	r6, r4
1000ab5a:	649e      	str	r6, [r3, #72]	; 0x48
1000ab5c:	000e      	movs	r6, r1
1000ab5e:	4096      	lsls	r6, r2
1000ab60:	0032      	movs	r2, r6
1000ab62:	6c9c      	ldr	r4, [r3, #72]	; 0x48
1000ab64:	4322      	orrs	r2, r4
1000ab66:	649a      	str	r2, [r3, #72]	; 0x48
1000ab68:	2901      	cmp	r1, #1
1000ab6a:	d1eb      	bne.n	1000ab44 <gpio_pinmux_cofiguration+0x28>
1000ab6c:	31a8      	adds	r1, #168	; 0xa8
1000ab6e:	280b      	cmp	r0, #11
1000ab70:	d93e      	bls.n	1000abf0 <gpio_pinmux_cofiguration+0xd4>
1000ab72:	21d6      	movs	r1, #214	; 0xd6
1000ab74:	0049      	lsls	r1, r1, #1
1000ab76:	e020      	b.n	1000abba <gpio_pinmux_cofiguration+0x9e>
1000ab78:	2817      	cmp	r0, #23
1000ab7a:	d8e3      	bhi.n	1000ab44 <gpio_pinmux_cofiguration+0x28>
1000ab7c:	2407      	movs	r4, #7
1000ab7e:	0022      	movs	r2, r4
1000ab80:	4002      	ands	r2, r0
1000ab82:	0092      	lsls	r2, r2, #2
1000ab84:	4094      	lsls	r4, r2
1000ab86:	4b1b      	ldr	r3, [pc, #108]	; (1000abf4 <gpio_pinmux_cofiguration+0xd8>)
1000ab88:	6cde      	ldr	r6, [r3, #76]	; 0x4c
1000ab8a:	43a6      	bics	r6, r4
1000ab8c:	64de      	str	r6, [r3, #76]	; 0x4c
1000ab8e:	000e      	movs	r6, r1
1000ab90:	4096      	lsls	r6, r2
1000ab92:	0032      	movs	r2, r6
1000ab94:	6cdc      	ldr	r4, [r3, #76]	; 0x4c
1000ab96:	4322      	orrs	r2, r4
1000ab98:	64da      	str	r2, [r3, #76]	; 0x4c
1000ab9a:	2901      	cmp	r1, #1
1000ab9c:	d1d2      	bne.n	1000ab44 <gpio_pinmux_cofiguration+0x28>
1000ab9e:	2813      	cmp	r0, #19
1000aba0:	d925      	bls.n	1000abee <gpio_pinmux_cofiguration+0xd2>
1000aba2:	2403      	movs	r4, #3
1000aba4:	22da      	movs	r2, #218	; 0xda
1000aba6:	4020      	ands	r0, r4
1000aba8:	0052      	lsls	r2, r2, #1
1000abaa:	5899      	ldr	r1, [r3, r2]
1000abac:	00c0      	lsls	r0, r0, #3
1000abae:	343c      	adds	r4, #60	; 0x3c
1000abb0:	e015      	b.n	1000abde <gpio_pinmux_cofiguration+0xc2>
1000abb2:	2803      	cmp	r0, #3
1000abb4:	d90e      	bls.n	1000abd4 <gpio_pinmux_cofiguration+0xb8>
1000abb6:	21d2      	movs	r1, #210	; 0xd2
1000abb8:	0049      	lsls	r1, r1, #1
1000abba:	2203      	movs	r2, #3
1000abbc:	4010      	ands	r0, r2
1000abbe:	00c0      	lsls	r0, r0, #3
1000abc0:	323c      	adds	r2, #60	; 0x3c
1000abc2:	4082      	lsls	r2, r0
1000abc4:	4085      	lsls	r5, r0
1000abc6:	585c      	ldr	r4, [r3, r1]
1000abc8:	4394      	bics	r4, r2
1000abca:	505c      	str	r4, [r3, r1]
1000abcc:	585a      	ldr	r2, [r3, r1]
1000abce:	4315      	orrs	r5, r2
1000abd0:	505d      	str	r5, [r3, r1]
1000abd2:	e7b7      	b.n	1000ab44 <gpio_pinmux_cofiguration+0x28>
1000abd4:	22d0      	movs	r2, #208	; 0xd0
1000abd6:	243f      	movs	r4, #63	; 0x3f
1000abd8:	0052      	lsls	r2, r2, #1
1000abda:	5899      	ldr	r1, [r3, r2]
1000abdc:	00c0      	lsls	r0, r0, #3
1000abde:	4084      	lsls	r4, r0
1000abe0:	4085      	lsls	r5, r0
1000abe2:	43a1      	bics	r1, r4
1000abe4:	5099      	str	r1, [r3, r2]
1000abe6:	5899      	ldr	r1, [r3, r2]
1000abe8:	430d      	orrs	r5, r1
1000abea:	509d      	str	r5, [r3, r2]
1000abec:	e7aa      	b.n	1000ab44 <gpio_pinmux_cofiguration+0x28>
1000abee:	31b0      	adds	r1, #176	; 0xb0
1000abf0:	31ff      	adds	r1, #255	; 0xff
1000abf2:	e7e2      	b.n	1000abba <gpio_pinmux_cofiguration+0x9e>
1000abf4:	4000b000 	.word	0x4000b000

1000abf8 <gpio_register_callback>:
1000abf8:	b5f0      	push	{r4, r5, r6, r7, lr}
1000abfa:	240f      	movs	r4, #15
1000abfc:	4647      	mov	r7, r8
1000abfe:	4284      	cmp	r4, r0
1000ac00:	419b      	sbcs	r3, r3
1000ac02:	b480      	push	{r7}
1000ac04:	468c      	mov	ip, r1
1000ac06:	425b      	negs	r3, r3
1000ac08:	2a01      	cmp	r2, #1
1000ac0a:	d052      	beq.n	1000acb2 <gpio_register_callback+0xba>
1000ac0c:	2a00      	cmp	r2, #0
1000ac0e:	d041      	beq.n	1000ac94 <gpio_register_callback+0x9c>
1000ac10:	2a02      	cmp	r2, #2
1000ac12:	d017      	beq.n	1000ac44 <gpio_register_callback+0x4c>
1000ac14:	2a03      	cmp	r2, #3
1000ac16:	d029      	beq.n	1000ac6c <gpio_register_callback+0x74>
1000ac18:	2201      	movs	r2, #1
1000ac1a:	4020      	ands	r0, r4
1000ac1c:	4082      	lsls	r2, r0
1000ac1e:	4d2c      	ldr	r5, [pc, #176]	; (1000acd0 <gpio_register_callback+0xd8>)
1000ac20:	b214      	sxth	r4, r2
1000ac22:	00df      	lsls	r7, r3, #3
1000ac24:	18fb      	adds	r3, r7, r3
1000ac26:	005a      	lsls	r2, r3, #1
1000ac28:	1810      	adds	r0, r2, r0
1000ac2a:	4662      	mov	r2, ip
1000ac2c:	0080      	lsls	r0, r0, #2
1000ac2e:	00db      	lsls	r3, r3, #3
1000ac30:	1828      	adds	r0, r5, r0
1000ac32:	18eb      	adds	r3, r5, r3
1000ac34:	3344      	adds	r3, #68	; 0x44
1000ac36:	6042      	str	r2, [r0, #4]
1000ac38:	881a      	ldrh	r2, [r3, #0]
1000ac3a:	4322      	orrs	r2, r4
1000ac3c:	801a      	strh	r2, [r3, #0]
1000ac3e:	bc04      	pop	{r2}
1000ac40:	4690      	mov	r8, r2
1000ac42:	bdf0      	pop	{r4, r5, r6, r7, pc}
1000ac44:	4020      	ands	r0, r4
1000ac46:	2401      	movs	r4, #1
1000ac48:	4084      	lsls	r4, r0
1000ac4a:	00df      	lsls	r7, r3, #3
1000ac4c:	4d20      	ldr	r5, [pc, #128]	; (1000acd0 <gpio_register_callback+0xd8>)
1000ac4e:	18fa      	adds	r2, r7, r3
1000ac50:	00d6      	lsls	r6, r2, #3
1000ac52:	59aa      	ldr	r2, [r5, r6]
1000ac54:	b224      	sxth	r4, r4
1000ac56:	8d12      	ldrh	r2, [r2, #40]	; 0x28
1000ac58:	59a9      	ldr	r1, [r5, r6]
1000ac5a:	4322      	orrs	r2, r4
1000ac5c:	b292      	uxth	r2, r2
1000ac5e:	850a      	strh	r2, [r1, #40]	; 0x28
1000ac60:	59ae      	ldr	r6, [r5, r6]
1000ac62:	8e32      	ldrh	r2, [r6, #48]	; 0x30
1000ac64:	4322      	orrs	r2, r4
1000ac66:	b292      	uxth	r2, r2
1000ac68:	8632      	strh	r2, [r6, #48]	; 0x30
1000ac6a:	e7db      	b.n	1000ac24 <gpio_register_callback+0x2c>
1000ac6c:	4020      	ands	r0, r4
1000ac6e:	2401      	movs	r4, #1
1000ac70:	4084      	lsls	r4, r0
1000ac72:	00df      	lsls	r7, r3, #3
1000ac74:	4d16      	ldr	r5, [pc, #88]	; (1000acd0 <gpio_register_callback+0xd8>)
1000ac76:	18fa      	adds	r2, r7, r3
1000ac78:	00d6      	lsls	r6, r2, #3
1000ac7a:	59aa      	ldr	r2, [r5, r6]
1000ac7c:	b224      	sxth	r4, r4
1000ac7e:	8d12      	ldrh	r2, [r2, #40]	; 0x28
1000ac80:	59a9      	ldr	r1, [r5, r6]
1000ac82:	4322      	orrs	r2, r4
1000ac84:	b292      	uxth	r2, r2
1000ac86:	850a      	strh	r2, [r1, #40]	; 0x28
1000ac88:	59ae      	ldr	r6, [r5, r6]
1000ac8a:	8eb2      	ldrh	r2, [r6, #52]	; 0x34
1000ac8c:	4322      	orrs	r2, r4
1000ac8e:	b292      	uxth	r2, r2
1000ac90:	86b2      	strh	r2, [r6, #52]	; 0x34
1000ac92:	e7c7      	b.n	1000ac24 <gpio_register_callback+0x2c>
1000ac94:	4020      	ands	r0, r4
1000ac96:	2401      	movs	r4, #1
1000ac98:	4084      	lsls	r4, r0
1000ac9a:	00df      	lsls	r7, r3, #3
1000ac9c:	4d0c      	ldr	r5, [pc, #48]	; (1000acd0 <gpio_register_callback+0xd8>)
1000ac9e:	18fa      	adds	r2, r7, r3
1000aca0:	00d6      	lsls	r6, r2, #3
1000aca2:	59aa      	ldr	r2, [r5, r6]
1000aca4:	b224      	sxth	r4, r4
1000aca6:	8d92      	ldrh	r2, [r2, #44]	; 0x2c
1000aca8:	59a9      	ldr	r1, [r5, r6]
1000acaa:	4322      	orrs	r2, r4
1000acac:	b292      	uxth	r2, r2
1000acae:	858a      	strh	r2, [r1, #44]	; 0x2c
1000acb0:	e7ea      	b.n	1000ac88 <gpio_register_callback+0x90>
1000acb2:	4020      	ands	r0, r4
1000acb4:	4082      	lsls	r2, r0
1000acb6:	00df      	lsls	r7, r3, #3
1000acb8:	4d05      	ldr	r5, [pc, #20]	; (1000acd0 <gpio_register_callback+0xd8>)
1000acba:	18fe      	adds	r6, r7, r3
1000acbc:	00f6      	lsls	r6, r6, #3
1000acbe:	59a9      	ldr	r1, [r5, r6]
1000acc0:	b214      	sxth	r4, r2
1000acc2:	8d89      	ldrh	r1, [r1, #44]	; 0x2c
1000acc4:	000a      	movs	r2, r1
1000acc6:	59a9      	ldr	r1, [r5, r6]
1000acc8:	4322      	orrs	r2, r4
1000acca:	b292      	uxth	r2, r2
1000accc:	858a      	strh	r2, [r1, #44]	; 0x2c
1000acce:	e7c7      	b.n	1000ac60 <gpio_register_callback+0x68>
1000acd0:	10015220 	.word	0x10015220

1000acd4 <gpio_enable_callback>:
1000acd4:	220f      	movs	r2, #15
1000acd6:	4282      	cmp	r2, r0
1000acd8:	419b      	sbcs	r3, r3
1000acda:	4010      	ands	r0, r2
1000acdc:	3a0e      	subs	r2, #14
1000acde:	4082      	lsls	r2, r0
1000ace0:	425b      	negs	r3, r3
1000ace2:	b510      	push	{r4, lr}
1000ace4:	00d9      	lsls	r1, r3, #3
1000ace6:	4c07      	ldr	r4, [pc, #28]	; (1000ad04 <gpio_enable_callback+0x30>)
1000ace8:	18cb      	adds	r3, r1, r3
1000acea:	00db      	lsls	r3, r3, #3
1000acec:	18e1      	adds	r1, r4, r3
1000acee:	3146      	adds	r1, #70	; 0x46
1000acf0:	8808      	ldrh	r0, [r1, #0]
1000acf2:	b212      	sxth	r2, r2
1000acf4:	4310      	orrs	r0, r2
1000acf6:	8008      	strh	r0, [r1, #0]
1000acf8:	5919      	ldr	r1, [r3, r4]
1000acfa:	8c0b      	ldrh	r3, [r1, #32]
1000acfc:	431a      	orrs	r2, r3
1000acfe:	b292      	uxth	r2, r2
1000ad00:	840a      	strh	r2, [r1, #32]
1000ad02:	bd10      	pop	{r4, pc}
1000ad04:	10015220 	.word	0x10015220

1000ad08 <gpio_disable_callback>:
1000ad08:	220f      	movs	r2, #15
1000ad0a:	4282      	cmp	r2, r0
1000ad0c:	419b      	sbcs	r3, r3
1000ad0e:	4010      	ands	r0, r2
1000ad10:	3a0e      	subs	r2, #14
1000ad12:	4082      	lsls	r2, r0
1000ad14:	425b      	negs	r3, r3
1000ad16:	b510      	push	{r4, lr}
1000ad18:	00d9      	lsls	r1, r3, #3
1000ad1a:	4c07      	ldr	r4, [pc, #28]	; (1000ad38 <gpio_disable_callback+0x30>)
1000ad1c:	18cb      	adds	r3, r1, r3
1000ad1e:	00db      	lsls	r3, r3, #3
1000ad20:	18e1      	adds	r1, r4, r3
1000ad22:	3146      	adds	r1, #70	; 0x46
1000ad24:	8808      	ldrh	r0, [r1, #0]
1000ad26:	b212      	sxth	r2, r2
1000ad28:	4390      	bics	r0, r2
1000ad2a:	8008      	strh	r0, [r1, #0]
1000ad2c:	5919      	ldr	r1, [r3, r4]
1000ad2e:	8c8b      	ldrh	r3, [r1, #36]	; 0x24
1000ad30:	431a      	orrs	r2, r3
1000ad32:	b292      	uxth	r2, r2
1000ad34:	848a      	strh	r2, [r1, #36]	; 0x24
1000ad36:	bd10      	pop	{r4, pc}
1000ad38:	10015220 	.word	0x10015220

1000ad3c <gpio_init>:
1000ad3c:	b570      	push	{r4, r5, r6, lr}
1000ad3e:	4d12      	ldr	r5, [pc, #72]	; (1000ad88 <gpio_init+0x4c>)
1000ad40:	2400      	movs	r4, #0
1000ad42:	0029      	movs	r1, r5
1000ad44:	002b      	movs	r3, r5
1000ad46:	002a      	movs	r2, r5
1000ad48:	3140      	adds	r1, #64	; 0x40
1000ad4a:	6054      	str	r4, [r2, #4]
1000ad4c:	3204      	adds	r2, #4
1000ad4e:	2000      	movs	r0, #0
1000ad50:	4291      	cmp	r1, r2
1000ad52:	d1fa      	bne.n	1000ad4a <gpio_init+0xe>
1000ad54:	2246      	movs	r2, #70	; 0x46
1000ad56:	52a8      	strh	r0, [r5, r2]
1000ad58:	3a02      	subs	r2, #2
1000ad5a:	52a8      	strh	r0, [r5, r2]
1000ad5c:	64d8      	str	r0, [r3, #76]	; 0x4c
1000ad5e:	3304      	adds	r3, #4
1000ad60:	2200      	movs	r2, #0
1000ad62:	4299      	cmp	r1, r3
1000ad64:	d1fa      	bne.n	1000ad5c <gpio_init+0x20>
1000ad66:	238e      	movs	r3, #142	; 0x8e
1000ad68:	52ea      	strh	r2, [r5, r3]
1000ad6a:	3b02      	subs	r3, #2
1000ad6c:	52ea      	strh	r2, [r5, r3]
1000ad6e:	4b07      	ldr	r3, [pc, #28]	; (1000ad8c <gpio_init+0x50>)
1000ad70:	4c07      	ldr	r4, [pc, #28]	; (1000ad90 <gpio_init+0x54>)
1000ad72:	602b      	str	r3, [r5, #0]
1000ad74:	4b07      	ldr	r3, [pc, #28]	; (1000ad94 <gpio_init+0x58>)
1000ad76:	4908      	ldr	r1, [pc, #32]	; (1000ad98 <gpio_init+0x5c>)
1000ad78:	64ab      	str	r3, [r5, #72]	; 0x48
1000ad7a:	2027      	movs	r0, #39	; 0x27
1000ad7c:	47a0      	blx	r4
1000ad7e:	4907      	ldr	r1, [pc, #28]	; (1000ad9c <gpio_init+0x60>)
1000ad80:	2028      	movs	r0, #40	; 0x28
1000ad82:	47a0      	blx	r4
1000ad84:	bd70      	pop	{r4, r5, r6, pc}
1000ad86:	46c0      	nop			; (mov r8, r8)
1000ad88:	10015220 	.word	0x10015220
1000ad8c:	40010000 	.word	0x40010000
1000ad90:	1000c39d 	.word	0x1000c39d
1000ad94:	40011000 	.word	0x40011000
1000ad98:	1000a87d 	.word	0x1000a87d
1000ad9c:	1000a8d9 	.word	0x1000a8d9

1000ada0 <i2c_master_get_config_defaults>:
1000ada0:	2303      	movs	r3, #3
1000ada2:	7003      	strb	r3, [r0, #0]
1000ada4:	330d      	adds	r3, #13
1000ada6:	8043      	strh	r3, [r0, #2]
1000ada8:	3b08      	subs	r3, #8
1000adaa:	6043      	str	r3, [r0, #4]
1000adac:	3301      	adds	r3, #1
1000adae:	60c3      	str	r3, [r0, #12]
1000adb0:	3b07      	subs	r3, #7
1000adb2:	6083      	str	r3, [r0, #8]
1000adb4:	6103      	str	r3, [r0, #16]
1000adb6:	4770      	bx	lr

1000adb8 <i2c_master_init>:
1000adb8:	b5f8      	push	{r3, r4, r5, r6, r7, lr}
1000adba:	0015      	movs	r5, r2
1000adbc:	0004      	movs	r4, r0
1000adbe:	6001      	str	r1, [r0, #0]
1000adc0:	2228      	movs	r2, #40	; 0x28
1000adc2:	2d00      	cmp	r5, #0
1000adc4:	d00d      	beq.n	1000ade2 <i2c_master_init+0x2a>
1000adc6:	5c8b      	ldrb	r3, [r1, r2]
1000adc8:	07db      	lsls	r3, r3, #31
1000adca:	0fdb      	lsrs	r3, r3, #31
1000adcc:	b2db      	uxtb	r3, r3
1000adce:	2b00      	cmp	r3, #0
1000add0:	d1f9      	bne.n	1000adc6 <i2c_master_init+0xe>
1000add2:	750b      	strb	r3, [r1, #20]
1000add4:	6823      	ldr	r3, [r4, #0]
1000add6:	4a28      	ldr	r2, [pc, #160]	; (1000ae78 <i2c_master_init+0xc0>)
1000add8:	4293      	cmp	r3, r2
1000adda:	d027      	beq.n	1000ae2c <i2c_master_init+0x74>
1000addc:	4a27      	ldr	r2, [pc, #156]	; (1000ae7c <i2c_master_init+0xc4>)
1000adde:	4293      	cmp	r3, r2
1000ade0:	d001      	beq.n	1000ade6 <i2c_master_init+0x2e>
1000ade2:	2017      	movs	r0, #23
1000ade4:	bdf8      	pop	{r3, r4, r5, r6, r7, pc}
1000ade6:	2019      	movs	r0, #25
1000ade8:	4b25      	ldr	r3, [pc, #148]	; (1000ae80 <i2c_master_init+0xc8>)
1000adea:	4798      	blx	r3
1000adec:	2300      	movs	r3, #0
1000adee:	2200      	movs	r2, #0
1000adf0:	7423      	strb	r3, [r4, #16]
1000adf2:	61a3      	str	r3, [r4, #24]
1000adf4:	7463      	strb	r3, [r4, #17]
1000adf6:	8263      	strh	r3, [r4, #18]
1000adf8:	82a3      	strh	r3, [r4, #20]
1000adfa:	4b22      	ldr	r3, [pc, #136]	; (1000ae84 <i2c_master_init+0xcc>)
1000adfc:	7762      	strb	r2, [r4, #29]
1000adfe:	601c      	str	r4, [r3, #0]
1000ae00:	6826      	ldr	r6, [r4, #0]
1000ae02:	4b1d      	ldr	r3, [pc, #116]	; (1000ae78 <i2c_master_init+0xc0>)
1000ae04:	429e      	cmp	r6, r3
1000ae06:	d026      	beq.n	1000ae56 <i2c_master_init+0x9e>
1000ae08:	4b1c      	ldr	r3, [pc, #112]	; (1000ae7c <i2c_master_init+0xc4>)
1000ae0a:	429e      	cmp	r6, r3
1000ae0c:	d012      	beq.n	1000ae34 <i2c_master_init+0x7c>
1000ae0e:	8929      	ldrh	r1, [r5, #8]
1000ae10:	7928      	ldrb	r0, [r5, #4]
1000ae12:	4c1d      	ldr	r4, [pc, #116]	; (1000ae88 <i2c_master_init+0xd0>)
1000ae14:	47a0      	blx	r4
1000ae16:	7b28      	ldrb	r0, [r5, #12]
1000ae18:	8a29      	ldrh	r1, [r5, #16]
1000ae1a:	47a0      	blx	r4
1000ae1c:	782b      	ldrb	r3, [r5, #0]
1000ae1e:	2000      	movs	r0, #0
1000ae20:	7433      	strb	r3, [r6, #16]
1000ae22:	886b      	ldrh	r3, [r5, #2]
1000ae24:	8333      	strh	r3, [r6, #24]
1000ae26:	2301      	movs	r3, #1
1000ae28:	7733      	strb	r3, [r6, #28]
1000ae2a:	e7db      	b.n	1000ade4 <i2c_master_init+0x2c>
1000ae2c:	4b14      	ldr	r3, [pc, #80]	; (1000ae80 <i2c_master_init+0xc8>)
1000ae2e:	2003      	movs	r0, #3
1000ae30:	4798      	blx	r3
1000ae32:	e7db      	b.n	1000adec <i2c_master_init+0x34>
1000ae34:	4f15      	ldr	r7, [pc, #84]	; (1000ae8c <i2c_master_init+0xd4>)
1000ae36:	4e16      	ldr	r6, [pc, #88]	; (1000ae90 <i2c_master_init+0xd8>)
1000ae38:	0039      	movs	r1, r7
1000ae3a:	201a      	movs	r0, #26
1000ae3c:	47b0      	blx	r6
1000ae3e:	0039      	movs	r1, r7
1000ae40:	201b      	movs	r0, #27
1000ae42:	47b0      	blx	r6
1000ae44:	2280      	movs	r2, #128	; 0x80
1000ae46:	4b13      	ldr	r3, [pc, #76]	; (1000ae94 <i2c_master_init+0xdc>)
1000ae48:	00d2      	lsls	r2, r2, #3
1000ae4a:	601a      	str	r2, [r3, #0]
1000ae4c:	2280      	movs	r2, #128	; 0x80
1000ae4e:	0112      	lsls	r2, r2, #4
1000ae50:	601a      	str	r2, [r3, #0]
1000ae52:	6826      	ldr	r6, [r4, #0]
1000ae54:	e7db      	b.n	1000ae0e <i2c_master_init+0x56>
1000ae56:	4f0d      	ldr	r7, [pc, #52]	; (1000ae8c <i2c_master_init+0xd4>)
1000ae58:	4e0d      	ldr	r6, [pc, #52]	; (1000ae90 <i2c_master_init+0xd8>)
1000ae5a:	0039      	movs	r1, r7
1000ae5c:	2018      	movs	r0, #24
1000ae5e:	47b0      	blx	r6
1000ae60:	0039      	movs	r1, r7
1000ae62:	2019      	movs	r0, #25
1000ae64:	47b0      	blx	r6
1000ae66:	2280      	movs	r2, #128	; 0x80
1000ae68:	4b0a      	ldr	r3, [pc, #40]	; (1000ae94 <i2c_master_init+0xdc>)
1000ae6a:	0052      	lsls	r2, r2, #1
1000ae6c:	601a      	str	r2, [r3, #0]
1000ae6e:	1892      	adds	r2, r2, r2
1000ae70:	601a      	str	r2, [r3, #0]
1000ae72:	6826      	ldr	r6, [r4, #0]
1000ae74:	e7cb      	b.n	1000ae0e <i2c_master_init+0x56>
1000ae76:	46c0      	nop			; (mov r8, r8)
1000ae78:	40003000 	.word	0x40003000
1000ae7c:	40003400 	.word	0x40003400
1000ae80:	1000bf85 	.word	0x1000bf85
1000ae84:	100152b0 	.word	0x100152b0
1000ae88:	1000ab1d 	.word	0x1000ab1d
1000ae8c:	1000af9d 	.word	0x1000af9d
1000ae90:	1000c39d 	.word	0x1000c39d
1000ae94:	e000e100 	.word	0xe000e100

1000ae98 <i2c_master_send_stop>:
1000ae98:	2128      	movs	r1, #40	; 0x28
1000ae9a:	6802      	ldr	r2, [r0, #0]
1000ae9c:	5c53      	ldrb	r3, [r2, r1]
1000ae9e:	07db      	lsls	r3, r3, #31
1000aea0:	0fdb      	lsrs	r3, r3, #31
1000aea2:	b2db      	uxtb	r3, r3
1000aea4:	2b00      	cmp	r3, #0
1000aea6:	d1f9      	bne.n	1000ae9c <i2c_master_send_stop+0x4>
1000aea8:	2120      	movs	r1, #32
1000aeaa:	5453      	strb	r3, [r2, r1]
1000aeac:	4770      	bx	lr
1000aeae:	46c0      	nop			; (mov r8, r8)

1000aeb0 <i2c_master_register_callback>:
1000aeb0:	1c93      	adds	r3, r2, #2
1000aeb2:	009b      	lsls	r3, r3, #2
1000aeb4:	5019      	str	r1, [r3, r0]
1000aeb6:	2301      	movs	r3, #1
1000aeb8:	4093      	lsls	r3, r2
1000aeba:	7c01      	ldrb	r1, [r0, #16]
1000aebc:	430b      	orrs	r3, r1
1000aebe:	b2db      	uxtb	r3, r3
1000aec0:	7403      	strb	r3, [r0, #16]
1000aec2:	4770      	bx	lr

1000aec4 <i2c_master_read_packet_job>:
1000aec4:	b510      	push	{r4, lr}
1000aec6:	8a83      	ldrh	r3, [r0, #20]
1000aec8:	2405      	movs	r4, #5
1000aeca:	b29b      	uxth	r3, r3
1000aecc:	2b00      	cmp	r3, #0
1000aece:	d001      	beq.n	1000aed4 <i2c_master_read_packet_job+0x10>
1000aed0:	0020      	movs	r0, r4
1000aed2:	bd10      	pop	{r4, pc}
1000aed4:	7143      	strb	r3, [r0, #5]
1000aed6:	684b      	ldr	r3, [r1, #4]
1000aed8:	6802      	ldr	r2, [r0, #0]
1000aeda:	6183      	str	r3, [r0, #24]
1000aedc:	884b      	ldrh	r3, [r1, #2]
1000aede:	8283      	strh	r3, [r0, #20]
1000aee0:	2301      	movs	r3, #1
1000aee2:	7703      	strb	r3, [r0, #28]
1000aee4:	7744      	strb	r4, [r0, #29]
1000aee6:	3423      	adds	r4, #35	; 0x23
1000aee8:	5d13      	ldrb	r3, [r2, r4]
1000aeea:	07db      	lsls	r3, r3, #31
1000aeec:	d4fc      	bmi.n	1000aee8 <i2c_master_read_packet_job+0x24>
1000aeee:	2401      	movs	r4, #1
1000aef0:	2334      	movs	r3, #52	; 0x34
1000aef2:	54d4      	strb	r4, [r2, r3]
1000aef4:	3b14      	subs	r3, #20
1000aef6:	54d4      	strb	r4, [r2, r3]
1000aef8:	880b      	ldrh	r3, [r1, #0]
1000aefa:	2180      	movs	r1, #128	; 0x80
1000aefc:	7f00      	ldrb	r0, [r0, #28]
1000aefe:	005b      	lsls	r3, r3, #1
1000af00:	4303      	orrs	r3, r0
1000af02:	0049      	lsls	r1, r1, #1
1000af04:	430b      	orrs	r3, r1
1000af06:	b29b      	uxth	r3, r3
1000af08:	8013      	strh	r3, [r2, #0]
1000af0a:	2330      	movs	r3, #48	; 0x30
1000af0c:	54d4      	strb	r4, [r2, r3]
1000af0e:	2400      	movs	r4, #0
1000af10:	e7de      	b.n	1000aed0 <i2c_master_read_packet_job+0xc>
1000af12:	46c0      	nop			; (mov r8, r8)

1000af14 <i2c_master_write_packet_job>:
1000af14:	b530      	push	{r4, r5, lr}
1000af16:	8a83      	ldrh	r3, [r0, #20]
1000af18:	0002      	movs	r2, r0
1000af1a:	b29b      	uxth	r3, r3
1000af1c:	2005      	movs	r0, #5
1000af1e:	2b00      	cmp	r3, #0
1000af20:	d000      	beq.n	1000af24 <i2c_master_write_packet_job+0x10>
1000af22:	bd30      	pop	{r4, r5, pc}
1000af24:	7153      	strb	r3, [r2, #5]
1000af26:	684d      	ldr	r5, [r1, #4]
1000af28:	6814      	ldr	r4, [r2, #0]
1000af2a:	6195      	str	r5, [r2, #24]
1000af2c:	884d      	ldrh	r5, [r1, #2]
1000af2e:	8295      	strh	r5, [r2, #20]
1000af30:	7713      	strb	r3, [r2, #28]
1000af32:	7750      	strb	r0, [r2, #29]
1000af34:	3320      	adds	r3, #32
1000af36:	3804      	subs	r0, #4
1000af38:	54e0      	strb	r0, [r4, r3]
1000af3a:	880b      	ldrh	r3, [r1, #0]
1000af3c:	7f12      	ldrb	r2, [r2, #28]
1000af3e:	005b      	lsls	r3, r3, #1
1000af40:	4313      	orrs	r3, r2
1000af42:	2280      	movs	r2, #128	; 0x80
1000af44:	0052      	lsls	r2, r2, #1
1000af46:	4313      	orrs	r3, r2
1000af48:	b29b      	uxth	r3, r3
1000af4a:	8023      	strh	r3, [r4, #0]
1000af4c:	232c      	movs	r3, #44	; 0x2c
1000af4e:	3af0      	subs	r2, #240	; 0xf0
1000af50:	54e2      	strb	r2, [r4, r3]
1000af52:	2000      	movs	r0, #0
1000af54:	e7e5      	b.n	1000af22 <i2c_master_write_packet_job+0xe>
1000af56:	46c0      	nop			; (mov r8, r8)

1000af58 <i2c_master_write_packet_job_no_stop>:
1000af58:	b570      	push	{r4, r5, r6, lr}
1000af5a:	8a83      	ldrh	r3, [r0, #20]
1000af5c:	0002      	movs	r2, r0
1000af5e:	b29b      	uxth	r3, r3
1000af60:	2005      	movs	r0, #5
1000af62:	2b00      	cmp	r3, #0
1000af64:	d000      	beq.n	1000af68 <i2c_master_write_packet_job_no_stop+0x10>
1000af66:	bd70      	pop	{r4, r5, r6, pc}
1000af68:	2501      	movs	r5, #1
1000af6a:	7155      	strb	r5, [r2, #5]
1000af6c:	684e      	ldr	r6, [r1, #4]
1000af6e:	6814      	ldr	r4, [r2, #0]
1000af70:	6196      	str	r6, [r2, #24]
1000af72:	884e      	ldrh	r6, [r1, #2]
1000af74:	8296      	strh	r6, [r2, #20]
1000af76:	7713      	strb	r3, [r2, #28]
1000af78:	3320      	adds	r3, #32
1000af7a:	7750      	strb	r0, [r2, #29]
1000af7c:	54e5      	strb	r5, [r4, r3]
1000af7e:	880b      	ldrh	r3, [r1, #0]
1000af80:	7f12      	ldrb	r2, [r2, #28]
1000af82:	005b      	lsls	r3, r3, #1
1000af84:	4313      	orrs	r3, r2
1000af86:	2280      	movs	r2, #128	; 0x80
1000af88:	0052      	lsls	r2, r2, #1
1000af8a:	4313      	orrs	r3, r2
1000af8c:	b29b      	uxth	r3, r3
1000af8e:	8023      	strh	r3, [r4, #0]
1000af90:	232c      	movs	r3, #44	; 0x2c
1000af92:	3af0      	subs	r2, #240	; 0xf0
1000af94:	54e2      	strb	r2, [r4, r3]
1000af96:	2000      	movs	r0, #0
1000af98:	e7e5      	b.n	1000af66 <i2c_master_write_packet_job_no_stop+0xe>
1000af9a:	46c0      	nop			; (mov r8, r8)

1000af9c <_i2c_master_isr_handler>:
1000af9c:	b570      	push	{r4, r5, r6, lr}
1000af9e:	4b56      	ldr	r3, [pc, #344]	; (1000b0f8 <_i2c_master_isr_handler+0x15c>)
1000afa0:	b082      	sub	sp, #8
1000afa2:	681c      	ldr	r4, [r3, #0]
1000afa4:	7c63      	ldrb	r3, [r4, #17]
1000afa6:	7c25      	ldrb	r5, [r4, #16]
1000afa8:	6826      	ldr	r6, [r4, #0]
1000afaa:	401d      	ands	r5, r3
1000afac:	8a63      	ldrh	r3, [r4, #18]
1000afae:	2b00      	cmp	r3, #0
1000afb0:	d11a      	bne.n	1000afe8 <_i2c_master_isr_handler+0x4c>
1000afb2:	8aa3      	ldrh	r3, [r4, #20]
1000afb4:	2b00      	cmp	r3, #0
1000afb6:	d017      	beq.n	1000afe8 <_i2c_master_isr_handler+0x4c>
1000afb8:	8aa3      	ldrh	r3, [r4, #20]
1000afba:	b29b      	uxth	r3, r3
1000afbc:	8263      	strh	r3, [r4, #18]
1000afbe:	8a63      	ldrh	r3, [r4, #18]
1000afc0:	2b00      	cmp	r3, #0
1000afc2:	d003      	beq.n	1000afcc <_i2c_master_isr_handler+0x30>
1000afc4:	8aa3      	ldrh	r3, [r4, #20]
1000afc6:	b29b      	uxth	r3, r3
1000afc8:	2b00      	cmp	r3, #0
1000afca:	d04a      	beq.n	1000b062 <_i2c_master_isr_handler+0xc6>
1000afcc:	7f23      	ldrb	r3, [r4, #28]
1000afce:	2b01      	cmp	r3, #1
1000afd0:	d060      	beq.n	1000b094 <_i2c_master_isr_handler+0xf8>
1000afd2:	6823      	ldr	r3, [r4, #0]
1000afd4:	4a49      	ldr	r2, [pc, #292]	; (1000b0fc <_i2c_master_isr_handler+0x160>)
1000afd6:	4293      	cmp	r3, r2
1000afd8:	d100      	bne.n	1000afdc <_i2c_master_isr_handler+0x40>
1000afda:	e07f      	b.n	1000b0dc <_i2c_master_isr_handler+0x140>
1000afdc:	4a48      	ldr	r2, [pc, #288]	; (1000b100 <_i2c_master_isr_handler+0x164>)
1000afde:	4293      	cmp	r3, r2
1000afe0:	d100      	bne.n	1000afe4 <_i2c_master_isr_handler+0x48>
1000afe2:	e065      	b.n	1000b0b0 <_i2c_master_isr_handler+0x114>
1000afe4:	b002      	add	sp, #8
1000afe6:	bd70      	pop	{r4, r5, r6, pc}
1000afe8:	8a63      	ldrh	r3, [r4, #18]
1000afea:	2b00      	cmp	r3, #0
1000afec:	d019      	beq.n	1000b022 <_i2c_master_isr_handler+0x86>
1000afee:	8aa3      	ldrh	r3, [r4, #20]
1000aff0:	2b00      	cmp	r3, #0
1000aff2:	d116      	bne.n	1000b022 <_i2c_master_isr_handler+0x86>
1000aff4:	7f63      	ldrb	r3, [r4, #29]
1000aff6:	2b05      	cmp	r3, #5
1000aff8:	d113      	bne.n	1000b022 <_i2c_master_isr_handler+0x86>
1000affa:	7f23      	ldrb	r3, [r4, #28]
1000affc:	b2db      	uxtb	r3, r3
1000affe:	2b00      	cmp	r3, #0
1000b000:	d10f      	bne.n	1000b022 <_i2c_master_isr_handler+0x86>
1000b002:	222c      	movs	r2, #44	; 0x2c
1000b004:	54b3      	strb	r3, [r6, r2]
1000b006:	2200      	movs	r2, #0
1000b008:	8263      	strh	r3, [r4, #18]
1000b00a:	7963      	ldrb	r3, [r4, #5]
1000b00c:	7762      	strb	r2, [r4, #29]
1000b00e:	2b00      	cmp	r3, #0
1000b010:	d101      	bne.n	1000b016 <_i2c_master_isr_handler+0x7a>
1000b012:	3320      	adds	r3, #32
1000b014:	54f2      	strb	r2, [r6, r3]
1000b016:	07eb      	lsls	r3, r5, #31
1000b018:	d5d1      	bpl.n	1000afbe <_i2c_master_isr_handler+0x22>
1000b01a:	68a3      	ldr	r3, [r4, #8]
1000b01c:	0020      	movs	r0, r4
1000b01e:	4798      	blx	r3
1000b020:	e7cd      	b.n	1000afbe <_i2c_master_isr_handler+0x22>
1000b022:	8a63      	ldrh	r3, [r4, #18]
1000b024:	2b00      	cmp	r3, #0
1000b026:	d0ca      	beq.n	1000afbe <_i2c_master_isr_handler+0x22>
1000b028:	8aa3      	ldrh	r3, [r4, #20]
1000b02a:	2b00      	cmp	r3, #0
1000b02c:	d0c7      	beq.n	1000afbe <_i2c_master_isr_handler+0x22>
1000b02e:	7f23      	ldrb	r3, [r4, #28]
1000b030:	2b00      	cmp	r3, #0
1000b032:	d144      	bne.n	1000b0be <_i2c_master_isr_handler+0x122>
1000b034:	8a63      	ldrh	r3, [r4, #18]
1000b036:	8aa2      	ldrh	r2, [r4, #20]
1000b038:	1a9b      	subs	r3, r3, r2
1000b03a:	466a      	mov	r2, sp
1000b03c:	b29b      	uxth	r3, r3
1000b03e:	80d3      	strh	r3, [r2, #6]
1000b040:	8aa3      	ldrh	r3, [r4, #20]
1000b042:	3b01      	subs	r3, #1
1000b044:	b29b      	uxth	r3, r3
1000b046:	82a3      	strh	r3, [r4, #20]
1000b048:	88d3      	ldrh	r3, [r2, #6]
1000b04a:	69a2      	ldr	r2, [r4, #24]
1000b04c:	4694      	mov	ip, r2
1000b04e:	4463      	add	r3, ip
1000b050:	781b      	ldrb	r3, [r3, #0]
1000b052:	8033      	strh	r3, [r6, #0]
1000b054:	8aa3      	ldrh	r3, [r4, #20]
1000b056:	2b00      	cmp	r3, #0
1000b058:	d1b1      	bne.n	1000afbe <_i2c_master_isr_handler+0x22>
1000b05a:	2210      	movs	r2, #16
1000b05c:	332c      	adds	r3, #44	; 0x2c
1000b05e:	54f2      	strb	r2, [r6, r3]
1000b060:	e7ad      	b.n	1000afbe <_i2c_master_isr_handler+0x22>
1000b062:	7f62      	ldrb	r2, [r4, #29]
1000b064:	2a05      	cmp	r2, #5
1000b066:	d1b1      	bne.n	1000afcc <_i2c_master_isr_handler+0x30>
1000b068:	7f22      	ldrb	r2, [r4, #28]
1000b06a:	2a01      	cmp	r2, #1
1000b06c:	d1ae      	bne.n	1000afcc <_i2c_master_isr_handler+0x30>
1000b06e:	322f      	adds	r2, #47	; 0x2f
1000b070:	54b3      	strb	r3, [r6, r2]
1000b072:	2200      	movs	r2, #0
1000b074:	8263      	strh	r3, [r4, #18]
1000b076:	7963      	ldrb	r3, [r4, #5]
1000b078:	7762      	strb	r2, [r4, #29]
1000b07a:	2b00      	cmp	r3, #0
1000b07c:	d101      	bne.n	1000b082 <_i2c_master_isr_handler+0xe6>
1000b07e:	3320      	adds	r3, #32
1000b080:	54f2      	strb	r2, [r6, r3]
1000b082:	07ab      	lsls	r3, r5, #30
1000b084:	d5a2      	bpl.n	1000afcc <_i2c_master_isr_handler+0x30>
1000b086:	7f23      	ldrb	r3, [r4, #28]
1000b088:	2b01      	cmp	r3, #1
1000b08a:	d19f      	bne.n	1000afcc <_i2c_master_isr_handler+0x30>
1000b08c:	68e3      	ldr	r3, [r4, #12]
1000b08e:	0020      	movs	r0, r4
1000b090:	4798      	blx	r3
1000b092:	e79b      	b.n	1000afcc <_i2c_master_isr_handler+0x30>
1000b094:	6823      	ldr	r3, [r4, #0]
1000b096:	4a19      	ldr	r2, [pc, #100]	; (1000b0fc <_i2c_master_isr_handler+0x160>)
1000b098:	4293      	cmp	r3, r2
1000b09a:	d026      	beq.n	1000b0ea <_i2c_master_isr_handler+0x14e>
1000b09c:	4a18      	ldr	r2, [pc, #96]	; (1000b100 <_i2c_master_isr_handler+0x164>)
1000b09e:	4293      	cmp	r3, r2
1000b0a0:	d1a0      	bne.n	1000afe4 <_i2c_master_isr_handler+0x48>
1000b0a2:	2180      	movs	r1, #128	; 0x80
1000b0a4:	23c0      	movs	r3, #192	; 0xc0
1000b0a6:	4a17      	ldr	r2, [pc, #92]	; (1000b104 <_i2c_master_isr_handler+0x168>)
1000b0a8:	00c9      	lsls	r1, r1, #3
1000b0aa:	005b      	lsls	r3, r3, #1
1000b0ac:	50d1      	str	r1, [r2, r3]
1000b0ae:	e799      	b.n	1000afe4 <_i2c_master_isr_handler+0x48>
1000b0b0:	2180      	movs	r1, #128	; 0x80
1000b0b2:	23c0      	movs	r3, #192	; 0xc0
1000b0b4:	4a13      	ldr	r2, [pc, #76]	; (1000b104 <_i2c_master_isr_handler+0x168>)
1000b0b6:	0109      	lsls	r1, r1, #4
1000b0b8:	005b      	lsls	r3, r3, #1
1000b0ba:	50d1      	str	r1, [r2, r3]
1000b0bc:	e792      	b.n	1000afe4 <_i2c_master_isr_handler+0x48>
1000b0be:	8a63      	ldrh	r3, [r4, #18]
1000b0c0:	8aa1      	ldrh	r1, [r4, #20]
1000b0c2:	8aa2      	ldrh	r2, [r4, #20]
1000b0c4:	1a5b      	subs	r3, r3, r1
1000b0c6:	3a01      	subs	r2, #1
1000b0c8:	b292      	uxth	r2, r2
1000b0ca:	82a2      	strh	r2, [r4, #20]
1000b0cc:	69a2      	ldr	r2, [r4, #24]
1000b0ce:	b29b      	uxth	r3, r3
1000b0d0:	4694      	mov	ip, r2
1000b0d2:	7932      	ldrb	r2, [r6, #4]
1000b0d4:	4463      	add	r3, ip
1000b0d6:	b2d2      	uxtb	r2, r2
1000b0d8:	701a      	strb	r2, [r3, #0]
1000b0da:	e770      	b.n	1000afbe <_i2c_master_isr_handler+0x22>
1000b0dc:	2180      	movs	r1, #128	; 0x80
1000b0de:	23c0      	movs	r3, #192	; 0xc0
1000b0e0:	4a08      	ldr	r2, [pc, #32]	; (1000b104 <_i2c_master_isr_handler+0x168>)
1000b0e2:	0089      	lsls	r1, r1, #2
1000b0e4:	005b      	lsls	r3, r3, #1
1000b0e6:	50d1      	str	r1, [r2, r3]
1000b0e8:	e77c      	b.n	1000afe4 <_i2c_master_isr_handler+0x48>
1000b0ea:	2180      	movs	r1, #128	; 0x80
1000b0ec:	23c0      	movs	r3, #192	; 0xc0
1000b0ee:	4a05      	ldr	r2, [pc, #20]	; (1000b104 <_i2c_master_isr_handler+0x168>)
1000b0f0:	0049      	lsls	r1, r1, #1
1000b0f2:	005b      	lsls	r3, r3, #1
1000b0f4:	50d1      	str	r1, [r2, r3]
1000b0f6:	e775      	b.n	1000afe4 <_i2c_master_isr_handler+0x48>
1000b0f8:	100152b0 	.word	0x100152b0
1000b0fc:	40003000 	.word	0x40003000
1000b100:	40003400 	.word	0x40003400
1000b104:	e000e100 	.word	0xe000e100

1000b108 <spi_slave_inst_get_config_defaults>:
1000b108:	230c      	movs	r3, #12
1000b10a:	7003      	strb	r3, [r0, #0]
1000b10c:	2300      	movs	r3, #0
1000b10e:	7043      	strb	r3, [r0, #1]
1000b110:	7083      	strb	r3, [r0, #2]
1000b112:	4770      	bx	lr

1000b114 <spi_get_config_defaults>:
1000b114:	2301      	movs	r3, #1
1000b116:	7003      	strb	r3, [r0, #0]
1000b118:	2300      	movs	r3, #0
1000b11a:	7043      	strb	r3, [r0, #1]
1000b11c:	7083      	strb	r3, [r0, #2]
1000b11e:	70c3      	strb	r3, [r0, #3]
1000b120:	3381      	adds	r3, #129	; 0x81
1000b122:	7103      	strb	r3, [r0, #4]
1000b124:	3b77      	subs	r3, #119	; 0x77
1000b126:	6083      	str	r3, [r0, #8]
1000b128:	3301      	adds	r3, #1
1000b12a:	60c3      	str	r3, [r0, #12]
1000b12c:	3301      	adds	r3, #1
1000b12e:	6103      	str	r3, [r0, #16]
1000b130:	3301      	adds	r3, #1
1000b132:	6143      	str	r3, [r0, #20]
1000b134:	3b0b      	subs	r3, #11
1000b136:	6183      	str	r3, [r0, #24]
1000b138:	61c3      	str	r3, [r0, #28]
1000b13a:	6203      	str	r3, [r0, #32]
1000b13c:	6243      	str	r3, [r0, #36]	; 0x24
1000b13e:	4770      	bx	lr

1000b140 <spi_attach_slave>:
1000b140:	b530      	push	{r4, r5, lr}
1000b142:	780b      	ldrb	r3, [r1, #0]
1000b144:	b083      	sub	sp, #12
1000b146:	7003      	strb	r3, [r0, #0]
1000b148:	784b      	ldrb	r3, [r1, #1]
1000b14a:	ad01      	add	r5, sp, #4
1000b14c:	7043      	strb	r3, [r0, #1]
1000b14e:	788b      	ldrb	r3, [r1, #2]
1000b150:	0004      	movs	r4, r0
1000b152:	7083      	strb	r3, [r0, #2]
1000b154:	0028      	movs	r0, r5
1000b156:	4b07      	ldr	r3, [pc, #28]	; (1000b174 <spi_attach_slave+0x34>)
1000b158:	4798      	blx	r3
1000b15a:	2301      	movs	r3, #1
1000b15c:	0029      	movs	r1, r5
1000b15e:	702b      	strb	r3, [r5, #0]
1000b160:	7820      	ldrb	r0, [r4, #0]
1000b162:	4b05      	ldr	r3, [pc, #20]	; (1000b178 <spi_attach_slave+0x38>)
1000b164:	4798      	blx	r3
1000b166:	7820      	ldrb	r0, [r4, #0]
1000b168:	2101      	movs	r1, #1
1000b16a:	4b04      	ldr	r3, [pc, #16]	; (1000b17c <spi_attach_slave+0x3c>)
1000b16c:	4798      	blx	r3
1000b16e:	b003      	add	sp, #12
1000b170:	bd30      	pop	{r4, r5, pc}
1000b172:	46c0      	nop			; (mov r8, r8)
1000b174:	1000a961 	.word	0x1000a961
1000b178:	1000a971 	.word	0x1000a971
1000b17c:	1000aacd 	.word	0x1000aacd

1000b180 <spi_enable>:
1000b180:	6803      	ldr	r3, [r0, #0]
1000b182:	4a0a      	ldr	r2, [pc, #40]	; (1000b1ac <spi_enable+0x2c>)
1000b184:	4293      	cmp	r3, r2
1000b186:	d00b      	beq.n	1000b1a0 <spi_enable+0x20>
1000b188:	4a09      	ldr	r2, [pc, #36]	; (1000b1b0 <spi_enable+0x30>)
1000b18a:	4293      	cmp	r3, r2
1000b18c:	d002      	beq.n	1000b194 <spi_enable+0x14>
1000b18e:	2201      	movs	r2, #1
1000b190:	761a      	strb	r2, [r3, #24]
1000b192:	4770      	bx	lr
1000b194:	2140      	movs	r1, #64	; 0x40
1000b196:	4a07      	ldr	r2, [pc, #28]	; (1000b1b4 <spi_enable+0x34>)
1000b198:	6011      	str	r1, [r2, #0]
1000b19a:	3140      	adds	r1, #64	; 0x40
1000b19c:	6011      	str	r1, [r2, #0]
1000b19e:	e7f6      	b.n	1000b18e <spi_enable+0xe>
1000b1a0:	2110      	movs	r1, #16
1000b1a2:	4a04      	ldr	r2, [pc, #16]	; (1000b1b4 <spi_enable+0x34>)
1000b1a4:	6011      	str	r1, [r2, #0]
1000b1a6:	3110      	adds	r1, #16
1000b1a8:	6011      	str	r1, [r2, #0]
1000b1aa:	e7f0      	b.n	1000b18e <spi_enable+0xe>
1000b1ac:	40006000 	.word	0x40006000
1000b1b0:	40007000 	.word	0x40007000
1000b1b4:	e000e100 	.word	0xe000e100

1000b1b8 <spi_disable>:
1000b1b8:	b510      	push	{r4, lr}
1000b1ba:	4a19      	ldr	r2, [pc, #100]	; (1000b220 <spi_disable+0x68>)
1000b1bc:	6803      	ldr	r3, [r0, #0]
1000b1be:	4293      	cmp	r3, r2
1000b1c0:	d012      	beq.n	1000b1e8 <spi_disable+0x30>
1000b1c2:	4a18      	ldr	r2, [pc, #96]	; (1000b224 <spi_disable+0x6c>)
1000b1c4:	4293      	cmp	r3, r2
1000b1c6:	d009      	beq.n	1000b1dc <spi_disable+0x24>
1000b1c8:	2200      	movs	r2, #0
1000b1ca:	761a      	strb	r2, [r3, #24]
1000b1cc:	6803      	ldr	r3, [r0, #0]
1000b1ce:	4a14      	ldr	r2, [pc, #80]	; (1000b220 <spi_disable+0x68>)
1000b1d0:	4293      	cmp	r3, r2
1000b1d2:	d01a      	beq.n	1000b20a <spi_disable+0x52>
1000b1d4:	4a13      	ldr	r2, [pc, #76]	; (1000b224 <spi_disable+0x6c>)
1000b1d6:	4293      	cmp	r3, r2
1000b1d8:	d00d      	beq.n	1000b1f6 <spi_disable+0x3e>
1000b1da:	bd10      	pop	{r4, pc}
1000b1dc:	2280      	movs	r2, #128	; 0x80
1000b1de:	2440      	movs	r4, #64	; 0x40
1000b1e0:	4911      	ldr	r1, [pc, #68]	; (1000b228 <spi_disable+0x70>)
1000b1e2:	508c      	str	r4, [r1, r2]
1000b1e4:	508a      	str	r2, [r1, r2]
1000b1e6:	e7ef      	b.n	1000b1c8 <spi_disable+0x10>
1000b1e8:	2280      	movs	r2, #128	; 0x80
1000b1ea:	2410      	movs	r4, #16
1000b1ec:	490e      	ldr	r1, [pc, #56]	; (1000b228 <spi_disable+0x70>)
1000b1ee:	508c      	str	r4, [r1, r2]
1000b1f0:	3410      	adds	r4, #16
1000b1f2:	508c      	str	r4, [r1, r2]
1000b1f4:	e7e8      	b.n	1000b1c8 <spi_disable+0x10>
1000b1f6:	4c0d      	ldr	r4, [pc, #52]	; (1000b22c <spi_disable+0x74>)
1000b1f8:	2042      	movs	r0, #66	; 0x42
1000b1fa:	47a0      	blx	r4
1000b1fc:	2027      	movs	r0, #39	; 0x27
1000b1fe:	47a0      	blx	r4
1000b200:	2039      	movs	r0, #57	; 0x39
1000b202:	47a0      	blx	r4
1000b204:	2002      	movs	r0, #2
1000b206:	47a0      	blx	r4
1000b208:	e7e7      	b.n	1000b1da <spi_disable+0x22>
1000b20a:	4c08      	ldr	r4, [pc, #32]	; (1000b22c <spi_disable+0x74>)
1000b20c:	2041      	movs	r0, #65	; 0x41
1000b20e:	47a0      	blx	r4
1000b210:	2026      	movs	r0, #38	; 0x26
1000b212:	47a0      	blx	r4
1000b214:	2038      	movs	r0, #56	; 0x38
1000b216:	47a0      	blx	r4
1000b218:	2001      	movs	r0, #1
1000b21a:	47a0      	blx	r4
1000b21c:	e7dd      	b.n	1000b1da <spi_disable+0x22>
1000b21e:	46c0      	nop			; (mov r8, r8)
1000b220:	40006000 	.word	0x40006000
1000b224:	40007000 	.word	0x40007000
1000b228:	e000e100 	.word	0xe000e100
1000b22c:	1000bc81 	.word	0x1000bc81

1000b230 <spi_reset>:
1000b230:	b510      	push	{r4, lr}
1000b232:	4b0b      	ldr	r3, [pc, #44]	; (1000b260 <spi_reset+0x30>)
1000b234:	6804      	ldr	r4, [r0, #0]
1000b236:	4798      	blx	r3
1000b238:	4b0a      	ldr	r3, [pc, #40]	; (1000b264 <spi_reset+0x34>)
1000b23a:	429c      	cmp	r4, r3
1000b23c:	d009      	beq.n	1000b252 <spi_reset+0x22>
1000b23e:	4b0a      	ldr	r3, [pc, #40]	; (1000b268 <spi_reset+0x38>)
1000b240:	429c      	cmp	r4, r3
1000b242:	d000      	beq.n	1000b246 <spi_reset+0x16>
1000b244:	bd10      	pop	{r4, pc}
1000b246:	4c09      	ldr	r4, [pc, #36]	; (1000b26c <spi_reset+0x3c>)
1000b248:	2002      	movs	r0, #2
1000b24a:	47a0      	blx	r4
1000b24c:	2039      	movs	r0, #57	; 0x39
1000b24e:	47a0      	blx	r4
1000b250:	e7f8      	b.n	1000b244 <spi_reset+0x14>
1000b252:	4c06      	ldr	r4, [pc, #24]	; (1000b26c <spi_reset+0x3c>)
1000b254:	2001      	movs	r0, #1
1000b256:	47a0      	blx	r4
1000b258:	2038      	movs	r0, #56	; 0x38
1000b25a:	47a0      	blx	r4
1000b25c:	e7f2      	b.n	1000b244 <spi_reset+0x14>
1000b25e:	46c0      	nop			; (mov r8, r8)
1000b260:	1000b1b9 	.word	0x1000b1b9
1000b264:	40006000 	.word	0x40006000
1000b268:	40007000 	.word	0x40007000
1000b26c:	1000bf85 	.word	0x1000bf85

1000b270 <spi_init>:
1000b270:	b5f0      	push	{r4, r5, r6, r7, lr}
1000b272:	4645      	mov	r5, r8
1000b274:	464e      	mov	r6, r9
1000b276:	4657      	mov	r7, sl
1000b278:	b4e0      	push	{r5, r6, r7}
1000b27a:	0005      	movs	r5, r0
1000b27c:	6029      	str	r1, [r5, #0]
1000b27e:	7e0b      	ldrb	r3, [r1, #24]
1000b280:	b082      	sub	sp, #8
1000b282:	4688      	mov	r8, r1
1000b284:	0016      	movs	r6, r2
1000b286:	07db      	lsls	r3, r3, #31
1000b288:	d501      	bpl.n	1000b28e <spi_init+0x1e>
1000b28a:	2300      	movs	r3, #0
1000b28c:	760b      	strb	r3, [r1, #24]
1000b28e:	4b5c      	ldr	r3, [pc, #368]	; (1000b400 <spi_init+0x190>)
1000b290:	0028      	movs	r0, r5
1000b292:	4798      	blx	r3
1000b294:	682b      	ldr	r3, [r5, #0]
1000b296:	4a5b      	ldr	r2, [pc, #364]	; (1000b404 <spi_init+0x194>)
1000b298:	4293      	cmp	r3, r2
1000b29a:	d100      	bne.n	1000b29e <spi_init+0x2e>
1000b29c:	e0a5      	b.n	1000b3ea <spi_init+0x17a>
1000b29e:	4a5a      	ldr	r2, [pc, #360]	; (1000b408 <spi_init+0x198>)
1000b2a0:	4293      	cmp	r3, r2
1000b2a2:	d100      	bne.n	1000b2a6 <spi_init+0x36>
1000b2a4:	e07c      	b.n	1000b3a0 <spi_init+0x130>
1000b2a6:	4b59      	ldr	r3, [pc, #356]	; (1000b40c <spi_init+0x19c>)
1000b2a8:	a801      	add	r0, sp, #4
1000b2aa:	4798      	blx	r3
1000b2ac:	4b58      	ldr	r3, [pc, #352]	; (1000b410 <spi_init+0x1a0>)
1000b2ae:	0034      	movs	r4, r6
1000b2b0:	469a      	mov	sl, r3
1000b2b2:	4b58      	ldr	r3, [pc, #352]	; (1000b414 <spi_init+0x1a4>)
1000b2b4:	0037      	movs	r7, r6
1000b2b6:	4699      	mov	r9, r3
1000b2b8:	3408      	adds	r4, #8
1000b2ba:	3718      	adds	r7, #24
1000b2bc:	6820      	ldr	r0, [r4, #0]
1000b2be:	1c43      	adds	r3, r0, #1
1000b2c0:	d00c      	beq.n	1000b2dc <spi_init+0x6c>
1000b2c2:	7833      	ldrb	r3, [r6, #0]
1000b2c4:	2b01      	cmp	r3, #1
1000b2c6:	d001      	beq.n	1000b2cc <spi_init+0x5c>
1000b2c8:	2b00      	cmp	r3, #0
1000b2ca:	d101      	bne.n	1000b2d0 <spi_init+0x60>
1000b2cc:	466a      	mov	r2, sp
1000b2ce:	7113      	strb	r3, [r2, #4]
1000b2d0:	a901      	add	r1, sp, #4
1000b2d2:	b2c0      	uxtb	r0, r0
1000b2d4:	47d0      	blx	sl
1000b2d6:	8a21      	ldrh	r1, [r4, #16]
1000b2d8:	7820      	ldrb	r0, [r4, #0]
1000b2da:	47c8      	blx	r9
1000b2dc:	3404      	adds	r4, #4
1000b2de:	42bc      	cmp	r4, r7
1000b2e0:	d1ec      	bne.n	1000b2bc <spi_init+0x4c>
1000b2e2:	4642      	mov	r2, r8
1000b2e4:	78f3      	ldrb	r3, [r6, #3]
1000b2e6:	7413      	strb	r3, [r2, #16]
1000b2e8:	7833      	ldrb	r3, [r6, #0]
1000b2ea:	2b01      	cmp	r3, #1
1000b2ec:	d051      	beq.n	1000b392 <spi_init+0x122>
1000b2ee:	2300      	movs	r3, #0
1000b2f0:	2200      	movs	r2, #0
1000b2f2:	84ab      	strh	r3, [r5, #36]	; 0x24
1000b2f4:	60ab      	str	r3, [r5, #8]
1000b2f6:	842b      	strh	r3, [r5, #32]
1000b2f8:	60eb      	str	r3, [r5, #12]
1000b2fa:	612b      	str	r3, [r5, #16]
1000b2fc:	616b      	str	r3, [r5, #20]
1000b2fe:	61eb      	str	r3, [r5, #28]
1000b300:	61ab      	str	r3, [r5, #24]
1000b302:	3326      	adds	r3, #38	; 0x26
1000b304:	54ea      	strb	r2, [r5, r3]
1000b306:	3301      	adds	r3, #1
1000b308:	54ea      	strb	r2, [r5, r3]
1000b30a:	3301      	adds	r3, #1
1000b30c:	54ea      	strb	r2, [r5, r3]
1000b30e:	3b25      	subs	r3, #37	; 0x25
1000b310:	71eb      	strb	r3, [r5, #7]
1000b312:	712a      	strb	r2, [r5, #4]
1000b314:	7832      	ldrb	r2, [r6, #0]
1000b316:	682b      	ldr	r3, [r5, #0]
1000b318:	716a      	strb	r2, [r5, #5]
1000b31a:	7832      	ldrb	r2, [r6, #0]
1000b31c:	2a01      	cmp	r2, #1
1000b31e:	d035      	beq.n	1000b38c <spi_init+0x11c>
1000b320:	7872      	ldrb	r2, [r6, #1]
1000b322:	2124      	movs	r1, #36	; 0x24
1000b324:	2a04      	cmp	r2, #4
1000b326:	d026      	beq.n	1000b376 <spi_init+0x106>
1000b328:	2004      	movs	r0, #4
1000b32a:	5c5a      	ldrb	r2, [r3, r1]
1000b32c:	4382      	bics	r2, r0
1000b32e:	545a      	strb	r2, [r3, r1]
1000b330:	78b2      	ldrb	r2, [r6, #2]
1000b332:	2a01      	cmp	r2, #1
1000b334:	d025      	beq.n	1000b382 <spi_init+0x112>
1000b336:	2a00      	cmp	r2, #0
1000b338:	d02d      	beq.n	1000b396 <spi_init+0x126>
1000b33a:	2a02      	cmp	r2, #2
1000b33c:	d011      	beq.n	1000b362 <spi_init+0xf2>
1000b33e:	2a03      	cmp	r2, #3
1000b340:	d108      	bne.n	1000b354 <spi_init+0xe4>
1000b342:	2224      	movs	r2, #36	; 0x24
1000b344:	2102      	movs	r1, #2
1000b346:	5c98      	ldrb	r0, [r3, r2]
1000b348:	4301      	orrs	r1, r0
1000b34a:	5499      	strb	r1, [r3, r2]
1000b34c:	2101      	movs	r1, #1
1000b34e:	5c98      	ldrb	r0, [r3, r2]
1000b350:	4301      	orrs	r1, r0
1000b352:	5499      	strb	r1, [r3, r2]
1000b354:	2000      	movs	r0, #0
1000b356:	b002      	add	sp, #8
1000b358:	bc1c      	pop	{r2, r3, r4}
1000b35a:	4690      	mov	r8, r2
1000b35c:	4699      	mov	r9, r3
1000b35e:	46a2      	mov	sl, r4
1000b360:	bdf0      	pop	{r4, r5, r6, r7, pc}
1000b362:	2224      	movs	r2, #36	; 0x24
1000b364:	2102      	movs	r1, #2
1000b366:	5c98      	ldrb	r0, [r3, r2]
1000b368:	4301      	orrs	r1, r0
1000b36a:	2001      	movs	r0, #1
1000b36c:	5499      	strb	r1, [r3, r2]
1000b36e:	5c99      	ldrb	r1, [r3, r2]
1000b370:	4381      	bics	r1, r0
1000b372:	5499      	strb	r1, [r3, r2]
1000b374:	e7ee      	b.n	1000b354 <spi_init+0xe4>
1000b376:	5c58      	ldrb	r0, [r3, r1]
1000b378:	4302      	orrs	r2, r0
1000b37a:	545a      	strb	r2, [r3, r1]
1000b37c:	78b2      	ldrb	r2, [r6, #2]
1000b37e:	2a01      	cmp	r2, #1
1000b380:	d1d9      	bne.n	1000b336 <spi_init+0xc6>
1000b382:	2224      	movs	r2, #36	; 0x24
1000b384:	2002      	movs	r0, #2
1000b386:	5c99      	ldrb	r1, [r3, r2]
1000b388:	4381      	bics	r1, r0
1000b38a:	e7de      	b.n	1000b34a <spi_init+0xda>
1000b38c:	7932      	ldrb	r2, [r6, #4]
1000b38e:	829a      	strh	r2, [r3, #20]
1000b390:	e7c6      	b.n	1000b320 <spi_init+0xb0>
1000b392:	7713      	strb	r3, [r2, #28]
1000b394:	e7ab      	b.n	1000b2ee <spi_init+0x7e>
1000b396:	2224      	movs	r2, #36	; 0x24
1000b398:	2002      	movs	r0, #2
1000b39a:	5c99      	ldrb	r1, [r3, r2]
1000b39c:	4381      	bics	r1, r0
1000b39e:	e7e4      	b.n	1000b36a <spi_init+0xfa>
1000b3a0:	4c1d      	ldr	r4, [pc, #116]	; (1000b418 <spi_init+0x1a8>)
1000b3a2:	2042      	movs	r0, #66	; 0x42
1000b3a4:	47a0      	blx	r4
1000b3a6:	2027      	movs	r0, #39	; 0x27
1000b3a8:	47a0      	blx	r4
1000b3aa:	2039      	movs	r0, #57	; 0x39
1000b3ac:	47a0      	blx	r4
1000b3ae:	2002      	movs	r0, #2
1000b3b0:	47a0      	blx	r4
1000b3b2:	682b      	ldr	r3, [r5, #0]
1000b3b4:	4a13      	ldr	r2, [pc, #76]	; (1000b404 <spi_init+0x194>)
1000b3b6:	4293      	cmp	r3, r2
1000b3b8:	d109      	bne.n	1000b3ce <spi_init+0x15e>
1000b3ba:	4b18      	ldr	r3, [pc, #96]	; (1000b41c <spi_init+0x1ac>)
1000b3bc:	4918      	ldr	r1, [pc, #96]	; (1000b420 <spi_init+0x1b0>)
1000b3be:	2014      	movs	r0, #20
1000b3c0:	4c18      	ldr	r4, [pc, #96]	; (1000b424 <spi_init+0x1b4>)
1000b3c2:	601d      	str	r5, [r3, #0]
1000b3c4:	47a0      	blx	r4
1000b3c6:	4918      	ldr	r1, [pc, #96]	; (1000b428 <spi_init+0x1b8>)
1000b3c8:	2015      	movs	r0, #21
1000b3ca:	47a0      	blx	r4
1000b3cc:	e76b      	b.n	1000b2a6 <spi_init+0x36>
1000b3ce:	4a0e      	ldr	r2, [pc, #56]	; (1000b408 <spi_init+0x198>)
1000b3d0:	4293      	cmp	r3, r2
1000b3d2:	d000      	beq.n	1000b3d6 <spi_init+0x166>
1000b3d4:	e767      	b.n	1000b2a6 <spi_init+0x36>
1000b3d6:	4b11      	ldr	r3, [pc, #68]	; (1000b41c <spi_init+0x1ac>)
1000b3d8:	4914      	ldr	r1, [pc, #80]	; (1000b42c <spi_init+0x1bc>)
1000b3da:	2016      	movs	r0, #22
1000b3dc:	4c11      	ldr	r4, [pc, #68]	; (1000b424 <spi_init+0x1b4>)
1000b3de:	605d      	str	r5, [r3, #4]
1000b3e0:	47a0      	blx	r4
1000b3e2:	4913      	ldr	r1, [pc, #76]	; (1000b430 <spi_init+0x1c0>)
1000b3e4:	2017      	movs	r0, #23
1000b3e6:	47a0      	blx	r4
1000b3e8:	e75d      	b.n	1000b2a6 <spi_init+0x36>
1000b3ea:	4c0b      	ldr	r4, [pc, #44]	; (1000b418 <spi_init+0x1a8>)
1000b3ec:	2041      	movs	r0, #65	; 0x41
1000b3ee:	47a0      	blx	r4
1000b3f0:	2026      	movs	r0, #38	; 0x26
1000b3f2:	47a0      	blx	r4
1000b3f4:	2038      	movs	r0, #56	; 0x38
1000b3f6:	47a0      	blx	r4
1000b3f8:	2001      	movs	r0, #1
1000b3fa:	47a0      	blx	r4
1000b3fc:	e7d9      	b.n	1000b3b2 <spi_init+0x142>
1000b3fe:	46c0      	nop			; (mov r8, r8)
1000b400:	1000b231 	.word	0x1000b231
1000b404:	40006000 	.word	0x40006000
1000b408:	40007000 	.word	0x40007000
1000b40c:	1000a961 	.word	0x1000a961
1000b410:	1000a971 	.word	0x1000a971
1000b414:	1000ab1d 	.word	0x1000ab1d
1000b418:	1000b991 	.word	0x1000b991
1000b41c:	100152b4 	.word	0x100152b4
1000b420:	1000b455 	.word	0x1000b455
1000b424:	1000c39d 	.word	0x1000c39d
1000b428:	1000b569 	.word	0x1000b569
1000b42c:	1000b669 	.word	0x1000b669
1000b430:	1000b77d 	.word	0x1000b77d

1000b434 <spi_select_slave>:
1000b434:	b510      	push	{r4, lr}
1000b436:	7808      	ldrb	r0, [r1, #0]
1000b438:	2a00      	cmp	r2, #0
1000b43a:	d104      	bne.n	1000b446 <spi_select_slave+0x12>
1000b43c:	2101      	movs	r1, #1
1000b43e:	4b04      	ldr	r3, [pc, #16]	; (1000b450 <spi_select_slave+0x1c>)
1000b440:	4798      	blx	r3
1000b442:	2000      	movs	r0, #0
1000b444:	bd10      	pop	{r4, pc}
1000b446:	2100      	movs	r1, #0
1000b448:	4b01      	ldr	r3, [pc, #4]	; (1000b450 <spi_select_slave+0x1c>)
1000b44a:	4798      	blx	r3
1000b44c:	e7f9      	b.n	1000b442 <spi_select_slave+0xe>
1000b44e:	46c0      	nop			; (mov r8, r8)
1000b450:	1000aacd 	.word	0x1000aacd

1000b454 <spi_rx0_isr_handler>:
1000b454:	2130      	movs	r1, #48	; 0x30
1000b456:	b5f8      	push	{r3, r4, r5, r6, r7, lr}
1000b458:	4b41      	ldr	r3, [pc, #260]	; (1000b560 <spi_rx0_isr_handler+0x10c>)
1000b45a:	681c      	ldr	r4, [r3, #0]
1000b45c:	6823      	ldr	r3, [r4, #0]
1000b45e:	7b1a      	ldrb	r2, [r3, #12]
1000b460:	5c58      	ldrb	r0, [r3, r1]
1000b462:	4002      	ands	r2, r0
1000b464:	2001      	movs	r0, #1
1000b466:	4210      	tst	r0, r2
1000b468:	d022      	beq.n	1000b4b0 <spi_rx0_isr_handler+0x5c>
1000b46a:	2220      	movs	r2, #32
1000b46c:	7b1d      	ldrb	r5, [r3, #12]
1000b46e:	422a      	tst	r2, r5
1000b470:	d01f      	beq.n	1000b4b2 <spi_rx0_isr_handler+0x5e>
1000b472:	79e0      	ldrb	r0, [r4, #7]
1000b474:	2801      	cmp	r0, #1
1000b476:	d01a      	beq.n	1000b4ae <spi_rx0_isr_handler+0x5a>
1000b478:	2003      	movs	r0, #3
1000b47a:	2628      	movs	r6, #40	; 0x28
1000b47c:	271e      	movs	r7, #30
1000b47e:	2521      	movs	r5, #33	; 0x21
1000b480:	55a7      	strb	r7, [r4, r6]
1000b482:	71e0      	strb	r0, [r4, #7]
1000b484:	5c58      	ldrb	r0, [r3, r1]
1000b486:	43a8      	bics	r0, r5
1000b488:	5458      	strb	r0, [r3, r1]
1000b48a:	2327      	movs	r3, #39	; 0x27
1000b48c:	5ce0      	ldrb	r0, [r4, r3]
1000b48e:	3b1f      	subs	r3, #31
1000b490:	4203      	tst	r3, r0
1000b492:	d00b      	beq.n	1000b4ac <spi_rx0_isr_handler+0x58>
1000b494:	2026      	movs	r0, #38	; 0x26
1000b496:	5c20      	ldrb	r0, [r4, r0]
1000b498:	4203      	tst	r3, r0
1000b49a:	d007      	beq.n	1000b4ac <spi_rx0_isr_handler+0x58>
1000b49c:	55a7      	strb	r7, [r4, r6]
1000b49e:	6820      	ldr	r0, [r4, #0]
1000b4a0:	5c43      	ldrb	r3, [r0, r1]
1000b4a2:	4393      	bics	r3, r2
1000b4a4:	5443      	strb	r3, [r0, r1]
1000b4a6:	6963      	ldr	r3, [r4, #20]
1000b4a8:	0020      	movs	r0, r4
1000b4aa:	4798      	blx	r3
1000b4ac:	6823      	ldr	r3, [r4, #0]
1000b4ae:	791b      	ldrb	r3, [r3, #4]
1000b4b0:	bdf8      	pop	{r3, r4, r5, r6, r7, pc}
1000b4b2:	79e5      	ldrb	r5, [r4, #7]
1000b4b4:	2d01      	cmp	r5, #1
1000b4b6:	d025      	beq.n	1000b504 <spi_rx0_isr_handler+0xb0>
1000b4b8:	791b      	ldrb	r3, [r3, #4]
1000b4ba:	69a2      	ldr	r2, [r4, #24]
1000b4bc:	b2db      	uxtb	r3, r3
1000b4be:	7013      	strb	r3, [r2, #0]
1000b4c0:	69a3      	ldr	r3, [r4, #24]
1000b4c2:	3301      	adds	r3, #1
1000b4c4:	61a3      	str	r3, [r4, #24]
1000b4c6:	8c23      	ldrh	r3, [r4, #32]
1000b4c8:	3b01      	subs	r3, #1
1000b4ca:	b29b      	uxth	r3, r3
1000b4cc:	8423      	strh	r3, [r4, #32]
1000b4ce:	8c23      	ldrh	r3, [r4, #32]
1000b4d0:	b29b      	uxth	r3, r3
1000b4d2:	2b00      	cmp	r3, #0
1000b4d4:	d1ec      	bne.n	1000b4b0 <spi_rx0_isr_handler+0x5c>
1000b4d6:	79e2      	ldrb	r2, [r4, #7]
1000b4d8:	b2d2      	uxtb	r2, r2
1000b4da:	2a00      	cmp	r2, #0
1000b4dc:	d123      	bne.n	1000b526 <spi_rx0_isr_handler+0xd2>
1000b4de:	3327      	adds	r3, #39	; 0x27
1000b4e0:	5ce5      	ldrb	r5, [r4, r3]
1000b4e2:	3b25      	subs	r3, #37	; 0x25
1000b4e4:	422b      	tst	r3, r5
1000b4e6:	d0e3      	beq.n	1000b4b0 <spi_rx0_isr_handler+0x5c>
1000b4e8:	2526      	movs	r5, #38	; 0x26
1000b4ea:	5d65      	ldrb	r5, [r4, r5]
1000b4ec:	422b      	tst	r3, r5
1000b4ee:	d0df      	beq.n	1000b4b0 <spi_rx0_isr_handler+0x5c>
1000b4f0:	3326      	adds	r3, #38	; 0x26
1000b4f2:	54e2      	strb	r2, [r4, r3]
1000b4f4:	6822      	ldr	r2, [r4, #0]
1000b4f6:	5c53      	ldrb	r3, [r2, r1]
1000b4f8:	4383      	bics	r3, r0
1000b4fa:	5453      	strb	r3, [r2, r1]
1000b4fc:	68e3      	ldr	r3, [r4, #12]
1000b4fe:	0020      	movs	r0, r4
1000b500:	4798      	blx	r3
1000b502:	e7d5      	b.n	1000b4b0 <spi_rx0_isr_handler+0x5c>
1000b504:	7918      	ldrb	r0, [r3, #4]
1000b506:	8c60      	ldrh	r0, [r4, #34]	; 0x22
1000b508:	3801      	subs	r0, #1
1000b50a:	b280      	uxth	r0, r0
1000b50c:	8460      	strh	r0, [r4, #34]	; 0x22
1000b50e:	8c60      	ldrh	r0, [r4, #34]	; 0x22
1000b510:	b280      	uxth	r0, r0
1000b512:	2800      	cmp	r0, #0
1000b514:	d1cc      	bne.n	1000b4b0 <spi_rx0_isr_handler+0x5c>
1000b516:	5c5d      	ldrb	r5, [r3, r1]
1000b518:	4395      	bics	r5, r2
1000b51a:	545d      	strb	r5, [r3, r1]
1000b51c:	2328      	movs	r3, #40	; 0x28
1000b51e:	54e0      	strb	r0, [r4, r3]
1000b520:	3b25      	subs	r3, #37	; 0x25
1000b522:	71e3      	strb	r3, [r4, #7]
1000b524:	e7c4      	b.n	1000b4b0 <spi_rx0_isr_handler+0x5c>
1000b526:	79e2      	ldrb	r2, [r4, #7]
1000b528:	2a02      	cmp	r2, #2
1000b52a:	d1c1      	bne.n	1000b4b0 <spi_rx0_isr_handler+0x5c>
1000b52c:	3225      	adds	r2, #37	; 0x25
1000b52e:	5ca5      	ldrb	r5, [r4, r2]
1000b530:	3a23      	subs	r2, #35	; 0x23
1000b532:	422a      	tst	r2, r5
1000b534:	d0bc      	beq.n	1000b4b0 <spi_rx0_isr_handler+0x5c>
1000b536:	2526      	movs	r5, #38	; 0x26
1000b538:	5d65      	ldrb	r5, [r4, r5]
1000b53a:	422a      	tst	r2, r5
1000b53c:	d0b8      	beq.n	1000b4b0 <spi_rx0_isr_handler+0x5c>
1000b53e:	6825      	ldr	r5, [r4, #0]
1000b540:	5c6a      	ldrb	r2, [r5, r1]
1000b542:	4382      	bics	r2, r0
1000b544:	546a      	strb	r2, [r5, r1]
1000b546:	4a07      	ldr	r2, [pc, #28]	; (1000b564 <spi_rx0_isr_handler+0x110>)
1000b548:	7811      	ldrb	r1, [r2, #0]
1000b54a:	2900      	cmp	r1, #0
1000b54c:	d101      	bne.n	1000b552 <spi_rx0_isr_handler+0xfe>
1000b54e:	7010      	strb	r0, [r2, #0]
1000b550:	e7ae      	b.n	1000b4b0 <spi_rx0_isr_handler+0x5c>
1000b552:	2128      	movs	r1, #40	; 0x28
1000b554:	5463      	strb	r3, [r4, r1]
1000b556:	7013      	strb	r3, [r2, #0]
1000b558:	0020      	movs	r0, r4
1000b55a:	6923      	ldr	r3, [r4, #16]
1000b55c:	4798      	blx	r3
1000b55e:	e7a7      	b.n	1000b4b0 <spi_rx0_isr_handler+0x5c>
1000b560:	100152b4 	.word	0x100152b4
1000b564:	100148c0 	.word	0x100148c0

1000b568 <spi_tx0_isr_handler>:
1000b568:	212c      	movs	r1, #44	; 0x2c
1000b56a:	b570      	push	{r4, r5, r6, lr}
1000b56c:	4b3b      	ldr	r3, [pc, #236]	; (1000b65c <spi_tx0_isr_handler+0xf4>)
1000b56e:	6818      	ldr	r0, [r3, #0]
1000b570:	6802      	ldr	r2, [r0, #0]
1000b572:	7a13      	ldrb	r3, [r2, #8]
1000b574:	5c54      	ldrb	r4, [r2, r1]
1000b576:	4023      	ands	r3, r4
1000b578:	07dc      	lsls	r4, r3, #31
1000b57a:	d502      	bpl.n	1000b582 <spi_tx0_isr_handler+0x1a>
1000b57c:	7944      	ldrb	r4, [r0, #5]
1000b57e:	2c01      	cmp	r4, #1
1000b580:	d032      	beq.n	1000b5e8 <spi_tx0_isr_handler+0x80>
1000b582:	2210      	movs	r2, #16
1000b584:	421a      	tst	r2, r3
1000b586:	d006      	beq.n	1000b596 <spi_tx0_isr_handler+0x2e>
1000b588:	79c3      	ldrb	r3, [r0, #7]
1000b58a:	b2db      	uxtb	r3, r3
1000b58c:	2b01      	cmp	r3, #1
1000b58e:	d003      	beq.n	1000b598 <spi_tx0_isr_handler+0x30>
1000b590:	79c3      	ldrb	r3, [r0, #7]
1000b592:	2b02      	cmp	r3, #2
1000b594:	d013      	beq.n	1000b5be <spi_tx0_isr_handler+0x56>
1000b596:	bd70      	pop	{r4, r5, r6, pc}
1000b598:	2127      	movs	r1, #39	; 0x27
1000b59a:	5c41      	ldrb	r1, [r0, r1]
1000b59c:	420b      	tst	r3, r1
1000b59e:	d0fa      	beq.n	1000b596 <spi_tx0_isr_handler+0x2e>
1000b5a0:	2126      	movs	r1, #38	; 0x26
1000b5a2:	5c41      	ldrb	r1, [r0, r1]
1000b5a4:	420b      	tst	r3, r1
1000b5a6:	d0f6      	beq.n	1000b596 <spi_tx0_isr_handler+0x2e>
1000b5a8:	2100      	movs	r1, #0
1000b5aa:	3327      	adds	r3, #39	; 0x27
1000b5ac:	54c1      	strb	r1, [r0, r3]
1000b5ae:	6804      	ldr	r4, [r0, #0]
1000b5b0:	312c      	adds	r1, #44	; 0x2c
1000b5b2:	5c63      	ldrb	r3, [r4, r1]
1000b5b4:	4393      	bics	r3, r2
1000b5b6:	5463      	strb	r3, [r4, r1]
1000b5b8:	6883      	ldr	r3, [r0, #8]
1000b5ba:	4798      	blx	r3
1000b5bc:	e7eb      	b.n	1000b596 <spi_tx0_isr_handler+0x2e>
1000b5be:	3325      	adds	r3, #37	; 0x25
1000b5c0:	5cc1      	ldrb	r1, [r0, r3]
1000b5c2:	3b23      	subs	r3, #35	; 0x23
1000b5c4:	420b      	tst	r3, r1
1000b5c6:	d0e6      	beq.n	1000b596 <spi_tx0_isr_handler+0x2e>
1000b5c8:	2126      	movs	r1, #38	; 0x26
1000b5ca:	5c41      	ldrb	r1, [r0, r1]
1000b5cc:	420b      	tst	r3, r1
1000b5ce:	d0e2      	beq.n	1000b596 <spi_tx0_isr_handler+0x2e>
1000b5d0:	212c      	movs	r1, #44	; 0x2c
1000b5d2:	6804      	ldr	r4, [r0, #0]
1000b5d4:	5c63      	ldrb	r3, [r4, r1]
1000b5d6:	4393      	bics	r3, r2
1000b5d8:	5463      	strb	r3, [r4, r1]
1000b5da:	4b21      	ldr	r3, [pc, #132]	; (1000b660 <spi_tx0_isr_handler+0xf8>)
1000b5dc:	781a      	ldrb	r2, [r3, #0]
1000b5de:	2a00      	cmp	r2, #0
1000b5e0:	d134      	bne.n	1000b64c <spi_tx0_isr_handler+0xe4>
1000b5e2:	2201      	movs	r2, #1
1000b5e4:	701a      	strb	r2, [r3, #0]
1000b5e6:	e7d6      	b.n	1000b596 <spi_tx0_isr_handler+0x2e>
1000b5e8:	79c5      	ldrb	r5, [r0, #7]
1000b5ea:	2d00      	cmp	r5, #0
1000b5ec:	d10c      	bne.n	1000b608 <spi_tx0_isr_handler+0xa0>
1000b5ee:	4d1d      	ldr	r5, [pc, #116]	; (1000b664 <spi_tx0_isr_handler+0xfc>)
1000b5f0:	782d      	ldrb	r5, [r5, #0]
1000b5f2:	7015      	strb	r5, [r2, #0]
1000b5f4:	8c42      	ldrh	r2, [r0, #34]	; 0x22
1000b5f6:	3a01      	subs	r2, #1
1000b5f8:	b292      	uxth	r2, r2
1000b5fa:	8442      	strh	r2, [r0, #34]	; 0x22
1000b5fc:	8c42      	ldrh	r2, [r0, #34]	; 0x22
1000b5fe:	2a00      	cmp	r2, #0
1000b600:	d01f      	beq.n	1000b642 <spi_tx0_isr_handler+0xda>
1000b602:	7942      	ldrb	r2, [r0, #5]
1000b604:	2a01      	cmp	r2, #1
1000b606:	d1bc      	bne.n	1000b582 <spi_tx0_isr_handler+0x1a>
1000b608:	79c2      	ldrb	r2, [r0, #7]
1000b60a:	2a00      	cmp	r2, #0
1000b60c:	d0b9      	beq.n	1000b582 <spi_tx0_isr_handler+0x1a>
1000b60e:	69c2      	ldr	r2, [r0, #28]
1000b610:	7811      	ldrb	r1, [r2, #0]
1000b612:	3201      	adds	r2, #1
1000b614:	61c2      	str	r2, [r0, #28]
1000b616:	6802      	ldr	r2, [r0, #0]
1000b618:	b2c9      	uxtb	r1, r1
1000b61a:	7011      	strb	r1, [r2, #0]
1000b61c:	8c82      	ldrh	r2, [r0, #36]	; 0x24
1000b61e:	3a01      	subs	r2, #1
1000b620:	b292      	uxth	r2, r2
1000b622:	8482      	strh	r2, [r0, #36]	; 0x24
1000b624:	8c82      	ldrh	r2, [r0, #36]	; 0x24
1000b626:	2a00      	cmp	r2, #0
1000b628:	d1ab      	bne.n	1000b582 <spi_tx0_isr_handler+0x1a>
1000b62a:	2501      	movs	r5, #1
1000b62c:	6804      	ldr	r4, [r0, #0]
1000b62e:	322c      	adds	r2, #44	; 0x2c
1000b630:	5ca1      	ldrb	r1, [r4, r2]
1000b632:	43a9      	bics	r1, r5
1000b634:	54a1      	strb	r1, [r4, r2]
1000b636:	2110      	movs	r1, #16
1000b638:	6804      	ldr	r4, [r0, #0]
1000b63a:	5ca5      	ldrb	r5, [r4, r2]
1000b63c:	4329      	orrs	r1, r5
1000b63e:	54a1      	strb	r1, [r4, r2]
1000b640:	e79f      	b.n	1000b582 <spi_tx0_isr_handler+0x1a>
1000b642:	6805      	ldr	r5, [r0, #0]
1000b644:	5c6a      	ldrb	r2, [r5, r1]
1000b646:	43a2      	bics	r2, r4
1000b648:	546a      	strb	r2, [r5, r1]
1000b64a:	e7da      	b.n	1000b602 <spi_tx0_isr_handler+0x9a>
1000b64c:	2200      	movs	r2, #0
1000b64e:	3904      	subs	r1, #4
1000b650:	5442      	strb	r2, [r0, r1]
1000b652:	701a      	strb	r2, [r3, #0]
1000b654:	6903      	ldr	r3, [r0, #16]
1000b656:	4798      	blx	r3
1000b658:	e79d      	b.n	1000b596 <spi_tx0_isr_handler+0x2e>
1000b65a:	46c0      	nop			; (mov r8, r8)
1000b65c:	100152b4 	.word	0x100152b4
1000b660:	100148c0 	.word	0x100148c0
1000b664:	100148c2 	.word	0x100148c2

1000b668 <spi_rx1_isr_handler>:
1000b668:	2130      	movs	r1, #48	; 0x30
1000b66a:	b5f8      	push	{r3, r4, r5, r6, r7, lr}
1000b66c:	4b41      	ldr	r3, [pc, #260]	; (1000b774 <spi_rx1_isr_handler+0x10c>)
1000b66e:	685c      	ldr	r4, [r3, #4]
1000b670:	6823      	ldr	r3, [r4, #0]
1000b672:	7b1a      	ldrb	r2, [r3, #12]
1000b674:	5c58      	ldrb	r0, [r3, r1]
1000b676:	4002      	ands	r2, r0
1000b678:	2001      	movs	r0, #1
1000b67a:	4210      	tst	r0, r2
1000b67c:	d022      	beq.n	1000b6c4 <spi_rx1_isr_handler+0x5c>
1000b67e:	2220      	movs	r2, #32
1000b680:	7b1d      	ldrb	r5, [r3, #12]
1000b682:	422a      	tst	r2, r5
1000b684:	d01f      	beq.n	1000b6c6 <spi_rx1_isr_handler+0x5e>
1000b686:	79e0      	ldrb	r0, [r4, #7]
1000b688:	2801      	cmp	r0, #1
1000b68a:	d01a      	beq.n	1000b6c2 <spi_rx1_isr_handler+0x5a>
1000b68c:	2003      	movs	r0, #3
1000b68e:	2628      	movs	r6, #40	; 0x28
1000b690:	271e      	movs	r7, #30
1000b692:	2521      	movs	r5, #33	; 0x21
1000b694:	55a7      	strb	r7, [r4, r6]
1000b696:	71e0      	strb	r0, [r4, #7]
1000b698:	5c58      	ldrb	r0, [r3, r1]
1000b69a:	43a8      	bics	r0, r5
1000b69c:	5458      	strb	r0, [r3, r1]
1000b69e:	2327      	movs	r3, #39	; 0x27
1000b6a0:	5ce0      	ldrb	r0, [r4, r3]
1000b6a2:	3b1f      	subs	r3, #31
1000b6a4:	4203      	tst	r3, r0
1000b6a6:	d00b      	beq.n	1000b6c0 <spi_rx1_isr_handler+0x58>
1000b6a8:	2026      	movs	r0, #38	; 0x26
1000b6aa:	5c20      	ldrb	r0, [r4, r0]
1000b6ac:	4203      	tst	r3, r0
1000b6ae:	d007      	beq.n	1000b6c0 <spi_rx1_isr_handler+0x58>
1000b6b0:	55a7      	strb	r7, [r4, r6]
1000b6b2:	6820      	ldr	r0, [r4, #0]
1000b6b4:	5c43      	ldrb	r3, [r0, r1]
1000b6b6:	4393      	bics	r3, r2
1000b6b8:	5443      	strb	r3, [r0, r1]
1000b6ba:	6963      	ldr	r3, [r4, #20]
1000b6bc:	0020      	movs	r0, r4
1000b6be:	4798      	blx	r3
1000b6c0:	6823      	ldr	r3, [r4, #0]
1000b6c2:	791b      	ldrb	r3, [r3, #4]
1000b6c4:	bdf8      	pop	{r3, r4, r5, r6, r7, pc}
1000b6c6:	79e5      	ldrb	r5, [r4, #7]
1000b6c8:	2d01      	cmp	r5, #1
1000b6ca:	d025      	beq.n	1000b718 <spi_rx1_isr_handler+0xb0>
1000b6cc:	791b      	ldrb	r3, [r3, #4]
1000b6ce:	69a2      	ldr	r2, [r4, #24]
1000b6d0:	b2db      	uxtb	r3, r3
1000b6d2:	7013      	strb	r3, [r2, #0]
1000b6d4:	69a3      	ldr	r3, [r4, #24]
1000b6d6:	3301      	adds	r3, #1
1000b6d8:	61a3      	str	r3, [r4, #24]
1000b6da:	8c23      	ldrh	r3, [r4, #32]
1000b6dc:	3b01      	subs	r3, #1
1000b6de:	b29b      	uxth	r3, r3
1000b6e0:	8423      	strh	r3, [r4, #32]
1000b6e2:	8c23      	ldrh	r3, [r4, #32]
1000b6e4:	b29b      	uxth	r3, r3
1000b6e6:	2b00      	cmp	r3, #0
1000b6e8:	d1ec      	bne.n	1000b6c4 <spi_rx1_isr_handler+0x5c>
1000b6ea:	79e2      	ldrb	r2, [r4, #7]
1000b6ec:	b2d2      	uxtb	r2, r2
1000b6ee:	2a00      	cmp	r2, #0
1000b6f0:	d123      	bne.n	1000b73a <spi_rx1_isr_handler+0xd2>
1000b6f2:	3327      	adds	r3, #39	; 0x27
1000b6f4:	5ce5      	ldrb	r5, [r4, r3]
1000b6f6:	3b25      	subs	r3, #37	; 0x25
1000b6f8:	422b      	tst	r3, r5
1000b6fa:	d0e3      	beq.n	1000b6c4 <spi_rx1_isr_handler+0x5c>
1000b6fc:	2526      	movs	r5, #38	; 0x26
1000b6fe:	5d65      	ldrb	r5, [r4, r5]
1000b700:	422b      	tst	r3, r5
1000b702:	d0df      	beq.n	1000b6c4 <spi_rx1_isr_handler+0x5c>
1000b704:	3326      	adds	r3, #38	; 0x26
1000b706:	54e2      	strb	r2, [r4, r3]
1000b708:	6822      	ldr	r2, [r4, #0]
1000b70a:	5c53      	ldrb	r3, [r2, r1]
1000b70c:	4383      	bics	r3, r0
1000b70e:	5453      	strb	r3, [r2, r1]
1000b710:	68e3      	ldr	r3, [r4, #12]
1000b712:	0020      	movs	r0, r4
1000b714:	4798      	blx	r3
1000b716:	e7d5      	b.n	1000b6c4 <spi_rx1_isr_handler+0x5c>
1000b718:	7918      	ldrb	r0, [r3, #4]
1000b71a:	8c60      	ldrh	r0, [r4, #34]	; 0x22
1000b71c:	3801      	subs	r0, #1
1000b71e:	b280      	uxth	r0, r0
1000b720:	8460      	strh	r0, [r4, #34]	; 0x22
1000b722:	8c60      	ldrh	r0, [r4, #34]	; 0x22
1000b724:	b280      	uxth	r0, r0
1000b726:	2800      	cmp	r0, #0
1000b728:	d1cc      	bne.n	1000b6c4 <spi_rx1_isr_handler+0x5c>
1000b72a:	5c5d      	ldrb	r5, [r3, r1]
1000b72c:	4395      	bics	r5, r2
1000b72e:	545d      	strb	r5, [r3, r1]
1000b730:	2328      	movs	r3, #40	; 0x28
1000b732:	54e0      	strb	r0, [r4, r3]
1000b734:	3b25      	subs	r3, #37	; 0x25
1000b736:	71e3      	strb	r3, [r4, #7]
1000b738:	e7c4      	b.n	1000b6c4 <spi_rx1_isr_handler+0x5c>
1000b73a:	79e2      	ldrb	r2, [r4, #7]
1000b73c:	2a02      	cmp	r2, #2
1000b73e:	d1c1      	bne.n	1000b6c4 <spi_rx1_isr_handler+0x5c>
1000b740:	3225      	adds	r2, #37	; 0x25
1000b742:	5ca5      	ldrb	r5, [r4, r2]
1000b744:	3a23      	subs	r2, #35	; 0x23
1000b746:	422a      	tst	r2, r5
1000b748:	d0bc      	beq.n	1000b6c4 <spi_rx1_isr_handler+0x5c>
1000b74a:	2526      	movs	r5, #38	; 0x26
1000b74c:	5d65      	ldrb	r5, [r4, r5]
1000b74e:	422a      	tst	r2, r5
1000b750:	d0b8      	beq.n	1000b6c4 <spi_rx1_isr_handler+0x5c>
1000b752:	6825      	ldr	r5, [r4, #0]
1000b754:	5c6a      	ldrb	r2, [r5, r1]
1000b756:	4382      	bics	r2, r0
1000b758:	546a      	strb	r2, [r5, r1]
1000b75a:	4a07      	ldr	r2, [pc, #28]	; (1000b778 <spi_rx1_isr_handler+0x110>)
1000b75c:	7851      	ldrb	r1, [r2, #1]
1000b75e:	2900      	cmp	r1, #0
1000b760:	d101      	bne.n	1000b766 <spi_rx1_isr_handler+0xfe>
1000b762:	7050      	strb	r0, [r2, #1]
1000b764:	e7ae      	b.n	1000b6c4 <spi_rx1_isr_handler+0x5c>
1000b766:	2128      	movs	r1, #40	; 0x28
1000b768:	5463      	strb	r3, [r4, r1]
1000b76a:	7053      	strb	r3, [r2, #1]
1000b76c:	0020      	movs	r0, r4
1000b76e:	6923      	ldr	r3, [r4, #16]
1000b770:	4798      	blx	r3
1000b772:	e7a7      	b.n	1000b6c4 <spi_rx1_isr_handler+0x5c>
1000b774:	100152b4 	.word	0x100152b4
1000b778:	100148c0 	.word	0x100148c0

1000b77c <spi_tx1_isr_handler>:
1000b77c:	212c      	movs	r1, #44	; 0x2c
1000b77e:	b570      	push	{r4, r5, r6, lr}
1000b780:	4b3b      	ldr	r3, [pc, #236]	; (1000b870 <spi_tx1_isr_handler+0xf4>)
1000b782:	6858      	ldr	r0, [r3, #4]
1000b784:	6802      	ldr	r2, [r0, #0]
1000b786:	7a13      	ldrb	r3, [r2, #8]
1000b788:	5c54      	ldrb	r4, [r2, r1]
1000b78a:	4023      	ands	r3, r4
1000b78c:	07dc      	lsls	r4, r3, #31
1000b78e:	d502      	bpl.n	1000b796 <spi_tx1_isr_handler+0x1a>
1000b790:	7944      	ldrb	r4, [r0, #5]
1000b792:	2c01      	cmp	r4, #1
1000b794:	d032      	beq.n	1000b7fc <spi_tx1_isr_handler+0x80>
1000b796:	2210      	movs	r2, #16
1000b798:	421a      	tst	r2, r3
1000b79a:	d006      	beq.n	1000b7aa <spi_tx1_isr_handler+0x2e>
1000b79c:	79c3      	ldrb	r3, [r0, #7]
1000b79e:	b2db      	uxtb	r3, r3
1000b7a0:	2b01      	cmp	r3, #1
1000b7a2:	d003      	beq.n	1000b7ac <spi_tx1_isr_handler+0x30>
1000b7a4:	79c3      	ldrb	r3, [r0, #7]
1000b7a6:	2b02      	cmp	r3, #2
1000b7a8:	d013      	beq.n	1000b7d2 <spi_tx1_isr_handler+0x56>
1000b7aa:	bd70      	pop	{r4, r5, r6, pc}
1000b7ac:	2127      	movs	r1, #39	; 0x27
1000b7ae:	5c41      	ldrb	r1, [r0, r1]
1000b7b0:	420b      	tst	r3, r1
1000b7b2:	d0fa      	beq.n	1000b7aa <spi_tx1_isr_handler+0x2e>
1000b7b4:	2126      	movs	r1, #38	; 0x26
1000b7b6:	5c41      	ldrb	r1, [r0, r1]
1000b7b8:	420b      	tst	r3, r1
1000b7ba:	d0f6      	beq.n	1000b7aa <spi_tx1_isr_handler+0x2e>
1000b7bc:	2100      	movs	r1, #0
1000b7be:	3327      	adds	r3, #39	; 0x27
1000b7c0:	54c1      	strb	r1, [r0, r3]
1000b7c2:	6804      	ldr	r4, [r0, #0]
1000b7c4:	312c      	adds	r1, #44	; 0x2c
1000b7c6:	5c63      	ldrb	r3, [r4, r1]
1000b7c8:	4393      	bics	r3, r2
1000b7ca:	5463      	strb	r3, [r4, r1]
1000b7cc:	6883      	ldr	r3, [r0, #8]
1000b7ce:	4798      	blx	r3
1000b7d0:	e7eb      	b.n	1000b7aa <spi_tx1_isr_handler+0x2e>
1000b7d2:	3325      	adds	r3, #37	; 0x25
1000b7d4:	5cc1      	ldrb	r1, [r0, r3]
1000b7d6:	3b23      	subs	r3, #35	; 0x23
1000b7d8:	420b      	tst	r3, r1
1000b7da:	d0e6      	beq.n	1000b7aa <spi_tx1_isr_handler+0x2e>
1000b7dc:	2126      	movs	r1, #38	; 0x26
1000b7de:	5c41      	ldrb	r1, [r0, r1]
1000b7e0:	420b      	tst	r3, r1
1000b7e2:	d0e2      	beq.n	1000b7aa <spi_tx1_isr_handler+0x2e>
1000b7e4:	212c      	movs	r1, #44	; 0x2c
1000b7e6:	6804      	ldr	r4, [r0, #0]
1000b7e8:	5c63      	ldrb	r3, [r4, r1]
1000b7ea:	4393      	bics	r3, r2
1000b7ec:	5463      	strb	r3, [r4, r1]
1000b7ee:	4b21      	ldr	r3, [pc, #132]	; (1000b874 <spi_tx1_isr_handler+0xf8>)
1000b7f0:	785a      	ldrb	r2, [r3, #1]
1000b7f2:	2a00      	cmp	r2, #0
1000b7f4:	d134      	bne.n	1000b860 <spi_tx1_isr_handler+0xe4>
1000b7f6:	2201      	movs	r2, #1
1000b7f8:	705a      	strb	r2, [r3, #1]
1000b7fa:	e7d6      	b.n	1000b7aa <spi_tx1_isr_handler+0x2e>
1000b7fc:	79c5      	ldrb	r5, [r0, #7]
1000b7fe:	2d00      	cmp	r5, #0
1000b800:	d10c      	bne.n	1000b81c <spi_tx1_isr_handler+0xa0>
1000b802:	4d1d      	ldr	r5, [pc, #116]	; (1000b878 <spi_tx1_isr_handler+0xfc>)
1000b804:	782d      	ldrb	r5, [r5, #0]
1000b806:	7015      	strb	r5, [r2, #0]
1000b808:	8c42      	ldrh	r2, [r0, #34]	; 0x22
1000b80a:	3a01      	subs	r2, #1
1000b80c:	b292      	uxth	r2, r2
1000b80e:	8442      	strh	r2, [r0, #34]	; 0x22
1000b810:	8c42      	ldrh	r2, [r0, #34]	; 0x22
1000b812:	2a00      	cmp	r2, #0
1000b814:	d01f      	beq.n	1000b856 <spi_tx1_isr_handler+0xda>
1000b816:	7942      	ldrb	r2, [r0, #5]
1000b818:	2a01      	cmp	r2, #1
1000b81a:	d1bc      	bne.n	1000b796 <spi_tx1_isr_handler+0x1a>
1000b81c:	79c2      	ldrb	r2, [r0, #7]
1000b81e:	2a00      	cmp	r2, #0
1000b820:	d0b9      	beq.n	1000b796 <spi_tx1_isr_handler+0x1a>
1000b822:	69c2      	ldr	r2, [r0, #28]
1000b824:	7811      	ldrb	r1, [r2, #0]
1000b826:	3201      	adds	r2, #1
1000b828:	61c2      	str	r2, [r0, #28]
1000b82a:	6802      	ldr	r2, [r0, #0]
1000b82c:	b2c9      	uxtb	r1, r1
1000b82e:	7011      	strb	r1, [r2, #0]
1000b830:	8c82      	ldrh	r2, [r0, #36]	; 0x24
1000b832:	3a01      	subs	r2, #1
1000b834:	b292      	uxth	r2, r2
1000b836:	8482      	strh	r2, [r0, #36]	; 0x24
1000b838:	8c82      	ldrh	r2, [r0, #36]	; 0x24
1000b83a:	2a00      	cmp	r2, #0
1000b83c:	d1ab      	bne.n	1000b796 <spi_tx1_isr_handler+0x1a>
1000b83e:	2501      	movs	r5, #1
1000b840:	6804      	ldr	r4, [r0, #0]
1000b842:	322c      	adds	r2, #44	; 0x2c
1000b844:	5ca1      	ldrb	r1, [r4, r2]
1000b846:	43a9      	bics	r1, r5
1000b848:	54a1      	strb	r1, [r4, r2]
1000b84a:	2110      	movs	r1, #16
1000b84c:	6804      	ldr	r4, [r0, #0]
1000b84e:	5ca5      	ldrb	r5, [r4, r2]
1000b850:	4329      	orrs	r1, r5
1000b852:	54a1      	strb	r1, [r4, r2]
1000b854:	e79f      	b.n	1000b796 <spi_tx1_isr_handler+0x1a>
1000b856:	6805      	ldr	r5, [r0, #0]
1000b858:	5c6a      	ldrb	r2, [r5, r1]
1000b85a:	43a2      	bics	r2, r4
1000b85c:	546a      	strb	r2, [r5, r1]
1000b85e:	e7da      	b.n	1000b816 <spi_tx1_isr_handler+0x9a>
1000b860:	2200      	movs	r2, #0
1000b862:	3904      	subs	r1, #4
1000b864:	5442      	strb	r2, [r0, r1]
1000b866:	705a      	strb	r2, [r3, #1]
1000b868:	6903      	ldr	r3, [r0, #16]
1000b86a:	4798      	blx	r3
1000b86c:	e79d      	b.n	1000b7aa <spi_tx1_isr_handler+0x2e>
1000b86e:	46c0      	nop			; (mov r8, r8)
1000b870:	100152b4 	.word	0x100152b4
1000b874:	100148c0 	.word	0x100148c0
1000b878:	100148c2 	.word	0x100148c2

1000b87c <spi_register_callback>:
1000b87c:	1c93      	adds	r3, r2, #2
1000b87e:	009b      	lsls	r3, r3, #2
1000b880:	5019      	str	r1, [r3, r0]
1000b882:	2301      	movs	r3, #1
1000b884:	2126      	movs	r1, #38	; 0x26
1000b886:	4093      	lsls	r3, r2
1000b888:	5c42      	ldrb	r2, [r0, r1]
1000b88a:	4313      	orrs	r3, r2
1000b88c:	5443      	strb	r3, [r0, r1]
1000b88e:	4770      	bx	lr

1000b890 <spi_enable_callback>:
1000b890:	2301      	movs	r3, #1
1000b892:	2227      	movs	r2, #39	; 0x27
1000b894:	408b      	lsls	r3, r1
1000b896:	5c81      	ldrb	r1, [r0, r2]
1000b898:	430b      	orrs	r3, r1
1000b89a:	5483      	strb	r3, [r0, r2]
1000b89c:	4770      	bx	lr
1000b89e:	46c0      	nop			; (mov r8, r8)

1000b8a0 <spi_transceive_buffer_job>:
1000b8a0:	b570      	push	{r4, r5, r6, lr}
1000b8a2:	0005      	movs	r5, r0
1000b8a4:	2017      	movs	r0, #23
1000b8a6:	2b00      	cmp	r3, #0
1000b8a8:	d100      	bne.n	1000b8ac <spi_transceive_buffer_job+0xc>
1000b8aa:	bd70      	pop	{r4, r5, r6, pc}
1000b8ac:	2628      	movs	r6, #40	; 0x28
1000b8ae:	5dac      	ldrb	r4, [r5, r6]
1000b8b0:	b2e0      	uxtb	r0, r4
1000b8b2:	2805      	cmp	r0, #5
1000b8b4:	d0f9      	beq.n	1000b8aa <spi_transceive_buffer_job+0xa>
1000b8b6:	84ab      	strh	r3, [r5, #36]	; 0x24
1000b8b8:	842b      	strh	r3, [r5, #32]
1000b8ba:	2305      	movs	r3, #5
1000b8bc:	61aa      	str	r2, [r5, #24]
1000b8be:	61e9      	str	r1, [r5, #28]
1000b8c0:	55ab      	strb	r3, [r5, r6]
1000b8c2:	3b03      	subs	r3, #3
1000b8c4:	71eb      	strb	r3, [r5, #7]
1000b8c6:	4a0b      	ldr	r2, [pc, #44]	; (1000b8f4 <spi_transceive_buffer_job+0x54>)
1000b8c8:	682b      	ldr	r3, [r5, #0]
1000b8ca:	4293      	cmp	r3, r2
1000b8cc:	d009      	beq.n	1000b8e2 <spi_transceive_buffer_job+0x42>
1000b8ce:	4a0a      	ldr	r2, [pc, #40]	; (1000b8f8 <spi_transceive_buffer_job+0x58>)
1000b8d0:	4293      	cmp	r3, r2
1000b8d2:	d00a      	beq.n	1000b8ea <spi_transceive_buffer_job+0x4a>
1000b8d4:	2201      	movs	r2, #1
1000b8d6:	212c      	movs	r1, #44	; 0x2c
1000b8d8:	545a      	strb	r2, [r3, r1]
1000b8da:	3104      	adds	r1, #4
1000b8dc:	545a      	strb	r2, [r3, r1]
1000b8de:	2000      	movs	r0, #0
1000b8e0:	e7e3      	b.n	1000b8aa <spi_transceive_buffer_job+0xa>
1000b8e2:	2100      	movs	r1, #0
1000b8e4:	4a05      	ldr	r2, [pc, #20]	; (1000b8fc <spi_transceive_buffer_job+0x5c>)
1000b8e6:	7011      	strb	r1, [r2, #0]
1000b8e8:	e7f4      	b.n	1000b8d4 <spi_transceive_buffer_job+0x34>
1000b8ea:	2100      	movs	r1, #0
1000b8ec:	4a03      	ldr	r2, [pc, #12]	; (1000b8fc <spi_transceive_buffer_job+0x5c>)
1000b8ee:	7051      	strb	r1, [r2, #1]
1000b8f0:	e7f0      	b.n	1000b8d4 <spi_transceive_buffer_job+0x34>
1000b8f2:	46c0      	nop			; (mov r8, r8)
1000b8f4:	40006000 	.word	0x40006000
1000b8f8:	40007000 	.word	0x40007000
1000b8fc:	100148c0 	.word	0x100148c0

1000b900 <system_clock_config>:
1000b900:	2801      	cmp	r0, #1
1000b902:	d021      	beq.n	1000b948 <system_clock_config+0x48>
1000b904:	2800      	cmp	r0, #0
1000b906:	d016      	beq.n	1000b936 <system_clock_config+0x36>
1000b908:	2802      	cmp	r0, #2
1000b90a:	d112      	bne.n	1000b932 <system_clock_config+0x32>
1000b90c:	200c      	movs	r0, #12
1000b90e:	4a18      	ldr	r2, [pc, #96]	; (1000b970 <system_clock_config+0x70>)
1000b910:	6993      	ldr	r3, [r2, #24]
1000b912:	4383      	bics	r3, r0
1000b914:	6193      	str	r3, [r2, #24]
1000b916:	4a17      	ldr	r2, [pc, #92]	; (1000b974 <system_clock_config+0x74>)
1000b918:	4b17      	ldr	r3, [pc, #92]	; (1000b978 <system_clock_config+0x78>)
1000b91a:	601a      	str	r2, [r3, #0]
1000b91c:	2003      	movs	r0, #3
1000b91e:	4b14      	ldr	r3, [pc, #80]	; (1000b970 <system_clock_config+0x70>)
1000b920:	4001      	ands	r1, r0
1000b922:	699a      	ldr	r2, [r3, #24]
1000b924:	4382      	bics	r2, r0
1000b926:	619a      	str	r2, [r3, #24]
1000b928:	699a      	ldr	r2, [r3, #24]
1000b92a:	2000      	movs	r0, #0
1000b92c:	4311      	orrs	r1, r2
1000b92e:	6199      	str	r1, [r3, #24]
1000b930:	e000      	b.n	1000b934 <system_clock_config+0x34>
1000b932:	2017      	movs	r0, #23
1000b934:	4770      	bx	lr
1000b936:	230c      	movs	r3, #12
1000b938:	4a0d      	ldr	r2, [pc, #52]	; (1000b970 <system_clock_config+0x70>)
1000b93a:	6990      	ldr	r0, [r2, #24]
1000b93c:	4303      	orrs	r3, r0
1000b93e:	6193      	str	r3, [r2, #24]
1000b940:	4a0c      	ldr	r2, [pc, #48]	; (1000b974 <system_clock_config+0x74>)
1000b942:	4b0d      	ldr	r3, [pc, #52]	; (1000b978 <system_clock_config+0x78>)
1000b944:	601a      	str	r2, [r3, #0]
1000b946:	e7e9      	b.n	1000b91c <system_clock_config+0x1c>
1000b948:	2208      	movs	r2, #8
1000b94a:	4b09      	ldr	r3, [pc, #36]	; (1000b970 <system_clock_config+0x70>)
1000b94c:	6998      	ldr	r0, [r3, #24]
1000b94e:	4302      	orrs	r2, r0
1000b950:	2004      	movs	r0, #4
1000b952:	619a      	str	r2, [r3, #24]
1000b954:	699a      	ldr	r2, [r3, #24]
1000b956:	4382      	bics	r2, r0
1000b958:	2080      	movs	r0, #128	; 0x80
1000b95a:	619a      	str	r2, [r3, #24]
1000b95c:	4a07      	ldr	r2, [pc, #28]	; (1000b97c <system_clock_config+0x7c>)
1000b95e:	0300      	lsls	r0, r0, #12
1000b960:	6853      	ldr	r3, [r2, #4]
1000b962:	4303      	orrs	r3, r0
1000b964:	6053      	str	r3, [r2, #4]
1000b966:	4a06      	ldr	r2, [pc, #24]	; (1000b980 <system_clock_config+0x80>)
1000b968:	4b03      	ldr	r3, [pc, #12]	; (1000b978 <system_clock_config+0x78>)
1000b96a:	601a      	str	r2, [r3, #0]
1000b96c:	e7d6      	b.n	1000b91c <system_clock_config+0x1c>
1000b96e:	46c0      	nop			; (mov r8, r8)
1000b970:	4000b000 	.word	0x4000b000
1000b974:	018cba80 	.word	0x018cba80
1000b978:	100152bc 	.word	0x100152bc
1000b97c:	4000f000 	.word	0x4000f000
1000b980:	001e8480 	.word	0x001e8480

1000b984 <system_clock_get_value>:
1000b984:	4b01      	ldr	r3, [pc, #4]	; (1000b98c <system_clock_get_value+0x8>)
1000b986:	6818      	ldr	r0, [r3, #0]
1000b988:	4770      	bx	lr
1000b98a:	46c0      	nop			; (mov r8, r8)
1000b98c:	100152bc 	.word	0x100152bc

1000b990 <system_clock_peripheral_enable>:
1000b990:	b500      	push	{lr}
1000b992:	2835      	cmp	r0, #53	; 0x35
1000b994:	d900      	bls.n	1000b998 <system_clock_peripheral_enable+0x8>
1000b996:	e16d      	b.n	1000bc74 <system_clock_peripheral_enable+0x2e4>
1000b998:	4bb7      	ldr	r3, [pc, #732]	; (1000bc78 <system_clock_peripheral_enable+0x2e8>)
1000b99a:	0080      	lsls	r0, r0, #2
1000b99c:	581b      	ldr	r3, [r3, r0]
1000b99e:	4ab7      	ldr	r2, [pc, #732]	; (1000bc7c <system_clock_peripheral_enable+0x2ec>)
1000b9a0:	469f      	mov	pc, r3
1000b9a2:	2302      	movs	r3, #2
1000b9a4:	2000      	movs	r0, #0
1000b9a6:	7d11      	ldrb	r1, [r2, #20]
1000b9a8:	430b      	orrs	r3, r1
1000b9aa:	7513      	strb	r3, [r2, #20]
1000b9ac:	bd00      	pop	{pc}
1000b9ae:	2301      	movs	r3, #1
1000b9b0:	7d11      	ldrb	r1, [r2, #20]
1000b9b2:	2000      	movs	r0, #0
1000b9b4:	430b      	orrs	r3, r1
1000b9b6:	7513      	strb	r3, [r2, #20]
1000b9b8:	e7f8      	b.n	1000b9ac <system_clock_peripheral_enable+0x1c>
1000b9ba:	2180      	movs	r1, #128	; 0x80
1000b9bc:	6913      	ldr	r3, [r2, #16]
1000b9be:	0409      	lsls	r1, r1, #16
1000b9c0:	430b      	orrs	r3, r1
1000b9c2:	6113      	str	r3, [r2, #16]
1000b9c4:	2000      	movs	r0, #0
1000b9c6:	e7f1      	b.n	1000b9ac <system_clock_peripheral_enable+0x1c>
1000b9c8:	2180      	movs	r1, #128	; 0x80
1000b9ca:	6913      	ldr	r3, [r2, #16]
1000b9cc:	03c9      	lsls	r1, r1, #15
1000b9ce:	430b      	orrs	r3, r1
1000b9d0:	6113      	str	r3, [r2, #16]
1000b9d2:	2000      	movs	r0, #0
1000b9d4:	e7ea      	b.n	1000b9ac <system_clock_peripheral_enable+0x1c>
1000b9d6:	2180      	movs	r1, #128	; 0x80
1000b9d8:	6913      	ldr	r3, [r2, #16]
1000b9da:	0389      	lsls	r1, r1, #14
1000b9dc:	430b      	orrs	r3, r1
1000b9de:	6113      	str	r3, [r2, #16]
1000b9e0:	2000      	movs	r0, #0
1000b9e2:	e7e3      	b.n	1000b9ac <system_clock_peripheral_enable+0x1c>
1000b9e4:	2180      	movs	r1, #128	; 0x80
1000b9e6:	6913      	ldr	r3, [r2, #16]
1000b9e8:	0349      	lsls	r1, r1, #13
1000b9ea:	430b      	orrs	r3, r1
1000b9ec:	6113      	str	r3, [r2, #16]
1000b9ee:	2000      	movs	r0, #0
1000b9f0:	e7dc      	b.n	1000b9ac <system_clock_peripheral_enable+0x1c>
1000b9f2:	2180      	movs	r1, #128	; 0x80
1000b9f4:	6913      	ldr	r3, [r2, #16]
1000b9f6:	0309      	lsls	r1, r1, #12
1000b9f8:	430b      	orrs	r3, r1
1000b9fa:	6113      	str	r3, [r2, #16]
1000b9fc:	2000      	movs	r0, #0
1000b9fe:	e7d5      	b.n	1000b9ac <system_clock_peripheral_enable+0x1c>
1000ba00:	2180      	movs	r1, #128	; 0x80
1000ba02:	6913      	ldr	r3, [r2, #16]
1000ba04:	02c9      	lsls	r1, r1, #11
1000ba06:	430b      	orrs	r3, r1
1000ba08:	6113      	str	r3, [r2, #16]
1000ba0a:	2000      	movs	r0, #0
1000ba0c:	e7ce      	b.n	1000b9ac <system_clock_peripheral_enable+0x1c>
1000ba0e:	2180      	movs	r1, #128	; 0x80
1000ba10:	6913      	ldr	r3, [r2, #16]
1000ba12:	0289      	lsls	r1, r1, #10
1000ba14:	430b      	orrs	r3, r1
1000ba16:	6113      	str	r3, [r2, #16]
1000ba18:	2000      	movs	r0, #0
1000ba1a:	e7c7      	b.n	1000b9ac <system_clock_peripheral_enable+0x1c>
1000ba1c:	2180      	movs	r1, #128	; 0x80
1000ba1e:	6913      	ldr	r3, [r2, #16]
1000ba20:	0249      	lsls	r1, r1, #9
1000ba22:	430b      	orrs	r3, r1
1000ba24:	6113      	str	r3, [r2, #16]
1000ba26:	2000      	movs	r0, #0
1000ba28:	e7c0      	b.n	1000b9ac <system_clock_peripheral_enable+0x1c>
1000ba2a:	2180      	movs	r1, #128	; 0x80
1000ba2c:	6913      	ldr	r3, [r2, #16]
1000ba2e:	0209      	lsls	r1, r1, #8
1000ba30:	430b      	orrs	r3, r1
1000ba32:	6113      	str	r3, [r2, #16]
1000ba34:	2000      	movs	r0, #0
1000ba36:	e7b9      	b.n	1000b9ac <system_clock_peripheral_enable+0x1c>
1000ba38:	2180      	movs	r1, #128	; 0x80
1000ba3a:	6913      	ldr	r3, [r2, #16]
1000ba3c:	01c9      	lsls	r1, r1, #7
1000ba3e:	430b      	orrs	r3, r1
1000ba40:	6113      	str	r3, [r2, #16]
1000ba42:	2000      	movs	r0, #0
1000ba44:	e7b2      	b.n	1000b9ac <system_clock_peripheral_enable+0x1c>
1000ba46:	2180      	movs	r1, #128	; 0x80
1000ba48:	6913      	ldr	r3, [r2, #16]
1000ba4a:	0189      	lsls	r1, r1, #6
1000ba4c:	430b      	orrs	r3, r1
1000ba4e:	6113      	str	r3, [r2, #16]
1000ba50:	2000      	movs	r0, #0
1000ba52:	e7ab      	b.n	1000b9ac <system_clock_peripheral_enable+0x1c>
1000ba54:	2180      	movs	r1, #128	; 0x80
1000ba56:	6913      	ldr	r3, [r2, #16]
1000ba58:	0149      	lsls	r1, r1, #5
1000ba5a:	430b      	orrs	r3, r1
1000ba5c:	6113      	str	r3, [r2, #16]
1000ba5e:	2000      	movs	r0, #0
1000ba60:	e7a4      	b.n	1000b9ac <system_clock_peripheral_enable+0x1c>
1000ba62:	2180      	movs	r1, #128	; 0x80
1000ba64:	6913      	ldr	r3, [r2, #16]
1000ba66:	0109      	lsls	r1, r1, #4
1000ba68:	430b      	orrs	r3, r1
1000ba6a:	6113      	str	r3, [r2, #16]
1000ba6c:	2000      	movs	r0, #0
1000ba6e:	e79d      	b.n	1000b9ac <system_clock_peripheral_enable+0x1c>
1000ba70:	2180      	movs	r1, #128	; 0x80
1000ba72:	6913      	ldr	r3, [r2, #16]
1000ba74:	00c9      	lsls	r1, r1, #3
1000ba76:	430b      	orrs	r3, r1
1000ba78:	6113      	str	r3, [r2, #16]
1000ba7a:	2000      	movs	r0, #0
1000ba7c:	e796      	b.n	1000b9ac <system_clock_peripheral_enable+0x1c>
1000ba7e:	2180      	movs	r1, #128	; 0x80
1000ba80:	6913      	ldr	r3, [r2, #16]
1000ba82:	0089      	lsls	r1, r1, #2
1000ba84:	430b      	orrs	r3, r1
1000ba86:	6113      	str	r3, [r2, #16]
1000ba88:	2000      	movs	r0, #0
1000ba8a:	e78f      	b.n	1000b9ac <system_clock_peripheral_enable+0x1c>
1000ba8c:	2180      	movs	r1, #128	; 0x80
1000ba8e:	6913      	ldr	r3, [r2, #16]
1000ba90:	0049      	lsls	r1, r1, #1
1000ba92:	430b      	orrs	r3, r1
1000ba94:	6113      	str	r3, [r2, #16]
1000ba96:	2000      	movs	r0, #0
1000ba98:	e788      	b.n	1000b9ac <system_clock_peripheral_enable+0x1c>
1000ba9a:	2380      	movs	r3, #128	; 0x80
1000ba9c:	6911      	ldr	r1, [r2, #16]
1000ba9e:	2000      	movs	r0, #0
1000baa0:	430b      	orrs	r3, r1
1000baa2:	6113      	str	r3, [r2, #16]
1000baa4:	e782      	b.n	1000b9ac <system_clock_peripheral_enable+0x1c>
1000baa6:	2340      	movs	r3, #64	; 0x40
1000baa8:	6911      	ldr	r1, [r2, #16]
1000baaa:	2000      	movs	r0, #0
1000baac:	430b      	orrs	r3, r1
1000baae:	6113      	str	r3, [r2, #16]
1000bab0:	e77c      	b.n	1000b9ac <system_clock_peripheral_enable+0x1c>
1000bab2:	2320      	movs	r3, #32
1000bab4:	6911      	ldr	r1, [r2, #16]
1000bab6:	2000      	movs	r0, #0
1000bab8:	430b      	orrs	r3, r1
1000baba:	6113      	str	r3, [r2, #16]
1000babc:	e776      	b.n	1000b9ac <system_clock_peripheral_enable+0x1c>
1000babe:	2310      	movs	r3, #16
1000bac0:	6911      	ldr	r1, [r2, #16]
1000bac2:	2000      	movs	r0, #0
1000bac4:	430b      	orrs	r3, r1
1000bac6:	6113      	str	r3, [r2, #16]
1000bac8:	e770      	b.n	1000b9ac <system_clock_peripheral_enable+0x1c>
1000baca:	2308      	movs	r3, #8
1000bacc:	6911      	ldr	r1, [r2, #16]
1000bace:	2000      	movs	r0, #0
1000bad0:	430b      	orrs	r3, r1
1000bad2:	6113      	str	r3, [r2, #16]
1000bad4:	e76a      	b.n	1000b9ac <system_clock_peripheral_enable+0x1c>
1000bad6:	2304      	movs	r3, #4
1000bad8:	6911      	ldr	r1, [r2, #16]
1000bada:	2000      	movs	r0, #0
1000badc:	430b      	orrs	r3, r1
1000bade:	6113      	str	r3, [r2, #16]
1000bae0:	e764      	b.n	1000b9ac <system_clock_peripheral_enable+0x1c>
1000bae2:	2302      	movs	r3, #2
1000bae4:	6911      	ldr	r1, [r2, #16]
1000bae6:	2000      	movs	r0, #0
1000bae8:	430b      	orrs	r3, r1
1000baea:	6113      	str	r3, [r2, #16]
1000baec:	e75e      	b.n	1000b9ac <system_clock_peripheral_enable+0x1c>
1000baee:	2301      	movs	r3, #1
1000baf0:	6911      	ldr	r1, [r2, #16]
1000baf2:	2000      	movs	r0, #0
1000baf4:	430b      	orrs	r3, r1
1000baf6:	6113      	str	r3, [r2, #16]
1000baf8:	e758      	b.n	1000b9ac <system_clock_peripheral_enable+0x1c>
1000bafa:	2180      	movs	r1, #128	; 0x80
1000bafc:	68d3      	ldr	r3, [r2, #12]
1000bafe:	05c9      	lsls	r1, r1, #23
1000bb00:	430b      	orrs	r3, r1
1000bb02:	60d3      	str	r3, [r2, #12]
1000bb04:	2000      	movs	r0, #0
1000bb06:	e751      	b.n	1000b9ac <system_clock_peripheral_enable+0x1c>
1000bb08:	2180      	movs	r1, #128	; 0x80
1000bb0a:	68d3      	ldr	r3, [r2, #12]
1000bb0c:	0589      	lsls	r1, r1, #22
1000bb0e:	430b      	orrs	r3, r1
1000bb10:	60d3      	str	r3, [r2, #12]
1000bb12:	2000      	movs	r0, #0
1000bb14:	e74a      	b.n	1000b9ac <system_clock_peripheral_enable+0x1c>
1000bb16:	2180      	movs	r1, #128	; 0x80
1000bb18:	68d3      	ldr	r3, [r2, #12]
1000bb1a:	0549      	lsls	r1, r1, #21
1000bb1c:	430b      	orrs	r3, r1
1000bb1e:	60d3      	str	r3, [r2, #12]
1000bb20:	2000      	movs	r0, #0
1000bb22:	e743      	b.n	1000b9ac <system_clock_peripheral_enable+0x1c>
1000bb24:	2180      	movs	r1, #128	; 0x80
1000bb26:	68d3      	ldr	r3, [r2, #12]
1000bb28:	0509      	lsls	r1, r1, #20
1000bb2a:	430b      	orrs	r3, r1
1000bb2c:	60d3      	str	r3, [r2, #12]
1000bb2e:	2000      	movs	r0, #0
1000bb30:	e73c      	b.n	1000b9ac <system_clock_peripheral_enable+0x1c>
1000bb32:	2180      	movs	r1, #128	; 0x80
1000bb34:	68d3      	ldr	r3, [r2, #12]
1000bb36:	04c9      	lsls	r1, r1, #19
1000bb38:	430b      	orrs	r3, r1
1000bb3a:	60d3      	str	r3, [r2, #12]
1000bb3c:	2000      	movs	r0, #0
1000bb3e:	e735      	b.n	1000b9ac <system_clock_peripheral_enable+0x1c>
1000bb40:	2180      	movs	r1, #128	; 0x80
1000bb42:	68d3      	ldr	r3, [r2, #12]
1000bb44:	0489      	lsls	r1, r1, #18
1000bb46:	430b      	orrs	r3, r1
1000bb48:	60d3      	str	r3, [r2, #12]
1000bb4a:	2000      	movs	r0, #0
1000bb4c:	e72e      	b.n	1000b9ac <system_clock_peripheral_enable+0x1c>
1000bb4e:	2180      	movs	r1, #128	; 0x80
1000bb50:	68d3      	ldr	r3, [r2, #12]
1000bb52:	0449      	lsls	r1, r1, #17
1000bb54:	430b      	orrs	r3, r1
1000bb56:	60d3      	str	r3, [r2, #12]
1000bb58:	2000      	movs	r0, #0
1000bb5a:	e727      	b.n	1000b9ac <system_clock_peripheral_enable+0x1c>
1000bb5c:	2180      	movs	r1, #128	; 0x80
1000bb5e:	68d3      	ldr	r3, [r2, #12]
1000bb60:	0409      	lsls	r1, r1, #16
1000bb62:	430b      	orrs	r3, r1
1000bb64:	60d3      	str	r3, [r2, #12]
1000bb66:	2000      	movs	r0, #0
1000bb68:	e720      	b.n	1000b9ac <system_clock_peripheral_enable+0x1c>
1000bb6a:	2180      	movs	r1, #128	; 0x80
1000bb6c:	68d3      	ldr	r3, [r2, #12]
1000bb6e:	03c9      	lsls	r1, r1, #15
1000bb70:	430b      	orrs	r3, r1
1000bb72:	60d3      	str	r3, [r2, #12]
1000bb74:	2000      	movs	r0, #0
1000bb76:	e719      	b.n	1000b9ac <system_clock_peripheral_enable+0x1c>
1000bb78:	2180      	movs	r1, #128	; 0x80
1000bb7a:	68d3      	ldr	r3, [r2, #12]
1000bb7c:	0389      	lsls	r1, r1, #14
1000bb7e:	430b      	orrs	r3, r1
1000bb80:	60d3      	str	r3, [r2, #12]
1000bb82:	2000      	movs	r0, #0
1000bb84:	e712      	b.n	1000b9ac <system_clock_peripheral_enable+0x1c>
1000bb86:	2180      	movs	r1, #128	; 0x80
1000bb88:	68d3      	ldr	r3, [r2, #12]
1000bb8a:	0349      	lsls	r1, r1, #13
1000bb8c:	430b      	orrs	r3, r1
1000bb8e:	60d3      	str	r3, [r2, #12]
1000bb90:	2000      	movs	r0, #0
1000bb92:	e70b      	b.n	1000b9ac <system_clock_peripheral_enable+0x1c>
1000bb94:	2180      	movs	r1, #128	; 0x80
1000bb96:	68d3      	ldr	r3, [r2, #12]
1000bb98:	0309      	lsls	r1, r1, #12
1000bb9a:	430b      	orrs	r3, r1
1000bb9c:	60d3      	str	r3, [r2, #12]
1000bb9e:	2000      	movs	r0, #0
1000bba0:	e704      	b.n	1000b9ac <system_clock_peripheral_enable+0x1c>
1000bba2:	2180      	movs	r1, #128	; 0x80
1000bba4:	68d3      	ldr	r3, [r2, #12]
1000bba6:	02c9      	lsls	r1, r1, #11
1000bba8:	430b      	orrs	r3, r1
1000bbaa:	60d3      	str	r3, [r2, #12]
1000bbac:	2000      	movs	r0, #0
1000bbae:	e6fd      	b.n	1000b9ac <system_clock_peripheral_enable+0x1c>
1000bbb0:	2180      	movs	r1, #128	; 0x80
1000bbb2:	68d3      	ldr	r3, [r2, #12]
1000bbb4:	0289      	lsls	r1, r1, #10
1000bbb6:	430b      	orrs	r3, r1
1000bbb8:	60d3      	str	r3, [r2, #12]
1000bbba:	2000      	movs	r0, #0
1000bbbc:	e6f6      	b.n	1000b9ac <system_clock_peripheral_enable+0x1c>
1000bbbe:	2180      	movs	r1, #128	; 0x80
1000bbc0:	68d3      	ldr	r3, [r2, #12]
1000bbc2:	0249      	lsls	r1, r1, #9
1000bbc4:	430b      	orrs	r3, r1
1000bbc6:	60d3      	str	r3, [r2, #12]
1000bbc8:	2000      	movs	r0, #0
1000bbca:	e6ef      	b.n	1000b9ac <system_clock_peripheral_enable+0x1c>
1000bbcc:	2180      	movs	r1, #128	; 0x80
1000bbce:	68d3      	ldr	r3, [r2, #12]
1000bbd0:	0209      	lsls	r1, r1, #8
1000bbd2:	430b      	orrs	r3, r1
1000bbd4:	60d3      	str	r3, [r2, #12]
1000bbd6:	2000      	movs	r0, #0
1000bbd8:	e6e8      	b.n	1000b9ac <system_clock_peripheral_enable+0x1c>
1000bbda:	2180      	movs	r1, #128	; 0x80
1000bbdc:	68d3      	ldr	r3, [r2, #12]
1000bbde:	01c9      	lsls	r1, r1, #7
1000bbe0:	430b      	orrs	r3, r1
1000bbe2:	60d3      	str	r3, [r2, #12]
1000bbe4:	2000      	movs	r0, #0
1000bbe6:	e6e1      	b.n	1000b9ac <system_clock_peripheral_enable+0x1c>
1000bbe8:	2180      	movs	r1, #128	; 0x80
1000bbea:	68d3      	ldr	r3, [r2, #12]
1000bbec:	0189      	lsls	r1, r1, #6
1000bbee:	430b      	orrs	r3, r1
1000bbf0:	60d3      	str	r3, [r2, #12]
1000bbf2:	2000      	movs	r0, #0
1000bbf4:	e6da      	b.n	1000b9ac <system_clock_peripheral_enable+0x1c>
1000bbf6:	2180      	movs	r1, #128	; 0x80
1000bbf8:	68d3      	ldr	r3, [r2, #12]
1000bbfa:	0149      	lsls	r1, r1, #5
1000bbfc:	430b      	orrs	r3, r1
1000bbfe:	60d3      	str	r3, [r2, #12]
1000bc00:	2000      	movs	r0, #0
1000bc02:	e6d3      	b.n	1000b9ac <system_clock_peripheral_enable+0x1c>
1000bc04:	2180      	movs	r1, #128	; 0x80
1000bc06:	68d3      	ldr	r3, [r2, #12]
1000bc08:	0109      	lsls	r1, r1, #4
1000bc0a:	430b      	orrs	r3, r1
1000bc0c:	60d3      	str	r3, [r2, #12]
1000bc0e:	2000      	movs	r0, #0
1000bc10:	e6cc      	b.n	1000b9ac <system_clock_peripheral_enable+0x1c>
1000bc12:	2180      	movs	r1, #128	; 0x80
1000bc14:	68d3      	ldr	r3, [r2, #12]
1000bc16:	0049      	lsls	r1, r1, #1
1000bc18:	430b      	orrs	r3, r1
1000bc1a:	60d3      	str	r3, [r2, #12]
1000bc1c:	2000      	movs	r0, #0
1000bc1e:	e6c5      	b.n	1000b9ac <system_clock_peripheral_enable+0x1c>
1000bc20:	2380      	movs	r3, #128	; 0x80
1000bc22:	68d1      	ldr	r1, [r2, #12]
1000bc24:	2000      	movs	r0, #0
1000bc26:	430b      	orrs	r3, r1
1000bc28:	60d3      	str	r3, [r2, #12]
1000bc2a:	e6bf      	b.n	1000b9ac <system_clock_peripheral_enable+0x1c>
1000bc2c:	2320      	movs	r3, #32
1000bc2e:	68d1      	ldr	r1, [r2, #12]
1000bc30:	2000      	movs	r0, #0
1000bc32:	430b      	orrs	r3, r1
1000bc34:	60d3      	str	r3, [r2, #12]
1000bc36:	e6b9      	b.n	1000b9ac <system_clock_peripheral_enable+0x1c>
1000bc38:	2310      	movs	r3, #16
1000bc3a:	68d1      	ldr	r1, [r2, #12]
1000bc3c:	2000      	movs	r0, #0
1000bc3e:	430b      	orrs	r3, r1
1000bc40:	60d3      	str	r3, [r2, #12]
1000bc42:	e6b3      	b.n	1000b9ac <system_clock_peripheral_enable+0x1c>
1000bc44:	2308      	movs	r3, #8
1000bc46:	68d1      	ldr	r1, [r2, #12]
1000bc48:	2000      	movs	r0, #0
1000bc4a:	430b      	orrs	r3, r1
1000bc4c:	60d3      	str	r3, [r2, #12]
1000bc4e:	e6ad      	b.n	1000b9ac <system_clock_peripheral_enable+0x1c>
1000bc50:	2304      	movs	r3, #4
1000bc52:	68d1      	ldr	r1, [r2, #12]
1000bc54:	2000      	movs	r0, #0
1000bc56:	430b      	orrs	r3, r1
1000bc58:	60d3      	str	r3, [r2, #12]
1000bc5a:	e6a7      	b.n	1000b9ac <system_clock_peripheral_enable+0x1c>
1000bc5c:	2302      	movs	r3, #2
1000bc5e:	68d1      	ldr	r1, [r2, #12]
1000bc60:	2000      	movs	r0, #0
1000bc62:	430b      	orrs	r3, r1
1000bc64:	60d3      	str	r3, [r2, #12]
1000bc66:	e6a1      	b.n	1000b9ac <system_clock_peripheral_enable+0x1c>
1000bc68:	2304      	movs	r3, #4
1000bc6a:	7d11      	ldrb	r1, [r2, #20]
1000bc6c:	2000      	movs	r0, #0
1000bc6e:	430b      	orrs	r3, r1
1000bc70:	7513      	strb	r3, [r2, #20]
1000bc72:	e69b      	b.n	1000b9ac <system_clock_peripheral_enable+0x1c>
1000bc74:	2017      	movs	r0, #23
1000bc76:	e699      	b.n	1000b9ac <system_clock_peripheral_enable+0x1c>
1000bc78:	1001417c 	.word	0x1001417c
1000bc7c:	4000b000 	.word	0x4000b000

1000bc80 <system_clock_peripheral_disable>:
1000bc80:	b500      	push	{lr}
1000bc82:	2835      	cmp	r0, #53	; 0x35
1000bc84:	d900      	bls.n	1000bc88 <system_clock_peripheral_disable+0x8>
1000bc86:	e148      	b.n	1000bf1a <system_clock_peripheral_disable+0x29a>
1000bc88:	4ba5      	ldr	r3, [pc, #660]	; (1000bf20 <system_clock_peripheral_disable+0x2a0>)
1000bc8a:	0080      	lsls	r0, r0, #2
1000bc8c:	581b      	ldr	r3, [r3, r0]
1000bc8e:	4aa5      	ldr	r2, [pc, #660]	; (1000bf24 <system_clock_peripheral_disable+0x2a4>)
1000bc90:	469f      	mov	pc, r3
1000bc92:	2102      	movs	r1, #2
1000bc94:	2000      	movs	r0, #0
1000bc96:	7d13      	ldrb	r3, [r2, #20]
1000bc98:	438b      	bics	r3, r1
1000bc9a:	7513      	strb	r3, [r2, #20]
1000bc9c:	bd00      	pop	{pc}
1000bc9e:	2101      	movs	r1, #1
1000bca0:	7d13      	ldrb	r3, [r2, #20]
1000bca2:	2000      	movs	r0, #0
1000bca4:	438b      	bics	r3, r1
1000bca6:	7513      	strb	r3, [r2, #20]
1000bca8:	e7f8      	b.n	1000bc9c <system_clock_peripheral_disable+0x1c>
1000bcaa:	6911      	ldr	r1, [r2, #16]
1000bcac:	4b9e      	ldr	r3, [pc, #632]	; (1000bf28 <system_clock_peripheral_disable+0x2a8>)
1000bcae:	2000      	movs	r0, #0
1000bcb0:	400b      	ands	r3, r1
1000bcb2:	6113      	str	r3, [r2, #16]
1000bcb4:	e7f2      	b.n	1000bc9c <system_clock_peripheral_disable+0x1c>
1000bcb6:	6911      	ldr	r1, [r2, #16]
1000bcb8:	4b9c      	ldr	r3, [pc, #624]	; (1000bf2c <system_clock_peripheral_disable+0x2ac>)
1000bcba:	2000      	movs	r0, #0
1000bcbc:	400b      	ands	r3, r1
1000bcbe:	6113      	str	r3, [r2, #16]
1000bcc0:	e7ec      	b.n	1000bc9c <system_clock_peripheral_disable+0x1c>
1000bcc2:	6911      	ldr	r1, [r2, #16]
1000bcc4:	4b9a      	ldr	r3, [pc, #616]	; (1000bf30 <system_clock_peripheral_disable+0x2b0>)
1000bcc6:	2000      	movs	r0, #0
1000bcc8:	400b      	ands	r3, r1
1000bcca:	6113      	str	r3, [r2, #16]
1000bccc:	e7e6      	b.n	1000bc9c <system_clock_peripheral_disable+0x1c>
1000bcce:	6911      	ldr	r1, [r2, #16]
1000bcd0:	4b98      	ldr	r3, [pc, #608]	; (1000bf34 <system_clock_peripheral_disable+0x2b4>)
1000bcd2:	2000      	movs	r0, #0
1000bcd4:	400b      	ands	r3, r1
1000bcd6:	6113      	str	r3, [r2, #16]
1000bcd8:	e7e0      	b.n	1000bc9c <system_clock_peripheral_disable+0x1c>
1000bcda:	6911      	ldr	r1, [r2, #16]
1000bcdc:	4b96      	ldr	r3, [pc, #600]	; (1000bf38 <system_clock_peripheral_disable+0x2b8>)
1000bcde:	2000      	movs	r0, #0
1000bce0:	400b      	ands	r3, r1
1000bce2:	6113      	str	r3, [r2, #16]
1000bce4:	e7da      	b.n	1000bc9c <system_clock_peripheral_disable+0x1c>
1000bce6:	6911      	ldr	r1, [r2, #16]
1000bce8:	4b94      	ldr	r3, [pc, #592]	; (1000bf3c <system_clock_peripheral_disable+0x2bc>)
1000bcea:	2000      	movs	r0, #0
1000bcec:	400b      	ands	r3, r1
1000bcee:	6113      	str	r3, [r2, #16]
1000bcf0:	e7d4      	b.n	1000bc9c <system_clock_peripheral_disable+0x1c>
1000bcf2:	6911      	ldr	r1, [r2, #16]
1000bcf4:	4b92      	ldr	r3, [pc, #584]	; (1000bf40 <system_clock_peripheral_disable+0x2c0>)
1000bcf6:	2000      	movs	r0, #0
1000bcf8:	400b      	ands	r3, r1
1000bcfa:	6113      	str	r3, [r2, #16]
1000bcfc:	e7ce      	b.n	1000bc9c <system_clock_peripheral_disable+0x1c>
1000bcfe:	6911      	ldr	r1, [r2, #16]
1000bd00:	4b90      	ldr	r3, [pc, #576]	; (1000bf44 <system_clock_peripheral_disable+0x2c4>)
1000bd02:	2000      	movs	r0, #0
1000bd04:	400b      	ands	r3, r1
1000bd06:	6113      	str	r3, [r2, #16]
1000bd08:	e7c8      	b.n	1000bc9c <system_clock_peripheral_disable+0x1c>
1000bd0a:	6911      	ldr	r1, [r2, #16]
1000bd0c:	4b8e      	ldr	r3, [pc, #568]	; (1000bf48 <system_clock_peripheral_disable+0x2c8>)
1000bd0e:	2000      	movs	r0, #0
1000bd10:	400b      	ands	r3, r1
1000bd12:	6113      	str	r3, [r2, #16]
1000bd14:	e7c2      	b.n	1000bc9c <system_clock_peripheral_disable+0x1c>
1000bd16:	6911      	ldr	r1, [r2, #16]
1000bd18:	4b8c      	ldr	r3, [pc, #560]	; (1000bf4c <system_clock_peripheral_disable+0x2cc>)
1000bd1a:	2000      	movs	r0, #0
1000bd1c:	400b      	ands	r3, r1
1000bd1e:	6113      	str	r3, [r2, #16]
1000bd20:	e7bc      	b.n	1000bc9c <system_clock_peripheral_disable+0x1c>
1000bd22:	6911      	ldr	r1, [r2, #16]
1000bd24:	4b8a      	ldr	r3, [pc, #552]	; (1000bf50 <system_clock_peripheral_disable+0x2d0>)
1000bd26:	2000      	movs	r0, #0
1000bd28:	400b      	ands	r3, r1
1000bd2a:	6113      	str	r3, [r2, #16]
1000bd2c:	e7b6      	b.n	1000bc9c <system_clock_peripheral_disable+0x1c>
1000bd2e:	6911      	ldr	r1, [r2, #16]
1000bd30:	4b88      	ldr	r3, [pc, #544]	; (1000bf54 <system_clock_peripheral_disable+0x2d4>)
1000bd32:	2000      	movs	r0, #0
1000bd34:	400b      	ands	r3, r1
1000bd36:	6113      	str	r3, [r2, #16]
1000bd38:	e7b0      	b.n	1000bc9c <system_clock_peripheral_disable+0x1c>
1000bd3a:	6911      	ldr	r1, [r2, #16]
1000bd3c:	4b86      	ldr	r3, [pc, #536]	; (1000bf58 <system_clock_peripheral_disable+0x2d8>)
1000bd3e:	2000      	movs	r0, #0
1000bd40:	400b      	ands	r3, r1
1000bd42:	6113      	str	r3, [r2, #16]
1000bd44:	e7aa      	b.n	1000bc9c <system_clock_peripheral_disable+0x1c>
1000bd46:	6911      	ldr	r1, [r2, #16]
1000bd48:	4b84      	ldr	r3, [pc, #528]	; (1000bf5c <system_clock_peripheral_disable+0x2dc>)
1000bd4a:	2000      	movs	r0, #0
1000bd4c:	400b      	ands	r3, r1
1000bd4e:	6113      	str	r3, [r2, #16]
1000bd50:	e7a4      	b.n	1000bc9c <system_clock_peripheral_disable+0x1c>
1000bd52:	6911      	ldr	r1, [r2, #16]
1000bd54:	4b82      	ldr	r3, [pc, #520]	; (1000bf60 <system_clock_peripheral_disable+0x2e0>)
1000bd56:	2000      	movs	r0, #0
1000bd58:	400b      	ands	r3, r1
1000bd5a:	6113      	str	r3, [r2, #16]
1000bd5c:	e79e      	b.n	1000bc9c <system_clock_peripheral_disable+0x1c>
1000bd5e:	6911      	ldr	r1, [r2, #16]
1000bd60:	4b80      	ldr	r3, [pc, #512]	; (1000bf64 <system_clock_peripheral_disable+0x2e4>)
1000bd62:	2000      	movs	r0, #0
1000bd64:	400b      	ands	r3, r1
1000bd66:	6113      	str	r3, [r2, #16]
1000bd68:	e798      	b.n	1000bc9c <system_clock_peripheral_disable+0x1c>
1000bd6a:	2180      	movs	r1, #128	; 0x80
1000bd6c:	6913      	ldr	r3, [r2, #16]
1000bd6e:	2000      	movs	r0, #0
1000bd70:	438b      	bics	r3, r1
1000bd72:	6113      	str	r3, [r2, #16]
1000bd74:	e792      	b.n	1000bc9c <system_clock_peripheral_disable+0x1c>
1000bd76:	2140      	movs	r1, #64	; 0x40
1000bd78:	6913      	ldr	r3, [r2, #16]
1000bd7a:	2000      	movs	r0, #0
1000bd7c:	438b      	bics	r3, r1
1000bd7e:	6113      	str	r3, [r2, #16]
1000bd80:	e78c      	b.n	1000bc9c <system_clock_peripheral_disable+0x1c>
1000bd82:	2120      	movs	r1, #32
1000bd84:	6913      	ldr	r3, [r2, #16]
1000bd86:	2000      	movs	r0, #0
1000bd88:	438b      	bics	r3, r1
1000bd8a:	6113      	str	r3, [r2, #16]
1000bd8c:	e786      	b.n	1000bc9c <system_clock_peripheral_disable+0x1c>
1000bd8e:	2110      	movs	r1, #16
1000bd90:	6913      	ldr	r3, [r2, #16]
1000bd92:	2000      	movs	r0, #0
1000bd94:	438b      	bics	r3, r1
1000bd96:	6113      	str	r3, [r2, #16]
1000bd98:	e780      	b.n	1000bc9c <system_clock_peripheral_disable+0x1c>
1000bd9a:	2108      	movs	r1, #8
1000bd9c:	6913      	ldr	r3, [r2, #16]
1000bd9e:	2000      	movs	r0, #0
1000bda0:	438b      	bics	r3, r1
1000bda2:	6113      	str	r3, [r2, #16]
1000bda4:	e77a      	b.n	1000bc9c <system_clock_peripheral_disable+0x1c>
1000bda6:	2104      	movs	r1, #4
1000bda8:	6913      	ldr	r3, [r2, #16]
1000bdaa:	2000      	movs	r0, #0
1000bdac:	438b      	bics	r3, r1
1000bdae:	6113      	str	r3, [r2, #16]
1000bdb0:	e774      	b.n	1000bc9c <system_clock_peripheral_disable+0x1c>
1000bdb2:	2102      	movs	r1, #2
1000bdb4:	6913      	ldr	r3, [r2, #16]
1000bdb6:	2000      	movs	r0, #0
1000bdb8:	438b      	bics	r3, r1
1000bdba:	6113      	str	r3, [r2, #16]
1000bdbc:	e76e      	b.n	1000bc9c <system_clock_peripheral_disable+0x1c>
1000bdbe:	2101      	movs	r1, #1
1000bdc0:	6913      	ldr	r3, [r2, #16]
1000bdc2:	2000      	movs	r0, #0
1000bdc4:	438b      	bics	r3, r1
1000bdc6:	6113      	str	r3, [r2, #16]
1000bdc8:	e768      	b.n	1000bc9c <system_clock_peripheral_disable+0x1c>
1000bdca:	68d1      	ldr	r1, [r2, #12]
1000bdcc:	4b66      	ldr	r3, [pc, #408]	; (1000bf68 <system_clock_peripheral_disable+0x2e8>)
1000bdce:	2000      	movs	r0, #0
1000bdd0:	400b      	ands	r3, r1
1000bdd2:	60d3      	str	r3, [r2, #12]
1000bdd4:	e762      	b.n	1000bc9c <system_clock_peripheral_disable+0x1c>
1000bdd6:	68d1      	ldr	r1, [r2, #12]
1000bdd8:	4b64      	ldr	r3, [pc, #400]	; (1000bf6c <system_clock_peripheral_disable+0x2ec>)
1000bdda:	2000      	movs	r0, #0
1000bddc:	400b      	ands	r3, r1
1000bdde:	60d3      	str	r3, [r2, #12]
1000bde0:	e75c      	b.n	1000bc9c <system_clock_peripheral_disable+0x1c>
1000bde2:	68d1      	ldr	r1, [r2, #12]
1000bde4:	4b62      	ldr	r3, [pc, #392]	; (1000bf70 <system_clock_peripheral_disable+0x2f0>)
1000bde6:	2000      	movs	r0, #0
1000bde8:	400b      	ands	r3, r1
1000bdea:	60d3      	str	r3, [r2, #12]
1000bdec:	e756      	b.n	1000bc9c <system_clock_peripheral_disable+0x1c>
1000bdee:	68d1      	ldr	r1, [r2, #12]
1000bdf0:	4b60      	ldr	r3, [pc, #384]	; (1000bf74 <system_clock_peripheral_disable+0x2f4>)
1000bdf2:	2000      	movs	r0, #0
1000bdf4:	400b      	ands	r3, r1
1000bdf6:	60d3      	str	r3, [r2, #12]
1000bdf8:	e750      	b.n	1000bc9c <system_clock_peripheral_disable+0x1c>
1000bdfa:	68d1      	ldr	r1, [r2, #12]
1000bdfc:	4b5e      	ldr	r3, [pc, #376]	; (1000bf78 <system_clock_peripheral_disable+0x2f8>)
1000bdfe:	2000      	movs	r0, #0
1000be00:	400b      	ands	r3, r1
1000be02:	60d3      	str	r3, [r2, #12]
1000be04:	e74a      	b.n	1000bc9c <system_clock_peripheral_disable+0x1c>
1000be06:	68d1      	ldr	r1, [r2, #12]
1000be08:	4b5c      	ldr	r3, [pc, #368]	; (1000bf7c <system_clock_peripheral_disable+0x2fc>)
1000be0a:	2000      	movs	r0, #0
1000be0c:	400b      	ands	r3, r1
1000be0e:	60d3      	str	r3, [r2, #12]
1000be10:	e744      	b.n	1000bc9c <system_clock_peripheral_disable+0x1c>
1000be12:	68d1      	ldr	r1, [r2, #12]
1000be14:	4b5a      	ldr	r3, [pc, #360]	; (1000bf80 <system_clock_peripheral_disable+0x300>)
1000be16:	2000      	movs	r0, #0
1000be18:	400b      	ands	r3, r1
1000be1a:	60d3      	str	r3, [r2, #12]
1000be1c:	e73e      	b.n	1000bc9c <system_clock_peripheral_disable+0x1c>
1000be1e:	68d1      	ldr	r1, [r2, #12]
1000be20:	4b41      	ldr	r3, [pc, #260]	; (1000bf28 <system_clock_peripheral_disable+0x2a8>)
1000be22:	2000      	movs	r0, #0
1000be24:	400b      	ands	r3, r1
1000be26:	60d3      	str	r3, [r2, #12]
1000be28:	e738      	b.n	1000bc9c <system_clock_peripheral_disable+0x1c>
1000be2a:	68d1      	ldr	r1, [r2, #12]
1000be2c:	4b3f      	ldr	r3, [pc, #252]	; (1000bf2c <system_clock_peripheral_disable+0x2ac>)
1000be2e:	2000      	movs	r0, #0
1000be30:	400b      	ands	r3, r1
1000be32:	60d3      	str	r3, [r2, #12]
1000be34:	e732      	b.n	1000bc9c <system_clock_peripheral_disable+0x1c>
1000be36:	68d1      	ldr	r1, [r2, #12]
1000be38:	4b3d      	ldr	r3, [pc, #244]	; (1000bf30 <system_clock_peripheral_disable+0x2b0>)
1000be3a:	2000      	movs	r0, #0
1000be3c:	400b      	ands	r3, r1
1000be3e:	60d3      	str	r3, [r2, #12]
1000be40:	e72c      	b.n	1000bc9c <system_clock_peripheral_disable+0x1c>
1000be42:	68d1      	ldr	r1, [r2, #12]
1000be44:	4b3b      	ldr	r3, [pc, #236]	; (1000bf34 <system_clock_peripheral_disable+0x2b4>)
1000be46:	2000      	movs	r0, #0
1000be48:	400b      	ands	r3, r1
1000be4a:	60d3      	str	r3, [r2, #12]
1000be4c:	e726      	b.n	1000bc9c <system_clock_peripheral_disable+0x1c>
1000be4e:	68d1      	ldr	r1, [r2, #12]
1000be50:	4b39      	ldr	r3, [pc, #228]	; (1000bf38 <system_clock_peripheral_disable+0x2b8>)
1000be52:	2000      	movs	r0, #0
1000be54:	400b      	ands	r3, r1
1000be56:	60d3      	str	r3, [r2, #12]
1000be58:	e720      	b.n	1000bc9c <system_clock_peripheral_disable+0x1c>
1000be5a:	68d1      	ldr	r1, [r2, #12]
1000be5c:	4b37      	ldr	r3, [pc, #220]	; (1000bf3c <system_clock_peripheral_disable+0x2bc>)
1000be5e:	2000      	movs	r0, #0
1000be60:	400b      	ands	r3, r1
1000be62:	60d3      	str	r3, [r2, #12]
1000be64:	e71a      	b.n	1000bc9c <system_clock_peripheral_disable+0x1c>
1000be66:	68d1      	ldr	r1, [r2, #12]
1000be68:	4b35      	ldr	r3, [pc, #212]	; (1000bf40 <system_clock_peripheral_disable+0x2c0>)
1000be6a:	2000      	movs	r0, #0
1000be6c:	400b      	ands	r3, r1
1000be6e:	60d3      	str	r3, [r2, #12]
1000be70:	e714      	b.n	1000bc9c <system_clock_peripheral_disable+0x1c>
1000be72:	68d1      	ldr	r1, [r2, #12]
1000be74:	4b33      	ldr	r3, [pc, #204]	; (1000bf44 <system_clock_peripheral_disable+0x2c4>)
1000be76:	2000      	movs	r0, #0
1000be78:	400b      	ands	r3, r1
1000be7a:	60d3      	str	r3, [r2, #12]
1000be7c:	e70e      	b.n	1000bc9c <system_clock_peripheral_disable+0x1c>
1000be7e:	68d1      	ldr	r1, [r2, #12]
1000be80:	4b31      	ldr	r3, [pc, #196]	; (1000bf48 <system_clock_peripheral_disable+0x2c8>)
1000be82:	2000      	movs	r0, #0
1000be84:	400b      	ands	r3, r1
1000be86:	60d3      	str	r3, [r2, #12]
1000be88:	e708      	b.n	1000bc9c <system_clock_peripheral_disable+0x1c>
1000be8a:	68d1      	ldr	r1, [r2, #12]
1000be8c:	4b2f      	ldr	r3, [pc, #188]	; (1000bf4c <system_clock_peripheral_disable+0x2cc>)
1000be8e:	2000      	movs	r0, #0
1000be90:	400b      	ands	r3, r1
1000be92:	60d3      	str	r3, [r2, #12]
1000be94:	e702      	b.n	1000bc9c <system_clock_peripheral_disable+0x1c>
1000be96:	68d1      	ldr	r1, [r2, #12]
1000be98:	4b2d      	ldr	r3, [pc, #180]	; (1000bf50 <system_clock_peripheral_disable+0x2d0>)
1000be9a:	2000      	movs	r0, #0
1000be9c:	400b      	ands	r3, r1
1000be9e:	60d3      	str	r3, [r2, #12]
1000bea0:	e6fc      	b.n	1000bc9c <system_clock_peripheral_disable+0x1c>
1000bea2:	68d1      	ldr	r1, [r2, #12]
1000bea4:	4b2b      	ldr	r3, [pc, #172]	; (1000bf54 <system_clock_peripheral_disable+0x2d4>)
1000bea6:	2000      	movs	r0, #0
1000bea8:	400b      	ands	r3, r1
1000beaa:	60d3      	str	r3, [r2, #12]
1000beac:	e6f6      	b.n	1000bc9c <system_clock_peripheral_disable+0x1c>
1000beae:	68d1      	ldr	r1, [r2, #12]
1000beb0:	4b29      	ldr	r3, [pc, #164]	; (1000bf58 <system_clock_peripheral_disable+0x2d8>)
1000beb2:	2000      	movs	r0, #0
1000beb4:	400b      	ands	r3, r1
1000beb6:	60d3      	str	r3, [r2, #12]
1000beb8:	e6f0      	b.n	1000bc9c <system_clock_peripheral_disable+0x1c>
1000beba:	68d1      	ldr	r1, [r2, #12]
1000bebc:	4b29      	ldr	r3, [pc, #164]	; (1000bf64 <system_clock_peripheral_disable+0x2e4>)
1000bebe:	2000      	movs	r0, #0
1000bec0:	400b      	ands	r3, r1
1000bec2:	60d3      	str	r3, [r2, #12]
1000bec4:	e6ea      	b.n	1000bc9c <system_clock_peripheral_disable+0x1c>
1000bec6:	2180      	movs	r1, #128	; 0x80
1000bec8:	68d3      	ldr	r3, [r2, #12]
1000beca:	2000      	movs	r0, #0
1000becc:	438b      	bics	r3, r1
1000bece:	60d3      	str	r3, [r2, #12]
1000bed0:	e6e4      	b.n	1000bc9c <system_clock_peripheral_disable+0x1c>
1000bed2:	2120      	movs	r1, #32
1000bed4:	68d3      	ldr	r3, [r2, #12]
1000bed6:	2000      	movs	r0, #0
1000bed8:	438b      	bics	r3, r1
1000beda:	60d3      	str	r3, [r2, #12]
1000bedc:	e6de      	b.n	1000bc9c <system_clock_peripheral_disable+0x1c>
1000bede:	2110      	movs	r1, #16
1000bee0:	68d3      	ldr	r3, [r2, #12]
1000bee2:	2000      	movs	r0, #0
1000bee4:	438b      	bics	r3, r1
1000bee6:	60d3      	str	r3, [r2, #12]
1000bee8:	e6d8      	b.n	1000bc9c <system_clock_peripheral_disable+0x1c>
1000beea:	2108      	movs	r1, #8
1000beec:	68d3      	ldr	r3, [r2, #12]
1000beee:	2000      	movs	r0, #0
1000bef0:	438b      	bics	r3, r1
1000bef2:	60d3      	str	r3, [r2, #12]
1000bef4:	e6d2      	b.n	1000bc9c <system_clock_peripheral_disable+0x1c>
1000bef6:	2104      	movs	r1, #4
1000bef8:	68d3      	ldr	r3, [r2, #12]
1000befa:	2000      	movs	r0, #0
1000befc:	438b      	bics	r3, r1
1000befe:	60d3      	str	r3, [r2, #12]
1000bf00:	e6cc      	b.n	1000bc9c <system_clock_peripheral_disable+0x1c>
1000bf02:	2102      	movs	r1, #2
1000bf04:	68d3      	ldr	r3, [r2, #12]
1000bf06:	2000      	movs	r0, #0
1000bf08:	438b      	bics	r3, r1
1000bf0a:	60d3      	str	r3, [r2, #12]
1000bf0c:	e6c6      	b.n	1000bc9c <system_clock_peripheral_disable+0x1c>
1000bf0e:	2104      	movs	r1, #4
1000bf10:	7d13      	ldrb	r3, [r2, #20]
1000bf12:	2000      	movs	r0, #0
1000bf14:	438b      	bics	r3, r1
1000bf16:	7513      	strb	r3, [r2, #20]
1000bf18:	e6c0      	b.n	1000bc9c <system_clock_peripheral_disable+0x1c>
1000bf1a:	2017      	movs	r0, #23
1000bf1c:	e6be      	b.n	1000bc9c <system_clock_peripheral_disable+0x1c>
1000bf1e:	46c0      	nop			; (mov r8, r8)
1000bf20:	10014254 	.word	0x10014254
1000bf24:	4000b000 	.word	0x4000b000
1000bf28:	ff7fffff 	.word	0xff7fffff
1000bf2c:	ffbfffff 	.word	0xffbfffff
1000bf30:	ffdfffff 	.word	0xffdfffff
1000bf34:	ffefffff 	.word	0xffefffff
1000bf38:	fff7ffff 	.word	0xfff7ffff
1000bf3c:	fffbffff 	.word	0xfffbffff
1000bf40:	fffdffff 	.word	0xfffdffff
1000bf44:	fffeffff 	.word	0xfffeffff
1000bf48:	ffff7fff 	.word	0xffff7fff
1000bf4c:	ffffbfff 	.word	0xffffbfff
1000bf50:	ffffdfff 	.word	0xffffdfff
1000bf54:	ffffefff 	.word	0xffffefff
1000bf58:	fffff7ff 	.word	0xfffff7ff
1000bf5c:	fffffbff 	.word	0xfffffbff
1000bf60:	fffffdff 	.word	0xfffffdff
1000bf64:	fffffeff 	.word	0xfffffeff
1000bf68:	bfffffff 	.word	0xbfffffff
1000bf6c:	dfffffff 	.word	0xdfffffff
1000bf70:	efffffff 	.word	0xefffffff
1000bf74:	f7ffffff 	.word	0xf7ffffff
1000bf78:	fbffffff 	.word	0xfbffffff
1000bf7c:	fdffffff 	.word	0xfdffffff
1000bf80:	feffffff 	.word	0xfeffffff

1000bf84 <system_peripheral_reset>:
1000bf84:	b500      	push	{lr}
1000bf86:	2843      	cmp	r0, #67	; 0x43
1000bf88:	d900      	bls.n	1000bf8c <system_peripheral_reset+0x8>
1000bf8a:	e200      	b.n	1000c38e <system_peripheral_reset+0x40a>
1000bf8c:	4bd5      	ldr	r3, [pc, #852]	; (1000c2e4 <system_peripheral_reset+0x360>)
1000bf8e:	0080      	lsls	r0, r0, #2
1000bf90:	581b      	ldr	r3, [r3, r0]
1000bf92:	469f      	mov	pc, r3
1000bf94:	4bd4      	ldr	r3, [pc, #848]	; (1000c2e8 <system_peripheral_reset+0x364>)
1000bf96:	4ad5      	ldr	r2, [pc, #852]	; (1000c2ec <system_peripheral_reset+0x368>)
1000bf98:	8919      	ldrh	r1, [r3, #8]
1000bf9a:	2000      	movs	r0, #0
1000bf9c:	400a      	ands	r2, r1
1000bf9e:	2180      	movs	r1, #128	; 0x80
1000bfa0:	811a      	strh	r2, [r3, #8]
1000bfa2:	891a      	ldrh	r2, [r3, #8]
1000bfa4:	0109      	lsls	r1, r1, #4
1000bfa6:	430a      	orrs	r2, r1
1000bfa8:	811a      	strh	r2, [r3, #8]
1000bfaa:	bd00      	pop	{pc}
1000bfac:	4bce      	ldr	r3, [pc, #824]	; (1000c2e8 <system_peripheral_reset+0x364>)
1000bfae:	4ad0      	ldr	r2, [pc, #832]	; (1000c2f0 <system_peripheral_reset+0x36c>)
1000bfb0:	8919      	ldrh	r1, [r3, #8]
1000bfb2:	2000      	movs	r0, #0
1000bfb4:	400a      	ands	r2, r1
1000bfb6:	2180      	movs	r1, #128	; 0x80
1000bfb8:	811a      	strh	r2, [r3, #8]
1000bfba:	891a      	ldrh	r2, [r3, #8]
1000bfbc:	0049      	lsls	r1, r1, #1
1000bfbe:	430a      	orrs	r2, r1
1000bfc0:	811a      	strh	r2, [r3, #8]
1000bfc2:	e7f2      	b.n	1000bfaa <system_peripheral_reset+0x26>
1000bfc4:	2180      	movs	r1, #128	; 0x80
1000bfc6:	4bc8      	ldr	r3, [pc, #800]	; (1000c2e8 <system_peripheral_reset+0x364>)
1000bfc8:	2000      	movs	r0, #0
1000bfca:	891a      	ldrh	r2, [r3, #8]
1000bfcc:	438a      	bics	r2, r1
1000bfce:	811a      	strh	r2, [r3, #8]
1000bfd0:	2280      	movs	r2, #128	; 0x80
1000bfd2:	8919      	ldrh	r1, [r3, #8]
1000bfd4:	430a      	orrs	r2, r1
1000bfd6:	811a      	strh	r2, [r3, #8]
1000bfd8:	e7e7      	b.n	1000bfaa <system_peripheral_reset+0x26>
1000bfda:	2104      	movs	r1, #4
1000bfdc:	4bc2      	ldr	r3, [pc, #776]	; (1000c2e8 <system_peripheral_reset+0x364>)
1000bfde:	2000      	movs	r0, #0
1000bfe0:	891a      	ldrh	r2, [r3, #8]
1000bfe2:	438a      	bics	r2, r1
1000bfe4:	811a      	strh	r2, [r3, #8]
1000bfe6:	2204      	movs	r2, #4
1000bfe8:	8919      	ldrh	r1, [r3, #8]
1000bfea:	430a      	orrs	r2, r1
1000bfec:	811a      	strh	r2, [r3, #8]
1000bfee:	e7dc      	b.n	1000bfaa <system_peripheral_reset+0x26>
1000bff0:	4bbd      	ldr	r3, [pc, #756]	; (1000c2e8 <system_peripheral_reset+0x364>)
1000bff2:	4ac0      	ldr	r2, [pc, #768]	; (1000c2f4 <system_peripheral_reset+0x370>)
1000bff4:	6859      	ldr	r1, [r3, #4]
1000bff6:	2000      	movs	r0, #0
1000bff8:	400a      	ands	r2, r1
1000bffa:	2180      	movs	r1, #128	; 0x80
1000bffc:	605a      	str	r2, [r3, #4]
1000bffe:	685a      	ldr	r2, [r3, #4]
1000c000:	0449      	lsls	r1, r1, #17
1000c002:	430a      	orrs	r2, r1
1000c004:	605a      	str	r2, [r3, #4]
1000c006:	e7d0      	b.n	1000bfaa <system_peripheral_reset+0x26>
1000c008:	4bb7      	ldr	r3, [pc, #732]	; (1000c2e8 <system_peripheral_reset+0x364>)
1000c00a:	4abb      	ldr	r2, [pc, #748]	; (1000c2f8 <system_peripheral_reset+0x374>)
1000c00c:	6859      	ldr	r1, [r3, #4]
1000c00e:	2000      	movs	r0, #0
1000c010:	400a      	ands	r2, r1
1000c012:	2180      	movs	r1, #128	; 0x80
1000c014:	605a      	str	r2, [r3, #4]
1000c016:	685a      	ldr	r2, [r3, #4]
1000c018:	0409      	lsls	r1, r1, #16
1000c01a:	430a      	orrs	r2, r1
1000c01c:	605a      	str	r2, [r3, #4]
1000c01e:	e7c4      	b.n	1000bfaa <system_peripheral_reset+0x26>
1000c020:	4bb1      	ldr	r3, [pc, #708]	; (1000c2e8 <system_peripheral_reset+0x364>)
1000c022:	4ab6      	ldr	r2, [pc, #728]	; (1000c2fc <system_peripheral_reset+0x378>)
1000c024:	6859      	ldr	r1, [r3, #4]
1000c026:	2000      	movs	r0, #0
1000c028:	400a      	ands	r2, r1
1000c02a:	2180      	movs	r1, #128	; 0x80
1000c02c:	605a      	str	r2, [r3, #4]
1000c02e:	685a      	ldr	r2, [r3, #4]
1000c030:	03c9      	lsls	r1, r1, #15
1000c032:	430a      	orrs	r2, r1
1000c034:	605a      	str	r2, [r3, #4]
1000c036:	e7b8      	b.n	1000bfaa <system_peripheral_reset+0x26>
1000c038:	4bab      	ldr	r3, [pc, #684]	; (1000c2e8 <system_peripheral_reset+0x364>)
1000c03a:	4ab1      	ldr	r2, [pc, #708]	; (1000c300 <system_peripheral_reset+0x37c>)
1000c03c:	6859      	ldr	r1, [r3, #4]
1000c03e:	2000      	movs	r0, #0
1000c040:	400a      	ands	r2, r1
1000c042:	2180      	movs	r1, #128	; 0x80
1000c044:	605a      	str	r2, [r3, #4]
1000c046:	685a      	ldr	r2, [r3, #4]
1000c048:	0389      	lsls	r1, r1, #14
1000c04a:	430a      	orrs	r2, r1
1000c04c:	605a      	str	r2, [r3, #4]
1000c04e:	e7ac      	b.n	1000bfaa <system_peripheral_reset+0x26>
1000c050:	4ba5      	ldr	r3, [pc, #660]	; (1000c2e8 <system_peripheral_reset+0x364>)
1000c052:	4aac      	ldr	r2, [pc, #688]	; (1000c304 <system_peripheral_reset+0x380>)
1000c054:	6859      	ldr	r1, [r3, #4]
1000c056:	2000      	movs	r0, #0
1000c058:	400a      	ands	r2, r1
1000c05a:	2180      	movs	r1, #128	; 0x80
1000c05c:	605a      	str	r2, [r3, #4]
1000c05e:	685a      	ldr	r2, [r3, #4]
1000c060:	0309      	lsls	r1, r1, #12
1000c062:	430a      	orrs	r2, r1
1000c064:	605a      	str	r2, [r3, #4]
1000c066:	e7a0      	b.n	1000bfaa <system_peripheral_reset+0x26>
1000c068:	4b9f      	ldr	r3, [pc, #636]	; (1000c2e8 <system_peripheral_reset+0x364>)
1000c06a:	4aa7      	ldr	r2, [pc, #668]	; (1000c308 <system_peripheral_reset+0x384>)
1000c06c:	6859      	ldr	r1, [r3, #4]
1000c06e:	2000      	movs	r0, #0
1000c070:	400a      	ands	r2, r1
1000c072:	2180      	movs	r1, #128	; 0x80
1000c074:	605a      	str	r2, [r3, #4]
1000c076:	685a      	ldr	r2, [r3, #4]
1000c078:	0089      	lsls	r1, r1, #2
1000c07a:	430a      	orrs	r2, r1
1000c07c:	605a      	str	r2, [r3, #4]
1000c07e:	e794      	b.n	1000bfaa <system_peripheral_reset+0x26>
1000c080:	2280      	movs	r2, #128	; 0x80
1000c082:	4b99      	ldr	r3, [pc, #612]	; (1000c2e8 <system_peripheral_reset+0x364>)
1000c084:	6859      	ldr	r1, [r3, #4]
1000c086:	4391      	bics	r1, r2
1000c088:	6059      	str	r1, [r3, #4]
1000c08a:	6859      	ldr	r1, [r3, #4]
1000c08c:	2000      	movs	r0, #0
1000c08e:	430a      	orrs	r2, r1
1000c090:	605a      	str	r2, [r3, #4]
1000c092:	e78a      	b.n	1000bfaa <system_peripheral_reset+0x26>
1000c094:	4b94      	ldr	r3, [pc, #592]	; (1000c2e8 <system_peripheral_reset+0x364>)
1000c096:	2220      	movs	r2, #32
1000c098:	6859      	ldr	r1, [r3, #4]
1000c09a:	e7f4      	b.n	1000c086 <system_peripheral_reset+0x102>
1000c09c:	4b92      	ldr	r3, [pc, #584]	; (1000c2e8 <system_peripheral_reset+0x364>)
1000c09e:	2208      	movs	r2, #8
1000c0a0:	6859      	ldr	r1, [r3, #4]
1000c0a2:	e7f0      	b.n	1000c086 <system_peripheral_reset+0x102>
1000c0a4:	4b90      	ldr	r3, [pc, #576]	; (1000c2e8 <system_peripheral_reset+0x364>)
1000c0a6:	2202      	movs	r2, #2
1000c0a8:	6859      	ldr	r1, [r3, #4]
1000c0aa:	e7ec      	b.n	1000c086 <system_peripheral_reset+0x102>
1000c0ac:	2140      	movs	r1, #64	; 0x40
1000c0ae:	4b8e      	ldr	r3, [pc, #568]	; (1000c2e8 <system_peripheral_reset+0x364>)
1000c0b0:	2000      	movs	r0, #0
1000c0b2:	891a      	ldrh	r2, [r3, #8]
1000c0b4:	438a      	bics	r2, r1
1000c0b6:	811a      	strh	r2, [r3, #8]
1000c0b8:	2240      	movs	r2, #64	; 0x40
1000c0ba:	8919      	ldrh	r1, [r3, #8]
1000c0bc:	430a      	orrs	r2, r1
1000c0be:	811a      	strh	r2, [r3, #8]
1000c0c0:	e773      	b.n	1000bfaa <system_peripheral_reset+0x26>
1000c0c2:	2120      	movs	r1, #32
1000c0c4:	4b88      	ldr	r3, [pc, #544]	; (1000c2e8 <system_peripheral_reset+0x364>)
1000c0c6:	2000      	movs	r0, #0
1000c0c8:	891a      	ldrh	r2, [r3, #8]
1000c0ca:	438a      	bics	r2, r1
1000c0cc:	811a      	strh	r2, [r3, #8]
1000c0ce:	2220      	movs	r2, #32
1000c0d0:	8919      	ldrh	r1, [r3, #8]
1000c0d2:	430a      	orrs	r2, r1
1000c0d4:	811a      	strh	r2, [r3, #8]
1000c0d6:	e768      	b.n	1000bfaa <system_peripheral_reset+0x26>
1000c0d8:	2110      	movs	r1, #16
1000c0da:	4b83      	ldr	r3, [pc, #524]	; (1000c2e8 <system_peripheral_reset+0x364>)
1000c0dc:	2000      	movs	r0, #0
1000c0de:	891a      	ldrh	r2, [r3, #8]
1000c0e0:	438a      	bics	r2, r1
1000c0e2:	811a      	strh	r2, [r3, #8]
1000c0e4:	2210      	movs	r2, #16
1000c0e6:	8919      	ldrh	r1, [r3, #8]
1000c0e8:	430a      	orrs	r2, r1
1000c0ea:	811a      	strh	r2, [r3, #8]
1000c0ec:	e75d      	b.n	1000bfaa <system_peripheral_reset+0x26>
1000c0ee:	2108      	movs	r1, #8
1000c0f0:	4b7d      	ldr	r3, [pc, #500]	; (1000c2e8 <system_peripheral_reset+0x364>)
1000c0f2:	2000      	movs	r0, #0
1000c0f4:	891a      	ldrh	r2, [r3, #8]
1000c0f6:	438a      	bics	r2, r1
1000c0f8:	811a      	strh	r2, [r3, #8]
1000c0fa:	2208      	movs	r2, #8
1000c0fc:	8919      	ldrh	r1, [r3, #8]
1000c0fe:	430a      	orrs	r2, r1
1000c100:	811a      	strh	r2, [r3, #8]
1000c102:	e752      	b.n	1000bfaa <system_peripheral_reset+0x26>
1000c104:	4b78      	ldr	r3, [pc, #480]	; (1000c2e8 <system_peripheral_reset+0x364>)
1000c106:	4a81      	ldr	r2, [pc, #516]	; (1000c30c <system_peripheral_reset+0x388>)
1000c108:	8919      	ldrh	r1, [r3, #8]
1000c10a:	2000      	movs	r0, #0
1000c10c:	400a      	ands	r2, r1
1000c10e:	2180      	movs	r1, #128	; 0x80
1000c110:	811a      	strh	r2, [r3, #8]
1000c112:	891a      	ldrh	r2, [r3, #8]
1000c114:	00c9      	lsls	r1, r1, #3
1000c116:	430a      	orrs	r2, r1
1000c118:	811a      	strh	r2, [r3, #8]
1000c11a:	e746      	b.n	1000bfaa <system_peripheral_reset+0x26>
1000c11c:	4b72      	ldr	r3, [pc, #456]	; (1000c2e8 <system_peripheral_reset+0x364>)
1000c11e:	4a7a      	ldr	r2, [pc, #488]	; (1000c308 <system_peripheral_reset+0x384>)
1000c120:	8919      	ldrh	r1, [r3, #8]
1000c122:	2000      	movs	r0, #0
1000c124:	400a      	ands	r2, r1
1000c126:	2180      	movs	r1, #128	; 0x80
1000c128:	811a      	strh	r2, [r3, #8]
1000c12a:	891a      	ldrh	r2, [r3, #8]
1000c12c:	0089      	lsls	r1, r1, #2
1000c12e:	430a      	orrs	r2, r1
1000c130:	811a      	strh	r2, [r3, #8]
1000c132:	e73a      	b.n	1000bfaa <system_peripheral_reset+0x26>
1000c134:	2180      	movs	r1, #128	; 0x80
1000c136:	4a6c      	ldr	r2, [pc, #432]	; (1000c2e8 <system_peripheral_reset+0x364>)
1000c138:	0609      	lsls	r1, r1, #24
1000c13a:	6853      	ldr	r3, [r2, #4]
1000c13c:	2000      	movs	r0, #0
1000c13e:	005b      	lsls	r3, r3, #1
1000c140:	085b      	lsrs	r3, r3, #1
1000c142:	6053      	str	r3, [r2, #4]
1000c144:	6853      	ldr	r3, [r2, #4]
1000c146:	430b      	orrs	r3, r1
1000c148:	6053      	str	r3, [r2, #4]
1000c14a:	e72e      	b.n	1000bfaa <system_peripheral_reset+0x26>
1000c14c:	4b66      	ldr	r3, [pc, #408]	; (1000c2e8 <system_peripheral_reset+0x364>)
1000c14e:	4a70      	ldr	r2, [pc, #448]	; (1000c310 <system_peripheral_reset+0x38c>)
1000c150:	6859      	ldr	r1, [r3, #4]
1000c152:	2000      	movs	r0, #0
1000c154:	400a      	ands	r2, r1
1000c156:	2180      	movs	r1, #128	; 0x80
1000c158:	605a      	str	r2, [r3, #4]
1000c15a:	685a      	ldr	r2, [r3, #4]
1000c15c:	05c9      	lsls	r1, r1, #23
1000c15e:	430a      	orrs	r2, r1
1000c160:	605a      	str	r2, [r3, #4]
1000c162:	e722      	b.n	1000bfaa <system_peripheral_reset+0x26>
1000c164:	4b60      	ldr	r3, [pc, #384]	; (1000c2e8 <system_peripheral_reset+0x364>)
1000c166:	4a6b      	ldr	r2, [pc, #428]	; (1000c314 <system_peripheral_reset+0x390>)
1000c168:	6859      	ldr	r1, [r3, #4]
1000c16a:	2000      	movs	r0, #0
1000c16c:	400a      	ands	r2, r1
1000c16e:	2180      	movs	r1, #128	; 0x80
1000c170:	605a      	str	r2, [r3, #4]
1000c172:	685a      	ldr	r2, [r3, #4]
1000c174:	0589      	lsls	r1, r1, #22
1000c176:	430a      	orrs	r2, r1
1000c178:	605a      	str	r2, [r3, #4]
1000c17a:	e716      	b.n	1000bfaa <system_peripheral_reset+0x26>
1000c17c:	4b5a      	ldr	r3, [pc, #360]	; (1000c2e8 <system_peripheral_reset+0x364>)
1000c17e:	4a66      	ldr	r2, [pc, #408]	; (1000c318 <system_peripheral_reset+0x394>)
1000c180:	6859      	ldr	r1, [r3, #4]
1000c182:	2000      	movs	r0, #0
1000c184:	400a      	ands	r2, r1
1000c186:	2180      	movs	r1, #128	; 0x80
1000c188:	605a      	str	r2, [r3, #4]
1000c18a:	685a      	ldr	r2, [r3, #4]
1000c18c:	0549      	lsls	r1, r1, #21
1000c18e:	430a      	orrs	r2, r1
1000c190:	605a      	str	r2, [r3, #4]
1000c192:	e70a      	b.n	1000bfaa <system_peripheral_reset+0x26>
1000c194:	4b54      	ldr	r3, [pc, #336]	; (1000c2e8 <system_peripheral_reset+0x364>)
1000c196:	4a61      	ldr	r2, [pc, #388]	; (1000c31c <system_peripheral_reset+0x398>)
1000c198:	6859      	ldr	r1, [r3, #4]
1000c19a:	2000      	movs	r0, #0
1000c19c:	400a      	ands	r2, r1
1000c19e:	2180      	movs	r1, #128	; 0x80
1000c1a0:	605a      	str	r2, [r3, #4]
1000c1a2:	685a      	ldr	r2, [r3, #4]
1000c1a4:	0349      	lsls	r1, r1, #13
1000c1a6:	430a      	orrs	r2, r1
1000c1a8:	605a      	str	r2, [r3, #4]
1000c1aa:	e6fe      	b.n	1000bfaa <system_peripheral_reset+0x26>
1000c1ac:	2102      	movs	r1, #2
1000c1ae:	4b4e      	ldr	r3, [pc, #312]	; (1000c2e8 <system_peripheral_reset+0x364>)
1000c1b0:	2000      	movs	r0, #0
1000c1b2:	891a      	ldrh	r2, [r3, #8]
1000c1b4:	438a      	bics	r2, r1
1000c1b6:	811a      	strh	r2, [r3, #8]
1000c1b8:	2202      	movs	r2, #2
1000c1ba:	8919      	ldrh	r1, [r3, #8]
1000c1bc:	430a      	orrs	r2, r1
1000c1be:	811a      	strh	r2, [r3, #8]
1000c1c0:	e6f3      	b.n	1000bfaa <system_peripheral_reset+0x26>
1000c1c2:	4b49      	ldr	r3, [pc, #292]	; (1000c2e8 <system_peripheral_reset+0x364>)
1000c1c4:	4a56      	ldr	r2, [pc, #344]	; (1000c320 <system_peripheral_reset+0x39c>)
1000c1c6:	6859      	ldr	r1, [r3, #4]
1000c1c8:	2000      	movs	r0, #0
1000c1ca:	400a      	ands	r2, r1
1000c1cc:	2180      	movs	r1, #128	; 0x80
1000c1ce:	605a      	str	r2, [r3, #4]
1000c1d0:	685a      	ldr	r2, [r3, #4]
1000c1d2:	0509      	lsls	r1, r1, #20
1000c1d4:	430a      	orrs	r2, r1
1000c1d6:	605a      	str	r2, [r3, #4]
1000c1d8:	e6e7      	b.n	1000bfaa <system_peripheral_reset+0x26>
1000c1da:	4b43      	ldr	r3, [pc, #268]	; (1000c2e8 <system_peripheral_reset+0x364>)
1000c1dc:	4a51      	ldr	r2, [pc, #324]	; (1000c324 <system_peripheral_reset+0x3a0>)
1000c1de:	6859      	ldr	r1, [r3, #4]
1000c1e0:	2000      	movs	r0, #0
1000c1e2:	400a      	ands	r2, r1
1000c1e4:	2180      	movs	r1, #128	; 0x80
1000c1e6:	605a      	str	r2, [r3, #4]
1000c1e8:	685a      	ldr	r2, [r3, #4]
1000c1ea:	04c9      	lsls	r1, r1, #19
1000c1ec:	430a      	orrs	r2, r1
1000c1ee:	605a      	str	r2, [r3, #4]
1000c1f0:	e6db      	b.n	1000bfaa <system_peripheral_reset+0x26>
1000c1f2:	4b3d      	ldr	r3, [pc, #244]	; (1000c2e8 <system_peripheral_reset+0x364>)
1000c1f4:	4a4c      	ldr	r2, [pc, #304]	; (1000c328 <system_peripheral_reset+0x3a4>)
1000c1f6:	6859      	ldr	r1, [r3, #4]
1000c1f8:	2000      	movs	r0, #0
1000c1fa:	400a      	ands	r2, r1
1000c1fc:	2180      	movs	r1, #128	; 0x80
1000c1fe:	605a      	str	r2, [r3, #4]
1000c200:	685a      	ldr	r2, [r3, #4]
1000c202:	0489      	lsls	r1, r1, #18
1000c204:	430a      	orrs	r2, r1
1000c206:	605a      	str	r2, [r3, #4]
1000c208:	e6cf      	b.n	1000bfaa <system_peripheral_reset+0x26>
1000c20a:	4b37      	ldr	r3, [pc, #220]	; (1000c2e8 <system_peripheral_reset+0x364>)
1000c20c:	4a47      	ldr	r2, [pc, #284]	; (1000c32c <system_peripheral_reset+0x3a8>)
1000c20e:	6859      	ldr	r1, [r3, #4]
1000c210:	2000      	movs	r0, #0
1000c212:	400a      	ands	r2, r1
1000c214:	2180      	movs	r1, #128	; 0x80
1000c216:	605a      	str	r2, [r3, #4]
1000c218:	685a      	ldr	r2, [r3, #4]
1000c21a:	02c9      	lsls	r1, r1, #11
1000c21c:	430a      	orrs	r2, r1
1000c21e:	605a      	str	r2, [r3, #4]
1000c220:	e6c3      	b.n	1000bfaa <system_peripheral_reset+0x26>
1000c222:	4b31      	ldr	r3, [pc, #196]	; (1000c2e8 <system_peripheral_reset+0x364>)
1000c224:	4a42      	ldr	r2, [pc, #264]	; (1000c330 <system_peripheral_reset+0x3ac>)
1000c226:	6859      	ldr	r1, [r3, #4]
1000c228:	2000      	movs	r0, #0
1000c22a:	400a      	ands	r2, r1
1000c22c:	2180      	movs	r1, #128	; 0x80
1000c22e:	605a      	str	r2, [r3, #4]
1000c230:	685a      	ldr	r2, [r3, #4]
1000c232:	0209      	lsls	r1, r1, #8
1000c234:	430a      	orrs	r2, r1
1000c236:	605a      	str	r2, [r3, #4]
1000c238:	e6b7      	b.n	1000bfaa <system_peripheral_reset+0x26>
1000c23a:	4b2b      	ldr	r3, [pc, #172]	; (1000c2e8 <system_peripheral_reset+0x364>)
1000c23c:	4a3d      	ldr	r2, [pc, #244]	; (1000c334 <system_peripheral_reset+0x3b0>)
1000c23e:	6859      	ldr	r1, [r3, #4]
1000c240:	2000      	movs	r0, #0
1000c242:	400a      	ands	r2, r1
1000c244:	2180      	movs	r1, #128	; 0x80
1000c246:	605a      	str	r2, [r3, #4]
1000c248:	685a      	ldr	r2, [r3, #4]
1000c24a:	01c9      	lsls	r1, r1, #7
1000c24c:	430a      	orrs	r2, r1
1000c24e:	605a      	str	r2, [r3, #4]
1000c250:	e6ab      	b.n	1000bfaa <system_peripheral_reset+0x26>
1000c252:	4b25      	ldr	r3, [pc, #148]	; (1000c2e8 <system_peripheral_reset+0x364>)
1000c254:	4a38      	ldr	r2, [pc, #224]	; (1000c338 <system_peripheral_reset+0x3b4>)
1000c256:	6859      	ldr	r1, [r3, #4]
1000c258:	2000      	movs	r0, #0
1000c25a:	400a      	ands	r2, r1
1000c25c:	2180      	movs	r1, #128	; 0x80
1000c25e:	605a      	str	r2, [r3, #4]
1000c260:	685a      	ldr	r2, [r3, #4]
1000c262:	0189      	lsls	r1, r1, #6
1000c264:	430a      	orrs	r2, r1
1000c266:	605a      	str	r2, [r3, #4]
1000c268:	e69f      	b.n	1000bfaa <system_peripheral_reset+0x26>
1000c26a:	4b1f      	ldr	r3, [pc, #124]	; (1000c2e8 <system_peripheral_reset+0x364>)
1000c26c:	4a33      	ldr	r2, [pc, #204]	; (1000c33c <system_peripheral_reset+0x3b8>)
1000c26e:	6859      	ldr	r1, [r3, #4]
1000c270:	2000      	movs	r0, #0
1000c272:	400a      	ands	r2, r1
1000c274:	2180      	movs	r1, #128	; 0x80
1000c276:	605a      	str	r2, [r3, #4]
1000c278:	685a      	ldr	r2, [r3, #4]
1000c27a:	0149      	lsls	r1, r1, #5
1000c27c:	430a      	orrs	r2, r1
1000c27e:	605a      	str	r2, [r3, #4]
1000c280:	e693      	b.n	1000bfaa <system_peripheral_reset+0x26>
1000c282:	4b19      	ldr	r3, [pc, #100]	; (1000c2e8 <system_peripheral_reset+0x364>)
1000c284:	4a2e      	ldr	r2, [pc, #184]	; (1000c340 <system_peripheral_reset+0x3bc>)
1000c286:	6859      	ldr	r1, [r3, #4]
1000c288:	2000      	movs	r0, #0
1000c28a:	400a      	ands	r2, r1
1000c28c:	2180      	movs	r1, #128	; 0x80
1000c28e:	605a      	str	r2, [r3, #4]
1000c290:	685a      	ldr	r2, [r3, #4]
1000c292:	0289      	lsls	r1, r1, #10
1000c294:	430a      	orrs	r2, r1
1000c296:	605a      	str	r2, [r3, #4]
1000c298:	e687      	b.n	1000bfaa <system_peripheral_reset+0x26>
1000c29a:	4b13      	ldr	r3, [pc, #76]	; (1000c2e8 <system_peripheral_reset+0x364>)
1000c29c:	4a29      	ldr	r2, [pc, #164]	; (1000c344 <system_peripheral_reset+0x3c0>)
1000c29e:	6859      	ldr	r1, [r3, #4]
1000c2a0:	2000      	movs	r0, #0
1000c2a2:	400a      	ands	r2, r1
1000c2a4:	2180      	movs	r1, #128	; 0x80
1000c2a6:	605a      	str	r2, [r3, #4]
1000c2a8:	685a      	ldr	r2, [r3, #4]
1000c2aa:	0249      	lsls	r1, r1, #9
1000c2ac:	430a      	orrs	r2, r1
1000c2ae:	605a      	str	r2, [r3, #4]
1000c2b0:	e67b      	b.n	1000bfaa <system_peripheral_reset+0x26>
1000c2b2:	4b0d      	ldr	r3, [pc, #52]	; (1000c2e8 <system_peripheral_reset+0x364>)
1000c2b4:	4a0d      	ldr	r2, [pc, #52]	; (1000c2ec <system_peripheral_reset+0x368>)
1000c2b6:	6859      	ldr	r1, [r3, #4]
1000c2b8:	2000      	movs	r0, #0
1000c2ba:	400a      	ands	r2, r1
1000c2bc:	2180      	movs	r1, #128	; 0x80
1000c2be:	605a      	str	r2, [r3, #4]
1000c2c0:	685a      	ldr	r2, [r3, #4]
1000c2c2:	0109      	lsls	r1, r1, #4
1000c2c4:	430a      	orrs	r2, r1
1000c2c6:	605a      	str	r2, [r3, #4]
1000c2c8:	e66f      	b.n	1000bfaa <system_peripheral_reset+0x26>
1000c2ca:	4b07      	ldr	r3, [pc, #28]	; (1000c2e8 <system_peripheral_reset+0x364>)
1000c2cc:	4a0f      	ldr	r2, [pc, #60]	; (1000c30c <system_peripheral_reset+0x388>)
1000c2ce:	6859      	ldr	r1, [r3, #4]
1000c2d0:	2000      	movs	r0, #0
1000c2d2:	400a      	ands	r2, r1
1000c2d4:	2180      	movs	r1, #128	; 0x80
1000c2d6:	605a      	str	r2, [r3, #4]
1000c2d8:	685a      	ldr	r2, [r3, #4]
1000c2da:	00c9      	lsls	r1, r1, #3
1000c2dc:	430a      	orrs	r2, r1
1000c2de:	605a      	str	r2, [r3, #4]
1000c2e0:	e663      	b.n	1000bfaa <system_peripheral_reset+0x26>
1000c2e2:	46c0      	nop			; (mov r8, r8)
1000c2e4:	1001432c 	.word	0x1001432c
1000c2e8:	4000b000 	.word	0x4000b000
1000c2ec:	fffff7ff 	.word	0xfffff7ff
1000c2f0:	fffffeff 	.word	0xfffffeff
1000c2f4:	feffffff 	.word	0xfeffffff
1000c2f8:	ff7fffff 	.word	0xff7fffff
1000c2fc:	ffbfffff 	.word	0xffbfffff
1000c300:	ffdfffff 	.word	0xffdfffff
1000c304:	fff7ffff 	.word	0xfff7ffff
1000c308:	fffffdff 	.word	0xfffffdff
1000c30c:	fffffbff 	.word	0xfffffbff
1000c310:	bfffffff 	.word	0xbfffffff
1000c314:	dfffffff 	.word	0xdfffffff
1000c318:	efffffff 	.word	0xefffffff
1000c31c:	ffefffff 	.word	0xffefffff
1000c320:	f7ffffff 	.word	0xf7ffffff
1000c324:	fbffffff 	.word	0xfbffffff
1000c328:	fdffffff 	.word	0xfdffffff
1000c32c:	fffbffff 	.word	0xfffbffff
1000c330:	ffff7fff 	.word	0xffff7fff
1000c334:	ffffbfff 	.word	0xffffbfff
1000c338:	ffffdfff 	.word	0xffffdfff
1000c33c:	ffffefff 	.word	0xffffefff
1000c340:	fffdffff 	.word	0xfffdffff
1000c344:	fffeffff 	.word	0xfffeffff
1000c348:	2101      	movs	r1, #1
1000c34a:	4b12      	ldr	r3, [pc, #72]	; (1000c394 <system_peripheral_reset+0x410>)
1000c34c:	2000      	movs	r0, #0
1000c34e:	891a      	ldrh	r2, [r3, #8]
1000c350:	438a      	bics	r2, r1
1000c352:	811a      	strh	r2, [r3, #8]
1000c354:	2201      	movs	r2, #1
1000c356:	8919      	ldrh	r1, [r3, #8]
1000c358:	430a      	orrs	r2, r1
1000c35a:	811a      	strh	r2, [r3, #8]
1000c35c:	e625      	b.n	1000bfaa <system_peripheral_reset+0x26>
1000c35e:	4b0d      	ldr	r3, [pc, #52]	; (1000c394 <system_peripheral_reset+0x410>)
1000c360:	4a0d      	ldr	r2, [pc, #52]	; (1000c398 <system_peripheral_reset+0x414>)
1000c362:	6859      	ldr	r1, [r3, #4]
1000c364:	2000      	movs	r0, #0
1000c366:	400a      	ands	r2, r1
1000c368:	2180      	movs	r1, #128	; 0x80
1000c36a:	605a      	str	r2, [r3, #4]
1000c36c:	685a      	ldr	r2, [r3, #4]
1000c36e:	0049      	lsls	r1, r1, #1
1000c370:	430a      	orrs	r2, r1
1000c372:	605a      	str	r2, [r3, #4]
1000c374:	e619      	b.n	1000bfaa <system_peripheral_reset+0x26>
1000c376:	4b07      	ldr	r3, [pc, #28]	; (1000c394 <system_peripheral_reset+0x410>)
1000c378:	2240      	movs	r2, #64	; 0x40
1000c37a:	6859      	ldr	r1, [r3, #4]
1000c37c:	e683      	b.n	1000c086 <system_peripheral_reset+0x102>
1000c37e:	4b05      	ldr	r3, [pc, #20]	; (1000c394 <system_peripheral_reset+0x410>)
1000c380:	2210      	movs	r2, #16
1000c382:	6859      	ldr	r1, [r3, #4]
1000c384:	e67f      	b.n	1000c086 <system_peripheral_reset+0x102>
1000c386:	4b03      	ldr	r3, [pc, #12]	; (1000c394 <system_peripheral_reset+0x410>)
1000c388:	2204      	movs	r2, #4
1000c38a:	6859      	ldr	r1, [r3, #4]
1000c38c:	e67b      	b.n	1000c086 <system_peripheral_reset+0x102>
1000c38e:	2017      	movs	r0, #23
1000c390:	e60b      	b.n	1000bfaa <system_peripheral_reset+0x26>
1000c392:	46c0      	nop			; (mov r8, r8)
1000c394:	4000b000 	.word	0x4000b000
1000c398:	fffffeff 	.word	0xfffffeff

1000c39c <system_register_isr>:
1000c39c:	2380      	movs	r3, #128	; 0x80
1000c39e:	04db      	lsls	r3, r3, #19
1000c3a0:	469c      	mov	ip, r3
1000c3a2:	4460      	add	r0, ip
1000c3a4:	0080      	lsls	r0, r0, #2
1000c3a6:	6001      	str	r1, [r0, #0]
1000c3a8:	4770      	bx	lr
1000c3aa:	46c0      	nop			; (mov r8, r8)

1000c3ac <uart_rx0_isr_handler>:
1000c3ac:	b570      	push	{r4, r5, r6, lr}
1000c3ae:	4b21      	ldr	r3, [pc, #132]	; (1000c434 <uart_rx0_isr_handler+0x88>)
1000c3b0:	681c      	ldr	r4, [r3, #0]
1000c3b2:	6823      	ldr	r3, [r4, #0]
1000c3b4:	7d1d      	ldrb	r5, [r3, #20]
1000c3b6:	b2ed      	uxtb	r5, r5
1000c3b8:	066a      	lsls	r2, r5, #25
1000c3ba:	d50d      	bpl.n	1000c3d8 <uart_rx0_isr_handler+0x2c>
1000c3bc:	211e      	movs	r1, #30
1000c3be:	2222      	movs	r2, #34	; 0x22
1000c3c0:	54a1      	strb	r1, [r4, r2]
1000c3c2:	7e1a      	ldrb	r2, [r3, #24]
1000c3c4:	3123      	adds	r1, #35	; 0x23
1000c3c6:	438a      	bics	r2, r1
1000c3c8:	761a      	strb	r2, [r3, #24]
1000c3ca:	2321      	movs	r3, #33	; 0x21
1000c3cc:	5ce2      	ldrb	r2, [r4, r3]
1000c3ce:	3b19      	subs	r3, #25
1000c3d0:	4213      	tst	r3, r2
1000c3d2:	d11d      	bne.n	1000c410 <uart_rx0_isr_handler+0x64>
1000c3d4:	6823      	ldr	r3, [r4, #0]
1000c3d6:	7c1a      	ldrb	r2, [r3, #16]
1000c3d8:	2201      	movs	r2, #1
1000c3da:	422a      	tst	r2, r5
1000c3dc:	d017      	beq.n	1000c40e <uart_rx0_isr_handler+0x62>
1000c3de:	7c1b      	ldrb	r3, [r3, #16]
1000c3e0:	6961      	ldr	r1, [r4, #20]
1000c3e2:	b2db      	uxtb	r3, r3
1000c3e4:	700b      	strb	r3, [r1, #0]
1000c3e6:	6963      	ldr	r3, [r4, #20]
1000c3e8:	3301      	adds	r3, #1
1000c3ea:	6163      	str	r3, [r4, #20]
1000c3ec:	8ba3      	ldrh	r3, [r4, #28]
1000c3ee:	3b01      	subs	r3, #1
1000c3f0:	b29b      	uxth	r3, r3
1000c3f2:	83a3      	strh	r3, [r4, #28]
1000c3f4:	8ba3      	ldrh	r3, [r4, #28]
1000c3f6:	b29b      	uxth	r3, r3
1000c3f8:	2b00      	cmp	r3, #0
1000c3fa:	d108      	bne.n	1000c40e <uart_rx0_isr_handler+0x62>
1000c3fc:	2121      	movs	r1, #33	; 0x21
1000c3fe:	5c60      	ldrb	r0, [r4, r1]
1000c400:	391d      	subs	r1, #29
1000c402:	4201      	tst	r1, r0
1000c404:	d003      	beq.n	1000c40e <uart_rx0_isr_handler+0x62>
1000c406:	2020      	movs	r0, #32
1000c408:	5c20      	ldrb	r0, [r4, r0]
1000c40a:	4201      	tst	r1, r0
1000c40c:	d108      	bne.n	1000c420 <uart_rx0_isr_handler+0x74>
1000c40e:	bd70      	pop	{r4, r5, r6, pc}
1000c410:	2220      	movs	r2, #32
1000c412:	5ca2      	ldrb	r2, [r4, r2]
1000c414:	4213      	tst	r3, r2
1000c416:	d0dd      	beq.n	1000c3d4 <uart_rx0_isr_handler+0x28>
1000c418:	0020      	movs	r0, r4
1000c41a:	6923      	ldr	r3, [r4, #16]
1000c41c:	4798      	blx	r3
1000c41e:	e7d9      	b.n	1000c3d4 <uart_rx0_isr_handler+0x28>
1000c420:	311e      	adds	r1, #30
1000c422:	5463      	strb	r3, [r4, r1]
1000c424:	6821      	ldr	r1, [r4, #0]
1000c426:	0020      	movs	r0, r4
1000c428:	7e0b      	ldrb	r3, [r1, #24]
1000c42a:	4393      	bics	r3, r2
1000c42c:	760b      	strb	r3, [r1, #24]
1000c42e:	68e3      	ldr	r3, [r4, #12]
1000c430:	4798      	blx	r3
1000c432:	e7ec      	b.n	1000c40e <uart_rx0_isr_handler+0x62>
1000c434:	100152c0 	.word	0x100152c0

1000c438 <uart_tx0_isr_handler>:
1000c438:	2101      	movs	r1, #1
1000c43a:	b570      	push	{r4, r5, r6, lr}
1000c43c:	4b22      	ldr	r3, [pc, #136]	; (1000c4c8 <uart_tx0_isr_handler+0x90>)
1000c43e:	681c      	ldr	r4, [r3, #0]
1000c440:	6823      	ldr	r3, [r4, #0]
1000c442:	791d      	ldrb	r5, [r3, #4]
1000c444:	b2ed      	uxtb	r5, r5
1000c446:	4229      	tst	r1, r5
1000c448:	d00c      	beq.n	1000c464 <uart_tx0_isr_handler+0x2c>
1000c44a:	69a2      	ldr	r2, [r4, #24]
1000c44c:	7810      	ldrb	r0, [r2, #0]
1000c44e:	3201      	adds	r2, #1
1000c450:	b2c0      	uxtb	r0, r0
1000c452:	61a2      	str	r2, [r4, #24]
1000c454:	7018      	strb	r0, [r3, #0]
1000c456:	8be3      	ldrh	r3, [r4, #30]
1000c458:	3b01      	subs	r3, #1
1000c45a:	b29b      	uxth	r3, r3
1000c45c:	83e3      	strh	r3, [r4, #30]
1000c45e:	8be3      	ldrh	r3, [r4, #30]
1000c460:	2b00      	cmp	r3, #0
1000c462:	d022      	beq.n	1000c4aa <uart_tx0_isr_handler+0x72>
1000c464:	2310      	movs	r3, #16
1000c466:	422b      	tst	r3, r5
1000c468:	d004      	beq.n	1000c474 <uart_tx0_isr_handler+0x3c>
1000c46a:	2221      	movs	r2, #33	; 0x21
1000c46c:	5ca1      	ldrb	r1, [r4, r2]
1000c46e:	3a20      	subs	r2, #32
1000c470:	420a      	tst	r2, r1
1000c472:	d10b      	bne.n	1000c48c <uart_tx0_isr_handler+0x54>
1000c474:	2320      	movs	r3, #32
1000c476:	422b      	tst	r3, r5
1000c478:	d007      	beq.n	1000c48a <uart_tx0_isr_handler+0x52>
1000c47a:	2221      	movs	r2, #33	; 0x21
1000c47c:	5ca1      	ldrb	r1, [r4, r2]
1000c47e:	3a1f      	subs	r2, #31
1000c480:	420a      	tst	r2, r1
1000c482:	d002      	beq.n	1000c48a <uart_tx0_isr_handler+0x52>
1000c484:	5ce3      	ldrb	r3, [r4, r3]
1000c486:	421a      	tst	r2, r3
1000c488:	d119      	bne.n	1000c4be <uart_tx0_isr_handler+0x86>
1000c48a:	bd70      	pop	{r4, r5, r6, pc}
1000c48c:	2120      	movs	r1, #32
1000c48e:	5c61      	ldrb	r1, [r4, r1]
1000c490:	420a      	tst	r2, r1
1000c492:	d0ef      	beq.n	1000c474 <uart_tx0_isr_handler+0x3c>
1000c494:	2100      	movs	r1, #0
1000c496:	3221      	adds	r2, #33	; 0x21
1000c498:	54a1      	strb	r1, [r4, r2]
1000c49a:	6821      	ldr	r1, [r4, #0]
1000c49c:	0020      	movs	r0, r4
1000c49e:	7a0a      	ldrb	r2, [r1, #8]
1000c4a0:	439a      	bics	r2, r3
1000c4a2:	720a      	strb	r2, [r1, #8]
1000c4a4:	6863      	ldr	r3, [r4, #4]
1000c4a6:	4798      	blx	r3
1000c4a8:	e7e4      	b.n	1000c474 <uart_tx0_isr_handler+0x3c>
1000c4aa:	6822      	ldr	r2, [r4, #0]
1000c4ac:	7a13      	ldrb	r3, [r2, #8]
1000c4ae:	438b      	bics	r3, r1
1000c4b0:	7213      	strb	r3, [r2, #8]
1000c4b2:	2310      	movs	r3, #16
1000c4b4:	6822      	ldr	r2, [r4, #0]
1000c4b6:	7a11      	ldrb	r1, [r2, #8]
1000c4b8:	430b      	orrs	r3, r1
1000c4ba:	7213      	strb	r3, [r2, #8]
1000c4bc:	e7d2      	b.n	1000c464 <uart_tx0_isr_handler+0x2c>
1000c4be:	68a3      	ldr	r3, [r4, #8]
1000c4c0:	0020      	movs	r0, r4
1000c4c2:	4798      	blx	r3
1000c4c4:	e7e1      	b.n	1000c48a <uart_tx0_isr_handler+0x52>
1000c4c6:	46c0      	nop			; (mov r8, r8)
1000c4c8:	100152c0 	.word	0x100152c0

1000c4cc <uart_rx1_isr_handler>:
1000c4cc:	b570      	push	{r4, r5, r6, lr}
1000c4ce:	4b21      	ldr	r3, [pc, #132]	; (1000c554 <uart_rx1_isr_handler+0x88>)
1000c4d0:	685c      	ldr	r4, [r3, #4]
1000c4d2:	6823      	ldr	r3, [r4, #0]
1000c4d4:	7d1d      	ldrb	r5, [r3, #20]
1000c4d6:	b2ed      	uxtb	r5, r5
1000c4d8:	066a      	lsls	r2, r5, #25
1000c4da:	d50d      	bpl.n	1000c4f8 <uart_rx1_isr_handler+0x2c>
1000c4dc:	211e      	movs	r1, #30
1000c4de:	2222      	movs	r2, #34	; 0x22
1000c4e0:	54a1      	strb	r1, [r4, r2]
1000c4e2:	7e1a      	ldrb	r2, [r3, #24]
1000c4e4:	3123      	adds	r1, #35	; 0x23
1000c4e6:	438a      	bics	r2, r1
1000c4e8:	761a      	strb	r2, [r3, #24]
1000c4ea:	2321      	movs	r3, #33	; 0x21
1000c4ec:	5ce2      	ldrb	r2, [r4, r3]
1000c4ee:	3b19      	subs	r3, #25
1000c4f0:	4213      	tst	r3, r2
1000c4f2:	d11d      	bne.n	1000c530 <uart_rx1_isr_handler+0x64>
1000c4f4:	6823      	ldr	r3, [r4, #0]
1000c4f6:	7c1a      	ldrb	r2, [r3, #16]
1000c4f8:	2201      	movs	r2, #1
1000c4fa:	422a      	tst	r2, r5
1000c4fc:	d017      	beq.n	1000c52e <uart_rx1_isr_handler+0x62>
1000c4fe:	7c1b      	ldrb	r3, [r3, #16]
1000c500:	6961      	ldr	r1, [r4, #20]
1000c502:	b2db      	uxtb	r3, r3
1000c504:	700b      	strb	r3, [r1, #0]
1000c506:	6963      	ldr	r3, [r4, #20]
1000c508:	3301      	adds	r3, #1
1000c50a:	6163      	str	r3, [r4, #20]
1000c50c:	8ba3      	ldrh	r3, [r4, #28]
1000c50e:	3b01      	subs	r3, #1
1000c510:	b29b      	uxth	r3, r3
1000c512:	83a3      	strh	r3, [r4, #28]
1000c514:	8ba3      	ldrh	r3, [r4, #28]
1000c516:	b29b      	uxth	r3, r3
1000c518:	2b00      	cmp	r3, #0
1000c51a:	d108      	bne.n	1000c52e <uart_rx1_isr_handler+0x62>
1000c51c:	2121      	movs	r1, #33	; 0x21
1000c51e:	5c60      	ldrb	r0, [r4, r1]
1000c520:	391d      	subs	r1, #29
1000c522:	4201      	tst	r1, r0
1000c524:	d003      	beq.n	1000c52e <uart_rx1_isr_handler+0x62>
1000c526:	2020      	movs	r0, #32
1000c528:	5c20      	ldrb	r0, [r4, r0]
1000c52a:	4201      	tst	r1, r0
1000c52c:	d108      	bne.n	1000c540 <uart_rx1_isr_handler+0x74>
1000c52e:	bd70      	pop	{r4, r5, r6, pc}
1000c530:	2220      	movs	r2, #32
1000c532:	5ca2      	ldrb	r2, [r4, r2]
1000c534:	4213      	tst	r3, r2
1000c536:	d0dd      	beq.n	1000c4f4 <uart_rx1_isr_handler+0x28>
1000c538:	0020      	movs	r0, r4
1000c53a:	6923      	ldr	r3, [r4, #16]
1000c53c:	4798      	blx	r3
1000c53e:	e7d9      	b.n	1000c4f4 <uart_rx1_isr_handler+0x28>
1000c540:	311e      	adds	r1, #30
1000c542:	5463      	strb	r3, [r4, r1]
1000c544:	6821      	ldr	r1, [r4, #0]
1000c546:	0020      	movs	r0, r4
1000c548:	7e0b      	ldrb	r3, [r1, #24]
1000c54a:	4393      	bics	r3, r2
1000c54c:	760b      	strb	r3, [r1, #24]
1000c54e:	68e3      	ldr	r3, [r4, #12]
1000c550:	4798      	blx	r3
1000c552:	e7ec      	b.n	1000c52e <uart_rx1_isr_handler+0x62>
1000c554:	100152c0 	.word	0x100152c0

1000c558 <uart_tx1_isr_handler>:
1000c558:	2101      	movs	r1, #1
1000c55a:	b570      	push	{r4, r5, r6, lr}
1000c55c:	4b22      	ldr	r3, [pc, #136]	; (1000c5e8 <uart_tx1_isr_handler+0x90>)
1000c55e:	685c      	ldr	r4, [r3, #4]
1000c560:	6823      	ldr	r3, [r4, #0]
1000c562:	791d      	ldrb	r5, [r3, #4]
1000c564:	b2ed      	uxtb	r5, r5
1000c566:	4229      	tst	r1, r5
1000c568:	d00c      	beq.n	1000c584 <uart_tx1_isr_handler+0x2c>
1000c56a:	69a2      	ldr	r2, [r4, #24]
1000c56c:	7810      	ldrb	r0, [r2, #0]
1000c56e:	3201      	adds	r2, #1
1000c570:	b2c0      	uxtb	r0, r0
1000c572:	61a2      	str	r2, [r4, #24]
1000c574:	7018      	strb	r0, [r3, #0]
1000c576:	8be3      	ldrh	r3, [r4, #30]
1000c578:	3b01      	subs	r3, #1
1000c57a:	b29b      	uxth	r3, r3
1000c57c:	83e3      	strh	r3, [r4, #30]
1000c57e:	8be3      	ldrh	r3, [r4, #30]
1000c580:	2b00      	cmp	r3, #0
1000c582:	d022      	beq.n	1000c5ca <uart_tx1_isr_handler+0x72>
1000c584:	2310      	movs	r3, #16
1000c586:	422b      	tst	r3, r5
1000c588:	d004      	beq.n	1000c594 <uart_tx1_isr_handler+0x3c>
1000c58a:	2221      	movs	r2, #33	; 0x21
1000c58c:	5ca1      	ldrb	r1, [r4, r2]
1000c58e:	3a20      	subs	r2, #32
1000c590:	420a      	tst	r2, r1
1000c592:	d10b      	bne.n	1000c5ac <uart_tx1_isr_handler+0x54>
1000c594:	2320      	movs	r3, #32
1000c596:	422b      	tst	r3, r5
1000c598:	d007      	beq.n	1000c5aa <uart_tx1_isr_handler+0x52>
1000c59a:	2221      	movs	r2, #33	; 0x21
1000c59c:	5ca1      	ldrb	r1, [r4, r2]
1000c59e:	3a1f      	subs	r2, #31
1000c5a0:	420a      	tst	r2, r1
1000c5a2:	d002      	beq.n	1000c5aa <uart_tx1_isr_handler+0x52>
1000c5a4:	5ce3      	ldrb	r3, [r4, r3]
1000c5a6:	421a      	tst	r2, r3
1000c5a8:	d119      	bne.n	1000c5de <uart_tx1_isr_handler+0x86>
1000c5aa:	bd70      	pop	{r4, r5, r6, pc}
1000c5ac:	2120      	movs	r1, #32
1000c5ae:	5c61      	ldrb	r1, [r4, r1]
1000c5b0:	420a      	tst	r2, r1
1000c5b2:	d0ef      	beq.n	1000c594 <uart_tx1_isr_handler+0x3c>
1000c5b4:	2100      	movs	r1, #0
1000c5b6:	3221      	adds	r2, #33	; 0x21
1000c5b8:	54a1      	strb	r1, [r4, r2]
1000c5ba:	6821      	ldr	r1, [r4, #0]
1000c5bc:	0020      	movs	r0, r4
1000c5be:	7a0a      	ldrb	r2, [r1, #8]
1000c5c0:	439a      	bics	r2, r3
1000c5c2:	720a      	strb	r2, [r1, #8]
1000c5c4:	6863      	ldr	r3, [r4, #4]
1000c5c6:	4798      	blx	r3
1000c5c8:	e7e4      	b.n	1000c594 <uart_tx1_isr_handler+0x3c>
1000c5ca:	6822      	ldr	r2, [r4, #0]
1000c5cc:	7a13      	ldrb	r3, [r2, #8]
1000c5ce:	438b      	bics	r3, r1
1000c5d0:	7213      	strb	r3, [r2, #8]
1000c5d2:	2310      	movs	r3, #16
1000c5d4:	6822      	ldr	r2, [r4, #0]
1000c5d6:	7a11      	ldrb	r1, [r2, #8]
1000c5d8:	430b      	orrs	r3, r1
1000c5da:	7213      	strb	r3, [r2, #8]
1000c5dc:	e7d2      	b.n	1000c584 <uart_tx1_isr_handler+0x2c>
1000c5de:	68a3      	ldr	r3, [r4, #8]
1000c5e0:	0020      	movs	r0, r4
1000c5e2:	4798      	blx	r3
1000c5e4:	e7e1      	b.n	1000c5aa <uart_tx1_isr_handler+0x52>
1000c5e6:	46c0      	nop			; (mov r8, r8)
1000c5e8:	100152c0 	.word	0x100152c0

1000c5ec <uart_get_config_defaults>:
1000c5ec:	23e1      	movs	r3, #225	; 0xe1
1000c5ee:	2203      	movs	r2, #3
1000c5f0:	025b      	lsls	r3, r3, #9
1000c5f2:	6003      	str	r3, [r0, #0]
1000c5f4:	2300      	movs	r3, #0
1000c5f6:	60c2      	str	r2, [r0, #12]
1000c5f8:	3201      	adds	r2, #1
1000c5fa:	7103      	strb	r3, [r0, #4]
1000c5fc:	7143      	strb	r3, [r0, #5]
1000c5fe:	7183      	strb	r3, [r0, #6]
1000c600:	71c3      	strb	r3, [r0, #7]
1000c602:	6102      	str	r2, [r0, #16]
1000c604:	3302      	adds	r3, #2
1000c606:	3201      	adds	r2, #1
1000c608:	6083      	str	r3, [r0, #8]
1000c60a:	6142      	str	r2, [r0, #20]
1000c60c:	6183      	str	r3, [r0, #24]
1000c60e:	61c3      	str	r3, [r0, #28]
1000c610:	6203      	str	r3, [r0, #32]
1000c612:	6243      	str	r3, [r0, #36]	; 0x24
1000c614:	4770      	bx	lr
1000c616:	46c0      	nop			; (mov r8, r8)

1000c618 <uart_init>:
1000c618:	b5f0      	push	{r4, r5, r6, r7, lr}
1000c61a:	4647      	mov	r7, r8
1000c61c:	4b53      	ldr	r3, [pc, #332]	; (1000c76c <uart_init+0x154>)
1000c61e:	b480      	push	{r7}
1000c620:	0005      	movs	r5, r0
1000c622:	0017      	movs	r7, r2
1000c624:	6001      	str	r1, [r0, #0]
1000c626:	4299      	cmp	r1, r3
1000c628:	d100      	bne.n	1000c62c <uart_init+0x14>
1000c62a:	e06c      	b.n	1000c706 <uart_init+0xee>
1000c62c:	4b50      	ldr	r3, [pc, #320]	; (1000c770 <uart_init+0x158>)
1000c62e:	4299      	cmp	r1, r3
1000c630:	d100      	bne.n	1000c634 <uart_init+0x1c>
1000c632:	e081      	b.n	1000c738 <uart_init+0x120>
1000c634:	79fa      	ldrb	r2, [r7, #7]
1000c636:	2302      	movs	r3, #2
1000c638:	2a00      	cmp	r2, #0
1000c63a:	d000      	beq.n	1000c63e <uart_init+0x26>
1000c63c:	3302      	adds	r3, #2
1000c63e:	3b01      	subs	r3, #1
1000c640:	b2de      	uxtb	r6, r3
1000c642:	4b4c      	ldr	r3, [pc, #304]	; (1000c774 <uart_init+0x15c>)
1000c644:	003c      	movs	r4, r7
1000c646:	4698      	mov	r8, r3
1000c648:	3603      	adds	r6, #3
1000c64a:	00b6      	lsls	r6, r6, #2
1000c64c:	3408      	adds	r4, #8
1000c64e:	19be      	adds	r6, r7, r6
1000c650:	8a21      	ldrh	r1, [r4, #16]
1000c652:	cc01      	ldmia	r4!, {r0}
1000c654:	b2c0      	uxtb	r0, r0
1000c656:	47c0      	blx	r8
1000c658:	42a6      	cmp	r6, r4
1000c65a:	d1f9      	bne.n	1000c650 <uart_init+0x38>
1000c65c:	682b      	ldr	r3, [r5, #0]
1000c65e:	7d1a      	ldrb	r2, [r3, #20]
1000c660:	07d2      	lsls	r2, r2, #31
1000c662:	d504      	bpl.n	1000c66e <uart_init+0x56>
1000c664:	2101      	movs	r1, #1
1000c666:	7c1a      	ldrb	r2, [r3, #16]
1000c668:	7d1a      	ldrb	r2, [r3, #20]
1000c66a:	4211      	tst	r1, r2
1000c66c:	d1fb      	bne.n	1000c666 <uart_init+0x4e>
1000c66e:	2100      	movs	r1, #0
1000c670:	2220      	movs	r2, #32
1000c672:	5499      	strb	r1, [r3, r2]
1000c674:	79fb      	ldrb	r3, [r7, #7]
1000c676:	797a      	ldrb	r2, [r7, #5]
1000c678:	1e59      	subs	r1, r3, #1
1000c67a:	418b      	sbcs	r3, r1
1000c67c:	0159      	lsls	r1, r3, #5
1000c67e:	793b      	ldrb	r3, [r7, #4]
1000c680:	4313      	orrs	r3, r2
1000c682:	79ba      	ldrb	r2, [r7, #6]
1000c684:	430b      	orrs	r3, r1
1000c686:	2a02      	cmp	r2, #2
1000c688:	d03a      	beq.n	1000c700 <uart_init+0xe8>
1000c68a:	d934      	bls.n	1000c6f6 <uart_init+0xde>
1000c68c:	2a03      	cmp	r2, #3
1000c68e:	d02f      	beq.n	1000c6f0 <uart_init+0xd8>
1000c690:	2a04      	cmp	r2, #4
1000c692:	d101      	bne.n	1000c698 <uart_init+0x80>
1000c694:	220e      	movs	r2, #14
1000c696:	4313      	orrs	r3, r2
1000c698:	2220      	movs	r2, #32
1000c69a:	6829      	ldr	r1, [r5, #0]
1000c69c:	548b      	strb	r3, [r1, r2]
1000c69e:	4b36      	ldr	r3, [pc, #216]	; (1000c778 <uart_init+0x160>)
1000c6a0:	683e      	ldr	r6, [r7, #0]
1000c6a2:	4798      	blx	r3
1000c6a4:	0031      	movs	r1, r6
1000c6a6:	4b35      	ldr	r3, [pc, #212]	; (1000c77c <uart_init+0x164>)
1000c6a8:	0004      	movs	r4, r0
1000c6aa:	4798      	blx	r3
1000c6ac:	b282      	uxth	r2, r0
1000c6ae:	0400      	lsls	r0, r0, #16
1000c6b0:	0c00      	lsrs	r0, r0, #16
1000c6b2:	4370      	muls	r0, r6
1000c6b4:	0931      	lsrs	r1, r6, #4
1000c6b6:	1a20      	subs	r0, r4, r0
1000c6b8:	2300      	movs	r3, #0
1000c6ba:	4281      	cmp	r1, r0
1000c6bc:	d207      	bcs.n	1000c6ce <uart_init+0xb6>
1000c6be:	3301      	adds	r3, #1
1000c6c0:	b2db      	uxtb	r3, r3
1000c6c2:	1a40      	subs	r0, r0, r1
1000c6c4:	4281      	cmp	r1, r0
1000c6c6:	d3fa      	bcc.n	1000c6be <uart_init+0xa6>
1000c6c8:	3301      	adds	r3, #1
1000c6ca:	071b      	lsls	r3, r3, #28
1000c6cc:	0f5b      	lsrs	r3, r3, #29
1000c6ce:	2100      	movs	r1, #0
1000c6d0:	2028      	movs	r0, #40	; 0x28
1000c6d2:	682c      	ldr	r4, [r5, #0]
1000c6d4:	00d2      	lsls	r2, r2, #3
1000c6d6:	5421      	strb	r1, [r4, r0]
1000c6d8:	4313      	orrs	r3, r2
1000c6da:	682a      	ldr	r2, [r5, #0]
1000c6dc:	b29b      	uxth	r3, r3
1000c6de:	8493      	strh	r3, [r2, #36]	; 0x24
1000c6e0:	682b      	ldr	r3, [r5, #0]
1000c6e2:	2000      	movs	r0, #0
1000c6e4:	7619      	strb	r1, [r3, #24]
1000c6e6:	682b      	ldr	r3, [r5, #0]
1000c6e8:	7219      	strb	r1, [r3, #8]
1000c6ea:	bc04      	pop	{r2}
1000c6ec:	4690      	mov	r8, r2
1000c6ee:	bdf0      	pop	{r4, r5, r6, r7, pc}
1000c6f0:	220a      	movs	r2, #10
1000c6f2:	4313      	orrs	r3, r2
1000c6f4:	e7d0      	b.n	1000c698 <uart_init+0x80>
1000c6f6:	2a01      	cmp	r2, #1
1000c6f8:	d1ce      	bne.n	1000c698 <uart_init+0x80>
1000c6fa:	2202      	movs	r2, #2
1000c6fc:	4313      	orrs	r3, r2
1000c6fe:	e7cb      	b.n	1000c698 <uart_init+0x80>
1000c700:	2206      	movs	r2, #6
1000c702:	4313      	orrs	r3, r2
1000c704:	e7c8      	b.n	1000c698 <uart_init+0x80>
1000c706:	4c1e      	ldr	r4, [pc, #120]	; (1000c780 <uart_init+0x168>)
1000c708:	2009      	movs	r0, #9
1000c70a:	47a0      	blx	r4
1000c70c:	200a      	movs	r0, #10
1000c70e:	47a0      	blx	r4
1000c710:	4c1c      	ldr	r4, [pc, #112]	; (1000c784 <uart_init+0x16c>)
1000c712:	2009      	movs	r0, #9
1000c714:	47a0      	blx	r4
1000c716:	200a      	movs	r0, #10
1000c718:	47a0      	blx	r4
1000c71a:	4b1b      	ldr	r3, [pc, #108]	; (1000c788 <uart_init+0x170>)
1000c71c:	491b      	ldr	r1, [pc, #108]	; (1000c78c <uart_init+0x174>)
1000c71e:	2010      	movs	r0, #16
1000c720:	4c1b      	ldr	r4, [pc, #108]	; (1000c790 <uart_init+0x178>)
1000c722:	601d      	str	r5, [r3, #0]
1000c724:	47a0      	blx	r4
1000c726:	491b      	ldr	r1, [pc, #108]	; (1000c794 <uart_init+0x17c>)
1000c728:	2011      	movs	r0, #17
1000c72a:	47a0      	blx	r4
1000c72c:	2201      	movs	r2, #1
1000c72e:	4b1a      	ldr	r3, [pc, #104]	; (1000c798 <uart_init+0x180>)
1000c730:	601a      	str	r2, [r3, #0]
1000c732:	3201      	adds	r2, #1
1000c734:	601a      	str	r2, [r3, #0]
1000c736:	e77d      	b.n	1000c634 <uart_init+0x1c>
1000c738:	4c11      	ldr	r4, [pc, #68]	; (1000c780 <uart_init+0x168>)
1000c73a:	200b      	movs	r0, #11
1000c73c:	47a0      	blx	r4
1000c73e:	200c      	movs	r0, #12
1000c740:	47a0      	blx	r4
1000c742:	4c10      	ldr	r4, [pc, #64]	; (1000c784 <uart_init+0x16c>)
1000c744:	200b      	movs	r0, #11
1000c746:	47a0      	blx	r4
1000c748:	200c      	movs	r0, #12
1000c74a:	47a0      	blx	r4
1000c74c:	4b0e      	ldr	r3, [pc, #56]	; (1000c788 <uart_init+0x170>)
1000c74e:	4913      	ldr	r1, [pc, #76]	; (1000c79c <uart_init+0x184>)
1000c750:	2012      	movs	r0, #18
1000c752:	4c0f      	ldr	r4, [pc, #60]	; (1000c790 <uart_init+0x178>)
1000c754:	605d      	str	r5, [r3, #4]
1000c756:	47a0      	blx	r4
1000c758:	4911      	ldr	r1, [pc, #68]	; (1000c7a0 <uart_init+0x188>)
1000c75a:	2013      	movs	r0, #19
1000c75c:	47a0      	blx	r4
1000c75e:	2204      	movs	r2, #4
1000c760:	4b0d      	ldr	r3, [pc, #52]	; (1000c798 <uart_init+0x180>)
1000c762:	601a      	str	r2, [r3, #0]
1000c764:	3204      	adds	r2, #4
1000c766:	601a      	str	r2, [r3, #0]
1000c768:	e764      	b.n	1000c634 <uart_init+0x1c>
1000c76a:	46c0      	nop			; (mov r8, r8)
1000c76c:	40004000 	.word	0x40004000
1000c770:	40005000 	.word	0x40005000
1000c774:	1000ab1d 	.word	0x1000ab1d
1000c778:	1000b985 	.word	0x1000b985
1000c77c:	1001126d 	.word	0x1001126d
1000c780:	1000bf85 	.word	0x1000bf85
1000c784:	1000b991 	.word	0x1000b991
1000c788:	100152c0 	.word	0x100152c0
1000c78c:	1000c3ad 	.word	0x1000c3ad
1000c790:	1000c39d 	.word	0x1000c39d
1000c794:	1000c439 	.word	0x1000c439
1000c798:	e000e100 	.word	0xe000e100
1000c79c:	1000c4cd 	.word	0x1000c4cd
1000c7a0:	1000c559 	.word	0x1000c559

1000c7a4 <uart_write_wait>:
1000c7a4:	6802      	ldr	r2, [r0, #0]
1000c7a6:	2001      	movs	r0, #1
1000c7a8:	7913      	ldrb	r3, [r2, #4]
1000c7aa:	4218      	tst	r0, r3
1000c7ac:	d0fc      	beq.n	1000c7a8 <uart_write_wait+0x4>
1000c7ae:	2000      	movs	r0, #0
1000c7b0:	7011      	strb	r1, [r2, #0]
1000c7b2:	4770      	bx	lr

1000c7b4 <uart_read_wait>:
1000c7b4:	6802      	ldr	r2, [r0, #0]
1000c7b6:	2001      	movs	r0, #1
1000c7b8:	7d13      	ldrb	r3, [r2, #20]
1000c7ba:	4218      	tst	r0, r3
1000c7bc:	d0fc      	beq.n	1000c7b8 <uart_read_wait+0x4>
1000c7be:	7c13      	ldrb	r3, [r2, #16]
1000c7c0:	2000      	movs	r0, #0
1000c7c2:	700b      	strb	r3, [r1, #0]
1000c7c4:	4770      	bx	lr
1000c7c6:	46c0      	nop			; (mov r8, r8)

1000c7c8 <uart_read_buffer_job>:
1000c7c8:	b510      	push	{r4, lr}
1000c7ca:	2317      	movs	r3, #23
1000c7cc:	2a00      	cmp	r2, #0
1000c7ce:	d101      	bne.n	1000c7d4 <uart_read_buffer_job+0xc>
1000c7d0:	0018      	movs	r0, r3
1000c7d2:	bd10      	pop	{r4, pc}
1000c7d4:	2422      	movs	r4, #34	; 0x22
1000c7d6:	5d03      	ldrb	r3, [r0, r4]
1000c7d8:	b2db      	uxtb	r3, r3
1000c7da:	2b05      	cmp	r3, #5
1000c7dc:	d0f8      	beq.n	1000c7d0 <uart_read_buffer_job+0x8>
1000c7de:	2305      	movs	r3, #5
1000c7e0:	8382      	strh	r2, [r0, #28]
1000c7e2:	2201      	movs	r2, #1
1000c7e4:	6141      	str	r1, [r0, #20]
1000c7e6:	5503      	strb	r3, [r0, r4]
1000c7e8:	6803      	ldr	r3, [r0, #0]
1000c7ea:	761a      	strb	r2, [r3, #24]
1000c7ec:	2300      	movs	r3, #0
1000c7ee:	e7ef      	b.n	1000c7d0 <uart_read_buffer_job+0x8>

1000c7f0 <uart_register_callback>:
1000c7f0:	0093      	lsls	r3, r2, #2
1000c7f2:	18c3      	adds	r3, r0, r3
1000c7f4:	6059      	str	r1, [r3, #4]
1000c7f6:	2301      	movs	r3, #1
1000c7f8:	2120      	movs	r1, #32
1000c7fa:	4093      	lsls	r3, r2
1000c7fc:	5c42      	ldrb	r2, [r0, r1]
1000c7fe:	4313      	orrs	r3, r2
1000c800:	5443      	strb	r3, [r0, r1]
1000c802:	4770      	bx	lr

1000c804 <uart_unregister_callback>:
1000c804:	2200      	movs	r2, #0
1000c806:	008b      	lsls	r3, r1, #2
1000c808:	18c3      	adds	r3, r0, r3
1000c80a:	605a      	str	r2, [r3, #4]
1000c80c:	3201      	adds	r2, #1
1000c80e:	408a      	lsls	r2, r1
1000c810:	2120      	movs	r1, #32
1000c812:	5c43      	ldrb	r3, [r0, r1]
1000c814:	4393      	bics	r3, r2
1000c816:	5443      	strb	r3, [r0, r1]
1000c818:	4770      	bx	lr
1000c81a:	46c0      	nop			; (mov r8, r8)

1000c81c <uart_enable_callback>:
1000c81c:	2301      	movs	r3, #1
1000c81e:	2221      	movs	r2, #33	; 0x21
1000c820:	408b      	lsls	r3, r1
1000c822:	b510      	push	{r4, lr}
1000c824:	5c84      	ldrb	r4, [r0, r2]
1000c826:	4323      	orrs	r3, r4
1000c828:	5483      	strb	r3, [r0, r2]
1000c82a:	2901      	cmp	r1, #1
1000c82c:	d104      	bne.n	1000c838 <uart_enable_callback+0x1c>
1000c82e:	2320      	movs	r3, #32
1000c830:	6802      	ldr	r2, [r0, #0]
1000c832:	7a11      	ldrb	r1, [r2, #8]
1000c834:	430b      	orrs	r3, r1
1000c836:	7213      	strb	r3, [r2, #8]
1000c838:	bd10      	pop	{r4, pc}
1000c83a:	46c0      	nop			; (mov r8, r8)

1000c83c <uart_disable_callback>:
1000c83c:	2201      	movs	r2, #1
1000c83e:	b510      	push	{r4, lr}
1000c840:	2421      	movs	r4, #33	; 0x21
1000c842:	408a      	lsls	r2, r1
1000c844:	5d03      	ldrb	r3, [r0, r4]
1000c846:	4393      	bics	r3, r2
1000c848:	5503      	strb	r3, [r0, r4]
1000c84a:	2901      	cmp	r1, #1
1000c84c:	d104      	bne.n	1000c858 <uart_disable_callback+0x1c>
1000c84e:	6802      	ldr	r2, [r0, #0]
1000c850:	311f      	adds	r1, #31
1000c852:	7a13      	ldrb	r3, [r2, #8]
1000c854:	438b      	bics	r3, r1
1000c856:	7213      	strb	r3, [r2, #8]
1000c858:	bd10      	pop	{r4, pc}
1000c85a:	46c0      	nop			; (mov r8, r8)

1000c85c <_read>:
1000c85c:	b5f0      	push	{r4, r5, r6, r7, lr}
1000c85e:	4647      	mov	r7, r8
1000c860:	000c      	movs	r4, r1
1000c862:	b480      	push	{r7}
1000c864:	4690      	mov	r8, r2
1000c866:	2800      	cmp	r0, #0
1000c868:	d111      	bne.n	1000c88e <_read+0x32>
1000c86a:	2a00      	cmp	r2, #0
1000c86c:	dd0d      	ble.n	1000c88a <_read+0x2e>
1000c86e:	4e09      	ldr	r6, [pc, #36]	; (1000c894 <_read+0x38>)
1000c870:	4d09      	ldr	r5, [pc, #36]	; (1000c898 <_read+0x3c>)
1000c872:	188f      	adds	r7, r1, r2
1000c874:	0021      	movs	r1, r4
1000c876:	6830      	ldr	r0, [r6, #0]
1000c878:	682b      	ldr	r3, [r5, #0]
1000c87a:	3401      	adds	r4, #1
1000c87c:	4798      	blx	r3
1000c87e:	42bc      	cmp	r4, r7
1000c880:	d1f8      	bne.n	1000c874 <_read+0x18>
1000c882:	4640      	mov	r0, r8
1000c884:	bc04      	pop	{r2}
1000c886:	4690      	mov	r8, r2
1000c888:	bdf0      	pop	{r4, r5, r6, r7, pc}
1000c88a:	2000      	movs	r0, #0
1000c88c:	e7fa      	b.n	1000c884 <_read+0x28>
1000c88e:	2001      	movs	r0, #1
1000c890:	4240      	negs	r0, r0
1000c892:	e7f7      	b.n	1000c884 <_read+0x28>
1000c894:	100152d0 	.word	0x100152d0
1000c898:	100152c8 	.word	0x100152c8

1000c89c <_write>:
1000c89c:	b5f0      	push	{r4, r5, r6, r7, lr}
1000c89e:	4647      	mov	r7, r8
1000c8a0:	3801      	subs	r0, #1
1000c8a2:	b480      	push	{r7}
1000c8a4:	000e      	movs	r6, r1
1000c8a6:	0015      	movs	r5, r2
1000c8a8:	2802      	cmp	r0, #2
1000c8aa:	d810      	bhi.n	1000c8ce <_write+0x32>
1000c8ac:	2a00      	cmp	r2, #0
1000c8ae:	d015      	beq.n	1000c8dc <_write+0x40>
1000c8b0:	4b0b      	ldr	r3, [pc, #44]	; (1000c8e0 <_write+0x44>)
1000c8b2:	2400      	movs	r4, #0
1000c8b4:	4698      	mov	r8, r3
1000c8b6:	4f0b      	ldr	r7, [pc, #44]	; (1000c8e4 <_write+0x48>)
1000c8b8:	e002      	b.n	1000c8c0 <_write+0x24>
1000c8ba:	3401      	adds	r4, #1
1000c8bc:	42a5      	cmp	r5, r4
1000c8be:	d00b      	beq.n	1000c8d8 <_write+0x3c>
1000c8c0:	4643      	mov	r3, r8
1000c8c2:	5d31      	ldrb	r1, [r6, r4]
1000c8c4:	6818      	ldr	r0, [r3, #0]
1000c8c6:	683b      	ldr	r3, [r7, #0]
1000c8c8:	4798      	blx	r3
1000c8ca:	2800      	cmp	r0, #0
1000c8cc:	daf5      	bge.n	1000c8ba <_write+0x1e>
1000c8ce:	2001      	movs	r0, #1
1000c8d0:	4240      	negs	r0, r0
1000c8d2:	bc04      	pop	{r2}
1000c8d4:	4690      	mov	r8, r2
1000c8d6:	bdf0      	pop	{r4, r5, r6, r7, pc}
1000c8d8:	0028      	movs	r0, r5
1000c8da:	e7fa      	b.n	1000c8d2 <_write+0x36>
1000c8dc:	2000      	movs	r0, #0
1000c8de:	e7f8      	b.n	1000c8d2 <_write+0x36>
1000c8e0:	100152d0 	.word	0x100152d0
1000c8e4:	100152cc 	.word	0x100152cc

1000c8e8 <_sbrk>:
1000c8e8:	4a04      	ldr	r2, [pc, #16]	; (1000c8fc <_sbrk+0x14>)
1000c8ea:	6813      	ldr	r3, [r2, #0]
1000c8ec:	2b00      	cmp	r3, #0
1000c8ee:	d003      	beq.n	1000c8f8 <_sbrk+0x10>
1000c8f0:	1818      	adds	r0, r3, r0
1000c8f2:	6010      	str	r0, [r2, #0]
1000c8f4:	0018      	movs	r0, r3
1000c8f6:	4770      	bx	lr
1000c8f8:	4b01      	ldr	r3, [pc, #4]	; (1000c900 <_sbrk+0x18>)
1000c8fa:	e7f9      	b.n	1000c8f0 <_sbrk+0x8>
1000c8fc:	100148c4 	.word	0x100148c4
1000c900:	10017610 	.word	0x10017610

1000c904 <_close>:
1000c904:	2001      	movs	r0, #1
1000c906:	4240      	negs	r0, r0
1000c908:	4770      	bx	lr
1000c90a:	46c0      	nop			; (mov r8, r8)

1000c90c <_fstat>:
1000c90c:	2380      	movs	r3, #128	; 0x80
1000c90e:	019b      	lsls	r3, r3, #6
1000c910:	2000      	movs	r0, #0
1000c912:	604b      	str	r3, [r1, #4]
1000c914:	4770      	bx	lr
1000c916:	46c0      	nop			; (mov r8, r8)

1000c918 <_isatty>:
1000c918:	2001      	movs	r0, #1
1000c91a:	4770      	bx	lr

1000c91c <_lseek>:
1000c91c:	2000      	movs	r0, #0
1000c91e:	4770      	bx	lr

1000c920 <ble_scan_report_handler>:
1000c920:	7800      	ldrb	r0, [r0, #0]
1000c922:	2800      	cmp	r0, #0
1000c924:	d000      	beq.n	1000c928 <ble_scan_report_handler+0x8>
1000c926:	20e2      	movs	r0, #226	; 0xe2
1000c928:	4770      	bx	lr
1000c92a:	46c0      	nop			; (mov r8, r8)

1000c92c <ble_characteristic_write_cmd_complete_handler>:
1000c92c:	78c0      	ldrb	r0, [r0, #3]
1000c92e:	2800      	cmp	r0, #0
1000c930:	d000      	beq.n	1000c934 <ble_characteristic_write_cmd_complete_handler+0x8>
1000c932:	20e2      	movs	r0, #226	; 0xe2
1000c934:	4770      	bx	lr
1000c936:	46c0      	nop			; (mov r8, r8)

1000c938 <ble_disconnected_state_handler>:
1000c938:	229b      	movs	r2, #155	; 0x9b
1000c93a:	4b1c      	ldr	r3, [pc, #112]	; (1000c9ac <ble_disconnected_state_handler+0x74>)
1000c93c:	0092      	lsls	r2, r2, #2
1000c93e:	b5f0      	push	{r4, r5, r6, r7, lr}
1000c940:	189c      	adds	r4, r3, r2
1000c942:	3a91      	subs	r2, #145	; 0x91
1000c944:	4647      	mov	r7, r8
1000c946:	3aff      	subs	r2, #255	; 0xff
1000c948:	4694      	mov	ip, r2
1000c94a:	3ada      	subs	r2, #218	; 0xda
1000c94c:	2501      	movs	r5, #1
1000c94e:	2600      	movs	r6, #0
1000c950:	4690      	mov	r8, r2
1000c952:	b480      	push	{r7}
1000c954:	4f16      	ldr	r7, [pc, #88]	; (1000c9b0 <ble_disconnected_state_handler+0x78>)
1000c956:	001a      	movs	r2, r3
1000c958:	3a56      	subs	r2, #86	; 0x56
1000c95a:	8811      	ldrh	r1, [r2, #0]
1000c95c:	8802      	ldrh	r2, [r0, #0]
1000c95e:	4291      	cmp	r1, r2
1000c960:	d006      	beq.n	1000c970 <ble_disconnected_state_handler+0x38>
1000c962:	337c      	adds	r3, #124	; 0x7c
1000c964:	42a3      	cmp	r3, r4
1000c966:	d1f6      	bne.n	1000c956 <ble_disconnected_state_handler+0x1e>
1000c968:	2000      	movs	r0, #0
1000c96a:	bc04      	pop	{r2}
1000c96c:	4690      	mov	r8, r2
1000c96e:	bdf0      	pop	{r4, r5, r6, r7, pc}
1000c970:	781a      	ldrb	r2, [r3, #0]
1000c972:	2a05      	cmp	r2, #5
1000c974:	d00e      	beq.n	1000c994 <ble_disconnected_state_handler+0x5c>
1000c976:	2a08      	cmp	r2, #8
1000c978:	d00c      	beq.n	1000c994 <ble_disconnected_state_handler+0x5c>
1000c97a:	2a07      	cmp	r2, #7
1000c97c:	d808      	bhi.n	1000c990 <ble_disconnected_state_handler+0x58>
1000c97e:	0029      	movs	r1, r5
1000c980:	4091      	lsls	r1, r2
1000c982:	000a      	movs	r2, r1
1000c984:	4661      	mov	r1, ip
1000c986:	4211      	tst	r1, r2
1000c988:	d106      	bne.n	1000c998 <ble_disconnected_state_handler+0x60>
1000c98a:	4641      	mov	r1, r8
1000c98c:	4211      	tst	r1, r2
1000c98e:	d1e8      	bne.n	1000c962 <ble_disconnected_state_handler+0x2a>
1000c990:	701e      	strb	r6, [r3, #0]
1000c992:	e7e6      	b.n	1000c962 <ble_disconnected_state_handler+0x2a>
1000c994:	701d      	strb	r5, [r3, #0]
1000c996:	e7e4      	b.n	1000c962 <ble_disconnected_state_handler+0x2a>
1000c998:	701e      	strb	r6, [r3, #0]
1000c99a:	783a      	ldrb	r2, [r7, #0]
1000c99c:	2a00      	cmp	r2, #0
1000c99e:	d0e0      	beq.n	1000c962 <ble_disconnected_state_handler+0x2a>
1000c9a0:	783a      	ldrb	r2, [r7, #0]
1000c9a2:	3a01      	subs	r2, #1
1000c9a4:	b2d2      	uxtb	r2, r2
1000c9a6:	703a      	strb	r2, [r7, #0]
1000c9a8:	e7db      	b.n	1000c962 <ble_disconnected_state_handler+0x2a>
1000c9aa:	46c0      	nop			; (mov r8, r8)
1000c9ac:	1001534a 	.word	0x1001534a
1000c9b0:	10015558 	.word	0x10015558

1000c9b4 <ble_conn_param_update>:
1000c9b4:	2000      	movs	r0, #0
1000c9b6:	4770      	bx	lr

1000c9b8 <ble_encryption_status_change_handler>:
1000c9b8:	b570      	push	{r4, r5, r6, lr}
1000c9ba:	4e19      	ldr	r6, [pc, #100]	; (1000ca20 <ble_encryption_status_change_handler+0x68>)
1000c9bc:	2300      	movs	r3, #0
1000c9be:	0032      	movs	r2, r6
1000c9c0:	8805      	ldrh	r5, [r0, #0]
1000c9c2:	8911      	ldrh	r1, [r2, #8]
1000c9c4:	001c      	movs	r4, r3
1000c9c6:	42a9      	cmp	r1, r5
1000c9c8:	d012      	beq.n	1000c9f0 <ble_encryption_status_change_handler+0x38>
1000c9ca:	3301      	adds	r3, #1
1000c9cc:	327c      	adds	r2, #124	; 0x7c
1000c9ce:	2b05      	cmp	r3, #5
1000c9d0:	d1f7      	bne.n	1000c9c2 <ble_encryption_status_change_handler+0xa>
1000c9d2:	7881      	ldrb	r1, [r0, #2]
1000c9d4:	2900      	cmp	r1, #0
1000c9d6:	d020      	beq.n	1000ca1a <ble_encryption_status_change_handler+0x62>
1000c9d8:	2405      	movs	r4, #5
1000c9da:	0162      	lsls	r2, r4, #5
1000c9dc:	1b13      	subs	r3, r2, r4
1000c9de:	009b      	lsls	r3, r3, #2
1000c9e0:	18f3      	adds	r3, r6, r3
1000c9e2:	2207      	movs	r2, #7
1000c9e4:	7619      	strb	r1, [r3, #24]
1000c9e6:	21e2      	movs	r1, #226	; 0xe2
1000c9e8:	335e      	adds	r3, #94	; 0x5e
1000c9ea:	701a      	strb	r2, [r3, #0]
1000c9ec:	0008      	movs	r0, r1
1000c9ee:	bd70      	pop	{r4, r5, r6, pc}
1000c9f0:	0011      	movs	r1, r2
1000c9f2:	315e      	adds	r1, #94	; 0x5e
1000c9f4:	7809      	ldrb	r1, [r1, #0]
1000c9f6:	2906      	cmp	r1, #6
1000c9f8:	d1e7      	bne.n	1000c9ca <ble_encryption_status_change_handler+0x12>
1000c9fa:	7881      	ldrb	r1, [r0, #2]
1000c9fc:	2900      	cmp	r1, #0
1000c9fe:	d1ec      	bne.n	1000c9da <ble_encryption_status_change_handler+0x22>
1000ca00:	015a      	lsls	r2, r3, #5
1000ca02:	1ad3      	subs	r3, r2, r3
1000ca04:	009b      	lsls	r3, r3, #2
1000ca06:	18f3      	adds	r3, r6, r3
1000ca08:	001a      	movs	r2, r3
1000ca0a:	2408      	movs	r4, #8
1000ca0c:	325e      	adds	r2, #94	; 0x5e
1000ca0e:	7014      	strb	r4, [r2, #0]
1000ca10:	78c2      	ldrb	r2, [r0, #3]
1000ca12:	751a      	strb	r2, [r3, #20]
1000ca14:	7882      	ldrb	r2, [r0, #2]
1000ca16:	761a      	strb	r2, [r3, #24]
1000ca18:	e7e8      	b.n	1000c9ec <ble_encryption_status_change_handler+0x34>
1000ca1a:	21e2      	movs	r1, #226	; 0xe2
1000ca1c:	e7e6      	b.n	1000c9ec <ble_encryption_status_change_handler+0x34>
1000ca1e:	46c0      	nop			; (mov r8, r8)
1000ca20:	100152ec 	.word	0x100152ec

1000ca24 <ble_resolv_rand_addr_handler>:
1000ca24:	b5f8      	push	{r3, r4, r5, r6, r7, lr}
1000ca26:	7803      	ldrb	r3, [r0, #0]
1000ca28:	2b00      	cmp	r3, #0
1000ca2a:	d10d      	bne.n	1000ca48 <ble_resolv_rand_addr_handler+0x24>
1000ca2c:	2400      	movs	r4, #0
1000ca2e:	4d22      	ldr	r5, [pc, #136]	; (1000cab8 <ble_resolv_rand_addr_handler+0x94>)
1000ca30:	4f22      	ldr	r7, [pc, #136]	; (1000cabc <ble_resolv_rand_addr_handler+0x98>)
1000ca32:	1c46      	adds	r6, r0, #1
1000ca34:	2210      	movs	r2, #16
1000ca36:	0029      	movs	r1, r5
1000ca38:	0030      	movs	r0, r6
1000ca3a:	47b8      	blx	r7
1000ca3c:	2800      	cmp	r0, #0
1000ca3e:	d00e      	beq.n	1000ca5e <ble_resolv_rand_addr_handler+0x3a>
1000ca40:	3401      	adds	r4, #1
1000ca42:	357c      	adds	r5, #124	; 0x7c
1000ca44:	2c05      	cmp	r4, #5
1000ca46:	d1f5      	bne.n	1000ca34 <ble_resolv_rand_addr_handler+0x10>
1000ca48:	2300      	movs	r3, #0
1000ca4a:	4a1d      	ldr	r2, [pc, #116]	; (1000cac0 <ble_resolv_rand_addr_handler+0x9c>)
1000ca4c:	7811      	ldrb	r1, [r2, #0]
1000ca4e:	2900      	cmp	r1, #0
1000ca50:	d01b      	beq.n	1000ca8a <ble_resolv_rand_addr_handler+0x66>
1000ca52:	3301      	adds	r3, #1
1000ca54:	327c      	adds	r2, #124	; 0x7c
1000ca56:	2b05      	cmp	r3, #5
1000ca58:	d1f8      	bne.n	1000ca4c <ble_resolv_rand_addr_handler+0x28>
1000ca5a:	2000      	movs	r0, #0
1000ca5c:	bdf8      	pop	{r3, r4, r5, r6, r7, pc}
1000ca5e:	0160      	lsls	r0, r4, #5
1000ca60:	1b00      	subs	r0, r0, r4
1000ca62:	0084      	lsls	r4, r0, #2
1000ca64:	4817      	ldr	r0, [pc, #92]	; (1000cac4 <ble_resolv_rand_addr_handler+0xa0>)
1000ca66:	2202      	movs	r2, #2
1000ca68:	1900      	adds	r0, r0, r4
1000ca6a:	0003      	movs	r3, r0
1000ca6c:	335e      	adds	r3, #94	; 0x5e
1000ca6e:	701a      	strb	r2, [r3, #0]
1000ca70:	230a      	movs	r3, #10
1000ca72:	4c15      	ldr	r4, [pc, #84]	; (1000cac8 <ble_resolv_rand_addr_handler+0xa4>)
1000ca74:	7483      	strb	r3, [r0, #18]
1000ca76:	3210      	adds	r2, #16
1000ca78:	0021      	movs	r1, r4
1000ca7a:	4b14      	ldr	r3, [pc, #80]	; (1000cacc <ble_resolv_rand_addr_handler+0xa8>)
1000ca7c:	4798      	blx	r3
1000ca7e:	8920      	ldrh	r0, [r4, #8]
1000ca80:	2200      	movs	r2, #0
1000ca82:	2100      	movs	r1, #0
1000ca84:	4b12      	ldr	r3, [pc, #72]	; (1000cad0 <ble_resolv_rand_addr_handler+0xac>)
1000ca86:	4798      	blx	r3
1000ca88:	e7e7      	b.n	1000ca5a <ble_resolv_rand_addr_handler+0x36>
1000ca8a:	015d      	lsls	r5, r3, #5
1000ca8c:	1aeb      	subs	r3, r5, r3
1000ca8e:	4d0d      	ldr	r5, [pc, #52]	; (1000cac4 <ble_resolv_rand_addr_handler+0xa0>)
1000ca90:	009b      	lsls	r3, r3, #2
1000ca92:	4c0d      	ldr	r4, [pc, #52]	; (1000cac8 <ble_resolv_rand_addr_handler+0xa4>)
1000ca94:	18ed      	adds	r5, r5, r3
1000ca96:	2212      	movs	r2, #18
1000ca98:	4b0c      	ldr	r3, [pc, #48]	; (1000cacc <ble_resolv_rand_addr_handler+0xa8>)
1000ca9a:	0021      	movs	r1, r4
1000ca9c:	0028      	movs	r0, r5
1000ca9e:	4798      	blx	r3
1000caa0:	4a0c      	ldr	r2, [pc, #48]	; (1000cad4 <ble_resolv_rand_addr_handler+0xb0>)
1000caa2:	7813      	ldrb	r3, [r2, #0]
1000caa4:	3301      	adds	r3, #1
1000caa6:	b2db      	uxtb	r3, r3
1000caa8:	7013      	strb	r3, [r2, #0]
1000caaa:	002b      	movs	r3, r5
1000caac:	2202      	movs	r2, #2
1000caae:	335e      	adds	r3, #94	; 0x5e
1000cab0:	701a      	strb	r2, [r3, #0]
1000cab2:	230a      	movs	r3, #10
1000cab4:	74ab      	strb	r3, [r5, #18]
1000cab6:	e7e2      	b.n	1000ca7e <ble_resolv_rand_addr_handler+0x5a>
1000cab8:	10015332 	.word	0x10015332
1000cabc:	10012fc5 	.word	0x10012fc5
1000cac0:	1001534a 	.word	0x1001534a
1000cac4:	100152ec 	.word	0x100152ec
1000cac8:	10015598 	.word	0x10015598
1000cacc:	10012fe3 	.word	0x10012fe3
1000cad0:	1000f75d 	.word	0x1000f75d
1000cad4:	10015558 	.word	0x10015558

1000cad8 <ble_conn_param_update_req>:
1000cad8:	b510      	push	{r4, lr}
1000cada:	2378      	movs	r3, #120	; 0x78
1000cadc:	2201      	movs	r2, #1
1000cade:	2101      	movs	r1, #1
1000cae0:	4c02      	ldr	r4, [pc, #8]	; (1000caec <ble_conn_param_update_req+0x14>)
1000cae2:	8800      	ldrh	r0, [r0, #0]
1000cae4:	47a0      	blx	r4
1000cae6:	2000      	movs	r0, #0
1000cae8:	bd10      	pop	{r4, pc}
1000caea:	46c0      	nop			; (mov r8, r8)
1000caec:	1000ebf1 	.word	0x1000ebf1

1000caf0 <ble_slave_security_request_handler>:
1000caf0:	b5f0      	push	{r4, r5, r6, r7, lr}
1000caf2:	4656      	mov	r6, sl
1000caf4:	4644      	mov	r4, r8
1000caf6:	465f      	mov	r7, fp
1000caf8:	464d      	mov	r5, r9
1000cafa:	4682      	mov	sl, r0
1000cafc:	b4f0      	push	{r4, r5, r6, r7}
1000cafe:	b087      	sub	sp, #28
1000cb00:	ae03      	add	r6, sp, #12
1000cb02:	2209      	movs	r2, #9
1000cb04:	2100      	movs	r1, #0
1000cb06:	4b59      	ldr	r3, [pc, #356]	; (1000cc6c <ble_slave_security_request_handler+0x17c>)
1000cb08:	0030      	movs	r0, r6
1000cb0a:	4798      	blx	r3
1000cb0c:	4653      	mov	r3, sl
1000cb0e:	8819      	ldrh	r1, [r3, #0]
1000cb10:	4b57      	ldr	r3, [pc, #348]	; (1000cc70 <ble_slave_security_request_handler+0x180>)
1000cb12:	4698      	mov	r8, r3
1000cb14:	0018      	movs	r0, r3
1000cb16:	001a      	movs	r2, r3
1000cb18:	2300      	movs	r3, #0
1000cb1a:	8914      	ldrh	r4, [r2, #8]
1000cb1c:	428c      	cmp	r4, r1
1000cb1e:	d03f      	beq.n	1000cba0 <ble_slave_security_request_handler+0xb0>
1000cb20:	3301      	adds	r3, #1
1000cb22:	327c      	adds	r2, #124	; 0x7c
1000cb24:	2b05      	cmp	r3, #5
1000cb26:	d1f8      	bne.n	1000cb1a <ble_slave_security_request_handler+0x2a>
1000cb28:	2300      	movs	r3, #0
1000cb2a:	8902      	ldrh	r2, [r0, #8]
1000cb2c:	001f      	movs	r7, r3
1000cb2e:	428a      	cmp	r2, r1
1000cb30:	d054      	beq.n	1000cbdc <ble_slave_security_request_handler+0xec>
1000cb32:	3301      	adds	r3, #1
1000cb34:	307c      	adds	r0, #124	; 0x7c
1000cb36:	2b05      	cmp	r3, #5
1000cb38:	d1f7      	bne.n	1000cb2a <ble_slave_security_request_handler+0x3a>
1000cb3a:	2705      	movs	r7, #5
1000cb3c:	4653      	mov	r3, sl
1000cb3e:	78db      	ldrb	r3, [r3, #3]
1000cb40:	4641      	mov	r1, r8
1000cb42:	70b3      	strb	r3, [r6, #2]
1000cb44:	2304      	movs	r3, #4
1000cb46:	2201      	movs	r2, #1
1000cb48:	7033      	strb	r3, [r6, #0]
1000cb4a:	017b      	lsls	r3, r7, #5
1000cb4c:	9300      	str	r3, [sp, #0]
1000cb4e:	1bdb      	subs	r3, r3, r7
1000cb50:	009b      	lsls	r3, r3, #2
1000cb52:	5ccb      	ldrb	r3, [r1, r3]
1000cb54:	7072      	strb	r2, [r6, #1]
1000cb56:	2b02      	cmp	r3, #2
1000cb58:	d100      	bne.n	1000cb5c <ble_slave_security_request_handler+0x6c>
1000cb5a:	e083      	b.n	1000cc64 <ble_slave_security_request_handler+0x174>
1000cb5c:	71b2      	strb	r2, [r6, #6]
1000cb5e:	71f2      	strb	r2, [r6, #7]
1000cb60:	2310      	movs	r3, #16
1000cb62:	7173      	strb	r3, [r6, #5]
1000cb64:	7133      	strb	r3, [r6, #4]
1000cb66:	9b00      	ldr	r3, [sp, #0]
1000cb68:	1bdd      	subs	r5, r3, r7
1000cb6a:	4643      	mov	r3, r8
1000cb6c:	00ad      	lsls	r5, r5, #2
1000cb6e:	195b      	adds	r3, r3, r5
1000cb70:	7e1b      	ldrb	r3, [r3, #24]
1000cb72:	2b40      	cmp	r3, #64	; 0x40
1000cb74:	d049      	beq.n	1000cc0a <ble_slave_security_request_handler+0x11a>
1000cb76:	9b00      	ldr	r3, [sp, #0]
1000cb78:	0031      	movs	r1, r6
1000cb7a:	1bda      	subs	r2, r3, r7
1000cb7c:	4653      	mov	r3, sl
1000cb7e:	0092      	lsls	r2, r2, #2
1000cb80:	3260      	adds	r2, #96	; 0x60
1000cb82:	8818      	ldrh	r0, [r3, #0]
1000cb84:	4442      	add	r2, r8
1000cb86:	2300      	movs	r3, #0
1000cb88:	4c3a      	ldr	r4, [pc, #232]	; (1000cc74 <ble_slave_security_request_handler+0x184>)
1000cb8a:	47a0      	blx	r4
1000cb8c:	2800      	cmp	r0, #0
1000cb8e:	d03a      	beq.n	1000cc06 <ble_slave_security_request_handler+0x116>
1000cb90:	20e2      	movs	r0, #226	; 0xe2
1000cb92:	b007      	add	sp, #28
1000cb94:	bc3c      	pop	{r2, r3, r4, r5}
1000cb96:	4690      	mov	r8, r2
1000cb98:	4699      	mov	r9, r3
1000cb9a:	46a2      	mov	sl, r4
1000cb9c:	46ab      	mov	fp, r5
1000cb9e:	bdf0      	pop	{r4, r5, r6, r7, pc}
1000cba0:	0014      	movs	r4, r2
1000cba2:	345e      	adds	r4, #94	; 0x5e
1000cba4:	7824      	ldrb	r4, [r4, #0]
1000cba6:	2c02      	cmp	r4, #2
1000cba8:	d1ba      	bne.n	1000cb20 <ble_slave_security_request_handler+0x30>
1000cbaa:	4642      	mov	r2, r8
1000cbac:	015c      	lsls	r4, r3, #5
1000cbae:	1ae1      	subs	r1, r4, r3
1000cbb0:	0089      	lsls	r1, r1, #2
1000cbb2:	1852      	adds	r2, r2, r1
1000cbb4:	0015      	movs	r5, r2
1000cbb6:	2706      	movs	r7, #6
1000cbb8:	355e      	adds	r5, #94	; 0x5e
1000cbba:	702f      	strb	r7, [r5, #0]
1000cbbc:	7d12      	ldrb	r2, [r2, #20]
1000cbbe:	07d5      	lsls	r5, r2, #31
1000cbc0:	d503      	bpl.n	1000cbca <ble_slave_security_request_handler+0xda>
1000cbc2:	4655      	mov	r5, sl
1000cbc4:	78ed      	ldrb	r5, [r5, #3]
1000cbc6:	2d00      	cmp	r5, #0
1000cbc8:	d115      	bne.n	1000cbf6 <ble_slave_security_request_handler+0x106>
1000cbca:	2202      	movs	r2, #2
1000cbcc:	1ae3      	subs	r3, r4, r3
1000cbce:	009b      	lsls	r3, r3, #2
1000cbd0:	4443      	add	r3, r8
1000cbd2:	335e      	adds	r3, #94	; 0x5e
1000cbd4:	701a      	strb	r2, [r3, #0]
1000cbd6:	4653      	mov	r3, sl
1000cbd8:	8819      	ldrh	r1, [r3, #0]
1000cbda:	e7a5      	b.n	1000cb28 <ble_slave_security_request_handler+0x38>
1000cbdc:	0002      	movs	r2, r0
1000cbde:	325e      	adds	r2, #94	; 0x5e
1000cbe0:	7812      	ldrb	r2, [r2, #0]
1000cbe2:	2a02      	cmp	r2, #2
1000cbe4:	d1a5      	bne.n	1000cb32 <ble_slave_security_request_handler+0x42>
1000cbe6:	015b      	lsls	r3, r3, #5
1000cbe8:	1bdb      	subs	r3, r3, r7
1000cbea:	009b      	lsls	r3, r3, #2
1000cbec:	4443      	add	r3, r8
1000cbee:	335e      	adds	r3, #94	; 0x5e
1000cbf0:	3201      	adds	r2, #1
1000cbf2:	701a      	strb	r2, [r3, #0]
1000cbf4:	e7a2      	b.n	1000cb3c <ble_slave_security_request_handler+0x4c>
1000cbf6:	4653      	mov	r3, sl
1000cbf8:	4441      	add	r1, r8
1000cbfa:	8818      	ldrh	r0, [r3, #0]
1000cbfc:	311a      	adds	r1, #26
1000cbfe:	4b1e      	ldr	r3, [pc, #120]	; (1000cc78 <ble_slave_security_request_handler+0x188>)
1000cc00:	4798      	blx	r3
1000cc02:	2800      	cmp	r0, #0
1000cc04:	d1c4      	bne.n	1000cb90 <ble_slave_security_request_handler+0xa0>
1000cc06:	2000      	movs	r0, #0
1000cc08:	e7c3      	b.n	1000cb92 <ble_slave_security_request_handler+0xa2>
1000cc0a:	4b1c      	ldr	r3, [pc, #112]	; (1000cc7c <ble_slave_security_request_handler+0x18c>)
1000cc0c:	002c      	movs	r4, r5
1000cc0e:	4699      	mov	r9, r3
1000cc10:	230f      	movs	r3, #15
1000cc12:	469b      	mov	fp, r3
1000cc14:	9501      	str	r5, [sp, #4]
1000cc16:	3468      	adds	r4, #104	; 0x68
1000cc18:	3560      	adds	r5, #96	; 0x60
1000cc1a:	4445      	add	r5, r8
1000cc1c:	4444      	add	r4, r8
1000cc1e:	47c8      	blx	r9
1000cc20:	465b      	mov	r3, fp
1000cc22:	4018      	ands	r0, r3
1000cc24:	7028      	strb	r0, [r5, #0]
1000cc26:	47c8      	blx	r9
1000cc28:	465b      	mov	r3, fp
1000cc2a:	4018      	ands	r0, r3
1000cc2c:	74a8      	strb	r0, [r5, #18]
1000cc2e:	3501      	adds	r5, #1
1000cc30:	42a5      	cmp	r5, r4
1000cc32:	d1f4      	bne.n	1000cc1e <ble_slave_security_request_handler+0x12e>
1000cc34:	230f      	movs	r3, #15
1000cc36:	469b      	mov	fp, r3
1000cc38:	9d01      	ldr	r5, [sp, #4]
1000cc3a:	3570      	adds	r5, #112	; 0x70
1000cc3c:	4445      	add	r5, r8
1000cc3e:	47c8      	blx	r9
1000cc40:	465b      	mov	r3, fp
1000cc42:	4018      	ands	r0, r3
1000cc44:	7020      	strb	r0, [r4, #0]
1000cc46:	3401      	adds	r4, #1
1000cc48:	42a5      	cmp	r5, r4
1000cc4a:	d1f8      	bne.n	1000cc3e <ble_slave_security_request_handler+0x14e>
1000cc4c:	47c8      	blx	r9
1000cc4e:	9b00      	ldr	r3, [sp, #0]
1000cc50:	1bdb      	subs	r3, r3, r7
1000cc52:	009b      	lsls	r3, r3, #2
1000cc54:	4443      	add	r3, r8
1000cc56:	001a      	movs	r2, r3
1000cc58:	3270      	adds	r2, #112	; 0x70
1000cc5a:	8010      	strh	r0, [r2, #0]
1000cc5c:	2210      	movs	r2, #16
1000cc5e:	337a      	adds	r3, #122	; 0x7a
1000cc60:	701a      	strb	r2, [r3, #0]
1000cc62:	e788      	b.n	1000cb76 <ble_slave_security_request_handler+0x86>
1000cc64:	3301      	adds	r3, #1
1000cc66:	71b3      	strb	r3, [r6, #6]
1000cc68:	71f3      	strb	r3, [r6, #7]
1000cc6a:	e779      	b.n	1000cb60 <ble_slave_security_request_handler+0x70>
1000cc6c:	10012ff5 	.word	0x10012ff5
1000cc70:	100152ec 	.word	0x100152ec
1000cc74:	1000f5b1 	.word	0x1000f5b1
1000cc78:	1000f79d 	.word	0x1000f79d
1000cc7c:	10013171 	.word	0x10013171

1000cc80 <ble_pair_request_handler>:
1000cc80:	b5f0      	push	{r4, r5, r6, r7, lr}
1000cc82:	4656      	mov	r6, sl
1000cc84:	465f      	mov	r7, fp
1000cc86:	464d      	mov	r5, r9
1000cc88:	4644      	mov	r4, r8
1000cc8a:	4b40      	ldr	r3, [pc, #256]	; (1000cd8c <ble_pair_request_handler+0x10c>)
1000cc8c:	b4f0      	push	{r4, r5, r6, r7}
1000cc8e:	469a      	mov	sl, r3
1000cc90:	001a      	movs	r2, r3
1000cc92:	2300      	movs	r3, #0
1000cc94:	b087      	sub	sp, #28
1000cc96:	9000      	str	r0, [sp, #0]
1000cc98:	8800      	ldrh	r0, [r0, #0]
1000cc9a:	8911      	ldrh	r1, [r2, #8]
1000cc9c:	001c      	movs	r4, r3
1000cc9e:	4281      	cmp	r1, r0
1000cca0:	d037      	beq.n	1000cd12 <ble_pair_request_handler+0x92>
1000cca2:	3301      	adds	r3, #1
1000cca4:	327c      	adds	r2, #124	; 0x7c
1000cca6:	2b05      	cmp	r3, #5
1000cca8:	d1f7      	bne.n	1000cc9a <ble_pair_request_handler+0x1a>
1000ccaa:	2405      	movs	r4, #5
1000ccac:	2300      	movs	r3, #0
1000ccae:	4651      	mov	r1, sl
1000ccb0:	2203      	movs	r2, #3
1000ccb2:	af03      	add	r7, sp, #12
1000ccb4:	723b      	strb	r3, [r7, #8]
1000ccb6:	70bb      	strb	r3, [r7, #2]
1000ccb8:	707b      	strb	r3, [r7, #1]
1000ccba:	70fb      	strb	r3, [r7, #3]
1000ccbc:	0163      	lsls	r3, r4, #5
1000ccbe:	4698      	mov	r8, r3
1000ccc0:	1b1b      	subs	r3, r3, r4
1000ccc2:	009b      	lsls	r3, r3, #2
1000ccc4:	5ccb      	ldrb	r3, [r1, r3]
1000ccc6:	703a      	strb	r2, [r7, #0]
1000ccc8:	2b02      	cmp	r3, #2
1000ccca:	d05c      	beq.n	1000cd86 <ble_pair_request_handler+0x106>
1000cccc:	2301      	movs	r3, #1
1000ccce:	71bb      	strb	r3, [r7, #6]
1000ccd0:	71fb      	strb	r3, [r7, #7]
1000ccd2:	2310      	movs	r3, #16
1000ccd4:	717b      	strb	r3, [r7, #5]
1000ccd6:	713b      	strb	r3, [r7, #4]
1000ccd8:	4643      	mov	r3, r8
1000ccda:	1b1e      	subs	r6, r3, r4
1000ccdc:	4653      	mov	r3, sl
1000ccde:	00b6      	lsls	r6, r6, #2
1000cce0:	199b      	adds	r3, r3, r6
1000cce2:	7e1b      	ldrb	r3, [r3, #24]
1000cce4:	2b40      	cmp	r3, #64	; 0x40
1000cce6:	d021      	beq.n	1000cd2c <ble_pair_request_handler+0xac>
1000cce8:	4643      	mov	r3, r8
1000ccea:	1b1a      	subs	r2, r3, r4
1000ccec:	0092      	lsls	r2, r2, #2
1000ccee:	9b00      	ldr	r3, [sp, #0]
1000ccf0:	3260      	adds	r2, #96	; 0x60
1000ccf2:	8818      	ldrh	r0, [r3, #0]
1000ccf4:	4452      	add	r2, sl
1000ccf6:	2300      	movs	r3, #0
1000ccf8:	0039      	movs	r1, r7
1000ccfa:	4c25      	ldr	r4, [pc, #148]	; (1000cd90 <ble_pair_request_handler+0x110>)
1000ccfc:	47a0      	blx	r4
1000ccfe:	2800      	cmp	r0, #0
1000cd00:	d000      	beq.n	1000cd04 <ble_pair_request_handler+0x84>
1000cd02:	20e2      	movs	r0, #226	; 0xe2
1000cd04:	b007      	add	sp, #28
1000cd06:	bc3c      	pop	{r2, r3, r4, r5}
1000cd08:	4690      	mov	r8, r2
1000cd0a:	4699      	mov	r9, r3
1000cd0c:	46a2      	mov	sl, r4
1000cd0e:	46ab      	mov	fp, r5
1000cd10:	bdf0      	pop	{r4, r5, r6, r7, pc}
1000cd12:	0011      	movs	r1, r2
1000cd14:	315e      	adds	r1, #94	; 0x5e
1000cd16:	7809      	ldrb	r1, [r1, #0]
1000cd18:	2902      	cmp	r1, #2
1000cd1a:	d1c2      	bne.n	1000cca2 <ble_pair_request_handler+0x22>
1000cd1c:	2203      	movs	r2, #3
1000cd1e:	015b      	lsls	r3, r3, #5
1000cd20:	1b1b      	subs	r3, r3, r4
1000cd22:	009b      	lsls	r3, r3, #2
1000cd24:	4453      	add	r3, sl
1000cd26:	335e      	adds	r3, #94	; 0x5e
1000cd28:	701a      	strb	r2, [r3, #0]
1000cd2a:	e7bf      	b.n	1000ccac <ble_pair_request_handler+0x2c>
1000cd2c:	4b19      	ldr	r3, [pc, #100]	; (1000cd94 <ble_pair_request_handler+0x114>)
1000cd2e:	0035      	movs	r5, r6
1000cd30:	4699      	mov	r9, r3
1000cd32:	230f      	movs	r3, #15
1000cd34:	469b      	mov	fp, r3
1000cd36:	9601      	str	r6, [sp, #4]
1000cd38:	3568      	adds	r5, #104	; 0x68
1000cd3a:	3660      	adds	r6, #96	; 0x60
1000cd3c:	4456      	add	r6, sl
1000cd3e:	4455      	add	r5, sl
1000cd40:	47c8      	blx	r9
1000cd42:	465b      	mov	r3, fp
1000cd44:	4018      	ands	r0, r3
1000cd46:	7030      	strb	r0, [r6, #0]
1000cd48:	47c8      	blx	r9
1000cd4a:	465b      	mov	r3, fp
1000cd4c:	4018      	ands	r0, r3
1000cd4e:	74b0      	strb	r0, [r6, #18]
1000cd50:	3601      	adds	r6, #1
1000cd52:	42ae      	cmp	r6, r5
1000cd54:	d1f4      	bne.n	1000cd40 <ble_pair_request_handler+0xc0>
1000cd56:	230f      	movs	r3, #15
1000cd58:	469b      	mov	fp, r3
1000cd5a:	9e01      	ldr	r6, [sp, #4]
1000cd5c:	3670      	adds	r6, #112	; 0x70
1000cd5e:	4456      	add	r6, sl
1000cd60:	47c8      	blx	r9
1000cd62:	465b      	mov	r3, fp
1000cd64:	4018      	ands	r0, r3
1000cd66:	7028      	strb	r0, [r5, #0]
1000cd68:	3501      	adds	r5, #1
1000cd6a:	42b5      	cmp	r5, r6
1000cd6c:	d1f8      	bne.n	1000cd60 <ble_pair_request_handler+0xe0>
1000cd6e:	47c8      	blx	r9
1000cd70:	4643      	mov	r3, r8
1000cd72:	1b1b      	subs	r3, r3, r4
1000cd74:	009b      	lsls	r3, r3, #2
1000cd76:	4453      	add	r3, sl
1000cd78:	001a      	movs	r2, r3
1000cd7a:	3270      	adds	r2, #112	; 0x70
1000cd7c:	8010      	strh	r0, [r2, #0]
1000cd7e:	2210      	movs	r2, #16
1000cd80:	337a      	adds	r3, #122	; 0x7a
1000cd82:	701a      	strb	r2, [r3, #0]
1000cd84:	e7b0      	b.n	1000cce8 <ble_pair_request_handler+0x68>
1000cd86:	71ba      	strb	r2, [r7, #6]
1000cd88:	71fa      	strb	r2, [r7, #7]
1000cd8a:	e7a2      	b.n	1000ccd2 <ble_pair_request_handler+0x52>
1000cd8c:	100152ec 	.word	0x100152ec
1000cd90:	1000f5b1 	.word	0x1000f5b1
1000cd94:	10013171 	.word	0x10013171

1000cd98 <ble_encryption_request_handler>:
1000cd98:	b5f0      	push	{r4, r5, r6, r7, lr}
1000cd9a:	4647      	mov	r7, r8
1000cd9c:	4d1d      	ldr	r5, [pc, #116]	; (1000ce14 <ble_encryption_request_handler+0x7c>)
1000cd9e:	b480      	push	{r7}
1000cda0:	002a      	movs	r2, r5
1000cda2:	0007      	movs	r7, r0
1000cda4:	2100      	movs	r1, #0
1000cda6:	8804      	ldrh	r4, [r0, #0]
1000cda8:	8910      	ldrh	r0, [r2, #8]
1000cdaa:	42a0      	cmp	r0, r4
1000cdac:	d00e      	beq.n	1000cdcc <ble_encryption_request_handler+0x34>
1000cdae:	3101      	adds	r1, #1
1000cdb0:	327c      	adds	r2, #124	; 0x7c
1000cdb2:	2905      	cmp	r1, #5
1000cdb4:	d1f8      	bne.n	1000cda8 <ble_encryption_request_handler+0x10>
1000cdb6:	239d      	movs	r3, #157	; 0x9d
1000cdb8:	009b      	lsls	r3, r3, #2
1000cdba:	5aec      	ldrh	r4, [r5, r3]
1000cdbc:	2105      	movs	r1, #5
1000cdbe:	0020      	movs	r0, r4
1000cdc0:	4b15      	ldr	r3, [pc, #84]	; (1000ce18 <ble_encryption_request_handler+0x80>)
1000cdc2:	4798      	blx	r3
1000cdc4:	20e2      	movs	r0, #226	; 0xe2
1000cdc6:	bc04      	pop	{r2}
1000cdc8:	4690      	mov	r8, r2
1000cdca:	bdf0      	pop	{r4, r5, r6, r7, pc}
1000cdcc:	0013      	movs	r3, r2
1000cdce:	335e      	adds	r3, #94	; 0x5e
1000cdd0:	781b      	ldrb	r3, [r3, #0]
1000cdd2:	2b01      	cmp	r3, #1
1000cdd4:	d9eb      	bls.n	1000cdae <ble_encryption_request_handler+0x16>
1000cdd6:	2206      	movs	r2, #6
1000cdd8:	014e      	lsls	r6, r1, #5
1000cdda:	1a76      	subs	r6, r6, r1
1000cddc:	00b6      	lsls	r6, r6, #2
1000cdde:	19ab      	adds	r3, r5, r6
1000cde0:	4698      	mov	r8, r3
1000cde2:	335e      	adds	r3, #94	; 0x5e
1000cde4:	701a      	strb	r2, [r3, #0]
1000cde6:	8a5a      	ldrh	r2, [r3, #18]
1000cde8:	887b      	ldrh	r3, [r7, #2]
1000cdea:	429a      	cmp	r2, r3
1000cdec:	d1e6      	bne.n	1000cdbc <ble_encryption_request_handler+0x24>
1000cdee:	19a9      	adds	r1, r5, r6
1000cdf0:	3172      	adds	r1, #114	; 0x72
1000cdf2:	1d38      	adds	r0, r7, #4
1000cdf4:	2208      	movs	r2, #8
1000cdf6:	4b09      	ldr	r3, [pc, #36]	; (1000ce1c <ble_encryption_request_handler+0x84>)
1000cdf8:	4798      	blx	r3
1000cdfa:	2800      	cmp	r0, #0
1000cdfc:	d1de      	bne.n	1000cdbc <ble_encryption_request_handler+0x24>
1000cdfe:	0033      	movs	r3, r6
1000ce00:	4642      	mov	r2, r8
1000ce02:	3360      	adds	r3, #96	; 0x60
1000ce04:	7d11      	ldrb	r1, [r2, #20]
1000ce06:	195b      	adds	r3, r3, r5
1000ce08:	8838      	ldrh	r0, [r7, #0]
1000ce0a:	2201      	movs	r2, #1
1000ce0c:	4c04      	ldr	r4, [pc, #16]	; (1000ce20 <ble_encryption_request_handler+0x88>)
1000ce0e:	47a0      	blx	r4
1000ce10:	2000      	movs	r0, #0
1000ce12:	e7d8      	b.n	1000cdc6 <ble_encryption_request_handler+0x2e>
1000ce14:	100152ec 	.word	0x100152ec
1000ce18:	1000ebd1 	.word	0x1000ebd1
1000ce1c:	10012fc5 	.word	0x10012fc5
1000ce20:	1000f815 	.word	0x1000f815

1000ce24 <ble_scan_info_handler>:
1000ce24:	b510      	push	{r4, lr}
1000ce26:	4c0d      	ldr	r4, [pc, #52]	; (1000ce5c <ble_scan_info_handler+0x38>)
1000ce28:	7823      	ldrb	r3, [r4, #0]
1000ce2a:	2b13      	cmp	r3, #19
1000ce2c:	d903      	bls.n	1000ce36 <ble_scan_info_handler+0x12>
1000ce2e:	4b0c      	ldr	r3, [pc, #48]	; (1000ce60 <ble_scan_info_handler+0x3c>)
1000ce30:	4798      	blx	r3
1000ce32:	20e2      	movs	r0, #226	; 0xe2
1000ce34:	bd10      	pop	{r4, pc}
1000ce36:	7823      	ldrb	r3, [r4, #0]
1000ce38:	0001      	movs	r1, r0
1000ce3a:	b2db      	uxtb	r3, r3
1000ce3c:	009a      	lsls	r2, r3, #2
1000ce3e:	18d2      	adds	r2, r2, r3
1000ce40:	00d2      	lsls	r2, r2, #3
1000ce42:	18d3      	adds	r3, r2, r3
1000ce44:	4a07      	ldr	r2, [pc, #28]	; (1000ce64 <ble_scan_info_handler+0x40>)
1000ce46:	189b      	adds	r3, r3, r2
1000ce48:	0018      	movs	r0, r3
1000ce4a:	2229      	movs	r2, #41	; 0x29
1000ce4c:	4b06      	ldr	r3, [pc, #24]	; (1000ce68 <ble_scan_info_handler+0x44>)
1000ce4e:	4798      	blx	r3
1000ce50:	7823      	ldrb	r3, [r4, #0]
1000ce52:	2000      	movs	r0, #0
1000ce54:	3301      	adds	r3, #1
1000ce56:	b2db      	uxtb	r3, r3
1000ce58:	7023      	strb	r3, [r4, #0]
1000ce5a:	e7eb      	b.n	1000ce34 <ble_scan_info_handler+0x10>
1000ce5c:	10014dac 	.word	0x10014dac
1000ce60:	1000ebb1 	.word	0x1000ebb1
1000ce64:	100155c0 	.word	0x100155c0
1000ce68:	10012fe3 	.word	0x10012fe3

1000ce6c <ble_pair_done_handler>:
1000ce6c:	b5f0      	push	{r4, r5, r6, r7, lr}
1000ce6e:	4647      	mov	r7, r8
1000ce70:	4e23      	ldr	r6, [pc, #140]	; (1000cf00 <ble_pair_done_handler+0x94>)
1000ce72:	2200      	movs	r2, #0
1000ce74:	0033      	movs	r3, r6
1000ce76:	b480      	push	{r7}
1000ce78:	0005      	movs	r5, r0
1000ce7a:	8840      	ldrh	r0, [r0, #2]
1000ce7c:	891c      	ldrh	r4, [r3, #8]
1000ce7e:	4284      	cmp	r4, r0
1000ce80:	d014      	beq.n	1000ceac <ble_pair_done_handler+0x40>
1000ce82:	3201      	adds	r2, #1
1000ce84:	337c      	adds	r3, #124	; 0x7c
1000ce86:	2a05      	cmp	r2, #5
1000ce88:	d1f8      	bne.n	1000ce7c <ble_pair_done_handler+0x10>
1000ce8a:	792b      	ldrb	r3, [r5, #4]
1000ce8c:	2b00      	cmp	r3, #0
1000ce8e:	d008      	beq.n	1000cea2 <ble_pair_done_handler+0x36>
1000ce90:	4b1c      	ldr	r3, [pc, #112]	; (1000cf04 <ble_pair_done_handler+0x98>)
1000ce92:	5cf3      	ldrb	r3, [r6, r3]
1000ce94:	2b01      	cmp	r3, #1
1000ce96:	d931      	bls.n	1000cefc <ble_pair_done_handler+0x90>
1000ce98:	2113      	movs	r1, #19
1000ce9a:	4b1b      	ldr	r3, [pc, #108]	; (1000cf08 <ble_pair_done_handler+0x9c>)
1000ce9c:	4798      	blx	r3
1000ce9e:	2800      	cmp	r0, #0
1000cea0:	d02c      	beq.n	1000cefc <ble_pair_done_handler+0x90>
1000cea2:	24e2      	movs	r4, #226	; 0xe2
1000cea4:	0020      	movs	r0, r4
1000cea6:	bc04      	pop	{r2}
1000cea8:	4690      	mov	r8, r2
1000ceaa:	bdf0      	pop	{r4, r5, r6, r7, pc}
1000ceac:	0019      	movs	r1, r3
1000ceae:	315e      	adds	r1, #94	; 0x5e
1000ceb0:	7809      	ldrb	r1, [r1, #0]
1000ceb2:	2903      	cmp	r1, #3
1000ceb4:	d1e5      	bne.n	1000ce82 <ble_pair_done_handler+0x16>
1000ceb6:	792c      	ldrb	r4, [r5, #4]
1000ceb8:	2c00      	cmp	r4, #0
1000ceba:	d1ed      	bne.n	1000ce98 <ble_pair_done_handler+0x2c>
1000cebc:	0157      	lsls	r7, r2, #5
1000cebe:	1abf      	subs	r7, r7, r2
1000cec0:	7829      	ldrb	r1, [r5, #0]
1000cec2:	00bf      	lsls	r7, r7, #2
1000cec4:	19f3      	adds	r3, r6, r7
1000cec6:	7519      	strb	r1, [r3, #20]
1000cec8:	792a      	ldrb	r2, [r5, #4]
1000ceca:	0029      	movs	r1, r5
1000cecc:	761a      	strb	r2, [r3, #24]
1000cece:	2205      	movs	r2, #5
1000ced0:	335e      	adds	r3, #94	; 0x5e
1000ced2:	701a      	strb	r2, [r3, #0]
1000ced4:	19f0      	adds	r0, r6, r7
1000ced6:	4b0d      	ldr	r3, [pc, #52]	; (1000cf0c <ble_pair_done_handler+0xa0>)
1000ced8:	3122      	adds	r1, #34	; 0x22
1000ceda:	320b      	adds	r2, #11
1000cedc:	3036      	adds	r0, #54	; 0x36
1000cede:	4698      	mov	r8, r3
1000cee0:	4798      	blx	r3
1000cee2:	0029      	movs	r1, r5
1000cee4:	19f0      	adds	r0, r6, r7
1000cee6:	3132      	adds	r1, #50	; 0x32
1000cee8:	2217      	movs	r2, #23
1000ceea:	19f6      	adds	r6, r6, r7
1000ceec:	3046      	adds	r0, #70	; 0x46
1000ceee:	47c0      	blx	r8
1000cef0:	0030      	movs	r0, r6
1000cef2:	1da9      	adds	r1, r5, #6
1000cef4:	221c      	movs	r2, #28
1000cef6:	301a      	adds	r0, #26
1000cef8:	47c0      	blx	r8
1000cefa:	e7d3      	b.n	1000cea4 <ble_pair_done_handler+0x38>
1000cefc:	2400      	movs	r4, #0
1000cefe:	e7d1      	b.n	1000cea4 <ble_pair_done_handler+0x38>
1000cf00:	100152ec 	.word	0x100152ec
1000cf04:	000002ca 	.word	0x000002ca
1000cf08:	1000ebd1 	.word	0x1000ebd1
1000cf0c:	10012fe3 	.word	0x10012fe3

1000cf10 <ble_pair_key_request_handler>:
1000cf10:	b5f0      	push	{r4, r5, r6, r7, lr}
1000cf12:	0006      	movs	r6, r0
1000cf14:	b085      	sub	sp, #20
1000cf16:	2206      	movs	r2, #6
1000cf18:	4919      	ldr	r1, [pc, #100]	; (1000cf80 <ble_pair_key_request_handler+0x70>)
1000cf1a:	4d1a      	ldr	r5, [pc, #104]	; (1000cf84 <ble_pair_key_request_handler+0x74>)
1000cf1c:	ac01      	add	r4, sp, #4
1000cf1e:	a802      	add	r0, sp, #8
1000cf20:	47a8      	blx	r5
1000cf22:	2204      	movs	r2, #4
1000cf24:	0031      	movs	r1, r6
1000cf26:	0020      	movs	r0, r4
1000cf28:	47a8      	blx	r5
1000cf2a:	78e3      	ldrb	r3, [r4, #3]
1000cf2c:	2b00      	cmp	r3, #0
1000cf2e:	d111      	bne.n	1000cf54 <ble_pair_key_request_handler+0x44>
1000cf30:	2700      	movs	r7, #0
1000cf32:	4d15      	ldr	r5, [pc, #84]	; (1000cf88 <ble_pair_key_request_handler+0x78>)
1000cf34:	e003      	b.n	1000cf3e <ble_pair_key_request_handler+0x2e>
1000cf36:	0003      	movs	r3, r0
1000cf38:	3b30      	subs	r3, #48	; 0x30
1000cf3a:	2b09      	cmp	r3, #9
1000cf3c:	d911      	bls.n	1000cf62 <ble_pair_key_request_handler+0x52>
1000cf3e:	201e      	movs	r0, #30
1000cf40:	47a8      	blx	r5
1000cf42:	b2c0      	uxtb	r0, r0
1000cf44:	2800      	cmp	r0, #0
1000cf46:	d1f6      	bne.n	1000cf36 <ble_pair_key_request_handler+0x26>
1000cf48:	8830      	ldrh	r0, [r6, #0]
1000cf4a:	2113      	movs	r1, #19
1000cf4c:	4b0f      	ldr	r3, [pc, #60]	; (1000cf8c <ble_pair_key_request_handler+0x7c>)
1000cf4e:	4798      	blx	r3
1000cf50:	20e2      	movs	r0, #226	; 0xe2
1000cf52:	e013      	b.n	1000cf7c <ble_pair_key_request_handler+0x6c>
1000cf54:	2380      	movs	r3, #128	; 0x80
1000cf56:	8862      	ldrh	r2, [r4, #2]
1000cf58:	005b      	lsls	r3, r3, #1
1000cf5a:	429a      	cmp	r2, r3
1000cf5c:	d008      	beq.n	1000cf70 <ble_pair_key_request_handler+0x60>
1000cf5e:	2000      	movs	r0, #0
1000cf60:	e00c      	b.n	1000cf7c <ble_pair_key_request_handler+0x6c>
1000cf62:	466b      	mov	r3, sp
1000cf64:	2208      	movs	r2, #8
1000cf66:	189b      	adds	r3, r3, r2
1000cf68:	55d8      	strb	r0, [r3, r7]
1000cf6a:	3701      	adds	r7, #1
1000cf6c:	2f06      	cmp	r7, #6
1000cf6e:	d1e6      	bne.n	1000cf3e <ble_pair_key_request_handler+0x2e>
1000cf70:	78a1      	ldrb	r1, [r4, #2]
1000cf72:	8830      	ldrh	r0, [r6, #0]
1000cf74:	aa02      	add	r2, sp, #8
1000cf76:	4b06      	ldr	r3, [pc, #24]	; (1000cf90 <ble_pair_key_request_handler+0x80>)
1000cf78:	4798      	blx	r3
1000cf7a:	2000      	movs	r0, #0
1000cf7c:	b005      	add	sp, #20
1000cf7e:	bdf0      	pop	{r4, r5, r6, r7, pc}
1000cf80:	1001452c 	.word	0x1001452c
1000cf84:	10012fe3 	.word	0x10012fe3
1000cf88:	1000d67d 	.word	0x1000d67d
1000cf8c:	1000ebd1 	.word	0x1000ebd1
1000cf90:	1000f6e1 	.word	0x1000f6e1

1000cf94 <ble_connected_state_handler>:
1000cf94:	b5f0      	push	{r4, r5, r6, r7, lr}
1000cf96:	465f      	mov	r7, fp
1000cf98:	4644      	mov	r4, r8
1000cf9a:	4656      	mov	r6, sl
1000cf9c:	464d      	mov	r5, r9
1000cf9e:	b4f0      	push	{r4, r5, r6, r7}
1000cfa0:	7a87      	ldrb	r7, [r0, #10]
1000cfa2:	b095      	sub	sp, #84	; 0x54
1000cfa4:	0004      	movs	r4, r0
1000cfa6:	2f00      	cmp	r7, #0
1000cfa8:	d008      	beq.n	1000cfbc <ble_connected_state_handler+0x28>
1000cfaa:	2700      	movs	r7, #0
1000cfac:	0038      	movs	r0, r7
1000cfae:	b015      	add	sp, #84	; 0x54
1000cfb0:	bc3c      	pop	{r2, r3, r4, r5}
1000cfb2:	4690      	mov	r8, r2
1000cfb4:	4699      	mov	r9, r3
1000cfb6:	46a2      	mov	sl, r4
1000cfb8:	46ab      	mov	fp, r5
1000cfba:	bdf0      	pop	{r4, r5, r6, r7, pc}
1000cfbc:	0001      	movs	r1, r0
1000cfbe:	2212      	movs	r2, #18
1000cfc0:	4b50      	ldr	r3, [pc, #320]	; (1000d104 <ble_connected_state_handler+0x170>)
1000cfc2:	4851      	ldr	r0, [pc, #324]	; (1000d108 <ble_connected_state_handler+0x174>)
1000cfc4:	4798      	blx	r3
1000cfc6:	4b51      	ldr	r3, [pc, #324]	; (1000d10c <ble_connected_state_handler+0x178>)
1000cfc8:	2207      	movs	r2, #7
1000cfca:	0018      	movs	r0, r3
1000cfcc:	469b      	mov	fp, r3
1000cfce:	4b50      	ldr	r3, [pc, #320]	; (1000d110 <ble_connected_state_handler+0x17c>)
1000cfd0:	0021      	movs	r1, r4
1000cfd2:	4699      	mov	r9, r3
1000cfd4:	4798      	blx	r3
1000cfd6:	4682      	mov	sl, r0
1000cfd8:	2800      	cmp	r0, #0
1000cfda:	d021      	beq.n	1000d020 <ble_connected_state_handler+0x8c>
1000cfdc:	7823      	ldrb	r3, [r4, #0]
1000cfde:	2b02      	cmp	r3, #2
1000cfe0:	d11e      	bne.n	1000d020 <ble_connected_state_handler+0x8c>
1000cfe2:	4b4c      	ldr	r3, [pc, #304]	; (1000d114 <ble_connected_state_handler+0x180>)
1000cfe4:	2250      	movs	r2, #80	; 0x50
1000cfe6:	2100      	movs	r1, #0
1000cfe8:	4668      	mov	r0, sp
1000cfea:	4798      	blx	r3
1000cfec:	2300      	movs	r3, #0
1000cfee:	4e4a      	ldr	r6, [pc, #296]	; (1000d118 <ble_connected_state_handler+0x184>)
1000cff0:	001d      	movs	r5, r3
1000cff2:	0032      	movs	r2, r6
1000cff4:	3510      	adds	r5, #16
1000cff6:	b2ad      	uxth	r5, r5
1000cff8:	466f      	mov	r7, sp
1000cffa:	7810      	ldrb	r0, [r2, #0]
1000cffc:	1c59      	adds	r1, r3, #1
1000cffe:	54f8      	strb	r0, [r7, r3]
1000d000:	b28b      	uxth	r3, r1
1000d002:	3201      	adds	r2, #1
1000d004:	42ab      	cmp	r3, r5
1000d006:	d1f7      	bne.n	1000cff8 <ble_connected_state_handler+0x64>
1000d008:	367c      	adds	r6, #124	; 0x7c
1000d00a:	2b50      	cmp	r3, #80	; 0x50
1000d00c:	d1f0      	bne.n	1000cff0 <ble_connected_state_handler+0x5c>
1000d00e:	466a      	mov	r2, sp
1000d010:	0021      	movs	r1, r4
1000d012:	2005      	movs	r0, #5
1000d014:	4b41      	ldr	r3, [pc, #260]	; (1000d11c <ble_connected_state_handler+0x188>)
1000d016:	4798      	blx	r3
1000d018:	1e07      	subs	r7, r0, #0
1000d01a:	d0c7      	beq.n	1000cfac <ble_connected_state_handler+0x18>
1000d01c:	27e2      	movs	r7, #226	; 0xe2
1000d01e:	e7c5      	b.n	1000cfac <ble_connected_state_handler+0x18>
1000d020:	4b3f      	ldr	r3, [pc, #252]	; (1000d120 <ble_connected_state_handler+0x18c>)
1000d022:	781b      	ldrb	r3, [r3, #0]
1000d024:	2b04      	cmp	r3, #4
1000d026:	d83b      	bhi.n	1000d0a0 <ble_connected_state_handler+0x10c>
1000d028:	4b3e      	ldr	r3, [pc, #248]	; (1000d124 <ble_connected_state_handler+0x190>)
1000d02a:	2600      	movs	r6, #0
1000d02c:	001d      	movs	r5, r3
1000d02e:	46b8      	mov	r8, r7
1000d030:	2207      	movs	r2, #7
1000d032:	0021      	movs	r1, r4
1000d034:	0028      	movs	r0, r5
1000d036:	47c8      	blx	r9
1000d038:	2800      	cmp	r0, #0
1000d03a:	d038      	beq.n	1000d0ae <ble_connected_state_handler+0x11a>
1000d03c:	3601      	adds	r6, #1
1000d03e:	357c      	adds	r5, #124	; 0x7c
1000d040:	2e05      	cmp	r6, #5
1000d042:	d1f5      	bne.n	1000d030 <ble_connected_state_handler+0x9c>
1000d044:	4647      	mov	r7, r8
1000d046:	2500      	movs	r5, #0
1000d048:	4b37      	ldr	r3, [pc, #220]	; (1000d128 <ble_connected_state_handler+0x194>)
1000d04a:	781a      	ldrb	r2, [r3, #0]
1000d04c:	2a00      	cmp	r2, #0
1000d04e:	d03f      	beq.n	1000d0d0 <ble_connected_state_handler+0x13c>
1000d050:	3501      	adds	r5, #1
1000d052:	337c      	adds	r3, #124	; 0x7c
1000d054:	2d05      	cmp	r5, #5
1000d056:	d1f8      	bne.n	1000d04a <ble_connected_state_handler+0xb6>
1000d058:	4653      	mov	r3, sl
1000d05a:	2b00      	cmp	r3, #0
1000d05c:	d10d      	bne.n	1000d07a <ble_connected_state_handler+0xe6>
1000d05e:	016b      	lsls	r3, r5, #5
1000d060:	1b5d      	subs	r5, r3, r5
1000d062:	4b30      	ldr	r3, [pc, #192]	; (1000d124 <ble_connected_state_handler+0x190>)
1000d064:	00ad      	lsls	r5, r5, #2
1000d066:	469c      	mov	ip, r3
1000d068:	2305      	movs	r3, #5
1000d06a:	4465      	add	r5, ip
1000d06c:	74ab      	strb	r3, [r5, #18]
1000d06e:	2207      	movs	r2, #7
1000d070:	2100      	movs	r1, #0
1000d072:	4658      	mov	r0, fp
1000d074:	4b27      	ldr	r3, [pc, #156]	; (1000d114 <ble_connected_state_handler+0x180>)
1000d076:	4798      	blx	r3
1000d078:	e798      	b.n	1000cfac <ble_connected_state_handler+0x18>
1000d07a:	016b      	lsls	r3, r5, #5
1000d07c:	1b5d      	subs	r5, r3, r5
1000d07e:	4b29      	ldr	r3, [pc, #164]	; (1000d124 <ble_connected_state_handler+0x190>)
1000d080:	00ad      	lsls	r5, r5, #2
1000d082:	469c      	mov	ip, r3
1000d084:	230a      	movs	r3, #10
1000d086:	4465      	add	r5, ip
1000d088:	74ab      	strb	r3, [r5, #18]
1000d08a:	2207      	movs	r2, #7
1000d08c:	2100      	movs	r1, #0
1000d08e:	4658      	mov	r0, fp
1000d090:	4b20      	ldr	r3, [pc, #128]	; (1000d114 <ble_connected_state_handler+0x180>)
1000d092:	4798      	blx	r3
1000d094:	8920      	ldrh	r0, [r4, #8]
1000d096:	2200      	movs	r2, #0
1000d098:	2100      	movs	r1, #0
1000d09a:	4b24      	ldr	r3, [pc, #144]	; (1000d12c <ble_connected_state_handler+0x198>)
1000d09c:	4798      	blx	r3
1000d09e:	e785      	b.n	1000cfac <ble_connected_state_handler+0x18>
1000d0a0:	4b1f      	ldr	r3, [pc, #124]	; (1000d120 <ble_connected_state_handler+0x18c>)
1000d0a2:	8920      	ldrh	r0, [r4, #8]
1000d0a4:	781b      	ldrb	r3, [r3, #0]
1000d0a6:	2113      	movs	r1, #19
1000d0a8:	4b21      	ldr	r3, [pc, #132]	; (1000d130 <ble_connected_state_handler+0x19c>)
1000d0aa:	4798      	blx	r3
1000d0ac:	e77e      	b.n	1000cfac <ble_connected_state_handler+0x18>
1000d0ae:	4a1d      	ldr	r2, [pc, #116]	; (1000d124 <ble_connected_state_handler+0x190>)
1000d0b0:	0173      	lsls	r3, r6, #5
1000d0b2:	4694      	mov	ip, r2
1000d0b4:	2202      	movs	r2, #2
1000d0b6:	1b9b      	subs	r3, r3, r6
1000d0b8:	009b      	lsls	r3, r3, #2
1000d0ba:	4463      	add	r3, ip
1000d0bc:	335e      	adds	r3, #94	; 0x5e
1000d0be:	701a      	strb	r2, [r3, #0]
1000d0c0:	0021      	movs	r1, r4
1000d0c2:	3205      	adds	r2, #5
1000d0c4:	4658      	mov	r0, fp
1000d0c6:	47c8      	blx	r9
1000d0c8:	0035      	movs	r5, r6
1000d0ca:	4647      	mov	r7, r8
1000d0cc:	4682      	mov	sl, r0
1000d0ce:	e7c3      	b.n	1000d058 <ble_connected_state_handler+0xc4>
1000d0d0:	4b14      	ldr	r3, [pc, #80]	; (1000d124 <ble_connected_state_handler+0x190>)
1000d0d2:	016e      	lsls	r6, r5, #5
1000d0d4:	469c      	mov	ip, r3
1000d0d6:	1b76      	subs	r6, r6, r5
1000d0d8:	00b6      	lsls	r6, r6, #2
1000d0da:	4466      	add	r6, ip
1000d0dc:	3212      	adds	r2, #18
1000d0de:	0021      	movs	r1, r4
1000d0e0:	0030      	movs	r0, r6
1000d0e2:	4b08      	ldr	r3, [pc, #32]	; (1000d104 <ble_connected_state_handler+0x170>)
1000d0e4:	4798      	blx	r3
1000d0e6:	4b0e      	ldr	r3, [pc, #56]	; (1000d120 <ble_connected_state_handler+0x18c>)
1000d0e8:	4a0d      	ldr	r2, [pc, #52]	; (1000d120 <ble_connected_state_handler+0x18c>)
1000d0ea:	781b      	ldrb	r3, [r3, #0]
1000d0ec:	365e      	adds	r6, #94	; 0x5e
1000d0ee:	3301      	adds	r3, #1
1000d0f0:	b2db      	uxtb	r3, r3
1000d0f2:	7013      	strb	r3, [r2, #0]
1000d0f4:	2302      	movs	r3, #2
1000d0f6:	2207      	movs	r2, #7
1000d0f8:	7033      	strb	r3, [r6, #0]
1000d0fa:	0021      	movs	r1, r4
1000d0fc:	4658      	mov	r0, fp
1000d0fe:	47c8      	blx	r9
1000d100:	4682      	mov	sl, r0
1000d102:	e7a9      	b.n	1000d058 <ble_connected_state_handler+0xc4>
1000d104:	10012fe3 	.word	0x10012fe3
1000d108:	10015598 	.word	0x10015598
1000d10c:	10014db0 	.word	0x10014db0
1000d110:	10012fc5 	.word	0x10012fc5
1000d114:	10012ff5 	.word	0x10012ff5
1000d118:	10015332 	.word	0x10015332
1000d11c:	1000ebfd 	.word	0x1000ebfd
1000d120:	10015558 	.word	0x10015558
1000d124:	100152ec 	.word	0x100152ec
1000d128:	1001534a 	.word	0x1001534a
1000d12c:	1000f75d 	.word	0x1000f75d
1000d130:	1000ebd1 	.word	0x1000ebd1

1000d134 <ble_mtu_changed_indication_handler>:
1000d134:	2000      	movs	r0, #0
1000d136:	4770      	bx	lr

1000d138 <ble_undefined_event_handler>:
1000d138:	2000      	movs	r0, #0
1000d13a:	4770      	bx	lr

1000d13c <ble_mtu_changed_cmd_complete_handler>:
1000d13c:	78c0      	ldrb	r0, [r0, #3]
1000d13e:	2800      	cmp	r0, #0
1000d140:	d000      	beq.n	1000d144 <ble_mtu_changed_cmd_complete_handler+0x8>
1000d142:	20e2      	movs	r0, #226	; 0xe2
1000d144:	4770      	bx	lr
1000d146:	46c0      	nop			; (mov r8, r8)

1000d148 <ble_device_init>:
1000d148:	b5f0      	push	{r4, r5, r6, r7, lr}
1000d14a:	465f      	mov	r7, fp
1000d14c:	4656      	mov	r6, sl
1000d14e:	464d      	mov	r5, r9
1000d150:	4644      	mov	r4, r8
1000d152:	b4f0      	push	{r4, r5, r6, r7}
1000d154:	2700      	movs	r7, #0
1000d156:	4b59      	ldr	r3, [pc, #356]	; (1000d2bc <ble_device_init+0x174>)
1000d158:	b08d      	sub	sp, #52	; 0x34
1000d15a:	4e59      	ldr	r6, [pc, #356]	; (1000d2c0 <ble_device_init+0x178>)
1000d15c:	2207      	movs	r2, #7
1000d15e:	2100      	movs	r1, #0
1000d160:	4680      	mov	r8, r0
1000d162:	4858      	ldr	r0, [pc, #352]	; (1000d2c4 <ble_device_init+0x17c>)
1000d164:	601f      	str	r7, [r3, #0]
1000d166:	47b0      	blx	r6
1000d168:	2212      	movs	r2, #18
1000d16a:	2100      	movs	r1, #0
1000d16c:	4856      	ldr	r0, [pc, #344]	; (1000d2c8 <ble_device_init+0x180>)
1000d16e:	47b0      	blx	r6
1000d170:	4b56      	ldr	r3, [pc, #344]	; (1000d2cc <ble_device_init+0x184>)
1000d172:	4a57      	ldr	r2, [pc, #348]	; (1000d2d0 <ble_device_init+0x188>)
1000d174:	2100      	movs	r1, #0
1000d176:	0018      	movs	r0, r3
1000d178:	469a      	mov	sl, r3
1000d17a:	47b0      	blx	r6
1000d17c:	22cd      	movs	r2, #205	; 0xcd
1000d17e:	4b55      	ldr	r3, [pc, #340]	; (1000d2d4 <ble_device_init+0x18c>)
1000d180:	0092      	lsls	r2, r2, #2
1000d182:	2100      	movs	r1, #0
1000d184:	4854      	ldr	r0, [pc, #336]	; (1000d2d8 <ble_device_init+0x190>)
1000d186:	701f      	strb	r7, [r3, #0]
1000d188:	47b0      	blx	r6
1000d18a:	2283      	movs	r2, #131	; 0x83
1000d18c:	4b53      	ldr	r3, [pc, #332]	; (1000d2dc <ble_device_init+0x194>)
1000d18e:	0092      	lsls	r2, r2, #2
1000d190:	2100      	movs	r1, #0
1000d192:	4853      	ldr	r0, [pc, #332]	; (1000d2e0 <ble_device_init+0x198>)
1000d194:	701f      	strb	r7, [r3, #0]
1000d196:	47b0      	blx	r6
1000d198:	4b52      	ldr	r3, [pc, #328]	; (1000d2e4 <ble_device_init+0x19c>)
1000d19a:	220c      	movs	r2, #12
1000d19c:	0018      	movs	r0, r3
1000d19e:	2100      	movs	r1, #0
1000d1a0:	4699      	mov	r9, r3
1000d1a2:	47b0      	blx	r6
1000d1a4:	4b50      	ldr	r3, [pc, #320]	; (1000d2e8 <ble_device_init+0x1a0>)
1000d1a6:	4d51      	ldr	r5, [pc, #324]	; (1000d2ec <ble_device_init+0x1a4>)
1000d1a8:	601f      	str	r7, [r3, #0]
1000d1aa:	605f      	str	r7, [r3, #4]
1000d1ac:	609f      	str	r7, [r3, #8]
1000d1ae:	60df      	str	r7, [r3, #12]
1000d1b0:	611f      	str	r7, [r3, #16]
1000d1b2:	4b4f      	ldr	r3, [pc, #316]	; (1000d2f0 <ble_device_init+0x1a8>)
1000d1b4:	4c4f      	ldr	r4, [pc, #316]	; (1000d2f4 <ble_device_init+0x1ac>)
1000d1b6:	601f      	str	r7, [r3, #0]
1000d1b8:	4b4f      	ldr	r3, [pc, #316]	; (1000d2f8 <ble_device_init+0x1b0>)
1000d1ba:	602f      	str	r7, [r5, #0]
1000d1bc:	601f      	str	r7, [r3, #0]
1000d1be:	4b4f      	ldr	r3, [pc, #316]	; (1000d2fc <ble_device_init+0x1b4>)
1000d1c0:	606f      	str	r7, [r5, #4]
1000d1c2:	601f      	str	r7, [r3, #0]
1000d1c4:	605f      	str	r7, [r3, #4]
1000d1c6:	609f      	str	r7, [r3, #8]
1000d1c8:	60df      	str	r7, [r3, #12]
1000d1ca:	611f      	str	r7, [r3, #16]
1000d1cc:	4b4c      	ldr	r3, [pc, #304]	; (1000d300 <ble_device_init+0x1b8>)
1000d1ce:	60af      	str	r7, [r5, #8]
1000d1d0:	601f      	str	r7, [r3, #0]
1000d1d2:	239b      	movs	r3, #155	; 0x9b
1000d1d4:	009b      	lsls	r3, r3, #2
1000d1d6:	469b      	mov	fp, r3
1000d1d8:	60ef      	str	r7, [r5, #12]
1000d1da:	612f      	str	r7, [r5, #16]
1000d1dc:	6027      	str	r7, [r4, #0]
1000d1de:	6067      	str	r7, [r4, #4]
1000d1e0:	60a7      	str	r7, [r4, #8]
1000d1e2:	60e7      	str	r7, [r4, #12]
1000d1e4:	6127      	str	r7, [r4, #16]
1000d1e6:	4f47      	ldr	r7, [pc, #284]	; (1000d304 <ble_device_init+0x1bc>)
1000d1e8:	44bb      	add	fp, r7
1000d1ea:	227c      	movs	r2, #124	; 0x7c
1000d1ec:	0038      	movs	r0, r7
1000d1ee:	2100      	movs	r1, #0
1000d1f0:	47b0      	blx	r6
1000d1f2:	003a      	movs	r2, r7
1000d1f4:	2300      	movs	r3, #0
1000d1f6:	325e      	adds	r2, #94	; 0x5e
1000d1f8:	7013      	strb	r3, [r2, #0]
1000d1fa:	2240      	movs	r2, #64	; 0x40
1000d1fc:	763a      	strb	r2, [r7, #24]
1000d1fe:	377c      	adds	r7, #124	; 0x7c
1000d200:	455f      	cmp	r7, fp
1000d202:	d1f2      	bne.n	1000d1ea <ble_device_init+0xa2>
1000d204:	4a40      	ldr	r2, [pc, #256]	; (1000d308 <ble_device_init+0x1c0>)
1000d206:	4648      	mov	r0, r9
1000d208:	7013      	strb	r3, [r2, #0]
1000d20a:	464a      	mov	r2, r9
1000d20c:	4b30      	ldr	r3, [pc, #192]	; (1000d2d0 <ble_device_init+0x188>)
1000d20e:	6053      	str	r3, [r2, #4]
1000d210:	464b      	mov	r3, r9
1000d212:	4652      	mov	r2, sl
1000d214:	601a      	str	r2, [r3, #0]
1000d216:	4b3d      	ldr	r3, [pc, #244]	; (1000d30c <ble_device_init+0x1c4>)
1000d218:	4798      	blx	r3
1000d21a:	2800      	cmp	r0, #0
1000d21c:	d141      	bne.n	1000d2a2 <ble_device_init+0x15a>
1000d21e:	002b      	movs	r3, r5
1000d220:	3314      	adds	r3, #20
1000d222:	682a      	ldr	r2, [r5, #0]
1000d224:	2a00      	cmp	r2, #0
1000d226:	d03d      	beq.n	1000d2a4 <ble_device_init+0x15c>
1000d228:	3504      	adds	r5, #4
1000d22a:	429d      	cmp	r5, r3
1000d22c:	d1f9      	bne.n	1000d222 <ble_device_init+0xda>
1000d22e:	0023      	movs	r3, r4
1000d230:	3314      	adds	r3, #20
1000d232:	6822      	ldr	r2, [r4, #0]
1000d234:	2a00      	cmp	r2, #0
1000d236:	d03d      	beq.n	1000d2b4 <ble_device_init+0x16c>
1000d238:	3404      	adds	r4, #4
1000d23a:	42a3      	cmp	r3, r4
1000d23c:	d1f9      	bne.n	1000d232 <ble_device_init+0xea>
1000d23e:	4b34      	ldr	r3, [pc, #208]	; (1000d310 <ble_device_init+0x1c8>)
1000d240:	2109      	movs	r1, #9
1000d242:	4834      	ldr	r0, [pc, #208]	; (1000d314 <ble_device_init+0x1cc>)
1000d244:	4798      	blx	r3
1000d246:	4934      	ldr	r1, [pc, #208]	; (1000d318 <ble_device_init+0x1d0>)
1000d248:	2207      	movs	r2, #7
1000d24a:	3108      	adds	r1, #8
1000d24c:	4668      	mov	r0, sp
1000d24e:	4d33      	ldr	r5, [pc, #204]	; (1000d31c <ble_device_init+0x1d4>)
1000d250:	ac02      	add	r4, sp, #8
1000d252:	47a8      	blx	r5
1000d254:	2226      	movs	r2, #38	; 0x26
1000d256:	2100      	movs	r1, #0
1000d258:	0020      	movs	r0, r4
1000d25a:	47b0      	blx	r6
1000d25c:	4643      	mov	r3, r8
1000d25e:	2b00      	cmp	r3, #0
1000d260:	d023      	beq.n	1000d2aa <ble_device_init+0x162>
1000d262:	230a      	movs	r3, #10
1000d264:	7023      	strb	r3, [r4, #0]
1000d266:	4b2e      	ldr	r3, [pc, #184]	; (1000d320 <ble_device_init+0x1d8>)
1000d268:	2207      	movs	r2, #7
1000d26a:	4641      	mov	r1, r8
1000d26c:	a803      	add	r0, sp, #12
1000d26e:	8063      	strh	r3, [r4, #2]
1000d270:	47a8      	blx	r5
1000d272:	2300      	movs	r3, #0
1000d274:	76e3      	strb	r3, [r4, #27]
1000d276:	7723      	strb	r3, [r4, #28]
1000d278:	7763      	strb	r3, [r4, #29]
1000d27a:	77a3      	strb	r3, [r4, #30]
1000d27c:	77e3      	strb	r3, [r4, #31]
1000d27e:	8423      	strh	r3, [r4, #32]
1000d280:	8463      	strh	r3, [r4, #34]	; 0x22
1000d282:	2380      	movs	r3, #128	; 0x80
1000d284:	009b      	lsls	r3, r3, #2
1000d286:	84a3      	strh	r3, [r4, #36]	; 0x24
1000d288:	0020      	movs	r0, r4
1000d28a:	4b26      	ldr	r3, [pc, #152]	; (1000d324 <ble_device_init+0x1dc>)
1000d28c:	4798      	blx	r3
1000d28e:	4640      	mov	r0, r8
1000d290:	4b25      	ldr	r3, [pc, #148]	; (1000d328 <ble_device_init+0x1e0>)
1000d292:	4798      	blx	r3
1000d294:	b00d      	add	sp, #52	; 0x34
1000d296:	bc3c      	pop	{r2, r3, r4, r5}
1000d298:	4690      	mov	r8, r2
1000d29a:	4699      	mov	r9, r3
1000d29c:	46a2      	mov	sl, r4
1000d29e:	46ab      	mov	fp, r5
1000d2a0:	bdf0      	pop	{r4, r5, r6, r7, pc}
1000d2a2:	e7fe      	b.n	1000d2a2 <ble_device_init+0x15a>
1000d2a4:	4b21      	ldr	r3, [pc, #132]	; (1000d32c <ble_device_init+0x1e4>)
1000d2a6:	602b      	str	r3, [r5, #0]
1000d2a8:	e7c1      	b.n	1000d22e <ble_device_init+0xe6>
1000d2aa:	4668      	mov	r0, sp
1000d2ac:	4b20      	ldr	r3, [pc, #128]	; (1000d330 <ble_device_init+0x1e8>)
1000d2ae:	4798      	blx	r3
1000d2b0:	46e8      	mov	r8, sp
1000d2b2:	e7d6      	b.n	1000d262 <ble_device_init+0x11a>
1000d2b4:	4b1f      	ldr	r3, [pc, #124]	; (1000d334 <ble_device_init+0x1ec>)
1000d2b6:	6023      	str	r3, [r4, #0]
1000d2b8:	e7c1      	b.n	1000d23e <ble_device_init+0xf6>
1000d2ba:	46c0      	nop			; (mov r8, r8)
1000d2bc:	10014da8 	.word	0x10014da8
1000d2c0:	10012ff5 	.word	0x10012ff5
1000d2c4:	10014db0 	.word	0x10014db0
1000d2c8:	10015598 	.word	0x10015598
1000d2cc:	100148c8 	.word	0x100148c8
1000d2d0:	000004e2 	.word	0x000004e2
1000d2d4:	10014dac 	.word	0x10014dac
1000d2d8:	100155c0 	.word	0x100155c0
1000d2dc:	100155b8 	.word	0x100155b8
1000d2e0:	100158f4 	.word	0x100158f4
1000d2e4:	100155ac 	.word	0x100155ac
1000d2e8:	10015584 	.word	0x10015584
1000d2ec:	10015570 	.word	0x10015570
1000d2f0:	100155bc 	.word	0x100155bc
1000d2f4:	100152d8 	.word	0x100152d8
1000d2f8:	100152d4 	.word	0x100152d4
1000d2fc:	1001555c 	.word	0x1001555c
1000d300:	10015b00 	.word	0x10015b00
1000d304:	100152ec 	.word	0x100152ec
1000d308:	10015558 	.word	0x10015558
1000d30c:	1000e805 	.word	0x1000e805
1000d310:	1000e71d 	.word	0x1000e71d
1000d314:	10014564 	.word	0x10014564
1000d318:	1001452c 	.word	0x1001452c
1000d31c:	10012fe3 	.word	0x10012fe3
1000d320:	00003a98 	.word	0x00003a98
1000d324:	1000e775 	.word	0x1000e775
1000d328:	1000e99d 	.word	0x1000e99d
1000d32c:	1001457c 	.word	0x1001457c
1000d330:	1000e751 	.word	0x1000e751
1000d334:	1001453c 	.word	0x1001453c

1000d338 <ble_mgr_events_callback_handler>:
1000d338:	b530      	push	{r4, r5, lr}
1000d33a:	2300      	movs	r3, #0
1000d33c:	2a00      	cmp	r2, #0
1000d33e:	d001      	beq.n	1000d344 <ble_mgr_events_callback_handler+0xc>
1000d340:	2906      	cmp	r1, #6
1000d342:	d901      	bls.n	1000d348 <ble_mgr_events_callback_handler+0x10>
1000d344:	0018      	movs	r0, r3
1000d346:	bd30      	pop	{r4, r5, pc}
1000d348:	4c1e      	ldr	r4, [pc, #120]	; (1000d3c4 <ble_mgr_events_callback_handler+0x8c>)
1000d34a:	4d1f      	ldr	r5, [pc, #124]	; (1000d3c8 <ble_mgr_events_callback_handler+0x90>)
1000d34c:	5c64      	ldrb	r4, [r4, r1]
1000d34e:	0089      	lsls	r1, r1, #2
1000d350:	5949      	ldr	r1, [r1, r5]
1000d352:	2800      	cmp	r0, #0
1000d354:	d115      	bne.n	1000d382 <ble_mgr_events_callback_handler+0x4a>
1000d356:	2c00      	cmp	r4, #0
1000d358:	d0f4      	beq.n	1000d344 <ble_mgr_events_callback_handler+0xc>
1000d35a:	680b      	ldr	r3, [r1, #0]
1000d35c:	2b00      	cmp	r3, #0
1000d35e:	d028      	beq.n	1000d3b2 <ble_mgr_events_callback_handler+0x7a>
1000d360:	3c01      	subs	r4, #1
1000d362:	b2e4      	uxtb	r4, r4
1000d364:	3401      	adds	r4, #1
1000d366:	00a4      	lsls	r4, r4, #2
1000d368:	1d0b      	adds	r3, r1, #4
1000d36a:	1909      	adds	r1, r1, r4
1000d36c:	e005      	b.n	1000d37a <ble_mgr_events_callback_handler+0x42>
1000d36e:	001c      	movs	r4, r3
1000d370:	3304      	adds	r3, #4
1000d372:	1f18      	subs	r0, r3, #4
1000d374:	6800      	ldr	r0, [r0, #0]
1000d376:	2800      	cmp	r0, #0
1000d378:	d01c      	beq.n	1000d3b4 <ble_mgr_events_callback_handler+0x7c>
1000d37a:	4299      	cmp	r1, r3
1000d37c:	d1f7      	bne.n	1000d36e <ble_mgr_events_callback_handler+0x36>
1000d37e:	2300      	movs	r3, #0
1000d380:	e7e0      	b.n	1000d344 <ble_mgr_events_callback_handler+0xc>
1000d382:	2801      	cmp	r0, #1
1000d384:	d1de      	bne.n	1000d344 <ble_mgr_events_callback_handler+0xc>
1000d386:	2c00      	cmp	r4, #0
1000d388:	d0dc      	beq.n	1000d344 <ble_mgr_events_callback_handler+0xc>
1000d38a:	680b      	ldr	r3, [r1, #0]
1000d38c:	4293      	cmp	r3, r2
1000d38e:	d014      	beq.n	1000d3ba <ble_mgr_events_callback_handler+0x82>
1000d390:	3c01      	subs	r4, #1
1000d392:	b2e4      	uxtb	r4, r4
1000d394:	3401      	adds	r4, #1
1000d396:	00a4      	lsls	r4, r4, #2
1000d398:	1d0b      	adds	r3, r1, #4
1000d39a:	1909      	adds	r1, r1, r4
1000d39c:	e005      	b.n	1000d3aa <ble_mgr_events_callback_handler+0x72>
1000d39e:	001c      	movs	r4, r3
1000d3a0:	3304      	adds	r3, #4
1000d3a2:	1f18      	subs	r0, r3, #4
1000d3a4:	6800      	ldr	r0, [r0, #0]
1000d3a6:	4282      	cmp	r2, r0
1000d3a8:	d008      	beq.n	1000d3bc <ble_mgr_events_callback_handler+0x84>
1000d3aa:	428b      	cmp	r3, r1
1000d3ac:	d1f7      	bne.n	1000d39e <ble_mgr_events_callback_handler+0x66>
1000d3ae:	2300      	movs	r3, #0
1000d3b0:	e7c8      	b.n	1000d344 <ble_mgr_events_callback_handler+0xc>
1000d3b2:	000c      	movs	r4, r1
1000d3b4:	6022      	str	r2, [r4, #0]
1000d3b6:	2301      	movs	r3, #1
1000d3b8:	e7c4      	b.n	1000d344 <ble_mgr_events_callback_handler+0xc>
1000d3ba:	000c      	movs	r4, r1
1000d3bc:	2300      	movs	r3, #0
1000d3be:	6023      	str	r3, [r4, #0]
1000d3c0:	3301      	adds	r3, #1
1000d3c2:	e7bf      	b.n	1000d344 <ble_mgr_events_callback_handler+0xc>
1000d3c4:	100145c8 	.word	0x100145c8
1000d3c8:	100145d0 	.word	0x100145d0

1000d3cc <ble_event_manager>:
1000d3cc:	b5f8      	push	{r3, r4, r5, r6, r7, lr}
1000d3ce:	000d      	movs	r5, r1
1000d3d0:	283b      	cmp	r0, #59	; 0x3b
1000d3d2:	d80f      	bhi.n	1000d3f4 <ble_event_manager+0x28>
1000d3d4:	4b32      	ldr	r3, [pc, #200]	; (1000d4a0 <ble_event_manager+0xd4>)
1000d3d6:	0086      	lsls	r6, r0, #2
1000d3d8:	599b      	ldr	r3, [r3, r6]
1000d3da:	469f      	mov	pc, r3
1000d3dc:	4b31      	ldr	r3, [pc, #196]	; (1000d4a4 <ble_event_manager+0xd8>)
1000d3de:	3838      	subs	r0, #56	; 0x38
1000d3e0:	681b      	ldr	r3, [r3, #0]
1000d3e2:	b2c0      	uxtb	r0, r0
1000d3e4:	2b00      	cmp	r3, #0
1000d3e6:	d005      	beq.n	1000d3f4 <ble_event_manager+0x28>
1000d3e8:	0080      	lsls	r0, r0, #2
1000d3ea:	58c3      	ldr	r3, [r0, r3]
1000d3ec:	2b00      	cmp	r3, #0
1000d3ee:	d001      	beq.n	1000d3f4 <ble_event_manager+0x28>
1000d3f0:	0028      	movs	r0, r5
1000d3f2:	4798      	blx	r3
1000d3f4:	bdf8      	pop	{r3, r4, r5, r6, r7, pc}
1000d3f6:	4b2c      	ldr	r3, [pc, #176]	; (1000d4a8 <ble_event_manager+0xdc>)
1000d3f8:	681b      	ldr	r3, [r3, #0]
1000d3fa:	2b00      	cmp	r3, #0
1000d3fc:	d0fa      	beq.n	1000d3f4 <ble_event_manager+0x28>
1000d3fe:	4798      	blx	r3
1000d400:	e7f8      	b.n	1000d3f4 <ble_event_manager+0x28>
1000d402:	2400      	movs	r4, #0
1000d404:	4f29      	ldr	r7, [pc, #164]	; (1000d4ac <ble_event_manager+0xe0>)
1000d406:	593b      	ldr	r3, [r7, r4]
1000d408:	2b00      	cmp	r3, #0
1000d40a:	d004      	beq.n	1000d416 <ble_event_manager+0x4a>
1000d40c:	599b      	ldr	r3, [r3, r6]
1000d40e:	2b00      	cmp	r3, #0
1000d410:	d001      	beq.n	1000d416 <ble_event_manager+0x4a>
1000d412:	0028      	movs	r0, r5
1000d414:	4798      	blx	r3
1000d416:	3404      	adds	r4, #4
1000d418:	2c14      	cmp	r4, #20
1000d41a:	d1f4      	bne.n	1000d406 <ble_event_manager+0x3a>
1000d41c:	e7ea      	b.n	1000d3f4 <ble_event_manager+0x28>
1000d41e:	2600      	movs	r6, #0
1000d420:	3813      	subs	r0, #19
1000d422:	b2c4      	uxtb	r4, r0
1000d424:	4f22      	ldr	r7, [pc, #136]	; (1000d4b0 <ble_event_manager+0xe4>)
1000d426:	00a4      	lsls	r4, r4, #2
1000d428:	59bb      	ldr	r3, [r7, r6]
1000d42a:	2b00      	cmp	r3, #0
1000d42c:	d004      	beq.n	1000d438 <ble_event_manager+0x6c>
1000d42e:	591b      	ldr	r3, [r3, r4]
1000d430:	2b00      	cmp	r3, #0
1000d432:	d001      	beq.n	1000d438 <ble_event_manager+0x6c>
1000d434:	0028      	movs	r0, r5
1000d436:	4798      	blx	r3
1000d438:	3604      	adds	r6, #4
1000d43a:	2e14      	cmp	r6, #20
1000d43c:	d1f4      	bne.n	1000d428 <ble_event_manager+0x5c>
1000d43e:	e7d9      	b.n	1000d3f4 <ble_event_manager+0x28>
1000d440:	2600      	movs	r6, #0
1000d442:	381d      	subs	r0, #29
1000d444:	b2c4      	uxtb	r4, r0
1000d446:	4f1b      	ldr	r7, [pc, #108]	; (1000d4b4 <ble_event_manager+0xe8>)
1000d448:	00a4      	lsls	r4, r4, #2
1000d44a:	59bb      	ldr	r3, [r7, r6]
1000d44c:	2b00      	cmp	r3, #0
1000d44e:	d004      	beq.n	1000d45a <ble_event_manager+0x8e>
1000d450:	591b      	ldr	r3, [r3, r4]
1000d452:	2b00      	cmp	r3, #0
1000d454:	d001      	beq.n	1000d45a <ble_event_manager+0x8e>
1000d456:	0028      	movs	r0, r5
1000d458:	4798      	blx	r3
1000d45a:	3604      	adds	r6, #4
1000d45c:	2e14      	cmp	r6, #20
1000d45e:	d1f4      	bne.n	1000d44a <ble_event_manager+0x7e>
1000d460:	e7c8      	b.n	1000d3f4 <ble_event_manager+0x28>
1000d462:	4b15      	ldr	r3, [pc, #84]	; (1000d4b8 <ble_event_manager+0xec>)
1000d464:	3827      	subs	r0, #39	; 0x27
1000d466:	681b      	ldr	r3, [r3, #0]
1000d468:	b2c0      	uxtb	r0, r0
1000d46a:	2b00      	cmp	r3, #0
1000d46c:	d1bc      	bne.n	1000d3e8 <ble_event_manager+0x1c>
1000d46e:	e7c1      	b.n	1000d3f4 <ble_event_manager+0x28>
1000d470:	4b12      	ldr	r3, [pc, #72]	; (1000d4bc <ble_event_manager+0xf0>)
1000d472:	382d      	subs	r0, #45	; 0x2d
1000d474:	681b      	ldr	r3, [r3, #0]
1000d476:	b2c0      	uxtb	r0, r0
1000d478:	2b00      	cmp	r3, #0
1000d47a:	d1b5      	bne.n	1000d3e8 <ble_event_manager+0x1c>
1000d47c:	e7ba      	b.n	1000d3f4 <ble_event_manager+0x28>
1000d47e:	2600      	movs	r6, #0
1000d480:	3836      	subs	r0, #54	; 0x36
1000d482:	b2c4      	uxtb	r4, r0
1000d484:	4f0e      	ldr	r7, [pc, #56]	; (1000d4c0 <ble_event_manager+0xf4>)
1000d486:	00a4      	lsls	r4, r4, #2
1000d488:	59bb      	ldr	r3, [r7, r6]
1000d48a:	2b00      	cmp	r3, #0
1000d48c:	d004      	beq.n	1000d498 <ble_event_manager+0xcc>
1000d48e:	591b      	ldr	r3, [r3, r4]
1000d490:	2b00      	cmp	r3, #0
1000d492:	d001      	beq.n	1000d498 <ble_event_manager+0xcc>
1000d494:	0028      	movs	r0, r5
1000d496:	4798      	blx	r3
1000d498:	3604      	adds	r6, #4
1000d49a:	2e14      	cmp	r6, #20
1000d49c:	d1f4      	bne.n	1000d488 <ble_event_manager+0xbc>
1000d49e:	e7a9      	b.n	1000d3f4 <ble_event_manager+0x28>
1000d4a0:	1001443c 	.word	0x1001443c
1000d4a4:	10015b00 	.word	0x10015b00
1000d4a8:	10014da8 	.word	0x10014da8
1000d4ac:	10015570 	.word	0x10015570
1000d4b0:	10015584 	.word	0x10015584
1000d4b4:	100152d8 	.word	0x100152d8
1000d4b8:	100155bc 	.word	0x100155bc
1000d4bc:	100152d4 	.word	0x100152d4
1000d4c0:	1001555c 	.word	0x1001555c

1000d4c4 <ble_event_task>:
1000d4c4:	b570      	push	{r4, r5, r6, lr}
1000d4c6:	4d07      	ldr	r5, [pc, #28]	; (1000d4e4 <ble_event_task+0x20>)
1000d4c8:	4e07      	ldr	r6, [pc, #28]	; (1000d4e8 <ble_event_task+0x24>)
1000d4ca:	0002      	movs	r2, r0
1000d4cc:	0029      	movs	r1, r5
1000d4ce:	0030      	movs	r0, r6
1000d4d0:	4b06      	ldr	r3, [pc, #24]	; (1000d4ec <ble_event_task+0x28>)
1000d4d2:	4798      	blx	r3
1000d4d4:	1e04      	subs	r4, r0, #0
1000d4d6:	d103      	bne.n	1000d4e0 <ble_event_task+0x1c>
1000d4d8:	7830      	ldrb	r0, [r6, #0]
1000d4da:	0029      	movs	r1, r5
1000d4dc:	4b04      	ldr	r3, [pc, #16]	; (1000d4f0 <ble_event_task+0x2c>)
1000d4de:	4798      	blx	r3
1000d4e0:	0020      	movs	r0, r4
1000d4e2:	bd70      	pop	{r4, r5, r6, pc}
1000d4e4:	100158f4 	.word	0x100158f4
1000d4e8:	100155b8 	.word	0x100155b8
1000d4ec:	1000e05d 	.word	0x1000e05d
1000d4f0:	1000d3cd 	.word	0x1000d3cd

1000d4f4 <ble_advertisement_data_set>:
1000d4f4:	b530      	push	{r4, r5, lr}
1000d4f6:	b091      	sub	sp, #68	; 0x44
1000d4f8:	466a      	mov	r2, sp
1000d4fa:	230a      	movs	r3, #10
1000d4fc:	2509      	movs	r5, #9
1000d4fe:	7013      	strb	r3, [r2, #0]
1000d500:	466b      	mov	r3, sp
1000d502:	7055      	strb	r5, [r2, #1]
1000d504:	4c0b      	ldr	r4, [pc, #44]	; (1000d534 <ble_advertisement_data_set+0x40>)
1000d506:	2209      	movs	r2, #9
1000d508:	490b      	ldr	r1, [pc, #44]	; (1000d538 <ble_advertisement_data_set+0x44>)
1000d50a:	1c98      	adds	r0, r3, #2
1000d50c:	47a0      	blx	r4
1000d50e:	466b      	mov	r3, sp
1000d510:	466a      	mov	r2, sp
1000d512:	72dd      	strb	r5, [r3, #11]
1000d514:	200d      	movs	r0, #13
1000d516:	23ff      	movs	r3, #255	; 0xff
1000d518:	4908      	ldr	r1, [pc, #32]	; (1000d53c <ble_advertisement_data_set+0x48>)
1000d51a:	7313      	strb	r3, [r2, #12]
1000d51c:	4468      	add	r0, sp
1000d51e:	2208      	movs	r2, #8
1000d520:	47a0      	blx	r4
1000d522:	2300      	movs	r3, #0
1000d524:	aa08      	add	r2, sp, #32
1000d526:	2115      	movs	r1, #21
1000d528:	4668      	mov	r0, sp
1000d52a:	4c05      	ldr	r4, [pc, #20]	; (1000d540 <ble_advertisement_data_set+0x4c>)
1000d52c:	47a0      	blx	r4
1000d52e:	2000      	movs	r0, #0
1000d530:	b011      	add	sp, #68	; 0x44
1000d532:	bd30      	pop	{r4, r5, pc}
1000d534:	10012fe3 	.word	0x10012fe3
1000d538:	10014564 	.word	0x10014564
1000d53c:	10014570 	.word	0x10014570
1000d540:	1000e9f1 	.word	0x1000e9f1

1000d544 <register_ble_user_event_cb>:
1000d544:	4b01      	ldr	r3, [pc, #4]	; (1000d54c <register_ble_user_event_cb+0x8>)
1000d546:	6018      	str	r0, [r3, #0]
1000d548:	4770      	bx	lr
1000d54a:	46c0      	nop			; (mov r8, r8)
1000d54c:	10014da8 	.word	0x10014da8

1000d550 <uart_read_complete_callback>:
1000d550:	2201      	movs	r2, #1
1000d552:	4b01      	ldr	r3, [pc, #4]	; (1000d558 <uart_read_complete_callback+0x8>)
1000d554:	701a      	strb	r2, [r3, #0]
1000d556:	4770      	bx	lr
1000d558:	10014db7 	.word	0x10014db7

1000d55c <usart_serial_getchar>:
1000d55c:	b570      	push	{r4, r5, r6, lr}
1000d55e:	0006      	movs	r6, r0
1000d560:	000d      	movs	r5, r1
1000d562:	4c03      	ldr	r4, [pc, #12]	; (1000d570 <usart_serial_getchar+0x14>)
1000d564:	0029      	movs	r1, r5
1000d566:	0030      	movs	r0, r6
1000d568:	47a0      	blx	r4
1000d56a:	2800      	cmp	r0, #0
1000d56c:	d1fa      	bne.n	1000d564 <usart_serial_getchar+0x8>
1000d56e:	bd70      	pop	{r4, r5, r6, pc}
1000d570:	1000c7b5 	.word	0x1000c7b5

1000d574 <usart_serial_putchar>:
1000d574:	b570      	push	{r4, r5, r6, lr}
1000d576:	0006      	movs	r6, r0
1000d578:	000d      	movs	r5, r1
1000d57a:	4c03      	ldr	r4, [pc, #12]	; (1000d588 <usart_serial_putchar+0x14>)
1000d57c:	0029      	movs	r1, r5
1000d57e:	0030      	movs	r0, r6
1000d580:	47a0      	blx	r4
1000d582:	2800      	cmp	r0, #0
1000d584:	d1fa      	bne.n	1000d57c <usart_serial_putchar+0x8>
1000d586:	bd70      	pop	{r4, r5, r6, pc}
1000d588:	1000c7a5 	.word	0x1000c7a5

1000d58c <serial_console_init>:
1000d58c:	b570      	push	{r4, r5, r6, lr}
1000d58e:	2100      	movs	r1, #0
1000d590:	4b16      	ldr	r3, [pc, #88]	; (1000d5ec <serial_console_init+0x60>)
1000d592:	2000      	movs	r0, #0
1000d594:	4798      	blx	r3
1000d596:	4c16      	ldr	r4, [pc, #88]	; (1000d5f0 <serial_console_init+0x64>)
1000d598:	4b16      	ldr	r3, [pc, #88]	; (1000d5f4 <serial_console_init+0x68>)
1000d59a:	0020      	movs	r0, r4
1000d59c:	4798      	blx	r3
1000d59e:	23e1      	movs	r3, #225	; 0xe1
1000d5a0:	025b      	lsls	r3, r3, #9
1000d5a2:	6023      	str	r3, [r4, #0]
1000d5a4:	2203      	movs	r2, #3
1000d5a6:	2302      	movs	r3, #2
1000d5a8:	60e2      	str	r2, [r4, #12]
1000d5aa:	60a3      	str	r3, [r4, #8]
1000d5ac:	61a3      	str	r3, [r4, #24]
1000d5ae:	61e3      	str	r3, [r4, #28]
1000d5b0:	6223      	str	r3, [r4, #32]
1000d5b2:	6263      	str	r3, [r4, #36]	; 0x24
1000d5b4:	3201      	adds	r2, #1
1000d5b6:	4b10      	ldr	r3, [pc, #64]	; (1000d5f8 <serial_console_init+0x6c>)
1000d5b8:	4810      	ldr	r0, [pc, #64]	; (1000d5fc <serial_console_init+0x70>)
1000d5ba:	6122      	str	r2, [r4, #16]
1000d5bc:	3201      	adds	r2, #1
1000d5be:	6018      	str	r0, [r3, #0]
1000d5c0:	6162      	str	r2, [r4, #20]
1000d5c2:	4b0f      	ldr	r3, [pc, #60]	; (1000d600 <serial_console_init+0x74>)
1000d5c4:	4a0f      	ldr	r2, [pc, #60]	; (1000d604 <serial_console_init+0x78>)
1000d5c6:	4910      	ldr	r1, [pc, #64]	; (1000d608 <serial_console_init+0x7c>)
1000d5c8:	601a      	str	r2, [r3, #0]
1000d5ca:	4a10      	ldr	r2, [pc, #64]	; (1000d60c <serial_console_init+0x80>)
1000d5cc:	4b10      	ldr	r3, [pc, #64]	; (1000d610 <serial_console_init+0x84>)
1000d5ce:	601a      	str	r2, [r3, #0]
1000d5d0:	0022      	movs	r2, r4
1000d5d2:	4b10      	ldr	r3, [pc, #64]	; (1000d614 <serial_console_init+0x88>)
1000d5d4:	4798      	blx	r3
1000d5d6:	4d10      	ldr	r5, [pc, #64]	; (1000d618 <serial_console_init+0x8c>)
1000d5d8:	4c10      	ldr	r4, [pc, #64]	; (1000d61c <serial_console_init+0x90>)
1000d5da:	682b      	ldr	r3, [r5, #0]
1000d5dc:	2100      	movs	r1, #0
1000d5de:	6898      	ldr	r0, [r3, #8]
1000d5e0:	47a0      	blx	r4
1000d5e2:	682b      	ldr	r3, [r5, #0]
1000d5e4:	2100      	movs	r1, #0
1000d5e6:	6858      	ldr	r0, [r3, #4]
1000d5e8:	47a0      	blx	r4
1000d5ea:	bd70      	pop	{r4, r5, r6, pc}
1000d5ec:	1000b901 	.word	0x1000b901
1000d5f0:	10015b28 	.word	0x10015b28
1000d5f4:	1000c5ed 	.word	0x1000c5ed
1000d5f8:	100152d0 	.word	0x100152d0
1000d5fc:	10015b04 	.word	0x10015b04
1000d600:	100152cc 	.word	0x100152cc
1000d604:	1000d575 	.word	0x1000d575
1000d608:	40004000 	.word	0x40004000
1000d60c:	1000d55d 	.word	0x1000d55d
1000d610:	100152c8 	.word	0x100152c8
1000d614:	1000c619 	.word	0x1000c619
1000d618:	10014880 	.word	0x10014880
1000d61c:	1001320d 	.word	0x1001320d

1000d620 <_time_start>:
1000d620:	b5f0      	push	{r4, r5, r6, r7, lr}
1000d622:	4647      	mov	r7, r8
1000d624:	4c0e      	ldr	r4, [pc, #56]	; (1000d660 <_time_start+0x40>)
1000d626:	b480      	push	{r7}
1000d628:	4680      	mov	r8, r0
1000d62a:	47a0      	blx	r4
1000d62c:	47a0      	blx	r4
1000d62e:	4f0d      	ldr	r7, [pc, #52]	; (1000d664 <_time_start+0x44>)
1000d630:	47b8      	blx	r7
1000d632:	4e0d      	ldr	r6, [pc, #52]	; (1000d668 <_time_start+0x48>)
1000d634:	4a0d      	ldr	r2, [pc, #52]	; (1000d66c <_time_start+0x4c>)
1000d636:	4b0e      	ldr	r3, [pc, #56]	; (1000d670 <_time_start+0x50>)
1000d638:	47b0      	blx	r6
1000d63a:	0004      	movs	r4, r0
1000d63c:	20fa      	movs	r0, #250	; 0xfa
1000d63e:	4643      	mov	r3, r8
1000d640:	0080      	lsls	r0, r0, #2
1000d642:	4358      	muls	r0, r3
1000d644:	000d      	movs	r5, r1
1000d646:	47b8      	blx	r7
1000d648:	0002      	movs	r2, r0
1000d64a:	000b      	movs	r3, r1
1000d64c:	0020      	movs	r0, r4
1000d64e:	0029      	movs	r1, r5
1000d650:	47b0      	blx	r6
1000d652:	4b08      	ldr	r3, [pc, #32]	; (1000d674 <_time_start+0x54>)
1000d654:	4798      	blx	r3
1000d656:	4b08      	ldr	r3, [pc, #32]	; (1000d678 <_time_start+0x58>)
1000d658:	6018      	str	r0, [r3, #0]
1000d65a:	bc04      	pop	{r2}
1000d65c:	4690      	mov	r8, r2
1000d65e:	bdf0      	pop	{r4, r5, r6, r7, pc}
1000d660:	1000b985 	.word	0x1000b985
1000d664:	10012eb9 	.word	0x10012eb9
1000d668:	100122b1 	.word	0x100122b1
1000d66c:	19feaec7 	.word	0x19feaec7
1000d670:	3f09d8ef 	.word	0x3f09d8ef
1000d674:	100116d1 	.word	0x100116d1
1000d678:	10014db8 	.word	0x10014db8

1000d67c <getchar_b11_timeout>:
1000d67c:	b570      	push	{r4, r5, r6, lr}
1000d67e:	2500      	movs	r5, #0
1000d680:	4c18      	ldr	r4, [pc, #96]	; (1000d6e4 <getchar_b11_timeout+0x68>)
1000d682:	4b19      	ldr	r3, [pc, #100]	; (1000d6e8 <getchar_b11_timeout+0x6c>)
1000d684:	7025      	strb	r5, [r4, #0]
1000d686:	4798      	blx	r3
1000d688:	4e18      	ldr	r6, [pc, #96]	; (1000d6ec <getchar_b11_timeout+0x70>)
1000d68a:	2202      	movs	r2, #2
1000d68c:	7035      	strb	r5, [r6, #0]
1000d68e:	4d18      	ldr	r5, [pc, #96]	; (1000d6f0 <getchar_b11_timeout+0x74>)
1000d690:	4918      	ldr	r1, [pc, #96]	; (1000d6f4 <getchar_b11_timeout+0x78>)
1000d692:	0028      	movs	r0, r5
1000d694:	4b18      	ldr	r3, [pc, #96]	; (1000d6f8 <getchar_b11_timeout+0x7c>)
1000d696:	4798      	blx	r3
1000d698:	2102      	movs	r1, #2
1000d69a:	0028      	movs	r0, r5
1000d69c:	4b17      	ldr	r3, [pc, #92]	; (1000d6fc <getchar_b11_timeout+0x80>)
1000d69e:	4798      	blx	r3
1000d6a0:	0031      	movs	r1, r6
1000d6a2:	4b17      	ldr	r3, [pc, #92]	; (1000d700 <getchar_b11_timeout+0x84>)
1000d6a4:	2201      	movs	r2, #1
1000d6a6:	0028      	movs	r0, r5
1000d6a8:	4798      	blx	r3
1000d6aa:	4816      	ldr	r0, [pc, #88]	; (1000d704 <getchar_b11_timeout+0x88>)
1000d6ac:	2100      	movs	r1, #0
1000d6ae:	6803      	ldr	r3, [r0, #0]
1000d6b0:	e003      	b.n	1000d6ba <getchar_b11_timeout+0x3e>
1000d6b2:	3b01      	subs	r3, #1
1000d6b4:	2101      	movs	r1, #1
1000d6b6:	2b00      	cmp	r3, #0
1000d6b8:	d008      	beq.n	1000d6cc <getchar_b11_timeout+0x50>
1000d6ba:	7822      	ldrb	r2, [r4, #0]
1000d6bc:	2a00      	cmp	r2, #0
1000d6be:	d0f8      	beq.n	1000d6b2 <getchar_b11_timeout+0x36>
1000d6c0:	2900      	cmp	r1, #0
1000d6c2:	d10d      	bne.n	1000d6e0 <getchar_b11_timeout+0x64>
1000d6c4:	2b00      	cmp	r3, #0
1000d6c6:	d002      	beq.n	1000d6ce <getchar_b11_timeout+0x52>
1000d6c8:	7830      	ldrb	r0, [r6, #0]
1000d6ca:	bd70      	pop	{r4, r5, r6, pc}
1000d6cc:	6003      	str	r3, [r0, #0]
1000d6ce:	0028      	movs	r0, r5
1000d6d0:	2102      	movs	r1, #2
1000d6d2:	4b0d      	ldr	r3, [pc, #52]	; (1000d708 <getchar_b11_timeout+0x8c>)
1000d6d4:	4798      	blx	r3
1000d6d6:	2102      	movs	r1, #2
1000d6d8:	0028      	movs	r0, r5
1000d6da:	4b0c      	ldr	r3, [pc, #48]	; (1000d70c <getchar_b11_timeout+0x90>)
1000d6dc:	4798      	blx	r3
1000d6de:	e7f3      	b.n	1000d6c8 <getchar_b11_timeout+0x4c>
1000d6e0:	6003      	str	r3, [r0, #0]
1000d6e2:	e7ef      	b.n	1000d6c4 <getchar_b11_timeout+0x48>
1000d6e4:	10014db7 	.word	0x10014db7
1000d6e8:	1000d621 	.word	0x1000d621
1000d6ec:	10014dbc 	.word	0x10014dbc
1000d6f0:	10015b04 	.word	0x10015b04
1000d6f4:	1000d551 	.word	0x1000d551
1000d6f8:	1000c7f1 	.word	0x1000c7f1
1000d6fc:	1000c81d 	.word	0x1000c81d
1000d700:	1000c7c9 	.word	0x1000c7c9
1000d704:	10014db8 	.word	0x10014db8
1000d708:	1000c805 	.word	0x1000c805
1000d70c:	1000c83d 	.word	0x1000c83d

1000d710 <platform_event_post>:
1000d710:	b530      	push	{r4, r5, lr}
1000d712:	4b0c      	ldr	r3, [pc, #48]	; (1000d744 <platform_event_post+0x34>)
1000d714:	681c      	ldr	r4, [r3, #0]
1000d716:	2c00      	cmp	r4, #0
1000d718:	d010      	beq.n	1000d73c <platform_event_post+0x2c>
1000d71a:	6825      	ldr	r5, [r4, #0]
1000d71c:	80e2      	strh	r2, [r4, #6]
1000d71e:	601d      	str	r5, [r3, #0]
1000d720:	2300      	movs	r3, #0
1000d722:	6023      	str	r3, [r4, #0]
1000d724:	4b08      	ldr	r3, [pc, #32]	; (1000d748 <platform_event_post+0x38>)
1000d726:	60a1      	str	r1, [r4, #8]
1000d728:	681a      	ldr	r2, [r3, #0]
1000d72a:	80a0      	strh	r0, [r4, #4]
1000d72c:	2a00      	cmp	r2, #0
1000d72e:	d101      	bne.n	1000d734 <platform_event_post+0x24>
1000d730:	e005      	b.n	1000d73e <platform_event_post+0x2e>
1000d732:	001a      	movs	r2, r3
1000d734:	6813      	ldr	r3, [r2, #0]
1000d736:	2b00      	cmp	r3, #0
1000d738:	d1fb      	bne.n	1000d732 <platform_event_post+0x22>
1000d73a:	6014      	str	r4, [r2, #0]
1000d73c:	bd30      	pop	{r4, r5, pc}
1000d73e:	601c      	str	r4, [r3, #0]
1000d740:	e7fc      	b.n	1000d73c <platform_event_post+0x2c>
1000d742:	46c0      	nop			; (mov r8, r8)
1000d744:	10014dc4 	.word	0x10014dc4
1000d748:	10014dc0 	.word	0x10014dc0

1000d74c <platform_event_init>:
1000d74c:	2200      	movs	r2, #0
1000d74e:	b510      	push	{r4, lr}
1000d750:	4c07      	ldr	r4, [pc, #28]	; (1000d770 <platform_event_init+0x24>)
1000d752:	4b08      	ldr	r3, [pc, #32]	; (1000d774 <platform_event_init+0x28>)
1000d754:	0020      	movs	r0, r4
1000d756:	601a      	str	r2, [r3, #0]
1000d758:	0023      	movs	r3, r4
1000d75a:	3078      	adds	r0, #120	; 0x78
1000d75c:	0019      	movs	r1, r3
1000d75e:	601a      	str	r2, [r3, #0]
1000d760:	330c      	adds	r3, #12
1000d762:	000a      	movs	r2, r1
1000d764:	4283      	cmp	r3, r0
1000d766:	d1f9      	bne.n	1000d75c <platform_event_init+0x10>
1000d768:	4b03      	ldr	r3, [pc, #12]	; (1000d778 <platform_event_init+0x2c>)
1000d76a:	346c      	adds	r4, #108	; 0x6c
1000d76c:	601c      	str	r4, [r3, #0]
1000d76e:	bd10      	pop	{r4, pc}
1000d770:	10014dc8 	.word	0x10014dc8
1000d774:	10014dc0 	.word	0x10014dc0
1000d778:	10014dc4 	.word	0x10014dc4

1000d77c <samb11_plf_resume_callback>:
1000d77c:	b510      	push	{r4, lr}
1000d77e:	4b06      	ldr	r3, [pc, #24]	; (1000d798 <samb11_plf_resume_callback+0x1c>)
1000d780:	4a06      	ldr	r2, [pc, #24]	; (1000d79c <samb11_plf_resume_callback+0x20>)
1000d782:	6819      	ldr	r1, [r3, #0]
1000d784:	6011      	str	r1, [r2, #0]
1000d786:	685a      	ldr	r2, [r3, #4]
1000d788:	4b05      	ldr	r3, [pc, #20]	; (1000d7a0 <samb11_plf_resume_callback+0x24>)
1000d78a:	601a      	str	r2, [r3, #0]
1000d78c:	4b05      	ldr	r3, [pc, #20]	; (1000d7a4 <samb11_plf_resume_callback+0x28>)
1000d78e:	681b      	ldr	r3, [r3, #0]
1000d790:	2b00      	cmp	r3, #0
1000d792:	d000      	beq.n	1000d796 <samb11_plf_resume_callback+0x1a>
1000d794:	4798      	blx	r3
1000d796:	bd10      	pop	{r4, pc}
1000d798:	10015b50 	.word	0x10015b50
1000d79c:	4000b00c 	.word	0x4000b00c
1000d7a0:	4000b010 	.word	0x4000b010
1000d7a4:	10015e24 	.word	0x10015e24

1000d7a8 <at_ke_msg_send>:
1000d7a8:	b510      	push	{r4, lr}
1000d7aa:	4b11      	ldr	r3, [pc, #68]	; (1000d7f0 <at_ke_msg_send+0x48>)
1000d7ac:	681c      	ldr	r4, [r3, #0]
1000d7ae:	4b11      	ldr	r3, [pc, #68]	; (1000d7f4 <at_ke_msg_send+0x4c>)
1000d7b0:	681b      	ldr	r3, [r3, #0]
1000d7b2:	4798      	blx	r3
1000d7b4:	07e3      	lsls	r3, r4, #31
1000d7b6:	d414      	bmi.n	1000d7e2 <at_ke_msg_send+0x3a>
1000d7b8:	4b0f      	ldr	r3, [pc, #60]	; (1000d7f8 <at_ke_msg_send+0x50>)
1000d7ba:	2002      	movs	r0, #2
1000d7bc:	681b      	ldr	r3, [r3, #0]
1000d7be:	4798      	blx	r3
1000d7c0:	4b0e      	ldr	r3, [pc, #56]	; (1000d7fc <at_ke_msg_send+0x54>)
1000d7c2:	681b      	ldr	r3, [r3, #0]
1000d7c4:	4798      	blx	r3
1000d7c6:	4c0e      	ldr	r4, [pc, #56]	; (1000d800 <at_ke_msg_send+0x58>)
1000d7c8:	2003      	movs	r0, #3
1000d7ca:	6823      	ldr	r3, [r4, #0]
1000d7cc:	4798      	blx	r3
1000d7ce:	2800      	cmp	r0, #0
1000d7d0:	d1fa      	bne.n	1000d7c8 <at_ke_msg_send+0x20>
1000d7d2:	4b0c      	ldr	r3, [pc, #48]	; (1000d804 <at_ke_msg_send+0x5c>)
1000d7d4:	3002      	adds	r0, #2
1000d7d6:	681b      	ldr	r3, [r3, #0]
1000d7d8:	4798      	blx	r3
1000d7da:	2201      	movs	r2, #1
1000d7dc:	4b0a      	ldr	r3, [pc, #40]	; (1000d808 <at_ke_msg_send+0x60>)
1000d7de:	601a      	str	r2, [r3, #0]
1000d7e0:	bd10      	pop	{r4, pc}
1000d7e2:	4b0a      	ldr	r3, [pc, #40]	; (1000d80c <at_ke_msg_send+0x64>)
1000d7e4:	6818      	ldr	r0, [r3, #0]
1000d7e6:	4b0a      	ldr	r3, [pc, #40]	; (1000d810 <at_ke_msg_send+0x68>)
1000d7e8:	681b      	ldr	r3, [r3, #0]
1000d7ea:	4798      	blx	r3
1000d7ec:	e7f8      	b.n	1000d7e0 <at_ke_msg_send+0x38>
1000d7ee:	46c0      	nop			; (mov r8, r8)
1000d7f0:	4000b1ec 	.word	0x4000b1ec
1000d7f4:	10014e6c 	.word	0x10014e6c
1000d7f8:	10014e64 	.word	0x10014e64
1000d7fc:	10014e7c 	.word	0x10014e7c
1000d800:	10014e50 	.word	0x10014e50
1000d804:	10014e58 	.word	0x10014e58
1000d808:	4000b020 	.word	0x4000b020
1000d80c:	10014e5c 	.word	0x10014e5c
1000d810:	10014e4c 	.word	0x10014e4c

1000d814 <init_port_list>:
1000d814:	b570      	push	{r4, r5, r6, lr}
1000d816:	4c0f      	ldr	r4, [pc, #60]	; (1000d854 <init_port_list+0x40>)
1000d818:	2100      	movs	r1, #0
1000d81a:	2232      	movs	r2, #50	; 0x32
1000d81c:	0020      	movs	r0, r4
1000d81e:	4b0e      	ldr	r3, [pc, #56]	; (1000d858 <init_port_list+0x44>)
1000d820:	4798      	blx	r3
1000d822:	2601      	movs	r6, #1
1000d824:	2100      	movs	r1, #0
1000d826:	2502      	movs	r5, #2
1000d828:	004a      	lsls	r2, r1, #1
1000d82a:	54a1      	strb	r1, [r4, r2]
1000d82c:	18a2      	adds	r2, r4, r2
1000d82e:	7853      	ldrb	r3, [r2, #1]
1000d830:	3101      	adds	r1, #1
1000d832:	4333      	orrs	r3, r6
1000d834:	b2db      	uxtb	r3, r3
1000d836:	43ab      	bics	r3, r5
1000d838:	2001      	movs	r0, #1
1000d83a:	7053      	strb	r3, [r2, #1]
1000d83c:	2919      	cmp	r1, #25
1000d83e:	d1f3      	bne.n	1000d828 <init_port_list+0x14>
1000d840:	7863      	ldrb	r3, [r4, #1]
1000d842:	4383      	bics	r3, r0
1000d844:	7063      	strb	r3, [r4, #1]
1000d846:	78e3      	ldrb	r3, [r4, #3]
1000d848:	4383      	bics	r3, r0
1000d84a:	70e3      	strb	r3, [r4, #3]
1000d84c:	7f63      	ldrb	r3, [r4, #29]
1000d84e:	4383      	bics	r3, r0
1000d850:	7763      	strb	r3, [r4, #29]
1000d852:	bd70      	pop	{r4, r5, r6, pc}
1000d854:	10015b68 	.word	0x10015b68
1000d858:	10012ff5 	.word	0x10012ff5

1000d85c <platform_driver_init>:
1000d85c:	b5f0      	push	{r4, r5, r6, r7, lr}
1000d85e:	4657      	mov	r7, sl
1000d860:	464e      	mov	r6, r9
1000d862:	4645      	mov	r5, r8
1000d864:	b4e0      	push	{r5, r6, r7}
1000d866:	4c4b      	ldr	r4, [pc, #300]	; (1000d994 <platform_driver_init+0x138>)
1000d868:	7823      	ldrb	r3, [r4, #0]
1000d86a:	2b00      	cmp	r3, #0
1000d86c:	d004      	beq.n	1000d878 <platform_driver_init+0x1c>
1000d86e:	7823      	ldrb	r3, [r4, #0]
1000d870:	b2db      	uxtb	r3, r3
1000d872:	2b01      	cmp	r3, #1
1000d874:	d100      	bne.n	1000d878 <platform_driver_init+0x1c>
1000d876:	e08a      	b.n	1000d98e <platform_driver_init+0x132>
1000d878:	4b47      	ldr	r3, [pc, #284]	; (1000d998 <platform_driver_init+0x13c>)
1000d87a:	4798      	blx	r3
1000d87c:	4a47      	ldr	r2, [pc, #284]	; (1000d99c <platform_driver_init+0x140>)
1000d87e:	4b48      	ldr	r3, [pc, #288]	; (1000d9a0 <platform_driver_init+0x144>)
1000d880:	6811      	ldr	r1, [r2, #0]
1000d882:	4d48      	ldr	r5, [pc, #288]	; (1000d9a4 <platform_driver_init+0x148>)
1000d884:	400b      	ands	r3, r1
1000d886:	6013      	str	r3, [r2, #0]
1000d888:	4a47      	ldr	r2, [pc, #284]	; (1000d9a8 <platform_driver_init+0x14c>)
1000d88a:	4948      	ldr	r1, [pc, #288]	; (1000d9ac <platform_driver_init+0x150>)
1000d88c:	6013      	str	r3, [r2, #0]
1000d88e:	6808      	ldr	r0, [r1, #0]
1000d890:	4b47      	ldr	r3, [pc, #284]	; (1000d9b0 <platform_driver_init+0x154>)
1000d892:	4e48      	ldr	r6, [pc, #288]	; (1000d9b4 <platform_driver_init+0x158>)
1000d894:	4003      	ands	r3, r0
1000d896:	600b      	str	r3, [r1, #0]
1000d898:	6053      	str	r3, [r2, #4]
1000d89a:	2300      	movs	r3, #0
1000d89c:	4698      	mov	r8, r3
1000d89e:	4642      	mov	r2, r8
1000d8a0:	4b45      	ldr	r3, [pc, #276]	; (1000d9b8 <platform_driver_init+0x15c>)
1000d8a2:	4946      	ldr	r1, [pc, #280]	; (1000d9bc <platform_driver_init+0x160>)
1000d8a4:	601a      	str	r2, [r3, #0]
1000d8a6:	2280      	movs	r2, #128	; 0x80
1000d8a8:	2380      	movs	r3, #128	; 0x80
1000d8aa:	0412      	lsls	r2, r2, #16
1000d8ac:	50ea      	str	r2, [r5, r3]
1000d8ae:	4692      	mov	sl, r2
1000d8b0:	2280      	movs	r2, #128	; 0x80
1000d8b2:	0452      	lsls	r2, r2, #17
1000d8b4:	50ea      	str	r2, [r5, r3]
1000d8b6:	4b42      	ldr	r3, [pc, #264]	; (1000d9c0 <platform_driver_init+0x164>)
1000d8b8:	4691      	mov	r9, r2
1000d8ba:	6033      	str	r3, [r6, #0]
1000d8bc:	4a41      	ldr	r2, [pc, #260]	; (1000d9c4 <platform_driver_init+0x168>)
1000d8be:	4b42      	ldr	r3, [pc, #264]	; (1000d9c8 <platform_driver_init+0x16c>)
1000d8c0:	4f42      	ldr	r7, [pc, #264]	; (1000d9cc <platform_driver_init+0x170>)
1000d8c2:	6013      	str	r3, [r2, #0]
1000d8c4:	4a42      	ldr	r2, [pc, #264]	; (1000d9d0 <platform_driver_init+0x174>)
1000d8c6:	2028      	movs	r0, #40	; 0x28
1000d8c8:	6011      	str	r1, [r2, #0]
1000d8ca:	4a42      	ldr	r2, [pc, #264]	; (1000d9d4 <platform_driver_init+0x178>)
1000d8cc:	6811      	ldr	r1, [r2, #0]
1000d8ce:	4a42      	ldr	r2, [pc, #264]	; (1000d9d8 <platform_driver_init+0x17c>)
1000d8d0:	6011      	str	r1, [r2, #0]
1000d8d2:	4a42      	ldr	r2, [pc, #264]	; (1000d9dc <platform_driver_init+0x180>)
1000d8d4:	6811      	ldr	r1, [r2, #0]
1000d8d6:	4a42      	ldr	r2, [pc, #264]	; (1000d9e0 <platform_driver_init+0x184>)
1000d8d8:	6011      	str	r1, [r2, #0]
1000d8da:	4a42      	ldr	r2, [pc, #264]	; (1000d9e4 <platform_driver_init+0x188>)
1000d8dc:	4942      	ldr	r1, [pc, #264]	; (1000d9e8 <platform_driver_init+0x18c>)
1000d8de:	6011      	str	r1, [r2, #0]
1000d8e0:	4a42      	ldr	r2, [pc, #264]	; (1000d9ec <platform_driver_init+0x190>)
1000d8e2:	4943      	ldr	r1, [pc, #268]	; (1000d9f0 <platform_driver_init+0x194>)
1000d8e4:	6011      	str	r1, [r2, #0]
1000d8e6:	4a43      	ldr	r2, [pc, #268]	; (1000d9f4 <platform_driver_init+0x198>)
1000d8e8:	4943      	ldr	r1, [pc, #268]	; (1000d9f8 <platform_driver_init+0x19c>)
1000d8ea:	603a      	str	r2, [r7, #0]
1000d8ec:	4a43      	ldr	r2, [pc, #268]	; (1000d9fc <platform_driver_init+0x1a0>)
1000d8ee:	6011      	str	r1, [r2, #0]
1000d8f0:	4943      	ldr	r1, [pc, #268]	; (1000da00 <platform_driver_init+0x1a4>)
1000d8f2:	4a44      	ldr	r2, [pc, #272]	; (1000da04 <platform_driver_init+0x1a8>)
1000d8f4:	6011      	str	r1, [r2, #0]
1000d8f6:	4a44      	ldr	r2, [pc, #272]	; (1000da08 <platform_driver_init+0x1ac>)
1000d8f8:	4944      	ldr	r1, [pc, #272]	; (1000da0c <platform_driver_init+0x1b0>)
1000d8fa:	6011      	str	r1, [r2, #0]
1000d8fc:	4a44      	ldr	r2, [pc, #272]	; (1000da10 <platform_driver_init+0x1b4>)
1000d8fe:	4945      	ldr	r1, [pc, #276]	; (1000da14 <platform_driver_init+0x1b8>)
1000d900:	6011      	str	r1, [r2, #0]
1000d902:	4a45      	ldr	r2, [pc, #276]	; (1000da18 <platform_driver_init+0x1bc>)
1000d904:	4945      	ldr	r1, [pc, #276]	; (1000da1c <platform_driver_init+0x1c0>)
1000d906:	6011      	str	r1, [r2, #0]
1000d908:	4a45      	ldr	r2, [pc, #276]	; (1000da20 <platform_driver_init+0x1c4>)
1000d90a:	4946      	ldr	r1, [pc, #280]	; (1000da24 <platform_driver_init+0x1c8>)
1000d90c:	6011      	str	r1, [r2, #0]
1000d90e:	4798      	blx	r3
1000d910:	4945      	ldr	r1, [pc, #276]	; (1000da28 <platform_driver_init+0x1cc>)
1000d912:	6833      	ldr	r3, [r6, #0]
1000d914:	2028      	movs	r0, #40	; 0x28
1000d916:	4798      	blx	r3
1000d918:	6833      	ldr	r3, [r6, #0]
1000d91a:	4944      	ldr	r1, [pc, #272]	; (1000da2c <platform_driver_init+0x1d0>)
1000d91c:	2027      	movs	r0, #39	; 0x27
1000d91e:	4798      	blx	r3
1000d920:	4b43      	ldr	r3, [pc, #268]	; (1000da30 <platform_driver_init+0x1d4>)
1000d922:	2100      	movs	r1, #0
1000d924:	681a      	ldr	r2, [r3, #0]
1000d926:	4b43      	ldr	r3, [pc, #268]	; (1000da34 <platform_driver_init+0x1d8>)
1000d928:	4843      	ldr	r0, [pc, #268]	; (1000da38 <platform_driver_init+0x1dc>)
1000d92a:	601a      	str	r2, [r3, #0]
1000d92c:	4b43      	ldr	r3, [pc, #268]	; (1000da3c <platform_driver_init+0x1e0>)
1000d92e:	4a44      	ldr	r2, [pc, #272]	; (1000da40 <platform_driver_init+0x1e4>)
1000d930:	601a      	str	r2, [r3, #0]
1000d932:	4b44      	ldr	r3, [pc, #272]	; (1000da44 <platform_driver_init+0x1e8>)
1000d934:	4a44      	ldr	r2, [pc, #272]	; (1000da48 <platform_driver_init+0x1ec>)
1000d936:	601a      	str	r2, [r3, #0]
1000d938:	4b44      	ldr	r3, [pc, #272]	; (1000da4c <platform_driver_init+0x1f0>)
1000d93a:	4a45      	ldr	r2, [pc, #276]	; (1000da50 <platform_driver_init+0x1f4>)
1000d93c:	601a      	str	r2, [r3, #0]
1000d93e:	4b45      	ldr	r3, [pc, #276]	; (1000da54 <platform_driver_init+0x1f8>)
1000d940:	4a45      	ldr	r2, [pc, #276]	; (1000da58 <platform_driver_init+0x1fc>)
1000d942:	601a      	str	r2, [r3, #0]
1000d944:	4b45      	ldr	r3, [pc, #276]	; (1000da5c <platform_driver_init+0x200>)
1000d946:	4a46      	ldr	r2, [pc, #280]	; (1000da60 <platform_driver_init+0x204>)
1000d948:	601a      	str	r2, [r3, #0]
1000d94a:	4b46      	ldr	r3, [pc, #280]	; (1000da64 <platform_driver_init+0x208>)
1000d94c:	4a46      	ldr	r2, [pc, #280]	; (1000da68 <platform_driver_init+0x20c>)
1000d94e:	601a      	str	r2, [r3, #0]
1000d950:	4b46      	ldr	r3, [pc, #280]	; (1000da6c <platform_driver_init+0x210>)
1000d952:	4a47      	ldr	r2, [pc, #284]	; (1000da70 <platform_driver_init+0x214>)
1000d954:	601a      	str	r2, [r3, #0]
1000d956:	22a0      	movs	r2, #160	; 0xa0
1000d958:	4b46      	ldr	r3, [pc, #280]	; (1000da74 <platform_driver_init+0x218>)
1000d95a:	0092      	lsls	r2, r2, #2
1000d95c:	4798      	blx	r3
1000d95e:	2280      	movs	r2, #128	; 0x80
1000d960:	4b45      	ldr	r3, [pc, #276]	; (1000da78 <platform_driver_init+0x21c>)
1000d962:	0092      	lsls	r2, r2, #2
1000d964:	801a      	strh	r2, [r3, #0]
1000d966:	4b45      	ldr	r3, [pc, #276]	; (1000da7c <platform_driver_init+0x220>)
1000d968:	4798      	blx	r3
1000d96a:	4653      	mov	r3, sl
1000d96c:	602b      	str	r3, [r5, #0]
1000d96e:	464b      	mov	r3, r9
1000d970:	4642      	mov	r2, r8
1000d972:	602b      	str	r3, [r5, #0]
1000d974:	4b42      	ldr	r3, [pc, #264]	; (1000da80 <platform_driver_init+0x224>)
1000d976:	2000      	movs	r0, #0
1000d978:	601a      	str	r2, [r3, #0]
1000d97a:	683b      	ldr	r3, [r7, #0]
1000d97c:	4a41      	ldr	r2, [pc, #260]	; (1000da84 <platform_driver_init+0x228>)
1000d97e:	601a      	str	r2, [r3, #0]
1000d980:	2301      	movs	r3, #1
1000d982:	7023      	strb	r3, [r4, #0]
1000d984:	bc1c      	pop	{r2, r3, r4}
1000d986:	4690      	mov	r8, r2
1000d988:	4699      	mov	r9, r3
1000d98a:	46a2      	mov	sl, r4
1000d98c:	bdf0      	pop	{r4, r5, r6, r7, pc}
1000d98e:	7023      	strb	r3, [r4, #0]
1000d990:	2001      	movs	r0, #1
1000d992:	e7f7      	b.n	1000d984 <platform_driver_init+0x128>
1000d994:	10014e54 	.word	0x10014e54
1000d998:	1000d815 	.word	0x1000d815
1000d99c:	4000b00c 	.word	0x4000b00c
1000d9a0:	fffe0fd3 	.word	0xfffe0fd3
1000d9a4:	e000e100 	.word	0xe000e100
1000d9a8:	10015b50 	.word	0x10015b50
1000d9ac:	4000b010 	.word	0x4000b010
1000d9b0:	ffffe7c0 	.word	0xffffe7c0
1000d9b4:	10015e1c 	.word	0x10015e1c
1000d9b8:	10014e78 	.word	0x10014e78
1000d9bc:	0001bc51 	.word	0x0001bc51
1000d9c0:	000007d7 	.word	0x000007d7
1000d9c4:	10015b5c 	.word	0x10015b5c
1000d9c8:	000007bd 	.word	0x000007bd
1000d9cc:	10015e2c 	.word	0x10015e2c
1000d9d0:	10015e20 	.word	0x10015e20
1000d9d4:	100400bc 	.word	0x100400bc
1000d9d8:	10014e48 	.word	0x10014e48
1000d9dc:	100400b8 	.word	0x100400b8
1000d9e0:	10014e44 	.word	0x10014e44
1000d9e4:	10015b58 	.word	0x10015b58
1000d9e8:	0001b99f 	.word	0x0001b99f
1000d9ec:	10015b60 	.word	0x10015b60
1000d9f0:	0001b9db 	.word	0x0001b9db
1000d9f4:	1004003c 	.word	0x1004003c
1000d9f8:	10041fc0 	.word	0x10041fc0
1000d9fc:	10015b64 	.word	0x10015b64
1000da00:	10041fc4 	.word	0x10041fc4
1000da04:	10015e28 	.word	0x10015e28
1000da08:	10014e64 	.word	0x10014e64
1000da0c:	0001cbe9 	.word	0x0001cbe9
1000da10:	10014e58 	.word	0x10014e58
1000da14:	0001cd8f 	.word	0x0001cd8f
1000da18:	10014e7c 	.word	0x10014e7c
1000da1c:	0001cea3 	.word	0x0001cea3
1000da20:	10014e50 	.word	0x10014e50
1000da24:	0001cbcf 	.word	0x0001cbcf
1000da28:	1000df21 	.word	0x1000df21
1000da2c:	1000dec1 	.word	0x1000dec1
1000da30:	100400e4 	.word	0x100400e4
1000da34:	10014e6c 	.word	0x10014e6c
1000da38:	10015b9c 	.word	0x10015b9c
1000da3c:	10014e80 	.word	0x10014e80
1000da40:	00019fe9 	.word	0x00019fe9
1000da44:	10014e4c 	.word	0x10014e4c
1000da48:	0001dbdd 	.word	0x0001dbdd
1000da4c:	10014e60 	.word	0x10014e60
1000da50:	0001dc5b 	.word	0x0001dc5b
1000da54:	10014e5c 	.word	0x10014e5c
1000da58:	100405ec 	.word	0x100405ec
1000da5c:	10014e68 	.word	0x10014e68
1000da60:	0001d5e3 	.word	0x0001d5e3
1000da64:	10014e84 	.word	0x10014e84
1000da68:	10040c20 	.word	0x10040c20
1000da6c:	10014e40 	.word	0x10014e40
1000da70:	00019f09 	.word	0x00019f09
1000da74:	10012ff5 	.word	0x10012ff5
1000da78:	10015e30 	.word	0x10015e30
1000da7c:	1000d74d 	.word	0x1000d74d
1000da80:	10015e24 	.word	0x10015e24
1000da84:	1000d77d 	.word	0x1000d77d

1000da88 <platform_register_ble_msg_handler>:
1000da88:	4b05      	ldr	r3, [pc, #20]	; (1000daa0 <platform_register_ble_msg_handler+0x18>)
1000da8a:	781a      	ldrb	r2, [r3, #0]
1000da8c:	2305      	movs	r3, #5
1000da8e:	2a01      	cmp	r2, #1
1000da90:	d001      	beq.n	1000da96 <platform_register_ble_msg_handler+0xe>
1000da92:	0018      	movs	r0, r3
1000da94:	4770      	bx	lr
1000da96:	4b03      	ldr	r3, [pc, #12]	; (1000daa4 <platform_register_ble_msg_handler+0x1c>)
1000da98:	6018      	str	r0, [r3, #0]
1000da9a:	2300      	movs	r3, #0
1000da9c:	e7f9      	b.n	1000da92 <platform_register_ble_msg_handler+0xa>
1000da9e:	46c0      	nop			; (mov r8, r8)
1000daa0:	10014e54 	.word	0x10014e54
1000daa4:	10014e78 	.word	0x10014e78

1000daa8 <platform_interface_send>:
1000daa8:	b570      	push	{r4, r5, r6, lr}
1000daaa:	4b0e      	ldr	r3, [pc, #56]	; (1000dae4 <platform_interface_send+0x3c>)
1000daac:	0004      	movs	r4, r0
1000daae:	681b      	ldr	r3, [r3, #0]
1000dab0:	8840      	ldrh	r0, [r0, #2]
1000dab2:	2b00      	cmp	r3, #0
1000dab4:	d014      	beq.n	1000dae0 <platform_interface_send+0x38>
1000dab6:	4798      	blx	r3
1000dab8:	0001      	movs	r1, r0
1000daba:	8060      	strh	r0, [r4, #2]
1000dabc:	4d0a      	ldr	r5, [pc, #40]	; (1000dae8 <platform_interface_send+0x40>)
1000dabe:	88a2      	ldrh	r2, [r4, #4]
1000dac0:	682d      	ldr	r5, [r5, #0]
1000dac2:	88e3      	ldrh	r3, [r4, #6]
1000dac4:	8820      	ldrh	r0, [r4, #0]
1000dac6:	47a8      	blx	r5
1000dac8:	88e2      	ldrh	r2, [r4, #6]
1000daca:	0005      	movs	r5, r0
1000dacc:	2a00      	cmp	r2, #0
1000dace:	d003      	beq.n	1000dad8 <platform_interface_send+0x30>
1000dad0:	0021      	movs	r1, r4
1000dad2:	4b06      	ldr	r3, [pc, #24]	; (1000daec <platform_interface_send+0x44>)
1000dad4:	3108      	adds	r1, #8
1000dad6:	4798      	blx	r3
1000dad8:	0028      	movs	r0, r5
1000dada:	4b05      	ldr	r3, [pc, #20]	; (1000daf0 <platform_interface_send+0x48>)
1000dadc:	4798      	blx	r3
1000dade:	bd70      	pop	{r4, r5, r6, pc}
1000dae0:	0001      	movs	r1, r0
1000dae2:	e7eb      	b.n	1000dabc <platform_interface_send+0x14>
1000dae4:	10014e48 	.word	0x10014e48
1000dae8:	10014e80 	.word	0x10014e80
1000daec:	10012fe3 	.word	0x10012fe3
1000daf0:	1000d7a9 	.word	0x1000d7a9

1000daf4 <send_plf_int_msg_ind>:
1000daf4:	b5f8      	push	{r3, r4, r5, r6, r7, lr}
1000daf6:	001e      	movs	r6, r3
1000daf8:	4b0f      	ldr	r3, [pc, #60]	; (1000db38 <send_plf_int_msg_ind+0x44>)
1000dafa:	0004      	movs	r4, r0
1000dafc:	6818      	ldr	r0, [r3, #0]
1000dafe:	4b0f      	ldr	r3, [pc, #60]	; (1000db3c <send_plf_int_msg_ind+0x48>)
1000db00:	000d      	movs	r5, r1
1000db02:	681b      	ldr	r3, [r3, #0]
1000db04:	0017      	movs	r7, r2
1000db06:	4798      	blx	r3
1000db08:	20a0      	movs	r0, #160	; 0xa0
1000db0a:	4b0d      	ldr	r3, [pc, #52]	; (1000db40 <send_plf_int_msg_ind+0x4c>)
1000db0c:	022a      	lsls	r2, r5, #8
1000db0e:	4322      	orrs	r2, r4
1000db10:	2105      	movs	r1, #5
1000db12:	681c      	ldr	r4, [r3, #0]
1000db14:	00c0      	lsls	r0, r0, #3
1000db16:	0033      	movs	r3, r6
1000db18:	47a0      	blx	r4
1000db1a:	1e04      	subs	r4, r0, #0
1000db1c:	d00a      	beq.n	1000db34 <send_plf_int_msg_ind+0x40>
1000db1e:	2e00      	cmp	r6, #0
1000db20:	d005      	beq.n	1000db2e <send_plf_int_msg_ind+0x3a>
1000db22:	2f00      	cmp	r7, #0
1000db24:	d003      	beq.n	1000db2e <send_plf_int_msg_ind+0x3a>
1000db26:	0032      	movs	r2, r6
1000db28:	0039      	movs	r1, r7
1000db2a:	4b06      	ldr	r3, [pc, #24]	; (1000db44 <send_plf_int_msg_ind+0x50>)
1000db2c:	4798      	blx	r3
1000db2e:	0020      	movs	r0, r4
1000db30:	4b05      	ldr	r3, [pc, #20]	; (1000db48 <send_plf_int_msg_ind+0x54>)
1000db32:	4798      	blx	r3
1000db34:	bdf8      	pop	{r3, r4, r5, r6, r7, pc}
1000db36:	46c0      	nop			; (mov r8, r8)
1000db38:	10014e5c 	.word	0x10014e5c
1000db3c:	10014e4c 	.word	0x10014e4c
1000db40:	10014e80 	.word	0x10014e80
1000db44:	10012fe3 	.word	0x10012fe3
1000db48:	1000d7a9 	.word	0x1000d7a9

1000db4c <platform_event_wait>:
1000db4c:	b5f0      	push	{r4, r5, r6, r7, lr}
1000db4e:	4644      	mov	r4, r8
1000db50:	465f      	mov	r7, fp
1000db52:	4656      	mov	r6, sl
1000db54:	464d      	mov	r5, r9
1000db56:	2300      	movs	r3, #0
1000db58:	b4f0      	push	{r4, r5, r6, r7}
1000db5a:	1e44      	subs	r4, r0, #1
1000db5c:	b089      	sub	sp, #36	; 0x24
1000db5e:	9301      	str	r3, [sp, #4]
1000db60:	1ce3      	adds	r3, r4, #3
1000db62:	d800      	bhi.n	1000db66 <platform_event_wait+0x1a>
1000db64:	e0ea      	b.n	1000dd3c <platform_event_wait+0x1f0>
1000db66:	2300      	movs	r3, #0
1000db68:	4699      	mov	r9, r3
1000db6a:	4b88      	ldr	r3, [pc, #544]	; (1000dd8c <platform_event_wait+0x240>)
1000db6c:	2700      	movs	r7, #0
1000db6e:	4698      	mov	r8, r3
1000db70:	4b87      	ldr	r3, [pc, #540]	; (1000dd90 <platform_event_wait+0x244>)
1000db72:	4d88      	ldr	r5, [pc, #544]	; (1000dd94 <platform_event_wait+0x248>)
1000db74:	469b      	mov	fp, r3
1000db76:	4b88      	ldr	r3, [pc, #544]	; (1000dd98 <platform_event_wait+0x24c>)
1000db78:	4e88      	ldr	r6, [pc, #544]	; (1000dd9c <platform_event_wait+0x250>)
1000db7a:	469a      	mov	sl, r3
1000db7c:	e003      	b.n	1000db86 <platform_event_wait+0x3a>
1000db7e:	464b      	mov	r3, r9
1000db80:	2707      	movs	r7, #7
1000db82:	2b00      	cmp	r3, #0
1000db84:	d052      	beq.n	1000dc2c <platform_event_wait+0xe0>
1000db86:	4643      	mov	r3, r8
1000db88:	0029      	movs	r1, r5
1000db8a:	6830      	ldr	r0, [r6, #0]
1000db8c:	681b      	ldr	r3, [r3, #0]
1000db8e:	4798      	blx	r3
1000db90:	2800      	cmp	r0, #0
1000db92:	d1f4      	bne.n	1000db7e <platform_event_wait+0x32>
1000db94:	682c      	ldr	r4, [r5, #0]
1000db96:	88a3      	ldrh	r3, [r4, #4]
1000db98:	4699      	mov	r9, r3
1000db9a:	23cd      	movs	r3, #205	; 0xcd
1000db9c:	009b      	lsls	r3, r3, #2
1000db9e:	4599      	cmp	r9, r3
1000dba0:	d04f      	beq.n	1000dc42 <platform_event_wait+0xf6>
1000dba2:	8923      	ldrh	r3, [r4, #8]
1000dba4:	9303      	str	r3, [sp, #12]
1000dba6:	8963      	ldrh	r3, [r4, #10]
1000dba8:	9302      	str	r3, [sp, #8]
1000dbaa:	9b01      	ldr	r3, [sp, #4]
1000dbac:	2b00      	cmp	r3, #0
1000dbae:	d000      	beq.n	1000dbb2 <platform_event_wait+0x66>
1000dbb0:	e07b      	b.n	1000dcaa <platform_event_wait+0x15e>
1000dbb2:	23a0      	movs	r3, #160	; 0xa0
1000dbb4:	00db      	lsls	r3, r3, #3
1000dbb6:	4599      	cmp	r9, r3
1000dbb8:	d051      	beq.n	1000dc5e <platform_event_wait+0x112>
1000dbba:	4653      	mov	r3, sl
1000dbbc:	681b      	ldr	r3, [r3, #0]
1000dbbe:	682c      	ldr	r4, [r5, #0]
1000dbc0:	2b00      	cmp	r3, #0
1000dbc2:	d100      	bne.n	1000dbc6 <platform_event_wait+0x7a>
1000dbc4:	e084      	b.n	1000dcd0 <platform_event_wait+0x184>
1000dbc6:	22cd      	movs	r2, #205	; 0xcd
1000dbc8:	88a3      	ldrh	r3, [r4, #4]
1000dbca:	0092      	lsls	r2, r2, #2
1000dbcc:	4293      	cmp	r3, r2
1000dbce:	d03d      	beq.n	1000dc4c <platform_event_wait+0x100>
1000dbd0:	4a73      	ldr	r2, [pc, #460]	; (1000dda0 <platform_event_wait+0x254>)
1000dbd2:	4f74      	ldr	r7, [pc, #464]	; (1000dda4 <platform_event_wait+0x258>)
1000dbd4:	4691      	mov	r9, r2
1000dbd6:	703b      	strb	r3, [r7, #0]
1000dbd8:	0a1b      	lsrs	r3, r3, #8
1000dbda:	707b      	strb	r3, [r7, #1]
1000dbdc:	4b72      	ldr	r3, [pc, #456]	; (1000dda8 <platform_event_wait+0x25c>)
1000dbde:	6017      	str	r7, [r2, #0]
1000dbe0:	8920      	ldrh	r0, [r4, #8]
1000dbe2:	681b      	ldr	r3, [r3, #0]
1000dbe4:	4798      	blx	r3
1000dbe6:	464b      	mov	r3, r9
1000dbe8:	7138      	strb	r0, [r7, #4]
1000dbea:	0a00      	lsrs	r0, r0, #8
1000dbec:	7178      	strb	r0, [r7, #5]
1000dbee:	6818      	ldr	r0, [r3, #0]
1000dbf0:	682b      	ldr	r3, [r5, #0]
1000dbf2:	88db      	ldrh	r3, [r3, #6]
1000dbf4:	8043      	strh	r3, [r0, #2]
1000dbf6:	682c      	ldr	r4, [r5, #0]
1000dbf8:	8963      	ldrh	r3, [r4, #10]
1000dbfa:	80c3      	strh	r3, [r0, #6]
1000dbfc:	464b      	mov	r3, r9
1000dbfe:	3008      	adds	r0, #8
1000dc00:	6018      	str	r0, [r3, #0]
1000dc02:	8962      	ldrh	r2, [r4, #10]
1000dc04:	2a00      	cmp	r2, #0
1000dc06:	d000      	beq.n	1000dc0a <platform_event_wait+0xbe>
1000dc08:	e092      	b.n	1000dd30 <platform_event_wait+0x1e4>
1000dc0a:	4653      	mov	r3, sl
1000dc0c:	3208      	adds	r2, #8
1000dc0e:	0038      	movs	r0, r7
1000dc10:	681b      	ldr	r3, [r3, #0]
1000dc12:	0011      	movs	r1, r2
1000dc14:	4798      	blx	r3
1000dc16:	2300      	movs	r3, #0
1000dc18:	2703      	movs	r7, #3
1000dc1a:	4699      	mov	r9, r3
1000dc1c:	682c      	ldr	r4, [r5, #0]
1000dc1e:	465b      	mov	r3, fp
1000dc20:	0020      	movs	r0, r4
1000dc22:	681b      	ldr	r3, [r3, #0]
1000dc24:	4798      	blx	r3
1000dc26:	464b      	mov	r3, r9
1000dc28:	2b00      	cmp	r3, #0
1000dc2a:	d1ac      	bne.n	1000db86 <platform_event_wait+0x3a>
1000dc2c:	9b01      	ldr	r3, [sp, #4]
1000dc2e:	2b00      	cmp	r3, #0
1000dc30:	d150      	bne.n	1000dcd4 <platform_event_wait+0x188>
1000dc32:	0038      	movs	r0, r7
1000dc34:	b009      	add	sp, #36	; 0x24
1000dc36:	bc3c      	pop	{r2, r3, r4, r5}
1000dc38:	4690      	mov	r8, r2
1000dc3a:	4699      	mov	r9, r3
1000dc3c:	46a2      	mov	sl, r4
1000dc3e:	46ab      	mov	fp, r5
1000dc40:	bdf0      	pop	{r4, r5, r6, r7, pc}
1000dc42:	4b55      	ldr	r3, [pc, #340]	; (1000dd98 <platform_event_wait+0x24c>)
1000dc44:	681b      	ldr	r3, [r3, #0]
1000dc46:	9302      	str	r3, [sp, #8]
1000dc48:	2b00      	cmp	r3, #0
1000dc4a:	d041      	beq.n	1000dcd0 <platform_event_wait+0x184>
1000dc4c:	2301      	movs	r3, #1
1000dc4e:	4699      	mov	r9, r3
1000dc50:	9b01      	ldr	r3, [sp, #4]
1000dc52:	2b00      	cmp	r3, #0
1000dc54:	d0e3      	beq.n	1000dc1e <platform_event_wait+0xd2>
1000dc56:	2300      	movs	r3, #0
1000dc58:	27d0      	movs	r7, #208	; 0xd0
1000dc5a:	4699      	mov	r9, r3
1000dc5c:	e7df      	b.n	1000dc1e <platform_event_wait+0xd2>
1000dc5e:	4b53      	ldr	r3, [pc, #332]	; (1000ddac <platform_event_wait+0x260>)
1000dc60:	881f      	ldrh	r7, [r3, #0]
1000dc62:	4699      	mov	r9, r3
1000dc64:	9b02      	ldr	r3, [sp, #8]
1000dc66:	19da      	adds	r2, r3, r7
1000dc68:	23a0      	movs	r3, #160	; 0xa0
1000dc6a:	009b      	lsls	r3, r3, #2
1000dc6c:	429a      	cmp	r2, r3
1000dc6e:	dd03      	ble.n	1000dc78 <platform_event_wait+0x12c>
1000dc70:	2780      	movs	r7, #128	; 0x80
1000dc72:	464b      	mov	r3, r9
1000dc74:	00bf      	lsls	r7, r7, #2
1000dc76:	801f      	strh	r7, [r3, #0]
1000dc78:	0021      	movs	r1, r4
1000dc7a:	4b4a      	ldr	r3, [pc, #296]	; (1000dda4 <platform_event_wait+0x258>)
1000dc7c:	9c02      	ldr	r4, [sp, #8]
1000dc7e:	18ff      	adds	r7, r7, r3
1000dc80:	0022      	movs	r2, r4
1000dc82:	310c      	adds	r1, #12
1000dc84:	0038      	movs	r0, r7
1000dc86:	4b4a      	ldr	r3, [pc, #296]	; (1000ddb0 <platform_event_wait+0x264>)
1000dc88:	4798      	blx	r3
1000dc8a:	0022      	movs	r2, r4
1000dc8c:	0039      	movs	r1, r7
1000dc8e:	4b49      	ldr	r3, [pc, #292]	; (1000ddb4 <platform_event_wait+0x268>)
1000dc90:	9803      	ldr	r0, [sp, #12]
1000dc92:	4798      	blx	r3
1000dc94:	464b      	mov	r3, r9
1000dc96:	46a4      	mov	ip, r4
1000dc98:	464a      	mov	r2, r9
1000dc9a:	881b      	ldrh	r3, [r3, #0]
1000dc9c:	682c      	ldr	r4, [r5, #0]
1000dc9e:	4463      	add	r3, ip
1000dca0:	8013      	strh	r3, [r2, #0]
1000dca2:	2300      	movs	r3, #0
1000dca4:	2702      	movs	r7, #2
1000dca6:	4699      	mov	r9, r3
1000dca8:	e7b9      	b.n	1000dc1e <platform_event_wait+0xd2>
1000dcaa:	220d      	movs	r2, #13
1000dcac:	2100      	movs	r1, #0
1000dcae:	a804      	add	r0, sp, #16
1000dcb0:	4b41      	ldr	r3, [pc, #260]	; (1000ddb8 <platform_event_wait+0x26c>)
1000dcb2:	4798      	blx	r3
1000dcb4:	2319      	movs	r3, #25
1000dcb6:	aa04      	add	r2, sp, #16
1000dcb8:	7013      	strb	r3, [r2, #0]
1000dcba:	3b16      	subs	r3, #22
1000dcbc:	7053      	strb	r3, [r2, #1]
1000dcbe:	7093      	strb	r3, [r2, #2]
1000dcc0:	3302      	adds	r3, #2
1000dcc2:	7113      	strb	r3, [r2, #4]
1000dcc4:	7193      	strb	r3, [r2, #6]
1000dcc6:	210d      	movs	r1, #13
1000dcc8:	0010      	movs	r0, r2
1000dcca:	4b3c      	ldr	r3, [pc, #240]	; (1000ddbc <platform_event_wait+0x270>)
1000dccc:	4798      	blx	r3
1000dcce:	e770      	b.n	1000dbb2 <platform_event_wait+0x66>
1000dcd0:	4699      	mov	r9, r3
1000dcd2:	e7a4      	b.n	1000dc1e <platform_event_wait+0xd2>
1000dcd4:	6833      	ldr	r3, [r6, #0]
1000dcd6:	4698      	mov	r8, r3
1000dcd8:	2b00      	cmp	r3, #0
1000dcda:	d053      	beq.n	1000dd84 <platform_event_wait+0x238>
1000dcdc:	6a1c      	ldr	r4, [r3, #32]
1000dcde:	2314      	movs	r3, #20
1000dce0:	4443      	add	r3, r8
1000dce2:	469a      	mov	sl, r3
1000dce4:	4b36      	ldr	r3, [pc, #216]	; (1000ddc0 <platform_event_wait+0x274>)
1000dce6:	4650      	mov	r0, sl
1000dce8:	681b      	ldr	r3, [r3, #0]
1000dcea:	4798      	blx	r3
1000dcec:	2500      	movs	r5, #0
1000dcee:	2c00      	cmp	r4, #0
1000dcf0:	d019      	beq.n	1000dd26 <platform_event_wait+0x1da>
1000dcf2:	26cd      	movs	r6, #205	; 0xcd
1000dcf4:	4b26      	ldr	r3, [pc, #152]	; (1000dd90 <platform_event_wait+0x244>)
1000dcf6:	0020      	movs	r0, r4
1000dcf8:	00b6      	lsls	r6, r6, #2
1000dcfa:	469b      	mov	fp, r3
1000dcfc:	4699      	mov	r9, r3
1000dcfe:	4644      	mov	r4, r8
1000dd00:	e003      	b.n	1000dd0a <platform_event_wait+0x1be>
1000dd02:	0005      	movs	r5, r0
1000dd04:	6880      	ldr	r0, [r0, #8]
1000dd06:	2800      	cmp	r0, #0
1000dd08:	d00d      	beq.n	1000dd26 <platform_event_wait+0x1da>
1000dd0a:	6803      	ldr	r3, [r0, #0]
1000dd0c:	889b      	ldrh	r3, [r3, #4]
1000dd0e:	42b3      	cmp	r3, r6
1000dd10:	d1f7      	bne.n	1000dd02 <platform_event_wait+0x1b6>
1000dd12:	6883      	ldr	r3, [r0, #8]
1000dd14:	2d00      	cmp	r5, #0
1000dd16:	d02f      	beq.n	1000dd78 <platform_event_wait+0x22c>
1000dd18:	60ab      	str	r3, [r5, #8]
1000dd1a:	464b      	mov	r3, r9
1000dd1c:	681b      	ldr	r3, [r3, #0]
1000dd1e:	4798      	blx	r3
1000dd20:	68a8      	ldr	r0, [r5, #8]
1000dd22:	2800      	cmp	r0, #0
1000dd24:	d1f1      	bne.n	1000dd0a <platform_event_wait+0x1be>
1000dd26:	4b27      	ldr	r3, [pc, #156]	; (1000ddc4 <platform_event_wait+0x278>)
1000dd28:	4650      	mov	r0, sl
1000dd2a:	681b      	ldr	r3, [r3, #0]
1000dd2c:	4798      	blx	r3
1000dd2e:	e780      	b.n	1000dc32 <platform_event_wait+0xe6>
1000dd30:	0021      	movs	r1, r4
1000dd32:	4b1f      	ldr	r3, [pc, #124]	; (1000ddb0 <platform_event_wait+0x264>)
1000dd34:	310c      	adds	r1, #12
1000dd36:	4798      	blx	r3
1000dd38:	8962      	ldrh	r2, [r4, #10]
1000dd3a:	e766      	b.n	1000dc0a <platform_event_wait+0xbe>
1000dd3c:	220d      	movs	r2, #13
1000dd3e:	2100      	movs	r1, #0
1000dd40:	4b1d      	ldr	r3, [pc, #116]	; (1000ddb8 <platform_event_wait+0x26c>)
1000dd42:	a804      	add	r0, sp, #16
1000dd44:	4798      	blx	r3
1000dd46:	2319      	movs	r3, #25
1000dd48:	aa04      	add	r2, sp, #16
1000dd4a:	7013      	strb	r3, [r2, #0]
1000dd4c:	3b16      	subs	r3, #22
1000dd4e:	7053      	strb	r3, [r2, #1]
1000dd50:	7093      	strb	r3, [r2, #2]
1000dd52:	3302      	adds	r3, #2
1000dd54:	7113      	strb	r3, [r2, #4]
1000dd56:	7193      	strb	r3, [r2, #6]
1000dd58:	0a23      	lsrs	r3, r4, #8
1000dd5a:	7253      	strb	r3, [r2, #9]
1000dd5c:	0c23      	lsrs	r3, r4, #16
1000dd5e:	7293      	strb	r3, [r2, #10]
1000dd60:	2301      	movs	r3, #1
1000dd62:	7214      	strb	r4, [r2, #8]
1000dd64:	7313      	strb	r3, [r2, #12]
1000dd66:	0e24      	lsrs	r4, r4, #24
1000dd68:	4b14      	ldr	r3, [pc, #80]	; (1000ddbc <platform_event_wait+0x270>)
1000dd6a:	210d      	movs	r1, #13
1000dd6c:	0010      	movs	r0, r2
1000dd6e:	72d4      	strb	r4, [r2, #11]
1000dd70:	4798      	blx	r3
1000dd72:	2301      	movs	r3, #1
1000dd74:	9301      	str	r3, [sp, #4]
1000dd76:	e6f6      	b.n	1000db66 <platform_event_wait+0x1a>
1000dd78:	6223      	str	r3, [r4, #32]
1000dd7a:	465b      	mov	r3, fp
1000dd7c:	681b      	ldr	r3, [r3, #0]
1000dd7e:	4798      	blx	r3
1000dd80:	6a20      	ldr	r0, [r4, #32]
1000dd82:	e7c0      	b.n	1000dd06 <platform_event_wait+0x1ba>
1000dd84:	464b      	mov	r3, r9
1000dd86:	6a1b      	ldr	r3, [r3, #32]
1000dd88:	deff      	udf	#255	; 0xff
1000dd8a:	46c0      	nop			; (mov r8, r8)
1000dd8c:	10014e68 	.word	0x10014e68
1000dd90:	10014e40 	.word	0x10014e40
1000dd94:	10014e74 	.word	0x10014e74
1000dd98:	10014e78 	.word	0x10014e78
1000dd9c:	10014e84 	.word	0x10014e84
1000dda0:	10014e70 	.word	0x10014e70
1000dda4:	10015b9c 	.word	0x10015b9c
1000dda8:	10014e44 	.word	0x10014e44
1000ddac:	10015e30 	.word	0x10015e30
1000ddb0:	10012fe3 	.word	0x10012fe3
1000ddb4:	1000d711 	.word	0x1000d711
1000ddb8:	10012ff5 	.word	0x10012ff5
1000ddbc:	1000daa9 	.word	0x1000daa9
1000ddc0:	10014e60 	.word	0x10014e60
1000ddc4:	10014e4c 	.word	0x10014e4c

1000ddc8 <acquire_sleep_lock>:
1000ddc8:	2080      	movs	r0, #128	; 0x80
1000ddca:	b510      	push	{r4, lr}
1000ddcc:	4b11      	ldr	r3, [pc, #68]	; (1000de14 <acquire_sleep_lock+0x4c>)
1000ddce:	0200      	lsls	r0, r0, #8
1000ddd0:	681c      	ldr	r4, [r3, #0]
1000ddd2:	4b11      	ldr	r3, [pc, #68]	; (1000de18 <acquire_sleep_lock+0x50>)
1000ddd4:	681b      	ldr	r3, [r3, #0]
1000ddd6:	4798      	blx	r3
1000ddd8:	07e3      	lsls	r3, r4, #31
1000ddda:	d415      	bmi.n	1000de08 <acquire_sleep_lock+0x40>
1000dddc:	4b0f      	ldr	r3, [pc, #60]	; (1000de1c <acquire_sleep_lock+0x54>)
1000ddde:	2002      	movs	r0, #2
1000dde0:	681b      	ldr	r3, [r3, #0]
1000dde2:	4798      	blx	r3
1000dde4:	4b0e      	ldr	r3, [pc, #56]	; (1000de20 <acquire_sleep_lock+0x58>)
1000dde6:	681b      	ldr	r3, [r3, #0]
1000dde8:	4798      	blx	r3
1000ddea:	4c0e      	ldr	r4, [pc, #56]	; (1000de24 <acquire_sleep_lock+0x5c>)
1000ddec:	2003      	movs	r0, #3
1000ddee:	6823      	ldr	r3, [r4, #0]
1000ddf0:	4798      	blx	r3
1000ddf2:	2800      	cmp	r0, #0
1000ddf4:	d1fa      	bne.n	1000ddec <acquire_sleep_lock+0x24>
1000ddf6:	4b0c      	ldr	r3, [pc, #48]	; (1000de28 <acquire_sleep_lock+0x60>)
1000ddf8:	3002      	adds	r0, #2
1000ddfa:	681b      	ldr	r3, [r3, #0]
1000ddfc:	4798      	blx	r3
1000ddfe:	2201      	movs	r2, #1
1000de00:	4b0a      	ldr	r3, [pc, #40]	; (1000de2c <acquire_sleep_lock+0x64>)
1000de02:	601a      	str	r2, [r3, #0]
1000de04:	2008      	movs	r0, #8
1000de06:	bd10      	pop	{r4, pc}
1000de08:	4b09      	ldr	r3, [pc, #36]	; (1000de30 <acquire_sleep_lock+0x68>)
1000de0a:	6818      	ldr	r0, [r3, #0]
1000de0c:	4b09      	ldr	r3, [pc, #36]	; (1000de34 <acquire_sleep_lock+0x6c>)
1000de0e:	681b      	ldr	r3, [r3, #0]
1000de10:	4798      	blx	r3
1000de12:	e7f7      	b.n	1000de04 <acquire_sleep_lock+0x3c>
1000de14:	4000b1ec 	.word	0x4000b1ec
1000de18:	10015b58 	.word	0x10015b58
1000de1c:	10014e64 	.word	0x10014e64
1000de20:	10014e7c 	.word	0x10014e7c
1000de24:	10014e50 	.word	0x10014e50
1000de28:	10014e58 	.word	0x10014e58
1000de2c:	4000b020 	.word	0x4000b020
1000de30:	10014e5c 	.word	0x10014e5c
1000de34:	10014e4c 	.word	0x10014e4c

1000de38 <release_sleep_lock>:
1000de38:	2080      	movs	r0, #128	; 0x80
1000de3a:	b510      	push	{r4, lr}
1000de3c:	4b02      	ldr	r3, [pc, #8]	; (1000de48 <release_sleep_lock+0x10>)
1000de3e:	0200      	lsls	r0, r0, #8
1000de40:	681b      	ldr	r3, [r3, #0]
1000de42:	4798      	blx	r3
1000de44:	2000      	movs	r0, #0
1000de46:	bd10      	pop	{r4, pc}
1000de48:	10015b60 	.word	0x10015b60

1000de4c <register_resume_callback>:
1000de4c:	2800      	cmp	r0, #0
1000de4e:	d003      	beq.n	1000de58 <register_resume_callback+0xc>
1000de50:	4b02      	ldr	r3, [pc, #8]	; (1000de5c <register_resume_callback+0x10>)
1000de52:	6018      	str	r0, [r3, #0]
1000de54:	2000      	movs	r0, #0
1000de56:	4770      	bx	lr
1000de58:	2009      	movs	r0, #9
1000de5a:	e7fc      	b.n	1000de56 <register_resume_callback+0xa>
1000de5c:	10015e24 	.word	0x10015e24

1000de60 <gpio1_combined_isr_handler>:
1000de60:	4914      	ldr	r1, [pc, #80]	; (1000deb4 <gpio1_combined_isr_handler+0x54>)
1000de62:	4815      	ldr	r0, [pc, #84]	; (1000deb8 <gpio1_combined_isr_handler+0x58>)
1000de64:	8f0b      	ldrh	r3, [r1, #56]	; 0x38
1000de66:	8d0a      	ldrh	r2, [r1, #40]	; 0x28
1000de68:	b29b      	uxth	r3, r3
1000de6a:	4302      	orrs	r2, r0
1000de6c:	b292      	uxth	r2, r2
1000de6e:	850a      	strh	r2, [r1, #40]	; 0x28
1000de70:	05db      	lsls	r3, r3, #23
1000de72:	0ddb      	lsrs	r3, r3, #23
1000de74:	d018      	beq.n	1000dea8 <gpio1_combined_isr_handler+0x48>
1000de76:	b2db      	uxtb	r3, r3
1000de78:	425a      	negs	r2, r3
1000de7a:	4013      	ands	r3, r2
1000de7c:	2b01      	cmp	r3, #1
1000de7e:	d017      	beq.n	1000deb0 <gpio1_combined_isr_handler+0x50>
1000de80:	2200      	movs	r2, #0
1000de82:	3201      	adds	r2, #1
1000de84:	085b      	lsrs	r3, r3, #1
1000de86:	b2d2      	uxtb	r2, r2
1000de88:	2b01      	cmp	r3, #1
1000de8a:	d1fa      	bne.n	1000de82 <gpio1_combined_isr_handler+0x22>
1000de8c:	4093      	lsls	r3, r2
1000de8e:	b29b      	uxth	r3, r3
1000de90:	870b      	strh	r3, [r1, #56]	; 0x38
1000de92:	8f0b      	ldrh	r3, [r1, #56]	; 0x38
1000de94:	05db      	lsls	r3, r3, #23
1000de96:	0ddb      	lsrs	r3, r3, #23
1000de98:	d1ea      	bne.n	1000de70 <gpio1_combined_isr_handler+0x10>
1000de9a:	2180      	movs	r1, #128	; 0x80
1000de9c:	4a07      	ldr	r2, [pc, #28]	; (1000debc <gpio1_combined_isr_handler+0x5c>)
1000de9e:	3381      	adds	r3, #129	; 0x81
1000dea0:	0049      	lsls	r1, r1, #1
1000dea2:	33ff      	adds	r3, #255	; 0xff
1000dea4:	50d1      	str	r1, [r2, r3]
1000dea6:	4770      	bx	lr
1000dea8:	8f0b      	ldrh	r3, [r1, #56]	; 0x38
1000deaa:	4303      	orrs	r3, r0
1000deac:	b29b      	uxth	r3, r3
1000deae:	e7ef      	b.n	1000de90 <gpio1_combined_isr_handler+0x30>
1000deb0:	2301      	movs	r3, #1
1000deb2:	e7ed      	b.n	1000de90 <gpio1_combined_isr_handler+0x30>
1000deb4:	40011000 	.word	0x40011000
1000deb8:	ffff8000 	.word	0xffff8000
1000debc:	e000e100 	.word	0xe000e100

1000dec0 <gpio0_combined_isr_handler>:
1000dec0:	4914      	ldr	r1, [pc, #80]	; (1000df14 <gpio0_combined_isr_handler+0x54>)
1000dec2:	4815      	ldr	r0, [pc, #84]	; (1000df18 <gpio0_combined_isr_handler+0x58>)
1000dec4:	8f0b      	ldrh	r3, [r1, #56]	; 0x38
1000dec6:	8d0a      	ldrh	r2, [r1, #40]	; 0x28
1000dec8:	b29b      	uxth	r3, r3
1000deca:	4302      	orrs	r2, r0
1000decc:	b292      	uxth	r2, r2
1000dece:	850a      	strh	r2, [r1, #40]	; 0x28
1000ded0:	05db      	lsls	r3, r3, #23
1000ded2:	0ddb      	lsrs	r3, r3, #23
1000ded4:	d017      	beq.n	1000df06 <gpio0_combined_isr_handler+0x46>
1000ded6:	b2db      	uxtb	r3, r3
1000ded8:	425a      	negs	r2, r3
1000deda:	4013      	ands	r3, r2
1000dedc:	2b01      	cmp	r3, #1
1000dede:	d016      	beq.n	1000df0e <gpio0_combined_isr_handler+0x4e>
1000dee0:	2200      	movs	r2, #0
1000dee2:	3201      	adds	r2, #1
1000dee4:	085b      	lsrs	r3, r3, #1
1000dee6:	b2d2      	uxtb	r2, r2
1000dee8:	2b01      	cmp	r3, #1
1000deea:	d1fa      	bne.n	1000dee2 <gpio0_combined_isr_handler+0x22>
1000deec:	4093      	lsls	r3, r2
1000deee:	b29b      	uxth	r3, r3
1000def0:	870b      	strh	r3, [r1, #56]	; 0x38
1000def2:	8f0b      	ldrh	r3, [r1, #56]	; 0x38
1000def4:	05db      	lsls	r3, r3, #23
1000def6:	0ddb      	lsrs	r3, r3, #23
1000def8:	d1ea      	bne.n	1000ded0 <gpio0_combined_isr_handler+0x10>
1000defa:	2180      	movs	r1, #128	; 0x80
1000defc:	4a07      	ldr	r2, [pc, #28]	; (1000df1c <gpio0_combined_isr_handler+0x5c>)
1000defe:	3381      	adds	r3, #129	; 0x81
1000df00:	33ff      	adds	r3, #255	; 0xff
1000df02:	50d1      	str	r1, [r2, r3]
1000df04:	4770      	bx	lr
1000df06:	8f0b      	ldrh	r3, [r1, #56]	; 0x38
1000df08:	4303      	orrs	r3, r0
1000df0a:	b29b      	uxth	r3, r3
1000df0c:	e7f0      	b.n	1000def0 <gpio0_combined_isr_handler+0x30>
1000df0e:	2301      	movs	r3, #1
1000df10:	e7ee      	b.n	1000def0 <gpio0_combined_isr_handler+0x30>
1000df12:	46c0      	nop			; (mov r8, r8)
1000df14:	40010000 	.word	0x40010000
1000df18:	ffff8000 	.word	0xffff8000
1000df1c:	e000e100 	.word	0xe000e100

1000df20 <PORT1_COMB_Handler>:
1000df20:	b510      	push	{r4, lr}
1000df22:	4c0b      	ldr	r4, [pc, #44]	; (1000df50 <PORT1_COMB_Handler+0x30>)
1000df24:	8f23      	ldrh	r3, [r4, #56]	; 0x38
1000df26:	0b5b      	lsrs	r3, r3, #13
1000df28:	d102      	bne.n	1000df30 <PORT1_COMB_Handler+0x10>
1000df2a:	4b0a      	ldr	r3, [pc, #40]	; (1000df54 <PORT1_COMB_Handler+0x34>)
1000df2c:	4798      	blx	r3
1000df2e:	bd10      	pop	{r4, pc}
1000df30:	4b09      	ldr	r3, [pc, #36]	; (1000df58 <PORT1_COMB_Handler+0x38>)
1000df32:	681b      	ldr	r3, [r3, #0]
1000df34:	4798      	blx	r3
1000df36:	8f23      	ldrh	r3, [r4, #56]	; 0x38
1000df38:	8f22      	ldrh	r2, [r4, #56]	; 0x38
1000df3a:	0b5b      	lsrs	r3, r3, #13
1000df3c:	035b      	lsls	r3, r3, #13
1000df3e:	4313      	orrs	r3, r2
1000df40:	8723      	strh	r3, [r4, #56]	; 0x38
1000df42:	2180      	movs	r1, #128	; 0x80
1000df44:	23c0      	movs	r3, #192	; 0xc0
1000df46:	4a05      	ldr	r2, [pc, #20]	; (1000df5c <PORT1_COMB_Handler+0x3c>)
1000df48:	0049      	lsls	r1, r1, #1
1000df4a:	005b      	lsls	r3, r3, #1
1000df4c:	50d1      	str	r1, [r2, r3]
1000df4e:	e7ee      	b.n	1000df2e <PORT1_COMB_Handler+0xe>
1000df50:	40011000 	.word	0x40011000
1000df54:	1000de61 	.word	0x1000de61
1000df58:	10015e20 	.word	0x10015e20
1000df5c:	e000e100 	.word	0xe000e100

1000df60 <internal_event_post>:
1000df60:	b570      	push	{r4, r5, r6, lr}
1000df62:	4d0c      	ldr	r5, [pc, #48]	; (1000df94 <internal_event_post+0x34>)
1000df64:	682c      	ldr	r4, [r5, #0]
1000df66:	2c00      	cmp	r4, #0
1000df68:	d013      	beq.n	1000df92 <internal_event_post+0x32>
1000df6a:	6826      	ldr	r6, [r4, #0]
1000df6c:	60e2      	str	r2, [r4, #12]
1000df6e:	602e      	str	r6, [r5, #0]
1000df70:	2500      	movs	r5, #0
1000df72:	4a09      	ldr	r2, [pc, #36]	; (1000df98 <internal_event_post+0x38>)
1000df74:	8123      	strh	r3, [r4, #8]
1000df76:	6813      	ldr	r3, [r2, #0]
1000df78:	6025      	str	r5, [r4, #0]
1000df7a:	80a0      	strh	r0, [r4, #4]
1000df7c:	80e1      	strh	r1, [r4, #6]
1000df7e:	42ab      	cmp	r3, r5
1000df80:	d101      	bne.n	1000df86 <internal_event_post+0x26>
1000df82:	6014      	str	r4, [r2, #0]
1000df84:	e005      	b.n	1000df92 <internal_event_post+0x32>
1000df86:	681a      	ldr	r2, [r3, #0]
1000df88:	2a00      	cmp	r2, #0
1000df8a:	d001      	beq.n	1000df90 <internal_event_post+0x30>
1000df8c:	1c13      	adds	r3, r2, #0
1000df8e:	e7fa      	b.n	1000df86 <internal_event_post+0x26>
1000df90:	601c      	str	r4, [r3, #0]
1000df92:	bd70      	pop	{r4, r5, r6, pc}
1000df94:	10014f2c 	.word	0x10014f2c
1000df98:	10014f28 	.word	0x10014f28

1000df9c <internal_event_init>:
1000df9c:	4b08      	ldr	r3, [pc, #32]	; (1000dfc0 <internal_event_init+0x24>)
1000df9e:	2200      	movs	r2, #0
1000dfa0:	1c19      	adds	r1, r3, #0
1000dfa2:	b510      	push	{r4, lr}
1000dfa4:	6818      	ldr	r0, [r3, #0]
1000dfa6:	4b07      	ldr	r3, [pc, #28]	; (1000dfc4 <internal_event_init+0x28>)
1000dfa8:	189c      	adds	r4, r3, r2
1000dfaa:	50d0      	str	r0, [r2, r3]
1000dfac:	3210      	adds	r2, #16
1000dfae:	1c20      	adds	r0, r4, #0
1000dfb0:	2aa0      	cmp	r2, #160	; 0xa0
1000dfb2:	d1f8      	bne.n	1000dfa6 <internal_event_init+0xa>
1000dfb4:	2200      	movs	r2, #0
1000dfb6:	3390      	adds	r3, #144	; 0x90
1000dfb8:	600b      	str	r3, [r1, #0]
1000dfba:	4b03      	ldr	r3, [pc, #12]	; (1000dfc8 <internal_event_init+0x2c>)
1000dfbc:	601a      	str	r2, [r3, #0]
1000dfbe:	bd10      	pop	{r4, pc}
1000dfc0:	10014f2c 	.word	0x10014f2c
1000dfc4:	10014e88 	.word	0x10014e88
1000dfc8:	10014f28 	.word	0x10014f28

1000dfcc <special_events_handler>:
1000dfcc:	b538      	push	{r3, r4, r5, lr}
1000dfce:	4c1b      	ldr	r4, [pc, #108]	; (1000e03c <special_events_handler+0x70>)
1000dfd0:	1c03      	adds	r3, r0, #0
1000dfd2:	8825      	ldrh	r5, [r4, #0]
1000dfd4:	1c08      	adds	r0, r1, #0
1000dfd6:	1c21      	adds	r1, r4, #0
1000dfd8:	429d      	cmp	r5, r3
1000dfda:	d107      	bne.n	1000dfec <special_events_handler+0x20>
1000dfdc:	88a5      	ldrh	r5, [r4, #4]
1000dfde:	4285      	cmp	r5, r0
1000dfe0:	d104      	bne.n	1000dfec <special_events_handler+0x20>
1000dfe2:	2301      	movs	r3, #1
1000dfe4:	425b      	negs	r3, r3
1000dfe6:	8023      	strh	r3, [r4, #0]
1000dfe8:	60a2      	str	r2, [r4, #8]
1000dfea:	e009      	b.n	1000e000 <special_events_handler+0x34>
1000dfec:	884c      	ldrh	r4, [r1, #2]
1000dfee:	429c      	cmp	r4, r3
1000dff0:	d10a      	bne.n	1000e008 <special_events_handler+0x3c>
1000dff2:	888c      	ldrh	r4, [r1, #4]
1000dff4:	4284      	cmp	r4, r0
1000dff6:	d107      	bne.n	1000e008 <special_events_handler+0x3c>
1000dff8:	2301      	movs	r3, #1
1000dffa:	425b      	negs	r3, r3
1000dffc:	804b      	strh	r3, [r1, #2]
1000dffe:	608a      	str	r2, [r1, #8]
1000e000:	4b0f      	ldr	r3, [pc, #60]	; (1000e040 <special_events_handler+0x74>)
1000e002:	4798      	blx	r3
1000e004:	2001      	movs	r0, #1
1000e006:	e017      	b.n	1000e038 <special_events_handler+0x6c>
1000e008:	490e      	ldr	r1, [pc, #56]	; (1000e044 <special_events_handler+0x78>)
1000e00a:	428b      	cmp	r3, r1
1000e00c:	d00e      	beq.n	1000e02c <special_events_handler+0x60>
1000e00e:	490e      	ldr	r1, [pc, #56]	; (1000e048 <special_events_handler+0x7c>)
1000e010:	428b      	cmp	r3, r1
1000e012:	d007      	beq.n	1000e024 <special_events_handler+0x58>
1000e014:	490d      	ldr	r1, [pc, #52]	; (1000e04c <special_events_handler+0x80>)
1000e016:	2000      	movs	r0, #0
1000e018:	428b      	cmp	r3, r1
1000e01a:	d10d      	bne.n	1000e038 <special_events_handler+0x6c>
1000e01c:	1c10      	adds	r0, r2, #0
1000e01e:	4b0c      	ldr	r3, [pc, #48]	; (1000e050 <special_events_handler+0x84>)
1000e020:	4798      	blx	r3
1000e022:	e7ef      	b.n	1000e004 <special_events_handler+0x38>
1000e024:	1c11      	adds	r1, r2, #0
1000e026:	4b0b      	ldr	r3, [pc, #44]	; (1000e054 <special_events_handler+0x88>)
1000e028:	2200      	movs	r2, #0
1000e02a:	e002      	b.n	1000e032 <special_events_handler+0x66>
1000e02c:	1c11      	adds	r1, r2, #0
1000e02e:	2200      	movs	r2, #0
1000e030:	4b09      	ldr	r3, [pc, #36]	; (1000e058 <special_events_handler+0x8c>)
1000e032:	4798      	blx	r3
1000e034:	4243      	negs	r3, r0
1000e036:	4158      	adcs	r0, r3
1000e038:	bd38      	pop	{r3, r4, r5, pc}
1000e03a:	46c0      	nop			; (mov r8, r8)
1000e03c:	10015e34 	.word	0x10015e34
1000e040:	1000f921 	.word	0x1000f921
1000e044:	00000e13 	.word	0x00000e13
1000e048:	00000e15 	.word	0x00000e15
1000e04c:	00000e01 	.word	0x00000e01
1000e050:	1000fc91 	.word	0x1000fc91
1000e054:	1000fe51 	.word	0x1000fe51
1000e058:	1000ff29 	.word	0x1000ff29

1000e05c <at_ble_event_get>:
1000e05c:	2300      	movs	r3, #0
1000e05e:	b5f0      	push	{r4, r5, r6, r7, lr}
1000e060:	b085      	sub	sp, #20
1000e062:	9202      	str	r2, [sp, #8]
1000e064:	7003      	strb	r3, [r0, #0]
1000e066:	9b02      	ldr	r3, [sp, #8]
1000e068:	9001      	str	r0, [sp, #4]
1000e06a:	3b01      	subs	r3, #1
1000e06c:	1c0d      	adds	r5, r1, #0
1000e06e:	9303      	str	r3, [sp, #12]
1000e070:	3303      	adds	r3, #3
1000e072:	d802      	bhi.n	1000e07a <at_ble_event_get+0x1e>
1000e074:	9802      	ldr	r0, [sp, #8]
1000e076:	4bad      	ldr	r3, [pc, #692]	; (1000e32c <at_ble_event_get+0x2d0>)
1000e078:	4798      	blx	r3
1000e07a:	9b03      	ldr	r3, [sp, #12]
1000e07c:	4fac      	ldr	r7, [pc, #688]	; (1000e330 <at_ble_event_get+0x2d4>)
1000e07e:	2400      	movs	r4, #0
1000e080:	3303      	adds	r3, #3
1000e082:	d812      	bhi.n	1000e0aa <at_ble_event_get+0x4e>
1000e084:	683b      	ldr	r3, [r7, #0]
1000e086:	2b00      	cmp	r3, #0
1000e088:	d112      	bne.n	1000e0b0 <at_ble_event_get+0x54>
1000e08a:	2cd0      	cmp	r4, #208	; 0xd0
1000e08c:	d100      	bne.n	1000e090 <at_ble_event_get+0x34>
1000e08e:	e29c      	b.n	1000e5ca <at_ble_event_get+0x56e>
1000e090:	9802      	ldr	r0, [sp, #8]
1000e092:	4ba8      	ldr	r3, [pc, #672]	; (1000e334 <at_ble_event_get+0x2d8>)
1000e094:	4798      	blx	r3
1000e096:	1e04      	subs	r4, r0, #0
1000e098:	2c02      	cmp	r4, #2
1000e09a:	d1f3      	bne.n	1000e084 <at_ble_event_get+0x28>
1000e09c:	e025      	b.n	1000e0ea <at_ble_event_get+0x8e>
1000e09e:	9802      	ldr	r0, [sp, #8]
1000e0a0:	4ba4      	ldr	r3, [pc, #656]	; (1000e334 <at_ble_event_get+0x2d8>)
1000e0a2:	4798      	blx	r3
1000e0a4:	1e04      	subs	r4, r0, #0
1000e0a6:	2c02      	cmp	r4, #2
1000e0a8:	d01f      	beq.n	1000e0ea <at_ble_event_get+0x8e>
1000e0aa:	683b      	ldr	r3, [r7, #0]
1000e0ac:	2b00      	cmp	r3, #0
1000e0ae:	d0f6      	beq.n	1000e09e <at_ble_event_get+0x42>
1000e0b0:	2cd0      	cmp	r4, #208	; 0xd0
1000e0b2:	d100      	bne.n	1000e0b6 <at_ble_event_get+0x5a>
1000e0b4:	e289      	b.n	1000e5ca <at_ble_event_get+0x56e>
1000e0b6:	1ee3      	subs	r3, r4, #3
1000e0b8:	1e5a      	subs	r2, r3, #1
1000e0ba:	4193      	sbcs	r3, r2
1000e0bc:	6838      	ldr	r0, [r7, #0]
1000e0be:	425b      	negs	r3, r3
1000e0c0:	401c      	ands	r4, r3
1000e0c2:	2800      	cmp	r0, #0
1000e0c4:	d100      	bne.n	1000e0c8 <at_ble_event_get+0x6c>
1000e0c6:	e286      	b.n	1000e5d6 <at_ble_event_get+0x57a>
1000e0c8:	6803      	ldr	r3, [r0, #0]
1000e0ca:	68c1      	ldr	r1, [r0, #12]
1000e0cc:	603b      	str	r3, [r7, #0]
1000e0ce:	4f9a      	ldr	r7, [pc, #616]	; (1000e338 <at_ble_event_get+0x2dc>)
1000e0d0:	88c2      	ldrh	r2, [r0, #6]
1000e0d2:	683e      	ldr	r6, [r7, #0]
1000e0d4:	8883      	ldrh	r3, [r0, #4]
1000e0d6:	6006      	str	r6, [r0, #0]
1000e0d8:	6038      	str	r0, [r7, #0]
1000e0da:	2c00      	cmp	r4, #0
1000e0dc:	d112      	bne.n	1000e104 <at_ble_event_get+0xa8>
1000e0de:	4897      	ldr	r0, [pc, #604]	; (1000e33c <at_ble_event_get+0x2e0>)
1000e0e0:	4283      	cmp	r3, r0
1000e0e2:	d008      	beq.n	1000e0f6 <at_ble_event_get+0x9a>
1000e0e4:	4896      	ldr	r0, [pc, #600]	; (1000e340 <at_ble_event_get+0x2e4>)
1000e0e6:	4283      	cmp	r3, r0
1000e0e8:	d11d      	bne.n	1000e126 <at_ble_event_get+0xca>
1000e0ea:	233a      	movs	r3, #58	; 0x3a
1000e0ec:	2400      	movs	r4, #0
1000e0ee:	9a01      	ldr	r2, [sp, #4]
1000e0f0:	1c25      	adds	r5, r4, #0
1000e0f2:	7013      	strb	r3, [r2, #0]
1000e0f4:	e006      	b.n	1000e104 <at_ble_event_get+0xa8>
1000e0f6:	429a      	cmp	r2, r3
1000e0f8:	d000      	beq.n	1000e0fc <at_ble_event_get+0xa0>
1000e0fa:	e268      	b.n	1000e5ce <at_ble_event_get+0x572>
1000e0fc:	2338      	movs	r3, #56	; 0x38
1000e0fe:	9a01      	ldr	r2, [sp, #4]
1000e100:	7013      	strb	r3, [r2, #0]
1000e102:	6029      	str	r1, [r5, #0]
1000e104:	9b01      	ldr	r3, [sp, #4]
1000e106:	781b      	ldrb	r3, [r3, #0]
1000e108:	2b3b      	cmp	r3, #59	; 0x3b
1000e10a:	d003      	beq.n	1000e114 <at_ble_event_get+0xb8>
1000e10c:	9b03      	ldr	r3, [sp, #12]
1000e10e:	3303      	adds	r3, #3
1000e110:	d903      	bls.n	1000e11a <at_ble_event_get+0xbe>
1000e112:	e264      	b.n	1000e5de <at_ble_event_get+0x582>
1000e114:	2c00      	cmp	r4, #0
1000e116:	d0b0      	beq.n	1000e07a <at_ble_event_get+0x1e>
1000e118:	e7f8      	b.n	1000e10c <at_ble_event_get+0xb0>
1000e11a:	2cd0      	cmp	r4, #208	; 0xd0
1000e11c:	d100      	bne.n	1000e120 <at_ble_event_get+0xc4>
1000e11e:	e25e      	b.n	1000e5de <at_ble_event_get+0x582>
1000e120:	4b88      	ldr	r3, [pc, #544]	; (1000e344 <at_ble_event_get+0x2e8>)
1000e122:	4798      	blx	r3
1000e124:	e25b      	b.n	1000e5de <at_ble_event_get+0x582>
1000e126:	2abb      	cmp	r2, #187	; 0xbb
1000e128:	d123      	bne.n	1000e172 <at_ble_event_get+0x116>
1000e12a:	2bbb      	cmp	r3, #187	; 0xbb
1000e12c:	d121      	bne.n	1000e172 <at_ble_event_get+0x116>
1000e12e:	80ac      	strh	r4, [r5, #4]
1000e130:	788b      	ldrb	r3, [r1, #2]
1000e132:	784a      	ldrb	r2, [r1, #1]
1000e134:	021b      	lsls	r3, r3, #8
1000e136:	78cf      	ldrb	r7, [r1, #3]
1000e138:	7908      	ldrb	r0, [r1, #4]
1000e13a:	4313      	orrs	r3, r2
1000e13c:	794a      	ldrb	r2, [r1, #5]
1000e13e:	4982      	ldr	r1, [pc, #520]	; (1000e348 <at_ble_event_get+0x2ec>)
1000e140:	70af      	strb	r7, [r5, #2]
1000e142:	802b      	strh	r3, [r5, #0]
1000e144:	428b      	cmp	r3, r1
1000e146:	d806      	bhi.n	1000e156 <at_ble_event_get+0xfa>
1000e148:	4a80      	ldr	r2, [pc, #512]	; (1000e34c <at_ble_event_get+0x2f0>)
1000e14a:	4293      	cmp	r3, r2
1000e14c:	d20b      	bcs.n	1000e166 <at_ble_event_get+0x10a>
1000e14e:	4a80      	ldr	r2, [pc, #512]	; (1000e350 <at_ble_event_get+0x2f4>)
1000e150:	4293      	cmp	r3, r2
1000e152:	d008      	beq.n	1000e166 <at_ble_event_get+0x10a>
1000e154:	e009      	b.n	1000e16a <at_ble_event_get+0x10e>
1000e156:	497f      	ldr	r1, [pc, #508]	; (1000e354 <at_ble_event_get+0x2f8>)
1000e158:	428b      	cmp	r3, r1
1000e15a:	d106      	bne.n	1000e16a <at_ble_event_get+0x10e>
1000e15c:	0213      	lsls	r3, r2, #8
1000e15e:	4303      	orrs	r3, r0
1000e160:	80ab      	strh	r3, [r5, #4]
1000e162:	2337      	movs	r3, #55	; 0x37
1000e164:	e002      	b.n	1000e16c <at_ble_event_get+0x110>
1000e166:	2336      	movs	r3, #54	; 0x36
1000e168:	e000      	b.n	1000e16c <at_ble_event_get+0x110>
1000e16a:	2300      	movs	r3, #0
1000e16c:	9a01      	ldr	r2, [sp, #4]
1000e16e:	7013      	strb	r3, [r2, #0]
1000e170:	e7c8      	b.n	1000e104 <at_ble_event_get+0xa8>
1000e172:	4879      	ldr	r0, [pc, #484]	; (1000e358 <at_ble_event_get+0x2fc>)
1000e174:	4283      	cmp	r3, r0
1000e176:	d100      	bne.n	1000e17a <at_ble_event_get+0x11e>
1000e178:	e14c      	b.n	1000e414 <at_ble_event_get+0x3b8>
1000e17a:	d864      	bhi.n	1000e246 <at_ble_event_get+0x1ea>
1000e17c:	4877      	ldr	r0, [pc, #476]	; (1000e35c <at_ble_event_get+0x300>)
1000e17e:	4283      	cmp	r3, r0
1000e180:	d100      	bne.n	1000e184 <at_ble_event_get+0x128>
1000e182:	e1cd      	b.n	1000e520 <at_ble_event_get+0x4c4>
1000e184:	d82f      	bhi.n	1000e1e6 <at_ble_event_get+0x18a>
1000e186:	4876      	ldr	r0, [pc, #472]	; (1000e360 <at_ble_event_get+0x304>)
1000e188:	4283      	cmp	r3, r0
1000e18a:	d100      	bne.n	1000e18e <at_ble_event_get+0x132>
1000e18c:	e1d6      	b.n	1000e53c <at_ble_event_get+0x4e0>
1000e18e:	d813      	bhi.n	1000e1b8 <at_ble_event_get+0x15c>
1000e190:	4874      	ldr	r0, [pc, #464]	; (1000e364 <at_ble_event_get+0x308>)
1000e192:	4283      	cmp	r3, r0
1000e194:	d100      	bne.n	1000e198 <at_ble_event_get+0x13c>
1000e196:	e19f      	b.n	1000e4d8 <at_ble_event_get+0x47c>
1000e198:	d804      	bhi.n	1000e1a4 <at_ble_event_get+0x148>
1000e19a:	2438      	movs	r4, #56	; 0x38
1000e19c:	42a3      	cmp	r3, r4
1000e19e:	d100      	bne.n	1000e1a2 <at_ble_event_get+0x146>
1000e1a0:	e20f      	b.n	1000e5c2 <at_ble_event_get+0x566>
1000e1a2:	e0b6      	b.n	1000e312 <at_ble_event_get+0x2b6>
1000e1a4:	4870      	ldr	r0, [pc, #448]	; (1000e368 <at_ble_event_get+0x30c>)
1000e1a6:	4283      	cmp	r3, r0
1000e1a8:	d100      	bne.n	1000e1ac <at_ble_event_get+0x150>
1000e1aa:	e19b      	b.n	1000e4e4 <at_ble_event_get+0x488>
1000e1ac:	30fe      	adds	r0, #254	; 0xfe
1000e1ae:	30ff      	adds	r0, #255	; 0xff
1000e1b0:	4283      	cmp	r3, r0
1000e1b2:	d100      	bne.n	1000e1b6 <at_ble_event_get+0x15a>
1000e1b4:	e1c8      	b.n	1000e548 <at_ble_event_get+0x4ec>
1000e1b6:	e0ac      	b.n	1000e312 <at_ble_event_get+0x2b6>
1000e1b8:	486c      	ldr	r0, [pc, #432]	; (1000e36c <at_ble_event_get+0x310>)
1000e1ba:	4283      	cmp	r3, r0
1000e1bc:	d100      	bne.n	1000e1c0 <at_ble_event_get+0x164>
1000e1be:	e1a3      	b.n	1000e508 <at_ble_event_get+0x4ac>
1000e1c0:	d808      	bhi.n	1000e1d4 <at_ble_event_get+0x178>
1000e1c2:	486b      	ldr	r0, [pc, #428]	; (1000e370 <at_ble_event_get+0x314>)
1000e1c4:	4283      	cmp	r3, r0
1000e1c6:	d100      	bne.n	1000e1ca <at_ble_event_get+0x16e>
1000e1c8:	e192      	b.n	1000e4f0 <at_ble_event_get+0x494>
1000e1ca:	486a      	ldr	r0, [pc, #424]	; (1000e374 <at_ble_event_get+0x318>)
1000e1cc:	4283      	cmp	r3, r0
1000e1ce:	d100      	bne.n	1000e1d2 <at_ble_event_get+0x176>
1000e1d0:	e194      	b.n	1000e4fc <at_ble_event_get+0x4a0>
1000e1d2:	e09e      	b.n	1000e312 <at_ble_event_get+0x2b6>
1000e1d4:	4868      	ldr	r0, [pc, #416]	; (1000e378 <at_ble_event_get+0x31c>)
1000e1d6:	4283      	cmp	r3, r0
1000e1d8:	d100      	bne.n	1000e1dc <at_ble_event_get+0x180>
1000e1da:	e19b      	b.n	1000e514 <at_ble_event_get+0x4b8>
1000e1dc:	4867      	ldr	r0, [pc, #412]	; (1000e37c <at_ble_event_get+0x320>)
1000e1de:	4283      	cmp	r3, r0
1000e1e0:	d100      	bne.n	1000e1e4 <at_ble_event_get+0x188>
1000e1e2:	e1c5      	b.n	1000e570 <at_ble_event_get+0x514>
1000e1e4:	e095      	b.n	1000e312 <at_ble_event_get+0x2b6>
1000e1e6:	4866      	ldr	r0, [pc, #408]	; (1000e380 <at_ble_event_get+0x324>)
1000e1e8:	4283      	cmp	r3, r0
1000e1ea:	d100      	bne.n	1000e1ee <at_ble_event_get+0x192>
1000e1ec:	e1ba      	b.n	1000e564 <at_ble_event_get+0x508>
1000e1ee:	d812      	bhi.n	1000e216 <at_ble_event_get+0x1ba>
1000e1f0:	4864      	ldr	r0, [pc, #400]	; (1000e384 <at_ble_event_get+0x328>)
1000e1f2:	4283      	cmp	r3, r0
1000e1f4:	d100      	bne.n	1000e1f8 <at_ble_event_get+0x19c>
1000e1f6:	e1c1      	b.n	1000e57c <at_ble_event_get+0x520>
1000e1f8:	d804      	bhi.n	1000e204 <at_ble_event_get+0x1a8>
1000e1fa:	4863      	ldr	r0, [pc, #396]	; (1000e388 <at_ble_event_get+0x32c>)
1000e1fc:	4283      	cmp	r3, r0
1000e1fe:	d100      	bne.n	1000e202 <at_ble_event_get+0x1a6>
1000e200:	e192      	b.n	1000e528 <at_ble_event_get+0x4cc>
1000e202:	e086      	b.n	1000e312 <at_ble_event_get+0x2b6>
1000e204:	4861      	ldr	r0, [pc, #388]	; (1000e38c <at_ble_event_get+0x330>)
1000e206:	4283      	cmp	r3, r0
1000e208:	d100      	bne.n	1000e20c <at_ble_event_get+0x1b0>
1000e20a:	e1a1      	b.n	1000e550 <at_ble_event_get+0x4f4>
1000e20c:	4860      	ldr	r0, [pc, #384]	; (1000e390 <at_ble_event_get+0x334>)
1000e20e:	4283      	cmp	r3, r0
1000e210:	d100      	bne.n	1000e214 <at_ble_event_get+0x1b8>
1000e212:	e1a3      	b.n	1000e55c <at_ble_event_get+0x500>
1000e214:	e07d      	b.n	1000e312 <at_ble_event_get+0x2b6>
1000e216:	4a5f      	ldr	r2, [pc, #380]	; (1000e394 <at_ble_event_get+0x338>)
1000e218:	4293      	cmp	r3, r2
1000e21a:	d100      	bne.n	1000e21e <at_ble_event_get+0x1c2>
1000e21c:	e07f      	b.n	1000e31e <at_ble_event_get+0x2c2>
1000e21e:	d808      	bhi.n	1000e232 <at_ble_event_get+0x1d6>
1000e220:	3a08      	subs	r2, #8
1000e222:	4293      	cmp	r3, r2
1000e224:	d077      	beq.n	1000e316 <at_ble_event_get+0x2ba>
1000e226:	4a5c      	ldr	r2, [pc, #368]	; (1000e398 <at_ble_event_get+0x33c>)
1000e228:	2439      	movs	r4, #57	; 0x39
1000e22a:	4293      	cmp	r3, r2
1000e22c:	d100      	bne.n	1000e230 <at_ble_event_get+0x1d4>
1000e22e:	e1c8      	b.n	1000e5c2 <at_ble_event_get+0x566>
1000e230:	e06f      	b.n	1000e312 <at_ble_event_get+0x2b6>
1000e232:	22d1      	movs	r2, #209	; 0xd1
1000e234:	0112      	lsls	r2, r2, #4
1000e236:	4293      	cmp	r3, r2
1000e238:	d100      	bne.n	1000e23c <at_ble_event_get+0x1e0>
1000e23a:	e0df      	b.n	1000e3fc <at_ble_event_get+0x3a0>
1000e23c:	4a57      	ldr	r2, [pc, #348]	; (1000e39c <at_ble_event_get+0x340>)
1000e23e:	4293      	cmp	r3, r2
1000e240:	d100      	bne.n	1000e244 <at_ble_event_get+0x1e8>
1000e242:	e0e1      	b.n	1000e408 <at_ble_event_get+0x3ac>
1000e244:	e065      	b.n	1000e312 <at_ble_event_get+0x2b6>
1000e246:	4856      	ldr	r0, [pc, #344]	; (1000e3a0 <at_ble_event_get+0x344>)
1000e248:	4283      	cmp	r3, r0
1000e24a:	d100      	bne.n	1000e24e <at_ble_event_get+0x1f2>
1000e24c:	e118      	b.n	1000e480 <at_ble_event_get+0x424>
1000e24e:	d82e      	bhi.n	1000e2ae <at_ble_event_get+0x252>
1000e250:	4854      	ldr	r0, [pc, #336]	; (1000e3a4 <at_ble_event_get+0x348>)
1000e252:	4283      	cmp	r3, r0
1000e254:	d100      	bne.n	1000e258 <at_ble_event_get+0x1fc>
1000e256:	e13b      	b.n	1000e4d0 <at_ble_event_get+0x474>
1000e258:	d812      	bhi.n	1000e280 <at_ble_event_get+0x224>
1000e25a:	4853      	ldr	r0, [pc, #332]	; (1000e3a8 <at_ble_event_get+0x34c>)
1000e25c:	4283      	cmp	r3, r0
1000e25e:	d100      	bne.n	1000e262 <at_ble_event_get+0x206>
1000e260:	e0ee      	b.n	1000e440 <at_ble_event_get+0x3e4>
1000e262:	d804      	bhi.n	1000e26e <at_ble_event_get+0x212>
1000e264:	3803      	subs	r0, #3
1000e266:	4283      	cmp	r3, r0
1000e268:	d100      	bne.n	1000e26c <at_ble_event_get+0x210>
1000e26a:	e0d9      	b.n	1000e420 <at_ble_event_get+0x3c4>
1000e26c:	e051      	b.n	1000e312 <at_ble_event_get+0x2b6>
1000e26e:	484f      	ldr	r0, [pc, #316]	; (1000e3ac <at_ble_event_get+0x350>)
1000e270:	4283      	cmp	r3, r0
1000e272:	d100      	bne.n	1000e276 <at_ble_event_get+0x21a>
1000e274:	e0d8      	b.n	1000e428 <at_ble_event_get+0x3cc>
1000e276:	484e      	ldr	r0, [pc, #312]	; (1000e3b0 <at_ble_event_get+0x354>)
1000e278:	4283      	cmp	r3, r0
1000e27a:	d100      	bne.n	1000e27e <at_ble_event_get+0x222>
1000e27c:	e0fb      	b.n	1000e476 <at_ble_event_get+0x41a>
1000e27e:	e048      	b.n	1000e312 <at_ble_event_get+0x2b6>
1000e280:	484c      	ldr	r0, [pc, #304]	; (1000e3b4 <at_ble_event_get+0x358>)
1000e282:	4283      	cmp	r3, r0
1000e284:	d100      	bne.n	1000e288 <at_ble_event_get+0x22c>
1000e286:	e0e1      	b.n	1000e44c <at_ble_event_get+0x3f0>
1000e288:	d808      	bhi.n	1000e29c <at_ble_event_get+0x240>
1000e28a:	484b      	ldr	r0, [pc, #300]	; (1000e3b8 <at_ble_event_get+0x35c>)
1000e28c:	4283      	cmp	r3, r0
1000e28e:	d100      	bne.n	1000e292 <at_ble_event_get+0x236>
1000e290:	e11a      	b.n	1000e4c8 <at_ble_event_get+0x46c>
1000e292:	484a      	ldr	r0, [pc, #296]	; (1000e3bc <at_ble_event_get+0x360>)
1000e294:	4283      	cmp	r3, r0
1000e296:	d100      	bne.n	1000e29a <at_ble_event_get+0x23e>
1000e298:	e0dd      	b.n	1000e456 <at_ble_event_get+0x3fa>
1000e29a:	e03a      	b.n	1000e312 <at_ble_event_get+0x2b6>
1000e29c:	4848      	ldr	r0, [pc, #288]	; (1000e3c0 <at_ble_event_get+0x364>)
1000e29e:	4283      	cmp	r3, r0
1000e2a0:	d100      	bne.n	1000e2a4 <at_ble_event_get+0x248>
1000e2a2:	e0dc      	b.n	1000e45e <at_ble_event_get+0x402>
1000e2a4:	4847      	ldr	r0, [pc, #284]	; (1000e3c4 <at_ble_event_get+0x368>)
1000e2a6:	4283      	cmp	r3, r0
1000e2a8:	d100      	bne.n	1000e2ac <at_ble_event_get+0x250>
1000e2aa:	e0de      	b.n	1000e46a <at_ble_event_get+0x40e>
1000e2ac:	e031      	b.n	1000e312 <at_ble_event_get+0x2b6>
1000e2ae:	4846      	ldr	r0, [pc, #280]	; (1000e3c8 <at_ble_event_get+0x36c>)
1000e2b0:	4283      	cmp	r3, r0
1000e2b2:	d100      	bne.n	1000e2b6 <at_ble_event_get+0x25a>
1000e2b4:	e0f6      	b.n	1000e4a4 <at_ble_event_get+0x448>
1000e2b6:	d816      	bhi.n	1000e2e6 <at_ble_event_get+0x28a>
1000e2b8:	4844      	ldr	r0, [pc, #272]	; (1000e3cc <at_ble_event_get+0x370>)
1000e2ba:	4283      	cmp	r3, r0
1000e2bc:	d100      	bne.n	1000e2c0 <at_ble_event_get+0x264>
1000e2be:	e0f7      	b.n	1000e4b0 <at_ble_event_get+0x454>
1000e2c0:	d808      	bhi.n	1000e2d4 <at_ble_event_get+0x278>
1000e2c2:	4843      	ldr	r0, [pc, #268]	; (1000e3d0 <at_ble_event_get+0x374>)
1000e2c4:	4283      	cmp	r3, r0
1000e2c6:	d100      	bne.n	1000e2ca <at_ble_event_get+0x26e>
1000e2c8:	e0e0      	b.n	1000e48c <at_ble_event_get+0x430>
1000e2ca:	4842      	ldr	r0, [pc, #264]	; (1000e3d4 <at_ble_event_get+0x378>)
1000e2cc:	4283      	cmp	r3, r0
1000e2ce:	d100      	bne.n	1000e2d2 <at_ble_event_get+0x276>
1000e2d0:	e0b0      	b.n	1000e434 <at_ble_event_get+0x3d8>
1000e2d2:	e01e      	b.n	1000e312 <at_ble_event_get+0x2b6>
1000e2d4:	4a40      	ldr	r2, [pc, #256]	; (1000e3d8 <at_ble_event_get+0x37c>)
1000e2d6:	4293      	cmp	r3, r2
1000e2d8:	d100      	bne.n	1000e2dc <at_ble_event_get+0x280>
1000e2da:	e0dd      	b.n	1000e498 <at_ble_event_get+0x43c>
1000e2dc:	4a3f      	ldr	r2, [pc, #252]	; (1000e3dc <at_ble_event_get+0x380>)
1000e2de:	4293      	cmp	r3, r2
1000e2e0:	d100      	bne.n	1000e2e4 <at_ble_event_get+0x288>
1000e2e2:	e0eb      	b.n	1000e4bc <at_ble_event_get+0x460>
1000e2e4:	e015      	b.n	1000e312 <at_ble_event_get+0x2b6>
1000e2e6:	483e      	ldr	r0, [pc, #248]	; (1000e3e0 <at_ble_event_get+0x384>)
1000e2e8:	4283      	cmp	r3, r0
1000e2ea:	d100      	bne.n	1000e2ee <at_ble_event_get+0x292>
1000e2ec:	e158      	b.n	1000e5a0 <at_ble_event_get+0x544>
1000e2ee:	d808      	bhi.n	1000e302 <at_ble_event_get+0x2a6>
1000e2f0:	483c      	ldr	r0, [pc, #240]	; (1000e3e4 <at_ble_event_get+0x388>)
1000e2f2:	4283      	cmp	r3, r0
1000e2f4:	d100      	bne.n	1000e2f8 <at_ble_event_get+0x29c>
1000e2f6:	e147      	b.n	1000e588 <at_ble_event_get+0x52c>
1000e2f8:	483b      	ldr	r0, [pc, #236]	; (1000e3e8 <at_ble_event_get+0x38c>)
1000e2fa:	4283      	cmp	r3, r0
1000e2fc:	d100      	bne.n	1000e300 <at_ble_event_get+0x2a4>
1000e2fe:	e149      	b.n	1000e594 <at_ble_event_get+0x538>
1000e300:	e007      	b.n	1000e312 <at_ble_event_get+0x2b6>
1000e302:	483a      	ldr	r0, [pc, #232]	; (1000e3ec <at_ble_event_get+0x390>)
1000e304:	4283      	cmp	r3, r0
1000e306:	d100      	bne.n	1000e30a <at_ble_event_get+0x2ae>
1000e308:	e150      	b.n	1000e5ac <at_ble_event_get+0x550>
1000e30a:	4839      	ldr	r0, [pc, #228]	; (1000e3f0 <at_ble_event_get+0x394>)
1000e30c:	4283      	cmp	r3, r0
1000e30e:	d100      	bne.n	1000e312 <at_ble_event_get+0x2b6>
1000e310:	e152      	b.n	1000e5b8 <at_ble_event_get+0x55c>
1000e312:	2400      	movs	r4, #0
1000e314:	e155      	b.n	1000e5c2 <at_ble_event_get+0x566>
1000e316:	1c08      	adds	r0, r1, #0
1000e318:	4b36      	ldr	r3, [pc, #216]	; (1000e3f4 <at_ble_event_get+0x398>)
1000e31a:	1c29      	adds	r1, r5, #0
1000e31c:	e07d      	b.n	1000e41a <at_ble_event_get+0x3be>
1000e31e:	1c08      	adds	r0, r1, #0
1000e320:	4b35      	ldr	r3, [pc, #212]	; (1000e3f8 <at_ble_event_get+0x39c>)
1000e322:	1c29      	adds	r1, r5, #0
1000e324:	4798      	blx	r3
1000e326:	2404      	movs	r4, #4
1000e328:	e14b      	b.n	1000e5c2 <at_ble_event_get+0x566>
1000e32a:	46c0      	nop			; (mov r8, r8)
1000e32c:	1000f959 	.word	0x1000f959
1000e330:	10014f28 	.word	0x10014f28
1000e334:	1000db4d 	.word	0x1000db4d
1000e338:	10014f2c 	.word	0x10014f2c
1000e33c:	0000ffff 	.word	0x0000ffff
1000e340:	0000fffe 	.word	0x0000fffe
1000e344:	1000f95b 	.word	0x1000f95b
1000e348:	0000201e 	.word	0x0000201e
1000e34c:	0000201d 	.word	0x0000201d
1000e350:	00000c03 	.word	0x00000c03
1000e354:	0000201f 	.word	0x0000201f
1000e358:	00000d1c 	.word	0x00000d1c
1000e35c:	00000c0c 	.word	0x00000c0c
1000e360:	00000c02 	.word	0x00000c02
1000e364:	00000a02 	.word	0x00000a02
1000e368:	00000a03 	.word	0x00000a03
1000e36c:	00000c06 	.word	0x00000c06
1000e370:	00000c04 	.word	0x00000c04
1000e374:	00000c05 	.word	0x00000c05
1000e378:	00000c07 	.word	0x00000c07
1000e37c:	00000c09 	.word	0x00000c09
1000e380:	00000c17 	.word	0x00000c17
1000e384:	00000c12 	.word	0x00000c12
1000e388:	00000c0d 	.word	0x00000c0d
1000e38c:	00000c13 	.word	0x00000c13
1000e390:	00000c15 	.word	0x00000c15
1000e394:	00000d08 	.word	0x00000d08
1000e398:	00000d01 	.word	0x00000d01
1000e39c:	00000d15 	.word	0x00000d15
1000e3a0:	00000e1b 	.word	0x00000e1b
1000e3a4:	00000e0f 	.word	0x00000e0f
1000e3a8:	00000e03 	.word	0x00000e03
1000e3ac:	00000e06 	.word	0x00000e06
1000e3b0:	00000e0a 	.word	0x00000e0a
1000e3b4:	00000e15 	.word	0x00000e15
1000e3b8:	00000e11 	.word	0x00000e11
1000e3bc:	00000e13 	.word	0x00000e13
1000e3c0:	00000e17 	.word	0x00000e17
1000e3c4:	00000e19 	.word	0x00000e19
1000e3c8:	00000e27 	.word	0x00000e27
1000e3cc:	00000e21 	.word	0x00000e21
1000e3d0:	00000e1c 	.word	0x00000e1c
1000e3d4:	00000e1d 	.word	0x00000e1d
1000e3d8:	00000e22 	.word	0x00000e22
1000e3dc:	00000e25 	.word	0x00000e25
1000e3e0:	00001b05 	.word	0x00001b05
1000e3e4:	00001b01 	.word	0x00001b01
1000e3e8:	00001b03 	.word	0x00001b03
1000e3ec:	00001b06 	.word	0x00001b06
1000e3f0:	00001b08 	.word	0x00001b08
1000e3f4:	10010785 	.word	0x10010785
1000e3f8:	10010769 	.word	0x10010769
1000e3fc:	1c08      	adds	r0, r1, #0
1000e3fe:	4b79      	ldr	r3, [pc, #484]	; (1000e5e4 <at_ble_event_get+0x588>)
1000e400:	1c29      	adds	r1, r5, #0
1000e402:	4798      	blx	r3
1000e404:	2401      	movs	r4, #1
1000e406:	e0dc      	b.n	1000e5c2 <at_ble_event_get+0x566>
1000e408:	1c08      	adds	r0, r1, #0
1000e40a:	4b77      	ldr	r3, [pc, #476]	; (1000e5e8 <at_ble_event_get+0x58c>)
1000e40c:	1c29      	adds	r1, r5, #0
1000e40e:	4798      	blx	r3
1000e410:	240f      	movs	r4, #15
1000e412:	e0d6      	b.n	1000e5c2 <at_ble_event_get+0x566>
1000e414:	1c08      	adds	r0, r1, #0
1000e416:	1c29      	adds	r1, r5, #0
1000e418:	4b74      	ldr	r3, [pc, #464]	; (1000e5ec <at_ble_event_get+0x590>)
1000e41a:	4798      	blx	r3
1000e41c:	1c04      	adds	r4, r0, #0
1000e41e:	e0d0      	b.n	1000e5c2 <at_ble_event_get+0x566>
1000e420:	1c10      	adds	r0, r2, #0
1000e422:	4b73      	ldr	r3, [pc, #460]	; (1000e5f0 <at_ble_event_get+0x594>)
1000e424:	1c2a      	adds	r2, r5, #0
1000e426:	e014      	b.n	1000e452 <at_ble_event_get+0x3f6>
1000e428:	1c10      	adds	r0, r2, #0
1000e42a:	4b72      	ldr	r3, [pc, #456]	; (1000e5f4 <at_ble_event_get+0x598>)
1000e42c:	1c2a      	adds	r2, r5, #0
1000e42e:	4798      	blx	r3
1000e430:	2411      	movs	r4, #17
1000e432:	e0c6      	b.n	1000e5c2 <at_ble_event_get+0x566>
1000e434:	1c10      	adds	r0, r2, #0
1000e436:	4b70      	ldr	r3, [pc, #448]	; (1000e5f8 <at_ble_event_get+0x59c>)
1000e438:	1c2a      	adds	r2, r5, #0
1000e43a:	4798      	blx	r3
1000e43c:	2412      	movs	r4, #18
1000e43e:	e0c0      	b.n	1000e5c2 <at_ble_event_get+0x566>
1000e440:	1c08      	adds	r0, r1, #0
1000e442:	4b6e      	ldr	r3, [pc, #440]	; (1000e5fc <at_ble_event_get+0x5a0>)
1000e444:	1c29      	adds	r1, r5, #0
1000e446:	4798      	blx	r3
1000e448:	2406      	movs	r4, #6
1000e44a:	e0ba      	b.n	1000e5c2 <at_ble_event_get+0x566>
1000e44c:	1c10      	adds	r0, r2, #0
1000e44e:	1c2a      	adds	r2, r5, #0
1000e450:	4b6b      	ldr	r3, [pc, #428]	; (1000e600 <at_ble_event_get+0x5a4>)
1000e452:	4798      	blx	r3
1000e454:	e7e2      	b.n	1000e41c <at_ble_event_get+0x3c0>
1000e456:	1c10      	adds	r0, r2, #0
1000e458:	4b6a      	ldr	r3, [pc, #424]	; (1000e604 <at_ble_event_get+0x5a8>)
1000e45a:	1c2a      	adds	r2, r5, #0
1000e45c:	e7f9      	b.n	1000e452 <at_ble_event_get+0x3f6>
1000e45e:	1c10      	adds	r0, r2, #0
1000e460:	4b69      	ldr	r3, [pc, #420]	; (1000e608 <at_ble_event_get+0x5ac>)
1000e462:	1c2a      	adds	r2, r5, #0
1000e464:	4798      	blx	r3
1000e466:	240d      	movs	r4, #13
1000e468:	e0ab      	b.n	1000e5c2 <at_ble_event_get+0x566>
1000e46a:	1c10      	adds	r0, r2, #0
1000e46c:	4b67      	ldr	r3, [pc, #412]	; (1000e60c <at_ble_event_get+0x5b0>)
1000e46e:	1c2a      	adds	r2, r5, #0
1000e470:	4798      	blx	r3
1000e472:	240e      	movs	r4, #14
1000e474:	e0a5      	b.n	1000e5c2 <at_ble_event_get+0x566>
1000e476:	1c10      	adds	r0, r2, #0
1000e478:	4b65      	ldr	r3, [pc, #404]	; (1000e610 <at_ble_event_get+0x5b4>)
1000e47a:	1c2a      	adds	r2, r5, #0
1000e47c:	4798      	blx	r3
1000e47e:	e075      	b.n	1000e56c <at_ble_event_get+0x510>
1000e480:	1c10      	adds	r0, r2, #0
1000e482:	4b64      	ldr	r3, [pc, #400]	; (1000e614 <at_ble_event_get+0x5b8>)
1000e484:	1c2a      	adds	r2, r5, #0
1000e486:	4798      	blx	r3
1000e488:	240b      	movs	r4, #11
1000e48a:	e09a      	b.n	1000e5c2 <at_ble_event_get+0x566>
1000e48c:	1c10      	adds	r0, r2, #0
1000e48e:	4b62      	ldr	r3, [pc, #392]	; (1000e618 <at_ble_event_get+0x5bc>)
1000e490:	1c2a      	adds	r2, r5, #0
1000e492:	4798      	blx	r3
1000e494:	2410      	movs	r4, #16
1000e496:	e094      	b.n	1000e5c2 <at_ble_event_get+0x566>
1000e498:	1c08      	adds	r0, r1, #0
1000e49a:	4b60      	ldr	r3, [pc, #384]	; (1000e61c <at_ble_event_get+0x5c0>)
1000e49c:	1c29      	adds	r1, r5, #0
1000e49e:	4798      	blx	r3
1000e4a0:	2428      	movs	r4, #40	; 0x28
1000e4a2:	e08e      	b.n	1000e5c2 <at_ble_event_get+0x566>
1000e4a4:	1c08      	adds	r0, r1, #0
1000e4a6:	4b5e      	ldr	r3, [pc, #376]	; (1000e620 <at_ble_event_get+0x5c4>)
1000e4a8:	1c29      	adds	r1, r5, #0
1000e4aa:	4798      	blx	r3
1000e4ac:	2429      	movs	r4, #41	; 0x29
1000e4ae:	e088      	b.n	1000e5c2 <at_ble_event_get+0x566>
1000e4b0:	1c08      	adds	r0, r1, #0
1000e4b2:	4b5c      	ldr	r3, [pc, #368]	; (1000e624 <at_ble_event_get+0x5c8>)
1000e4b4:	1c29      	adds	r1, r5, #0
1000e4b6:	4798      	blx	r3
1000e4b8:	2427      	movs	r4, #39	; 0x27
1000e4ba:	e082      	b.n	1000e5c2 <at_ble_event_get+0x566>
1000e4bc:	1c08      	adds	r0, r1, #0
1000e4be:	4b5a      	ldr	r3, [pc, #360]	; (1000e628 <at_ble_event_get+0x5cc>)
1000e4c0:	1c29      	adds	r1, r5, #0
1000e4c2:	4798      	blx	r3
1000e4c4:	242a      	movs	r4, #42	; 0x2a
1000e4c6:	e07c      	b.n	1000e5c2 <at_ble_event_get+0x566>
1000e4c8:	1c10      	adds	r0, r2, #0
1000e4ca:	4b58      	ldr	r3, [pc, #352]	; (1000e62c <at_ble_event_get+0x5d0>)
1000e4cc:	1c2a      	adds	r2, r5, #0
1000e4ce:	e7c0      	b.n	1000e452 <at_ble_event_get+0x3f6>
1000e4d0:	1c10      	adds	r0, r2, #0
1000e4d2:	4b57      	ldr	r3, [pc, #348]	; (1000e630 <at_ble_event_get+0x5d4>)
1000e4d4:	1c2a      	adds	r2, r5, #0
1000e4d6:	e7bc      	b.n	1000e452 <at_ble_event_get+0x3f6>
1000e4d8:	1c08      	adds	r0, r1, #0
1000e4da:	4b56      	ldr	r3, [pc, #344]	; (1000e634 <at_ble_event_get+0x5d8>)
1000e4dc:	1c29      	adds	r1, r5, #0
1000e4de:	4798      	blx	r3
1000e4e0:	242b      	movs	r4, #43	; 0x2b
1000e4e2:	e06e      	b.n	1000e5c2 <at_ble_event_get+0x566>
1000e4e4:	1c08      	adds	r0, r1, #0
1000e4e6:	4b54      	ldr	r3, [pc, #336]	; (1000e638 <at_ble_event_get+0x5dc>)
1000e4e8:	1c29      	adds	r1, r5, #0
1000e4ea:	4798      	blx	r3
1000e4ec:	242c      	movs	r4, #44	; 0x2c
1000e4ee:	e068      	b.n	1000e5c2 <at_ble_event_get+0x566>
1000e4f0:	1c10      	adds	r0, r2, #0
1000e4f2:	4b52      	ldr	r3, [pc, #328]	; (1000e63c <at_ble_event_get+0x5e0>)
1000e4f4:	1c2a      	adds	r2, r5, #0
1000e4f6:	4798      	blx	r3
1000e4f8:	2413      	movs	r4, #19
1000e4fa:	e062      	b.n	1000e5c2 <at_ble_event_get+0x566>
1000e4fc:	1c10      	adds	r0, r2, #0
1000e4fe:	4b50      	ldr	r3, [pc, #320]	; (1000e640 <at_ble_event_get+0x5e4>)
1000e500:	1c2a      	adds	r2, r5, #0
1000e502:	4798      	blx	r3
1000e504:	2414      	movs	r4, #20
1000e506:	e05c      	b.n	1000e5c2 <at_ble_event_get+0x566>
1000e508:	1c10      	adds	r0, r2, #0
1000e50a:	4b4e      	ldr	r3, [pc, #312]	; (1000e644 <at_ble_event_get+0x5e8>)
1000e50c:	1c2a      	adds	r2, r5, #0
1000e50e:	4798      	blx	r3
1000e510:	2415      	movs	r4, #21
1000e512:	e056      	b.n	1000e5c2 <at_ble_event_get+0x566>
1000e514:	1c10      	adds	r0, r2, #0
1000e516:	4b4c      	ldr	r3, [pc, #304]	; (1000e648 <at_ble_event_get+0x5ec>)
1000e518:	1c2a      	adds	r2, r5, #0
1000e51a:	4798      	blx	r3
1000e51c:	2416      	movs	r4, #22
1000e51e:	e050      	b.n	1000e5c2 <at_ble_event_get+0x566>
1000e520:	1c10      	adds	r0, r2, #0
1000e522:	4b4a      	ldr	r3, [pc, #296]	; (1000e64c <at_ble_event_get+0x5f0>)
1000e524:	1c2a      	adds	r2, r5, #0
1000e526:	e794      	b.n	1000e452 <at_ble_event_get+0x3f6>
1000e528:	1c10      	adds	r0, r2, #0
1000e52a:	4b48      	ldr	r3, [pc, #288]	; (1000e64c <at_ble_event_get+0x5f0>)
1000e52c:	1c2a      	adds	r2, r5, #0
1000e52e:	4798      	blx	r3
1000e530:	88a9      	ldrh	r1, [r5, #4]
1000e532:	1c04      	adds	r4, r0, #0
1000e534:	4b46      	ldr	r3, [pc, #280]	; (1000e650 <at_ble_event_get+0x5f4>)
1000e536:	8828      	ldrh	r0, [r5, #0]
1000e538:	4798      	blx	r3
1000e53a:	e042      	b.n	1000e5c2 <at_ble_event_get+0x566>
1000e53c:	1c10      	adds	r0, r2, #0
1000e53e:	4b45      	ldr	r3, [pc, #276]	; (1000e654 <at_ble_event_get+0x5f8>)
1000e540:	1c2a      	adds	r2, r5, #0
1000e542:	4798      	blx	r3
1000e544:	2423      	movs	r4, #35	; 0x23
1000e546:	e03c      	b.n	1000e5c2 <at_ble_event_get+0x566>
1000e548:	1c10      	adds	r0, r2, #0
1000e54a:	4b43      	ldr	r3, [pc, #268]	; (1000e658 <at_ble_event_get+0x5fc>)
1000e54c:	1c2a      	adds	r2, r5, #0
1000e54e:	e780      	b.n	1000e452 <at_ble_event_get+0x3f6>
1000e550:	0a12      	lsrs	r2, r2, #8
1000e552:	1c08      	adds	r0, r1, #0
1000e554:	802a      	strh	r2, [r5, #0]
1000e556:	1c29      	adds	r1, r5, #0
1000e558:	4b40      	ldr	r3, [pc, #256]	; (1000e65c <at_ble_event_get+0x600>)
1000e55a:	e75e      	b.n	1000e41a <at_ble_event_get+0x3be>
1000e55c:	1c10      	adds	r0, r2, #0
1000e55e:	4b40      	ldr	r3, [pc, #256]	; (1000e660 <at_ble_event_get+0x604>)
1000e560:	1c2a      	adds	r2, r5, #0
1000e562:	e776      	b.n	1000e452 <at_ble_event_get+0x3f6>
1000e564:	1c08      	adds	r0, r1, #0
1000e566:	4b3f      	ldr	r3, [pc, #252]	; (1000e664 <at_ble_event_get+0x608>)
1000e568:	1c29      	adds	r1, r5, #0
1000e56a:	4798      	blx	r3
1000e56c:	243b      	movs	r4, #59	; 0x3b
1000e56e:	e028      	b.n	1000e5c2 <at_ble_event_get+0x566>
1000e570:	1c10      	adds	r0, r2, #0
1000e572:	4b3d      	ldr	r3, [pc, #244]	; (1000e668 <at_ble_event_get+0x60c>)
1000e574:	1c2a      	adds	r2, r5, #0
1000e576:	4798      	blx	r3
1000e578:	2418      	movs	r4, #24
1000e57a:	e022      	b.n	1000e5c2 <at_ble_event_get+0x566>
1000e57c:	1c10      	adds	r0, r2, #0
1000e57e:	4b3b      	ldr	r3, [pc, #236]	; (1000e66c <at_ble_event_get+0x610>)
1000e580:	1c2a      	adds	r2, r5, #0
1000e582:	4798      	blx	r3
1000e584:	2420      	movs	r4, #32
1000e586:	e01c      	b.n	1000e5c2 <at_ble_event_get+0x566>
1000e588:	1c10      	adds	r0, r2, #0
1000e58a:	4b39      	ldr	r3, [pc, #228]	; (1000e670 <at_ble_event_get+0x614>)
1000e58c:	1c2a      	adds	r2, r5, #0
1000e58e:	4798      	blx	r3
1000e590:	2433      	movs	r4, #51	; 0x33
1000e592:	e016      	b.n	1000e5c2 <at_ble_event_get+0x566>
1000e594:	1c10      	adds	r0, r2, #0
1000e596:	4b37      	ldr	r3, [pc, #220]	; (1000e674 <at_ble_event_get+0x618>)
1000e598:	1c2a      	adds	r2, r5, #0
1000e59a:	4798      	blx	r3
1000e59c:	2430      	movs	r4, #48	; 0x30
1000e59e:	e010      	b.n	1000e5c2 <at_ble_event_get+0x566>
1000e5a0:	1c10      	adds	r0, r2, #0
1000e5a2:	4b35      	ldr	r3, [pc, #212]	; (1000e678 <at_ble_event_get+0x61c>)
1000e5a4:	1c2a      	adds	r2, r5, #0
1000e5a6:	4798      	blx	r3
1000e5a8:	2434      	movs	r4, #52	; 0x34
1000e5aa:	e00a      	b.n	1000e5c2 <at_ble_event_get+0x566>
1000e5ac:	1c10      	adds	r0, r2, #0
1000e5ae:	4b33      	ldr	r3, [pc, #204]	; (1000e67c <at_ble_event_get+0x620>)
1000e5b0:	1c2a      	adds	r2, r5, #0
1000e5b2:	4798      	blx	r3
1000e5b4:	2435      	movs	r4, #53	; 0x35
1000e5b6:	e004      	b.n	1000e5c2 <at_ble_event_get+0x566>
1000e5b8:	1c10      	adds	r0, r2, #0
1000e5ba:	4b31      	ldr	r3, [pc, #196]	; (1000e680 <at_ble_event_get+0x624>)
1000e5bc:	1c2a      	adds	r2, r5, #0
1000e5be:	4798      	blx	r3
1000e5c0:	2432      	movs	r4, #50	; 0x32
1000e5c2:	9b01      	ldr	r3, [sp, #4]
1000e5c4:	701c      	strb	r4, [r3, #0]
1000e5c6:	2400      	movs	r4, #0
1000e5c8:	e59c      	b.n	1000e104 <at_ble_event_get+0xa8>
1000e5ca:	24d0      	movs	r4, #208	; 0xd0
1000e5cc:	e59a      	b.n	1000e104 <at_ble_event_get+0xa8>
1000e5ce:	2abb      	cmp	r2, #187	; 0xbb
1000e5d0:	d000      	beq.n	1000e5d4 <at_ble_event_get+0x578>
1000e5d2:	e69e      	b.n	1000e312 <at_ble_event_get+0x2b6>
1000e5d4:	e7f5      	b.n	1000e5c2 <at_ble_event_get+0x566>
1000e5d6:	2c00      	cmp	r4, #0
1000e5d8:	d000      	beq.n	1000e5dc <at_ble_event_get+0x580>
1000e5da:	e593      	b.n	1000e104 <at_ble_event_get+0xa8>
1000e5dc:	e699      	b.n	1000e312 <at_ble_event_get+0x2b6>
1000e5de:	1c20      	adds	r0, r4, #0
1000e5e0:	b005      	add	sp, #20
1000e5e2:	bdf0      	pop	{r4, r5, r6, r7, pc}
1000e5e4:	10010a05 	.word	0x10010a05
1000e5e8:	10010af5 	.word	0x10010af5
1000e5ec:	10010b19 	.word	0x10010b19
1000e5f0:	1000fafd 	.word	0x1000fafd
1000e5f4:	1001037d 	.word	0x1001037d
1000e5f8:	100103f9 	.word	0x100103f9
1000e5fc:	1000fdb5 	.word	0x1000fdb5
1000e600:	1000fe51 	.word	0x1000fe51
1000e604:	1000ff29 	.word	0x1000ff29
1000e608:	100101b1 	.word	0x100101b1
1000e60c:	10010251 	.word	0x10010251
1000e610:	10010309 	.word	0x10010309
1000e614:	10010331 	.word	0x10010331
1000e618:	10010347 	.word	0x10010347
1000e61c:	10010411 	.word	0x10010411
1000e620:	1001043f 	.word	0x1001043f
1000e624:	10010455 	.word	0x10010455
1000e628:	1001047f 	.word	0x1001047f
1000e62c:	100102ad 	.word	0x100102ad
1000e630:	100102d7 	.word	0x100102d7
1000e634:	1000f555 	.word	0x1000f555
1000e638:	1000f581 	.word	0x1000f581
1000e63c:	10010d39 	.word	0x10010d39
1000e640:	10010d75 	.word	0x10010d75
1000e644:	10010dbd 	.word	0x10010dbd
1000e648:	10010e01 	.word	0x10010e01
1000e64c:	10010e35 	.word	0x10010e35
1000e650:	10010cf9 	.word	0x10010cf9
1000e654:	10010f01 	.word	0x10010f01
1000e658:	10010e89 	.word	0x10010e89
1000e65c:	1000f439 	.word	0x1000f439
1000e660:	1000f4a5 	.word	0x1000f4a5
1000e664:	1000f469 	.word	0x1000f469
1000e668:	10010f11 	.word	0x10010f11
1000e66c:	10010f51 	.word	0x10010f51
1000e670:	10011219 	.word	0x10011219
1000e674:	10011223 	.word	0x10011223
1000e678:	10011229 	.word	0x10011229
1000e67c:	1001122f 	.word	0x1001122f
1000e680:	1001123b 	.word	0x1001123b

1000e684 <internal_event_flush>:
1000e684:	b5f7      	push	{r0, r1, r2, r4, r5, r6, r7, lr}
1000e686:	490e      	ldr	r1, [pc, #56]	; (1000e6c0 <internal_event_flush+0x3c>)
1000e688:	2400      	movs	r4, #0
1000e68a:	680b      	ldr	r3, [r1, #0]
1000e68c:	1c0f      	adds	r7, r1, #0
1000e68e:	1c1e      	adds	r6, r3, #0
1000e690:	4a0c      	ldr	r2, [pc, #48]	; (1000e6c4 <internal_event_flush+0x40>)
1000e692:	6815      	ldr	r5, [r2, #0]
1000e694:	9201      	str	r2, [sp, #4]
1000e696:	2b00      	cmp	r3, #0
1000e698:	d00e      	beq.n	1000e6b8 <internal_event_flush+0x34>
1000e69a:	889a      	ldrh	r2, [r3, #4]
1000e69c:	6819      	ldr	r1, [r3, #0]
1000e69e:	4282      	cmp	r2, r0
1000e6a0:	d107      	bne.n	1000e6b2 <internal_event_flush+0x2e>
1000e6a2:	2c00      	cmp	r4, #0
1000e6a4:	d001      	beq.n	1000e6aa <internal_event_flush+0x26>
1000e6a6:	6021      	str	r1, [r4, #0]
1000e6a8:	e000      	b.n	1000e6ac <internal_event_flush+0x28>
1000e6aa:	1c0e      	adds	r6, r1, #0
1000e6ac:	601d      	str	r5, [r3, #0]
1000e6ae:	1c1d      	adds	r5, r3, #0
1000e6b0:	1c23      	adds	r3, r4, #0
1000e6b2:	1c1c      	adds	r4, r3, #0
1000e6b4:	1c0b      	adds	r3, r1, #0
1000e6b6:	e7ee      	b.n	1000e696 <internal_event_flush+0x12>
1000e6b8:	9b01      	ldr	r3, [sp, #4]
1000e6ba:	603e      	str	r6, [r7, #0]
1000e6bc:	601d      	str	r5, [r3, #0]
1000e6be:	bdf7      	pop	{r0, r1, r2, r4, r5, r6, r7, pc}
1000e6c0:	10014f28 	.word	0x10014f28
1000e6c4:	10014f2c 	.word	0x10014f2c

1000e6c8 <internal_conn_flush>:
1000e6c8:	b5f7      	push	{r0, r1, r2, r4, r5, r6, r7, lr}
1000e6ca:	4a12      	ldr	r2, [pc, #72]	; (1000e714 <internal_conn_flush+0x4c>)
1000e6cc:	9000      	str	r0, [sp, #0]
1000e6ce:	6813      	ldr	r3, [r2, #0]
1000e6d0:	4811      	ldr	r0, [pc, #68]	; (1000e718 <internal_conn_flush+0x50>)
1000e6d2:	1c1f      	adds	r7, r3, #0
1000e6d4:	2100      	movs	r1, #0
1000e6d6:	4684      	mov	ip, r0
1000e6d8:	6804      	ldr	r4, [r0, #0]
1000e6da:	9201      	str	r2, [sp, #4]
1000e6dc:	2b00      	cmp	r3, #0
1000e6de:	d014      	beq.n	1000e70a <internal_conn_flush+0x42>
1000e6e0:	88d8      	ldrh	r0, [r3, #6]
1000e6e2:	9a00      	ldr	r2, [sp, #0]
1000e6e4:	681d      	ldr	r5, [r3, #0]
1000e6e6:	0a06      	lsrs	r6, r0, #8
1000e6e8:	4296      	cmp	r6, r2
1000e6ea:	d10b      	bne.n	1000e704 <internal_conn_flush+0x3c>
1000e6ec:	26fd      	movs	r6, #253	; 0xfd
1000e6ee:	4006      	ands	r6, r0
1000e6f0:	2e0c      	cmp	r6, #12
1000e6f2:	d107      	bne.n	1000e704 <internal_conn_flush+0x3c>
1000e6f4:	2900      	cmp	r1, #0
1000e6f6:	d001      	beq.n	1000e6fc <internal_conn_flush+0x34>
1000e6f8:	600d      	str	r5, [r1, #0]
1000e6fa:	e000      	b.n	1000e6fe <internal_conn_flush+0x36>
1000e6fc:	1c2f      	adds	r7, r5, #0
1000e6fe:	601c      	str	r4, [r3, #0]
1000e700:	1c1c      	adds	r4, r3, #0
1000e702:	1c0b      	adds	r3, r1, #0
1000e704:	1c19      	adds	r1, r3, #0
1000e706:	1c2b      	adds	r3, r5, #0
1000e708:	e7e8      	b.n	1000e6dc <internal_conn_flush+0x14>
1000e70a:	9b01      	ldr	r3, [sp, #4]
1000e70c:	601f      	str	r7, [r3, #0]
1000e70e:	4663      	mov	r3, ip
1000e710:	601c      	str	r4, [r3, #0]
1000e712:	bdf7      	pop	{r0, r1, r2, r4, r5, r6, r7, pc}
1000e714:	10014f28 	.word	0x10014f28
1000e718:	10014f2c 	.word	0x10014f2c

1000e71c <at_ble_device_name_set>:
1000e71c:	b530      	push	{r4, r5, lr}
1000e71e:	23cf      	movs	r3, #207	; 0xcf
1000e720:	2800      	cmp	r0, #0
1000e722:	d010      	beq.n	1000e746 <at_ble_device_name_set+0x2a>
1000e724:	1e4a      	subs	r2, r1, #1
1000e726:	2a1f      	cmp	r2, #31
1000e728:	d80d      	bhi.n	1000e746 <at_ble_device_name_set+0x2a>
1000e72a:	4a08      	ldr	r2, [pc, #32]	; (1000e74c <at_ble_device_name_set+0x30>)
1000e72c:	1c13      	adds	r3, r2, #0
1000e72e:	33aa      	adds	r3, #170	; 0xaa
1000e730:	8019      	strh	r1, [r3, #0]
1000e732:	2300      	movs	r3, #0
1000e734:	1c1c      	adds	r4, r3, #0
1000e736:	5cc5      	ldrb	r5, [r0, r3]
1000e738:	34ac      	adds	r4, #172	; 0xac
1000e73a:	3301      	adds	r3, #1
1000e73c:	5515      	strb	r5, [r2, r4]
1000e73e:	b2dc      	uxtb	r4, r3
1000e740:	428c      	cmp	r4, r1
1000e742:	d3f7      	bcc.n	1000e734 <at_ble_device_name_set+0x18>
1000e744:	2300      	movs	r3, #0
1000e746:	1c18      	adds	r0, r3, #0
1000e748:	bd30      	pop	{r4, r5, pc}
1000e74a:	46c0      	nop			; (mov r8, r8)
1000e74c:	10015ed2 	.word	0x10015ed2

1000e750 <at_ble_addr_get>:
1000e750:	b510      	push	{r4, lr}
1000e752:	1c04      	adds	r4, r0, #0
1000e754:	20cf      	movs	r0, #207	; 0xcf
1000e756:	2c00      	cmp	r4, #0
1000e758:	d006      	beq.n	1000e768 <at_ble_addr_get+0x18>
1000e75a:	4b04      	ldr	r3, [pc, #16]	; (1000e76c <at_ble_addr_get+0x1c>)
1000e75c:	38ce      	subs	r0, #206	; 0xce
1000e75e:	1c21      	adds	r1, r4, #0
1000e760:	4798      	blx	r3
1000e762:	4b03      	ldr	r3, [pc, #12]	; (1000e770 <at_ble_addr_get+0x20>)
1000e764:	791b      	ldrb	r3, [r3, #4]
1000e766:	7023      	strb	r3, [r4, #0]
1000e768:	bd10      	pop	{r4, pc}
1000e76a:	46c0      	nop			; (mov r8, r8)
1000e76c:	10010619 	.word	0x10010619
1000e770:	10015ed2 	.word	0x10015ed2

1000e774 <at_ble_set_dev_config>:
1000e774:	b5f0      	push	{r4, r5, r6, r7, lr}
1000e776:	7906      	ldrb	r6, [r0, #4]
1000e778:	b089      	sub	sp, #36	; 0x24
1000e77a:	25cf      	movs	r5, #207	; 0xcf
1000e77c:	2e03      	cmp	r6, #3
1000e77e:	d838      	bhi.n	1000e7f2 <at_ble_set_dev_config+0x7e>
1000e780:	7803      	ldrb	r3, [r0, #0]
1000e782:	3511      	adds	r5, #17
1000e784:	2b0f      	cmp	r3, #15
1000e786:	d834      	bhi.n	1000e7f2 <at_ble_set_dev_config+0x7e>
1000e788:	2380      	movs	r3, #128	; 0x80
1000e78a:	8c87      	ldrh	r7, [r0, #36]	; 0x24
1000e78c:	3d11      	subs	r5, #17
1000e78e:	009b      	lsls	r3, r3, #2
1000e790:	429f      	cmp	r7, r3
1000e792:	d82e      	bhi.n	1000e7f2 <at_ble_set_dev_config+0x7e>
1000e794:	7fc5      	ldrb	r5, [r0, #31]
1000e796:	7f83      	ldrb	r3, [r0, #30]
1000e798:	01ad      	lsls	r5, r5, #6
1000e79a:	015b      	lsls	r3, r3, #5
1000e79c:	431d      	orrs	r5, r3
1000e79e:	7ec3      	ldrb	r3, [r0, #27]
1000e7a0:	431d      	orrs	r5, r3
1000e7a2:	7f43      	ldrb	r3, [r0, #29]
1000e7a4:	011b      	lsls	r3, r3, #4
1000e7a6:	431d      	orrs	r5, r3
1000e7a8:	7f03      	ldrb	r3, [r0, #28]
1000e7aa:	009b      	lsls	r3, r3, #2
1000e7ac:	431d      	orrs	r5, r3
1000e7ae:	4b12      	ldr	r3, [pc, #72]	; (1000e7f8 <at_ble_set_dev_config+0x84>)
1000e7b0:	b2ed      	uxtb	r5, r5
1000e7b2:	711e      	strb	r6, [r3, #4]
1000e7b4:	7903      	ldrb	r3, [r0, #4]
1000e7b6:	3b02      	subs	r3, #2
1000e7b8:	2b01      	cmp	r3, #1
1000e7ba:	d801      	bhi.n	1000e7c0 <at_ble_set_dev_config+0x4c>
1000e7bc:	2302      	movs	r3, #2
1000e7be:	7103      	strb	r3, [r0, #4]
1000e7c0:	1c04      	adds	r4, r0, #0
1000e7c2:	1c23      	adds	r3, r4, #0
1000e7c4:	330b      	adds	r3, #11
1000e7c6:	8861      	ldrh	r1, [r4, #2]
1000e7c8:	9307      	str	r3, [sp, #28]
1000e7ca:	7923      	ldrb	r3, [r4, #4]
1000e7cc:	7800      	ldrb	r0, [r0, #0]
1000e7ce:	9300      	str	r3, [sp, #0]
1000e7d0:	9501      	str	r5, [sp, #4]
1000e7d2:	8c25      	ldrh	r5, [r4, #32]
1000e7d4:	1d62      	adds	r2, r4, #5
1000e7d6:	9502      	str	r5, [sp, #8]
1000e7d8:	8c65      	ldrh	r5, [r4, #34]	; 0x22
1000e7da:	9b07      	ldr	r3, [sp, #28]
1000e7dc:	9503      	str	r5, [sp, #12]
1000e7de:	9704      	str	r7, [sp, #16]
1000e7e0:	4d06      	ldr	r5, [pc, #24]	; (1000e7fc <at_ble_set_dev_config+0x88>)
1000e7e2:	47a8      	blx	r5
1000e7e4:	7126      	strb	r6, [r4, #4]
1000e7e6:	1c05      	adds	r5, r0, #0
1000e7e8:	1c21      	adds	r1, r4, #0
1000e7ea:	4803      	ldr	r0, [pc, #12]	; (1000e7f8 <at_ble_set_dev_config+0x84>)
1000e7ec:	2226      	movs	r2, #38	; 0x26
1000e7ee:	4b04      	ldr	r3, [pc, #16]	; (1000e800 <at_ble_set_dev_config+0x8c>)
1000e7f0:	4798      	blx	r3
1000e7f2:	1c28      	adds	r0, r5, #0
1000e7f4:	b009      	add	sp, #36	; 0x24
1000e7f6:	bdf0      	pop	{r4, r5, r6, r7, pc}
1000e7f8:	10015ed2 	.word	0x10015ed2
1000e7fc:	10010511 	.word	0x10010511
1000e800:	10012fe3 	.word	0x10012fe3

1000e804 <at_ble_init>:
1000e804:	b5f0      	push	{r4, r5, r6, r7, lr}
1000e806:	b087      	sub	sp, #28
1000e808:	af03      	add	r7, sp, #12
1000e80a:	494d      	ldr	r1, [pc, #308]	; (1000e940 <at_ble_init+0x13c>)
1000e80c:	1c04      	adds	r4, r0, #0
1000e80e:	220b      	movs	r2, #11
1000e810:	4b4c      	ldr	r3, [pc, #304]	; (1000e944 <at_ble_init+0x140>)
1000e812:	1c38      	adds	r0, r7, #0
1000e814:	4798      	blx	r3
1000e816:	2205      	movs	r2, #5
1000e818:	4b4b      	ldr	r3, [pc, #300]	; (1000e948 <at_ble_init+0x144>)
1000e81a:	801a      	strh	r2, [r3, #0]
1000e81c:	2300      	movs	r3, #0
1000e81e:	4a4b      	ldr	r2, [pc, #300]	; (1000e94c <at_ble_init+0x148>)
1000e820:	6013      	str	r3, [r2, #0]
1000e822:	4a4b      	ldr	r2, [pc, #300]	; (1000e950 <at_ble_init+0x14c>)
1000e824:	7013      	strb	r3, [r2, #0]
1000e826:	4a4b      	ldr	r2, [pc, #300]	; (1000e954 <at_ble_init+0x150>)
1000e828:	7013      	strb	r3, [r2, #0]
1000e82a:	4b4b      	ldr	r3, [pc, #300]	; (1000e958 <at_ble_init+0x154>)
1000e82c:	4798      	blx	r3
1000e82e:	4b4b      	ldr	r3, [pc, #300]	; (1000e95c <at_ble_init+0x158>)
1000e830:	4798      	blx	r3
1000e832:	4b4b      	ldr	r3, [pc, #300]	; (1000e960 <at_ble_init+0x15c>)
1000e834:	4798      	blx	r3
1000e836:	4b4b      	ldr	r3, [pc, #300]	; (1000e964 <at_ble_init+0x160>)
1000e838:	4798      	blx	r3
1000e83a:	2c00      	cmp	r4, #0
1000e83c:	d009      	beq.n	1000e852 <at_ble_init+0x4e>
1000e83e:	6820      	ldr	r0, [r4, #0]
1000e840:	2800      	cmp	r0, #0
1000e842:	d006      	beq.n	1000e852 <at_ble_init+0x4e>
1000e844:	6861      	ldr	r1, [r4, #4]
1000e846:	2900      	cmp	r1, #0
1000e848:	d101      	bne.n	1000e84e <at_ble_init+0x4a>
1000e84a:	26e2      	movs	r6, #226	; 0xe2
1000e84c:	e075      	b.n	1000e93a <at_ble_init+0x136>
1000e84e:	4b46      	ldr	r3, [pc, #280]	; (1000e968 <at_ble_init+0x164>)
1000e850:	4798      	blx	r3
1000e852:	4b46      	ldr	r3, [pc, #280]	; (1000e96c <at_ble_init+0x168>)
1000e854:	4798      	blx	r3
1000e856:	2801      	cmp	r0, #1
1000e858:	d8f7      	bhi.n	1000e84a <at_ble_init+0x46>
1000e85a:	4845      	ldr	r0, [pc, #276]	; (1000e970 <at_ble_init+0x16c>)
1000e85c:	4b45      	ldr	r3, [pc, #276]	; (1000e974 <at_ble_init+0x170>)
1000e85e:	4798      	blx	r3
1000e860:	2800      	cmp	r0, #0
1000e862:	d1f2      	bne.n	1000e84a <at_ble_init+0x46>
1000e864:	4b44      	ldr	r3, [pc, #272]	; (1000e978 <at_ble_init+0x174>)
1000e866:	4798      	blx	r3
1000e868:	4b44      	ldr	r3, [pc, #272]	; (1000e97c <at_ble_init+0x178>)
1000e86a:	4798      	blx	r3
1000e86c:	466b      	mov	r3, sp
1000e86e:	2201      	movs	r2, #1
1000e870:	1cdc      	adds	r4, r3, #3
1000e872:	1c20      	adds	r0, r4, #0
1000e874:	a901      	add	r1, sp, #4
1000e876:	4252      	negs	r2, r2
1000e878:	4b41      	ldr	r3, [pc, #260]	; (1000e980 <at_ble_init+0x17c>)
1000e87a:	4798      	blx	r3
1000e87c:	2800      	cmp	r0, #0
1000e87e:	d102      	bne.n	1000e886 <at_ble_init+0x82>
1000e880:	7823      	ldrb	r3, [r4, #0]
1000e882:	2b39      	cmp	r3, #57	; 0x39
1000e884:	d1f2      	bne.n	1000e86c <at_ble_init+0x68>
1000e886:	4b3f      	ldr	r3, [pc, #252]	; (1000e984 <at_ble_init+0x180>)
1000e888:	4798      	blx	r3
1000e88a:	1e06      	subs	r6, r0, #0
1000e88c:	d155      	bne.n	1000e93a <at_ble_init+0x136>
1000e88e:	1c03      	adds	r3, r0, #0
1000e890:	2101      	movs	r1, #1
1000e892:	4a3d      	ldr	r2, [pc, #244]	; (1000e988 <at_ble_init+0x184>)
1000e894:	4249      	negs	r1, r1
1000e896:	189a      	adds	r2, r3, r2
1000e898:	3312      	adds	r3, #18
1000e89a:	8151      	strh	r1, [r2, #10]
1000e89c:	2b90      	cmp	r3, #144	; 0x90
1000e89e:	d1f7      	bne.n	1000e890 <at_ble_init+0x8c>
1000e8a0:	4c3a      	ldr	r4, [pc, #232]	; (1000e98c <at_ble_init+0x188>)
1000e8a2:	3b81      	subs	r3, #129	; 0x81
1000e8a4:	7023      	strb	r3, [r4, #0]
1000e8a6:	4b3a      	ldr	r3, [pc, #232]	; (1000e990 <at_ble_init+0x18c>)
1000e8a8:	4a3a      	ldr	r2, [pc, #232]	; (1000e994 <at_ble_init+0x190>)
1000e8aa:	8063      	strh	r3, [r4, #2]
1000e8ac:	2300      	movs	r3, #0
1000e8ae:	7123      	strb	r3, [r4, #4]
1000e8b0:	3301      	adds	r3, #1
1000e8b2:	1e58      	subs	r0, r3, #1
1000e8b4:	0119      	lsls	r1, r3, #4
1000e8b6:	4301      	orrs	r1, r0
1000e8b8:	3302      	adds	r3, #2
1000e8ba:	7011      	strb	r1, [r2, #0]
1000e8bc:	3201      	adds	r2, #1
1000e8be:	2b21      	cmp	r3, #33	; 0x21
1000e8c0:	d1f7      	bne.n	1000e8b2 <at_ble_init+0xae>
1000e8c2:	33e0      	adds	r3, #224	; 0xe0
1000e8c4:	33ff      	adds	r3, #255	; 0xff
1000e8c6:	84a3      	strh	r3, [r4, #36]	; 0x24
1000e8c8:	1c23      	adds	r3, r4, #0
1000e8ca:	2500      	movs	r5, #0
1000e8cc:	3373      	adds	r3, #115	; 0x73
1000e8ce:	701d      	strb	r5, [r3, #0]
1000e8d0:	1c23      	adds	r3, r4, #0
1000e8d2:	3372      	adds	r3, #114	; 0x72
1000e8d4:	701d      	strb	r5, [r3, #0]
1000e8d6:	1c23      	adds	r3, r4, #0
1000e8d8:	3376      	adds	r3, #118	; 0x76
1000e8da:	701d      	strb	r5, [r3, #0]
1000e8dc:	1c23      	adds	r3, r4, #0
1000e8de:	33cc      	adds	r3, #204	; 0xcc
1000e8e0:	801d      	strh	r5, [r3, #0]
1000e8e2:	1c22      	adds	r2, r4, #0
1000e8e4:	23a0      	movs	r3, #160	; 0xa0
1000e8e6:	32d0      	adds	r2, #208	; 0xd0
1000e8e8:	005b      	lsls	r3, r3, #1
1000e8ea:	8013      	strh	r3, [r2, #0]
1000e8ec:	1c22      	adds	r2, r4, #0
1000e8ee:	32ce      	adds	r2, #206	; 0xce
1000e8f0:	8013      	strh	r3, [r2, #0]
1000e8f2:	1c23      	adds	r3, r4, #0
1000e8f4:	33d2      	adds	r3, #210	; 0xd2
1000e8f6:	801d      	strh	r5, [r3, #0]
1000e8f8:	22fa      	movs	r2, #250	; 0xfa
1000e8fa:	1c23      	adds	r3, r4, #0
1000e8fc:	0052      	lsls	r2, r2, #1
1000e8fe:	33d4      	adds	r3, #212	; 0xd4
1000e900:	801a      	strh	r2, [r3, #0]
1000e902:	1c23      	adds	r3, r4, #0
1000e904:	33d6      	adds	r3, #214	; 0xd6
1000e906:	701d      	strb	r5, [r3, #0]
1000e908:	1c20      	adds	r0, r4, #0
1000e90a:	4b23      	ldr	r3, [pc, #140]	; (1000e998 <at_ble_init+0x194>)
1000e90c:	76e5      	strb	r5, [r4, #27]
1000e90e:	7725      	strb	r5, [r4, #28]
1000e910:	7765      	strb	r5, [r4, #29]
1000e912:	77a5      	strb	r5, [r4, #30]
1000e914:	77e5      	strb	r5, [r4, #31]
1000e916:	8425      	strh	r5, [r4, #32]
1000e918:	8465      	strh	r5, [r4, #34]	; 0x22
1000e91a:	4798      	blx	r3
1000e91c:	1c23      	adds	r3, r4, #0
1000e91e:	2207      	movs	r2, #7
1000e920:	3374      	adds	r3, #116	; 0x74
1000e922:	701a      	strb	r2, [r3, #0]
1000e924:	1c23      	adds	r3, r4, #0
1000e926:	3204      	adds	r2, #4
1000e928:	33aa      	adds	r3, #170	; 0xaa
1000e92a:	801a      	strh	r2, [r3, #0]
1000e92c:	1c2b      	adds	r3, r5, #0
1000e92e:	5d7a      	ldrb	r2, [r7, r5]
1000e930:	33ac      	adds	r3, #172	; 0xac
1000e932:	3501      	adds	r5, #1
1000e934:	54e2      	strb	r2, [r4, r3]
1000e936:	2d0b      	cmp	r5, #11
1000e938:	d1f8      	bne.n	1000e92c <at_ble_init+0x128>
1000e93a:	1c30      	adds	r0, r6, #0
1000e93c:	b007      	add	sp, #28
1000e93e:	bdf0      	pop	{r4, r5, r6, r7, pc}
1000e940:	100145ec 	.word	0x100145ec
1000e944:	10012fe3 	.word	0x10012fe3
1000e948:	10015e40 	.word	0x10015e40
1000e94c:	10014fd0 	.word	0x10014fd0
1000e950:	10014f38 	.word	0x10014f38
1000e954:	10014818 	.word	0x10014818
1000e958:	10010f61 	.word	0x10010f61
1000e95c:	1000ec4d 	.word	0x1000ec4d
1000e960:	1000f289 	.word	0x1000f289
1000e964:	1000f549 	.word	0x1000f549
1000e968:	1000f2bd 	.word	0x1000f2bd
1000e96c:	1000d85d 	.word	0x1000d85d
1000e970:	1000f849 	.word	0x1000f849
1000e974:	1000da89 	.word	0x1000da89
1000e978:	1000f8e1 	.word	0x1000f8e1
1000e97c:	1000df9d 	.word	0x1000df9d
1000e980:	1000e05d 	.word	0x1000e05d
1000e984:	100104a1 	.word	0x100104a1
1000e988:	10015e42 	.word	0x10015e42
1000e98c:	10015ed2 	.word	0x10015ed2
1000e990:	00003a98 	.word	0x00003a98
1000e994:	10015edd 	.word	0x10015edd
1000e998:	1000e775 	.word	0x1000e775

1000e99c <at_ble_addr_set>:
1000e99c:	b538      	push	{r3, r4, r5, lr}
1000e99e:	1c45      	adds	r5, r0, #1
1000e9a0:	1c03      	adds	r3, r0, #0
1000e9a2:	20cf      	movs	r0, #207	; 0xcf
1000e9a4:	2d00      	cmp	r5, #0
1000e9a6:	d018      	beq.n	1000e9da <at_ble_addr_set+0x3e>
1000e9a8:	781a      	ldrb	r2, [r3, #0]
1000e9aa:	2a03      	cmp	r2, #3
1000e9ac:	d815      	bhi.n	1000e9da <at_ble_addr_set+0x3e>
1000e9ae:	2a01      	cmp	r2, #1
1000e9b0:	d102      	bne.n	1000e9b8 <at_ble_addr_set+0x1c>
1000e9b2:	785a      	ldrb	r2, [r3, #1]
1000e9b4:	2a00      	cmp	r2, #0
1000e9b6:	d010      	beq.n	1000e9da <at_ble_addr_set+0x3e>
1000e9b8:	1c1c      	adds	r4, r3, #0
1000e9ba:	1c29      	adds	r1, r5, #0
1000e9bc:	2206      	movs	r2, #6
1000e9be:	4b07      	ldr	r3, [pc, #28]	; (1000e9dc <at_ble_addr_set+0x40>)
1000e9c0:	4807      	ldr	r0, [pc, #28]	; (1000e9e0 <at_ble_addr_set+0x44>)
1000e9c2:	4798      	blx	r3
1000e9c4:	7823      	ldrb	r3, [r4, #0]
1000e9c6:	4807      	ldr	r0, [pc, #28]	; (1000e9e4 <at_ble_addr_set+0x48>)
1000e9c8:	7103      	strb	r3, [r0, #4]
1000e9ca:	4b07      	ldr	r3, [pc, #28]	; (1000e9e8 <at_ble_addr_set+0x4c>)
1000e9cc:	4798      	blx	r3
1000e9ce:	7823      	ldrb	r3, [r4, #0]
1000e9d0:	2b00      	cmp	r3, #0
1000e9d2:	d102      	bne.n	1000e9da <at_ble_addr_set+0x3e>
1000e9d4:	1c28      	adds	r0, r5, #0
1000e9d6:	4b05      	ldr	r3, [pc, #20]	; (1000e9ec <at_ble_addr_set+0x50>)
1000e9d8:	4798      	blx	r3
1000e9da:	bd38      	pop	{r3, r4, r5, pc}
1000e9dc:	10012fe3 	.word	0x10012fe3
1000e9e0:	10015ed7 	.word	0x10015ed7
1000e9e4:	10015ed2 	.word	0x10015ed2
1000e9e8:	1000e775 	.word	0x1000e775
1000e9ec:	1000f95d 	.word	0x1000f95d

1000e9f0 <at_ble_adv_data_set>:
1000e9f0:	b5f8      	push	{r3, r4, r5, r6, r7, lr}
1000e9f2:	4684      	mov	ip, r0
1000e9f4:	1c0f      	adds	r7, r1, #0
1000e9f6:	1c16      	adds	r6, r2, #0
1000e9f8:	1c1c      	adds	r4, r3, #0
1000e9fa:	2800      	cmp	r0, #0
1000e9fc:	d102      	bne.n	1000ea04 <at_ble_adv_data_set+0x14>
1000e9fe:	20e2      	movs	r0, #226	; 0xe2
1000ea00:	2a00      	cmp	r2, #0
1000ea02:	d02b      	beq.n	1000ea5c <at_ble_adv_data_set+0x6c>
1000ea04:	20cf      	movs	r0, #207	; 0xcf
1000ea06:	2f1f      	cmp	r7, #31
1000ea08:	d828      	bhi.n	1000ea5c <at_ble_adv_data_set+0x6c>
1000ea0a:	2c1f      	cmp	r4, #31
1000ea0c:	d826      	bhi.n	1000ea5c <at_ble_adv_data_set+0x6c>
1000ea0e:	4663      	mov	r3, ip
1000ea10:	2b00      	cmp	r3, #0
1000ea12:	d00e      	beq.n	1000ea32 <at_ble_adv_data_set+0x42>
1000ea14:	4812      	ldr	r0, [pc, #72]	; (1000ea60 <at_ble_adv_data_set+0x70>)
1000ea16:	4d13      	ldr	r5, [pc, #76]	; (1000ea64 <at_ble_adv_data_set+0x74>)
1000ea18:	2f00      	cmp	r7, #0
1000ea1a:	d104      	bne.n	1000ea26 <at_ble_adv_data_set+0x36>
1000ea1c:	1c39      	adds	r1, r7, #0
1000ea1e:	221f      	movs	r2, #31
1000ea20:	4b11      	ldr	r3, [pc, #68]	; (1000ea68 <at_ble_adv_data_set+0x78>)
1000ea22:	4798      	blx	r3
1000ea24:	e003      	b.n	1000ea2e <at_ble_adv_data_set+0x3e>
1000ea26:	4661      	mov	r1, ip
1000ea28:	1c3a      	adds	r2, r7, #0
1000ea2a:	4b10      	ldr	r3, [pc, #64]	; (1000ea6c <at_ble_adv_data_set+0x7c>)
1000ea2c:	4798      	blx	r3
1000ea2e:	3572      	adds	r5, #114	; 0x72
1000ea30:	702f      	strb	r7, [r5, #0]
1000ea32:	1e30      	subs	r0, r6, #0
1000ea34:	d012      	beq.n	1000ea5c <at_ble_adv_data_set+0x6c>
1000ea36:	4d0b      	ldr	r5, [pc, #44]	; (1000ea64 <at_ble_adv_data_set+0x74>)
1000ea38:	480d      	ldr	r0, [pc, #52]	; (1000ea70 <at_ble_adv_data_set+0x80>)
1000ea3a:	2c00      	cmp	r4, #0
1000ea3c:	d107      	bne.n	1000ea4e <at_ble_adv_data_set+0x5e>
1000ea3e:	1c21      	adds	r1, r4, #0
1000ea40:	221f      	movs	r2, #31
1000ea42:	4b09      	ldr	r3, [pc, #36]	; (1000ea68 <at_ble_adv_data_set+0x78>)
1000ea44:	3573      	adds	r5, #115	; 0x73
1000ea46:	4798      	blx	r3
1000ea48:	702c      	strb	r4, [r5, #0]
1000ea4a:	1c20      	adds	r0, r4, #0
1000ea4c:	e006      	b.n	1000ea5c <at_ble_adv_data_set+0x6c>
1000ea4e:	1c31      	adds	r1, r6, #0
1000ea50:	1c22      	adds	r2, r4, #0
1000ea52:	4b06      	ldr	r3, [pc, #24]	; (1000ea6c <at_ble_adv_data_set+0x7c>)
1000ea54:	4798      	blx	r3
1000ea56:	2000      	movs	r0, #0
1000ea58:	3573      	adds	r5, #115	; 0x73
1000ea5a:	702c      	strb	r4, [r5, #0]
1000ea5c:	bdf8      	pop	{r3, r4, r5, r6, r7, pc}
1000ea5e:	46c0      	nop			; (mov r8, r8)
1000ea60:	10015f06 	.word	0x10015f06
1000ea64:	10015ed2 	.word	0x10015ed2
1000ea68:	10012ff5 	.word	0x10012ff5
1000ea6c:	10012fe3 	.word	0x10012fe3
1000ea70:	10015f25 	.word	0x10015f25

1000ea74 <at_ble_adv_start>:
1000ea74:	b5f0      	push	{r4, r5, r6, r7, lr}
1000ea76:	b091      	sub	sp, #68	; 0x44
1000ea78:	1c1f      	adds	r7, r3, #0
1000ea7a:	ab16      	add	r3, sp, #88	; 0x58
1000ea7c:	881d      	ldrh	r5, [r3, #0]
1000ea7e:	ab17      	add	r3, sp, #92	; 0x5c
1000ea80:	881b      	ldrh	r3, [r3, #0]
1000ea82:	910d      	str	r1, [sp, #52]	; 0x34
1000ea84:	930e      	str	r3, [sp, #56]	; 0x38
1000ea86:	ab18      	add	r3, sp, #96	; 0x60
1000ea88:	781b      	ldrb	r3, [r3, #0]
1000ea8a:	1c04      	adds	r4, r0, #0
1000ea8c:	930f      	str	r3, [sp, #60]	; 0x3c
1000ea8e:	4b42      	ldr	r3, [pc, #264]	; (1000eb98 <at_ble_adv_start+0x124>)
1000ea90:	1c16      	adds	r6, r2, #0
1000ea92:	3373      	adds	r3, #115	; 0x73
1000ea94:	781b      	ldrb	r3, [r3, #0]
1000ea96:	20cf      	movs	r0, #207	; 0xcf
1000ea98:	930c      	str	r3, [sp, #48]	; 0x30
1000ea9a:	2c01      	cmp	r4, #1
1000ea9c:	d103      	bne.n	1000eaa6 <at_ble_adv_start+0x32>
1000ea9e:	9b0e      	ldr	r3, [sp, #56]	; 0x38
1000eaa0:	2b00      	cmp	r3, #0
1000eaa2:	d176      	bne.n	1000eb92 <at_ble_adv_start+0x11e>
1000eaa4:	e024      	b.n	1000eaf0 <at_ble_adv_start+0x7c>
1000eaa6:	2c04      	cmp	r4, #4
1000eaa8:	d873      	bhi.n	1000eb92 <at_ble_adv_start+0x11e>
1000eaaa:	2380      	movs	r3, #128	; 0x80
1000eaac:	01db      	lsls	r3, r3, #7
1000eaae:	429d      	cmp	r5, r3
1000eab0:	d86f      	bhi.n	1000eb92 <at_ble_adv_start+0x11e>
1000eab2:	2c00      	cmp	r4, #0
1000eab4:	d102      	bne.n	1000eabc <at_ble_adv_start+0x48>
1000eab6:	2d1f      	cmp	r5, #31
1000eab8:	d96b      	bls.n	1000eb92 <at_ble_adv_start+0x11e>
1000eaba:	e003      	b.n	1000eac4 <at_ble_adv_start+0x50>
1000eabc:	2d9f      	cmp	r5, #159	; 0x9f
1000eabe:	d801      	bhi.n	1000eac4 <at_ble_adv_start+0x50>
1000eac0:	2c01      	cmp	r4, #1
1000eac2:	d166      	bne.n	1000eb92 <at_ble_adv_start+0x11e>
1000eac4:	2f00      	cmp	r7, #0
1000eac6:	d009      	beq.n	1000eadc <at_ble_adv_start+0x68>
1000eac8:	9b0d      	ldr	r3, [sp, #52]	; 0x34
1000eaca:	20cf      	movs	r0, #207	; 0xcf
1000eacc:	3b01      	subs	r3, #1
1000eace:	2b01      	cmp	r3, #1
1000ead0:	d95f      	bls.n	1000eb92 <at_ble_adv_start+0x11e>
1000ead2:	2c01      	cmp	r4, #1
1000ead4:	d102      	bne.n	1000eadc <at_ble_adv_start+0x68>
1000ead6:	2d00      	cmp	r5, #0
1000ead8:	d100      	bne.n	1000eadc <at_ble_adv_start+0x68>
1000eada:	3520      	adds	r5, #32
1000eadc:	4b2f      	ldr	r3, [pc, #188]	; (1000eb9c <at_ble_adv_start+0x128>)
1000eade:	4798      	blx	r3
1000eae0:	1c01      	adds	r1, r0, #0
1000eae2:	2e00      	cmp	r6, #0
1000eae4:	d043      	beq.n	1000eb6e <at_ble_adv_start+0xfa>
1000eae6:	7833      	ldrb	r3, [r6, #0]
1000eae8:	1e60      	subs	r0, r4, #1
1000eaea:	2b00      	cmp	r3, #0
1000eaec:	d109      	bne.n	1000eb02 <at_ble_adv_start+0x8e>
1000eaee:	e03b      	b.n	1000eb68 <at_ble_adv_start+0xf4>
1000eaf0:	2380      	movs	r3, #128	; 0x80
1000eaf2:	01db      	lsls	r3, r3, #7
1000eaf4:	429d      	cmp	r5, r3
1000eaf6:	d84c      	bhi.n	1000eb92 <at_ble_adv_start+0x11e>
1000eaf8:	2e00      	cmp	r6, #0
1000eafa:	d04a      	beq.n	1000eb92 <at_ble_adv_start+0x11e>
1000eafc:	2f00      	cmp	r7, #0
1000eafe:	d1e3      	bne.n	1000eac8 <at_ble_adv_start+0x54>
1000eb00:	e02b      	b.n	1000eb5a <at_ble_adv_start+0xe6>
1000eb02:	2301      	movs	r3, #1
1000eb04:	2803      	cmp	r0, #3
1000eb06:	d93a      	bls.n	1000eb7e <at_ble_adv_start+0x10a>
1000eb08:	200d      	movs	r0, #13
1000eb0a:	1c72      	adds	r2, r6, #1
1000eb0c:	e002      	b.n	1000eb14 <at_ble_adv_start+0xa0>
1000eb0e:	200e      	movs	r0, #14
1000eb10:	1e32      	subs	r2, r6, #0
1000eb12:	d1fa      	bne.n	1000eb0a <at_ble_adv_start+0x96>
1000eb14:	4c20      	ldr	r4, [pc, #128]	; (1000eb98 <at_ble_adv_start+0x124>)
1000eb16:	3474      	adds	r4, #116	; 0x74
1000eb18:	7826      	ldrb	r6, [r4, #0]
1000eb1a:	2407      	movs	r4, #7
1000eb1c:	2e00      	cmp	r6, #0
1000eb1e:	d000      	beq.n	1000eb22 <at_ble_adv_start+0xae>
1000eb20:	1c34      	adds	r4, r6, #0
1000eb22:	9200      	str	r2, [sp, #0]
1000eb24:	9a0d      	ldr	r2, [sp, #52]	; 0x34
1000eb26:	9403      	str	r4, [sp, #12]
1000eb28:	9204      	str	r2, [sp, #16]
1000eb2a:	4a1b      	ldr	r2, [pc, #108]	; (1000eb98 <at_ble_adv_start+0x124>)
1000eb2c:	9501      	str	r5, [sp, #4]
1000eb2e:	9502      	str	r5, [sp, #8]
1000eb30:	9705      	str	r7, [sp, #20]
1000eb32:	3272      	adds	r2, #114	; 0x72
1000eb34:	7812      	ldrb	r2, [r2, #0]
1000eb36:	9c0e      	ldr	r4, [sp, #56]	; 0x38
1000eb38:	9206      	str	r2, [sp, #24]
1000eb3a:	4a19      	ldr	r2, [pc, #100]	; (1000eba0 <at_ble_adv_start+0x12c>)
1000eb3c:	9207      	str	r2, [sp, #28]
1000eb3e:	9a0c      	ldr	r2, [sp, #48]	; 0x30
1000eb40:	9208      	str	r2, [sp, #32]
1000eb42:	4a18      	ldr	r2, [pc, #96]	; (1000eba4 <at_ble_adv_start+0x130>)
1000eb44:	9209      	str	r2, [sp, #36]	; 0x24
1000eb46:	2264      	movs	r2, #100	; 0x64
1000eb48:	4362      	muls	r2, r4
1000eb4a:	b292      	uxth	r2, r2
1000eb4c:	920a      	str	r2, [sp, #40]	; 0x28
1000eb4e:	9a0f      	ldr	r2, [sp, #60]	; 0x3c
1000eb50:	4c15      	ldr	r4, [pc, #84]	; (1000eba8 <at_ble_adv_start+0x134>)
1000eb52:	920b      	str	r2, [sp, #44]	; 0x2c
1000eb54:	4a15      	ldr	r2, [pc, #84]	; (1000ebac <at_ble_adv_start+0x138>)
1000eb56:	47a0      	blx	r4
1000eb58:	e01b      	b.n	1000eb92 <at_ble_adv_start+0x11e>
1000eb5a:	2d00      	cmp	r5, #0
1000eb5c:	d1be      	bne.n	1000eadc <at_ble_adv_start+0x68>
1000eb5e:	4b0f      	ldr	r3, [pc, #60]	; (1000eb9c <at_ble_adv_start+0x128>)
1000eb60:	4798      	blx	r3
1000eb62:	2520      	movs	r5, #32
1000eb64:	1c01      	adds	r1, r0, #0
1000eb66:	e7be      	b.n	1000eae6 <at_ble_adv_start+0x72>
1000eb68:	2803      	cmp	r0, #3
1000eb6a:	d8cd      	bhi.n	1000eb08 <at_ble_adv_start+0x94>
1000eb6c:	e006      	b.n	1000eb7c <at_ble_adv_start+0x108>
1000eb6e:	1e60      	subs	r0, r4, #1
1000eb70:	2803      	cmp	r0, #3
1000eb72:	d903      	bls.n	1000eb7c <at_ble_adv_start+0x108>
1000eb74:	1c33      	adds	r3, r6, #0
1000eb76:	200d      	movs	r0, #13
1000eb78:	1c32      	adds	r2, r6, #0
1000eb7a:	e7cb      	b.n	1000eb14 <at_ble_adv_start+0xa0>
1000eb7c:	2300      	movs	r3, #0
1000eb7e:	f002 fb61 	bl	10011244 <__gnu_thumb1_case_sqi>
1000eb82:	06c6      	.short	0x06c6
1000eb84:	0204      	.short	0x0204
1000eb86:	200f      	movs	r0, #15
1000eb88:	e7c2      	b.n	1000eb10 <at_ble_adv_start+0x9c>
1000eb8a:	2200      	movs	r2, #0
1000eb8c:	920c      	str	r2, [sp, #48]	; 0x30
1000eb8e:	200c      	movs	r0, #12
1000eb90:	e7be      	b.n	1000eb10 <at_ble_adv_start+0x9c>
1000eb92:	b011      	add	sp, #68	; 0x44
1000eb94:	bdf0      	pop	{r4, r5, r6, r7, pc}
1000eb96:	46c0      	nop			; (mov r8, r8)
1000eb98:	10015ed2 	.word	0x10015ed2
1000eb9c:	100109ed 	.word	0x100109ed
1000eba0:	10015f06 	.word	0x10015f06
1000eba4:	10015f25 	.word	0x10015f25
1000eba8:	100108cd 	.word	0x100108cd
1000ebac:	00003a98 	.word	0x00003a98

1000ebb0 <at_ble_scan_stop>:
1000ebb0:	b510      	push	{r4, lr}
1000ebb2:	4b05      	ldr	r3, [pc, #20]	; (1000ebc8 <at_ble_scan_stop+0x18>)
1000ebb4:	4798      	blx	r3
1000ebb6:	1e04      	subs	r4, r0, #0
1000ebb8:	d103      	bne.n	1000ebc2 <at_ble_scan_stop+0x12>
1000ebba:	20d1      	movs	r0, #209	; 0xd1
1000ebbc:	4b03      	ldr	r3, [pc, #12]	; (1000ebcc <at_ble_scan_stop+0x1c>)
1000ebbe:	0100      	lsls	r0, r0, #4
1000ebc0:	4798      	blx	r3
1000ebc2:	1c20      	adds	r0, r4, #0
1000ebc4:	bd10      	pop	{r4, pc}
1000ebc6:	46c0      	nop			; (mov r8, r8)
1000ebc8:	100106f9 	.word	0x100106f9
1000ebcc:	1000e685 	.word	0x1000e685

1000ebd0 <at_ble_disconnect>:
1000ebd0:	b538      	push	{r3, r4, r5, lr}
1000ebd2:	1c04      	adds	r4, r0, #0
1000ebd4:	4b04      	ldr	r3, [pc, #16]	; (1000ebe8 <at_ble_disconnect+0x18>)
1000ebd6:	1c08      	adds	r0, r1, #0
1000ebd8:	1c21      	adds	r1, r4, #0
1000ebda:	4798      	blx	r3
1000ebdc:	1c05      	adds	r5, r0, #0
1000ebde:	4b03      	ldr	r3, [pc, #12]	; (1000ebec <at_ble_disconnect+0x1c>)
1000ebe0:	1c20      	adds	r0, r4, #0
1000ebe2:	4798      	blx	r3
1000ebe4:	1c28      	adds	r0, r5, #0
1000ebe6:	bd38      	pop	{r3, r4, r5, pc}
1000ebe8:	1000fd71 	.word	0x1000fd71
1000ebec:	1000e6c9 	.word	0x1000e6c9

1000ebf0 <at_ble_conn_update_reply>:
1000ebf0:	b510      	push	{r4, lr}
1000ebf2:	4c01      	ldr	r4, [pc, #4]	; (1000ebf8 <at_ble_conn_update_reply+0x8>)
1000ebf4:	47a0      	blx	r4
1000ebf6:	bd10      	pop	{r4, pc}
1000ebf8:	10010261 	.word	0x10010261

1000ebfc <at_ble_random_address_resolve>:
1000ebfc:	b510      	push	{r4, lr}
1000ebfe:	23cf      	movs	r3, #207	; 0xcf
1000ec00:	2800      	cmp	r0, #0
1000ec02:	d00a      	beq.n	1000ec1a <at_ble_random_address_resolve+0x1e>
1000ec04:	2900      	cmp	r1, #0
1000ec06:	d008      	beq.n	1000ec1a <at_ble_random_address_resolve+0x1e>
1000ec08:	2a00      	cmp	r2, #0
1000ec0a:	d006      	beq.n	1000ec1a <at_ble_random_address_resolve+0x1e>
1000ec0c:	780c      	ldrb	r4, [r1, #0]
1000ec0e:	2c02      	cmp	r4, #2
1000ec10:	d103      	bne.n	1000ec1a <at_ble_random_address_resolve+0x1e>
1000ec12:	4b03      	ldr	r3, [pc, #12]	; (1000ec20 <at_ble_random_address_resolve+0x24>)
1000ec14:	3101      	adds	r1, #1
1000ec16:	4798      	blx	r3
1000ec18:	2300      	movs	r3, #0
1000ec1a:	1c18      	adds	r0, r3, #0
1000ec1c:	bd10      	pop	{r4, pc}
1000ec1e:	46c0      	nop			; (mov r8, r8)
1000ec20:	10010a8d 	.word	0x10010a8d

1000ec24 <at_ble_uuid_type2len>:
1000ec24:	23cf      	movs	r3, #207	; 0xcf
1000ec26:	2802      	cmp	r0, #2
1000ec28:	d801      	bhi.n	1000ec2e <at_ble_uuid_type2len+0xa>
1000ec2a:	4b02      	ldr	r3, [pc, #8]	; (1000ec34 <at_ble_uuid_type2len+0x10>)
1000ec2c:	5c1b      	ldrb	r3, [r3, r0]
1000ec2e:	1c18      	adds	r0, r3, #0
1000ec30:	4770      	bx	lr
1000ec32:	46c0      	nop			; (mov r8, r8)
1000ec34:	10014606 	.word	0x10014606

1000ec38 <at_ble_uuid_len2type>:
1000ec38:	1e83      	subs	r3, r0, #2
1000ec3a:	b2db      	uxtb	r3, r3
1000ec3c:	2003      	movs	r0, #3
1000ec3e:	2b0e      	cmp	r3, #14
1000ec40:	d801      	bhi.n	1000ec46 <at_ble_uuid_len2type+0xe>
1000ec42:	4a01      	ldr	r2, [pc, #4]	; (1000ec48 <at_ble_uuid_len2type+0x10>)
1000ec44:	5cd0      	ldrb	r0, [r2, r3]
1000ec46:	4770      	bx	lr
1000ec48:	100145f7 	.word	0x100145f7

1000ec4c <init_gatt_client_module>:
1000ec4c:	2200      	movs	r2, #0
1000ec4e:	4b01      	ldr	r3, [pc, #4]	; (1000ec54 <init_gatt_client_module+0x8>)
1000ec50:	801a      	strh	r2, [r3, #0]
1000ec52:	4770      	bx	lr
1000ec54:	10014f30 	.word	0x10014f30

1000ec58 <db_searchATT>:
1000ec58:	b570      	push	{r4, r5, r6, lr}
1000ec5a:	1c05      	adds	r5, r0, #0
1000ec5c:	2400      	movs	r4, #0
1000ec5e:	4b0c      	ldr	r3, [pc, #48]	; (1000ec90 <db_searchATT+0x38>)
1000ec60:	6819      	ldr	r1, [r3, #0]
1000ec62:	4b0c      	ldr	r3, [pc, #48]	; (1000ec94 <db_searchATT+0x3c>)
1000ec64:	681e      	ldr	r6, [r3, #0]
1000ec66:	428c      	cmp	r4, r1
1000ec68:	dc10      	bgt.n	1000ec8c <db_searchATT+0x34>
1000ec6a:	200c      	movs	r0, #12
1000ec6c:	1863      	adds	r3, r4, r1
1000ec6e:	0fda      	lsrs	r2, r3, #31
1000ec70:	18d3      	adds	r3, r2, r3
1000ec72:	1c02      	adds	r2, r0, #0
1000ec74:	105b      	asrs	r3, r3, #1
1000ec76:	435a      	muls	r2, r3
1000ec78:	18b0      	adds	r0, r6, r2
1000ec7a:	8802      	ldrh	r2, [r0, #0]
1000ec7c:	42aa      	cmp	r2, r5
1000ec7e:	d201      	bcs.n	1000ec84 <db_searchATT+0x2c>
1000ec80:	1e59      	subs	r1, r3, #1
1000ec82:	e7f0      	b.n	1000ec66 <db_searchATT+0xe>
1000ec84:	42aa      	cmp	r2, r5
1000ec86:	d902      	bls.n	1000ec8e <db_searchATT+0x36>
1000ec88:	1c5c      	adds	r4, r3, #1
1000ec8a:	e7ec      	b.n	1000ec66 <db_searchATT+0xe>
1000ec8c:	2000      	movs	r0, #0
1000ec8e:	bd70      	pop	{r4, r5, r6, pc}
1000ec90:	10014f44 	.word	0x10014f44
1000ec94:	10014f3c 	.word	0x10014f3c

1000ec98 <att_permissions>:
1000ec98:	b530      	push	{r4, r5, lr}
1000ec9a:	2403      	movs	r4, #3
1000ec9c:	1c05      	adds	r5, r0, #0
1000ec9e:	2301      	movs	r3, #1
1000eca0:	4025      	ands	r5, r4
1000eca2:	42a5      	cmp	r5, r4
1000eca4:	d009      	beq.n	1000ecba <att_permissions+0x22>
1000eca6:	1c23      	adds	r3, r4, #0
1000eca8:	1924      	adds	r4, r4, r4
1000ecaa:	4220      	tst	r0, r4
1000ecac:	d105      	bne.n	1000ecba <att_permissions+0x22>
1000ecae:	3b02      	subs	r3, #2
1000ecb0:	4218      	tst	r0, r3
1000ecb2:	d102      	bne.n	1000ecba <att_permissions+0x22>
1000ecb4:	1e4b      	subs	r3, r1, #1
1000ecb6:	4199      	sbcs	r1, r3
1000ecb8:	b28b      	uxth	r3, r1
1000ecba:	2130      	movs	r1, #48	; 0x30
1000ecbc:	4001      	ands	r1, r0
1000ecbe:	2930      	cmp	r1, #48	; 0x30
1000ecc0:	d007      	beq.n	1000ecd2 <att_permissions+0x3a>
1000ecc2:	0641      	lsls	r1, r0, #25
1000ecc4:	d401      	bmi.n	1000ecca <att_permissions+0x32>
1000ecc6:	0681      	lsls	r1, r0, #26
1000ecc8:	d501      	bpl.n	1000ecce <att_permissions+0x36>
1000ecca:	4807      	ldr	r0, [pc, #28]	; (1000ece8 <att_permissions+0x50>)
1000eccc:	e009      	b.n	1000ece2 <att_permissions+0x4a>
1000ecce:	06c1      	lsls	r1, r0, #27
1000ecd0:	d501      	bpl.n	1000ecd6 <att_permissions+0x3e>
1000ecd2:	4806      	ldr	r0, [pc, #24]	; (1000ecec <att_permissions+0x54>)
1000ecd4:	e005      	b.n	1000ece2 <att_permissions+0x4a>
1000ecd6:	2a00      	cmp	r2, #0
1000ecd8:	d001      	beq.n	1000ecde <att_permissions+0x46>
1000ecda:	2204      	movs	r2, #4
1000ecdc:	4313      	orrs	r3, r2
1000ecde:	2080      	movs	r0, #128	; 0x80
1000ece0:	0180      	lsls	r0, r0, #6
1000ece2:	4318      	orrs	r0, r3
1000ece4:	bd30      	pop	{r4, r5, pc}
1000ece6:	46c0      	nop			; (mov r8, r8)
1000ece8:	0000200c 	.word	0x0000200c
1000ecec:	00002004 	.word	0x00002004

1000ecf0 <char_permissions>:
1000ecf0:	b530      	push	{r4, r5, lr}
1000ecf2:	2300      	movs	r3, #0
1000ecf4:	0784      	lsls	r4, r0, #30
1000ecf6:	d503      	bpl.n	1000ed00 <char_permissions+0x10>
1000ecf8:	3301      	adds	r3, #1
1000ecfa:	4219      	tst	r1, r3
1000ecfc:	d100      	bne.n	1000ed00 <char_permissions+0x10>
1000ecfe:	3302      	adds	r3, #2
1000ed00:	0704      	lsls	r4, r0, #28
1000ed02:	d508      	bpl.n	1000ed16 <char_permissions+0x26>
1000ed04:	06cc      	lsls	r4, r1, #27
1000ed06:	d501      	bpl.n	1000ed0c <char_permissions+0x1c>
1000ed08:	2404      	movs	r4, #4
1000ed0a:	e000      	b.n	1000ed0e <char_permissions+0x1e>
1000ed0c:	240c      	movs	r4, #12
1000ed0e:	4323      	orrs	r3, r4
1000ed10:	2480      	movs	r4, #128	; 0x80
1000ed12:	01a4      	lsls	r4, r4, #6
1000ed14:	4323      	orrs	r3, r4
1000ed16:	0684      	lsls	r4, r0, #26
1000ed18:	d506      	bpl.n	1000ed28 <char_permissions+0x38>
1000ed1a:	2406      	movs	r4, #6
1000ed1c:	4221      	tst	r1, r4
1000ed1e:	d101      	bne.n	1000ed24 <char_permissions+0x34>
1000ed20:	340a      	adds	r4, #10
1000ed22:	e000      	b.n	1000ed26 <char_permissions+0x36>
1000ed24:	2430      	movs	r4, #48	; 0x30
1000ed26:	4323      	orrs	r3, r4
1000ed28:	06c4      	lsls	r4, r0, #27
1000ed2a:	d506      	bpl.n	1000ed3a <char_permissions+0x4a>
1000ed2c:	2406      	movs	r4, #6
1000ed2e:	4221      	tst	r1, r4
1000ed30:	d101      	bne.n	1000ed36 <char_permissions+0x46>
1000ed32:	343a      	adds	r4, #58	; 0x3a
1000ed34:	e000      	b.n	1000ed38 <char_permissions+0x48>
1000ed36:	24c0      	movs	r4, #192	; 0xc0
1000ed38:	4323      	orrs	r3, r4
1000ed3a:	2480      	movs	r4, #128	; 0x80
1000ed3c:	0064      	lsls	r4, r4, #1
1000ed3e:	4220      	tst	r0, r4
1000ed40:	d000      	beq.n	1000ed44 <char_permissions+0x54>
1000ed42:	4323      	orrs	r3, r4
1000ed44:	07c4      	lsls	r4, r0, #31
1000ed46:	d502      	bpl.n	1000ed4e <char_permissions+0x5e>
1000ed48:	2480      	movs	r4, #128	; 0x80
1000ed4a:	00a4      	lsls	r4, r4, #2
1000ed4c:	4323      	orrs	r3, r4
1000ed4e:	2404      	movs	r4, #4
1000ed50:	4220      	tst	r0, r4
1000ed52:	d006      	beq.n	1000ed62 <char_permissions+0x72>
1000ed54:	06cd      	lsls	r5, r1, #27
1000ed56:	d400      	bmi.n	1000ed5a <char_permissions+0x6a>
1000ed58:	240c      	movs	r4, #12
1000ed5a:	4323      	orrs	r3, r4
1000ed5c:	2480      	movs	r4, #128	; 0x80
1000ed5e:	0124      	lsls	r4, r4, #4
1000ed60:	4323      	orrs	r3, r4
1000ed62:	0644      	lsls	r4, r0, #25
1000ed64:	d501      	bpl.n	1000ed6a <char_permissions+0x7a>
1000ed66:	4c08      	ldr	r4, [pc, #32]	; (1000ed88 <char_permissions+0x98>)
1000ed68:	4323      	orrs	r3, r4
1000ed6a:	0600      	lsls	r0, r0, #24
1000ed6c:	d507      	bpl.n	1000ed7e <char_permissions+0x8e>
1000ed6e:	2004      	movs	r0, #4
1000ed70:	06c9      	lsls	r1, r1, #27
1000ed72:	d400      	bmi.n	1000ed76 <char_permissions+0x86>
1000ed74:	200c      	movs	r0, #12
1000ed76:	4303      	orrs	r3, r0
1000ed78:	2084      	movs	r0, #132	; 0x84
1000ed7a:	0180      	lsls	r0, r0, #6
1000ed7c:	4303      	orrs	r3, r0
1000ed7e:	0390      	lsls	r0, r2, #14
1000ed80:	4303      	orrs	r3, r0
1000ed82:	b298      	uxth	r0, r3
1000ed84:	bd30      	pop	{r4, r5, pc}
1000ed86:	46c0      	nop			; (mov r8, r8)
1000ed88:	00001004 	.word	0x00001004

1000ed8c <presentation_format_define>:
1000ed8c:	b507      	push	{r0, r1, r2, lr}
1000ed8e:	466a      	mov	r2, sp
1000ed90:	780b      	ldrb	r3, [r1, #0]
1000ed92:	7013      	strb	r3, [r2, #0]
1000ed94:	784b      	ldrb	r3, [r1, #1]
1000ed96:	7053      	strb	r3, [r2, #1]
1000ed98:	884b      	ldrh	r3, [r1, #2]
1000ed9a:	7093      	strb	r3, [r2, #2]
1000ed9c:	0a1b      	lsrs	r3, r3, #8
1000ed9e:	70d3      	strb	r3, [r2, #3]
1000eda0:	790b      	ldrb	r3, [r1, #4]
1000eda2:	7113      	strb	r3, [r2, #4]
1000eda4:	88cb      	ldrh	r3, [r1, #6]
1000eda6:	2107      	movs	r1, #7
1000eda8:	7153      	strb	r3, [r2, #5]
1000edaa:	0a1b      	lsrs	r3, r3, #8
1000edac:	7193      	strb	r3, [r2, #6]
1000edae:	4b01      	ldr	r3, [pc, #4]	; (1000edb4 <presentation_format_define+0x28>)
1000edb0:	4798      	blx	r3
1000edb2:	bd0e      	pop	{r1, r2, r3, pc}
1000edb4:	100110f1 	.word	0x100110f1

1000edb8 <db_addATT>:
1000edb8:	b5f7      	push	{r0, r1, r2, r4, r5, r6, r7, lr}
1000edba:	4c29      	ldr	r4, [pc, #164]	; (1000ee60 <db_addATT+0xa8>)
1000edbc:	1c1d      	adds	r5, r3, #0
1000edbe:	6823      	ldr	r3, [r4, #0]
1000edc0:	9001      	str	r0, [sp, #4]
1000edc2:	26d3      	movs	r6, #211	; 0xd3
1000edc4:	2b00      	cmp	r3, #0
1000edc6:	d048      	beq.n	1000ee5a <db_addATT+0xa2>
1000edc8:	1c1e      	adds	r6, r3, #0
1000edca:	3e0c      	subs	r6, #12
1000edcc:	6026      	str	r6, [r4, #0]
1000edce:	2900      	cmp	r1, #0
1000edd0:	d005      	beq.n	1000edde <db_addATT+0x26>
1000edd2:	4f24      	ldr	r7, [pc, #144]	; (1000ee64 <db_addATT+0xac>)
1000edd4:	46bc      	mov	ip, r7
1000edd6:	4660      	mov	r0, ip
1000edd8:	683f      	ldr	r7, [r7, #0]
1000edda:	18bf      	adds	r7, r7, r2
1000eddc:	6007      	str	r7, [r0, #0]
1000edde:	4821      	ldr	r0, [pc, #132]	; (1000ee64 <db_addATT+0xac>)
1000ede0:	6807      	ldr	r7, [r0, #0]
1000ede2:	4684      	mov	ip, r0
1000ede4:	42be      	cmp	r6, r7
1000ede6:	d932      	bls.n	1000ee4e <db_addATT+0x96>
1000ede8:	4668      	mov	r0, sp
1000edea:	8880      	ldrh	r0, [r0, #4]
1000edec:	3b0c      	subs	r3, #12
1000edee:	8018      	strh	r0, [r3, #0]
1000edf0:	6823      	ldr	r3, [r4, #0]
1000edf2:	2900      	cmp	r1, #0
1000edf4:	d009      	beq.n	1000ee0a <db_addATT+0x52>
1000edf6:	2a00      	cmp	r2, #0
1000edf8:	d007      	beq.n	1000ee0a <db_addATT+0x52>
1000edfa:	4660      	mov	r0, ip
1000edfc:	6800      	ldr	r0, [r0, #0]
1000edfe:	809a      	strh	r2, [r3, #4]
1000ee00:	1a80      	subs	r0, r0, r2
1000ee02:	6098      	str	r0, [r3, #8]
1000ee04:	4b18      	ldr	r3, [pc, #96]	; (1000ee68 <db_addATT+0xb0>)
1000ee06:	4798      	blx	r3
1000ee08:	e002      	b.n	1000ee10 <db_addATT+0x58>
1000ee0a:	2100      	movs	r1, #0
1000ee0c:	809a      	strh	r2, [r3, #4]
1000ee0e:	6099      	str	r1, [r3, #8]
1000ee10:	2300      	movs	r3, #0
1000ee12:	6822      	ldr	r2, [r4, #0]
1000ee14:	7093      	strb	r3, [r2, #2]
1000ee16:	3303      	adds	r3, #3
1000ee18:	402b      	ands	r3, r5
1000ee1a:	2b03      	cmp	r3, #3
1000ee1c:	d001      	beq.n	1000ee22 <db_addATT+0x6a>
1000ee1e:	076b      	lsls	r3, r5, #29
1000ee20:	d504      	bpl.n	1000ee2c <db_addATT+0x74>
1000ee22:	2101      	movs	r1, #1
1000ee24:	6822      	ldr	r2, [r4, #0]
1000ee26:	7893      	ldrb	r3, [r2, #2]
1000ee28:	430b      	orrs	r3, r1
1000ee2a:	7093      	strb	r3, [r2, #2]
1000ee2c:	2330      	movs	r3, #48	; 0x30
1000ee2e:	402b      	ands	r3, r5
1000ee30:	2b30      	cmp	r3, #48	; 0x30
1000ee32:	d001      	beq.n	1000ee38 <db_addATT+0x80>
1000ee34:	066b      	lsls	r3, r5, #25
1000ee36:	d504      	bpl.n	1000ee42 <db_addATT+0x8a>
1000ee38:	2102      	movs	r1, #2
1000ee3a:	6822      	ldr	r2, [r4, #0]
1000ee3c:	7893      	ldrb	r3, [r2, #2]
1000ee3e:	430b      	orrs	r3, r1
1000ee40:	7093      	strb	r3, [r2, #2]
1000ee42:	4a0a      	ldr	r2, [pc, #40]	; (1000ee6c <db_addATT+0xb4>)
1000ee44:	2600      	movs	r6, #0
1000ee46:	6813      	ldr	r3, [r2, #0]
1000ee48:	3301      	adds	r3, #1
1000ee4a:	6013      	str	r3, [r2, #0]
1000ee4c:	e005      	b.n	1000ee5a <db_addATT+0xa2>
1000ee4e:	6023      	str	r3, [r4, #0]
1000ee50:	2611      	movs	r6, #17
1000ee52:	2900      	cmp	r1, #0
1000ee54:	d001      	beq.n	1000ee5a <db_addATT+0xa2>
1000ee56:	1aba      	subs	r2, r7, r2
1000ee58:	6002      	str	r2, [r0, #0]
1000ee5a:	1c30      	adds	r0, r6, #0
1000ee5c:	bdfe      	pop	{r1, r2, r3, r4, r5, r6, r7, pc}
1000ee5e:	46c0      	nop			; (mov r8, r8)
1000ee60:	10014f3c 	.word	0x10014f3c
1000ee64:	10014f40 	.word	0x10014f40
1000ee68:	10012fe3 	.word	0x10012fe3
1000ee6c:	10014f44 	.word	0x10014f44

1000ee70 <user_description_define>:
1000ee70:	b5f8      	push	{r3, r4, r5, r6, r7, lr}
1000ee72:	1c05      	adds	r5, r0, #0
1000ee74:	20cf      	movs	r0, #207	; 0xcf
1000ee76:	2a00      	cmp	r2, #0
1000ee78:	d01c      	beq.n	1000eeb4 <user_description_define+0x44>
1000ee7a:	1c14      	adds	r4, r2, #0
1000ee7c:	2203      	movs	r2, #3
1000ee7e:	1c1e      	adds	r6, r3, #0
1000ee80:	400a      	ands	r2, r1
1000ee82:	1c0b      	adds	r3, r1, #0
1000ee84:	3a03      	subs	r2, #3
1000ee86:	4251      	negs	r1, r2
1000ee88:	4151      	adcs	r1, r2
1000ee8a:	075a      	lsls	r2, r3, #29
1000ee8c:	0fd2      	lsrs	r2, r2, #31
1000ee8e:	430a      	orrs	r2, r1
1000ee90:	03d2      	lsls	r2, r2, #15
1000ee92:	4f09      	ldr	r7, [pc, #36]	; (1000eeb8 <user_description_define+0x48>)
1000ee94:	1c28      	adds	r0, r5, #0
1000ee96:	2a00      	cmp	r2, #0
1000ee98:	d003      	beq.n	1000eea2 <user_description_define+0x32>
1000ee9a:	1c21      	adds	r1, r4, #0
1000ee9c:	1c32      	adds	r2, r6, #0
1000ee9e:	47b8      	blx	r7
1000eea0:	e008      	b.n	1000eeb4 <user_description_define+0x44>
1000eea2:	1c11      	adds	r1, r2, #0
1000eea4:	47b8      	blx	r7
1000eea6:	2800      	cmp	r0, #0
1000eea8:	d104      	bne.n	1000eeb4 <user_description_define+0x44>
1000eeaa:	1c28      	adds	r0, r5, #0
1000eeac:	1c31      	adds	r1, r6, #0
1000eeae:	1c22      	adds	r2, r4, #0
1000eeb0:	4b02      	ldr	r3, [pc, #8]	; (1000eebc <user_description_define+0x4c>)
1000eeb2:	4798      	blx	r3
1000eeb4:	bdf8      	pop	{r3, r4, r5, r6, r7, pc}
1000eeb6:	46c0      	nop			; (mov r8, r8)
1000eeb8:	1000edb9 	.word	0x1000edb9
1000eebc:	100110f1 	.word	0x100110f1

1000eec0 <at_ble_read_authorize_reply.part.2>:
1000eec0:	b537      	push	{r0, r1, r2, r4, r5, lr}
1000eec2:	4b09      	ldr	r3, [pc, #36]	; (1000eee8 <at_ble_read_authorize_reply.part.2+0x28>)
1000eec4:	1c05      	adds	r5, r0, #0
1000eec6:	1c08      	adds	r0, r1, #0
1000eec8:	1c0c      	adds	r4, r1, #0
1000eeca:	4798      	blx	r3
1000eecc:	2800      	cmp	r0, #0
1000eece:	d009      	beq.n	1000eee4 <at_ble_read_authorize_reply.part.2+0x24>
1000eed0:	6882      	ldr	r2, [r0, #8]
1000eed2:	2a00      	cmp	r2, #0
1000eed4:	d006      	beq.n	1000eee4 <at_ble_read_authorize_reply.part.2+0x24>
1000eed6:	8883      	ldrh	r3, [r0, #4]
1000eed8:	1c29      	adds	r1, r5, #0
1000eeda:	9200      	str	r2, [sp, #0]
1000eedc:	1c20      	adds	r0, r4, #0
1000eede:	2200      	movs	r2, #0
1000eee0:	4c02      	ldr	r4, [pc, #8]	; (1000eeec <at_ble_read_authorize_reply.part.2+0x2c>)
1000eee2:	47a0      	blx	r4
1000eee4:	bd3e      	pop	{r1, r2, r3, r4, r5, pc}
1000eee6:	46c0      	nop			; (mov r8, r8)
1000eee8:	1000ec59 	.word	0x1000ec59
1000eeec:	10010b89 	.word	0x10010b89

1000eef0 <internal_at_ble_service_define.part.1>:
1000eef0:	b5f0      	push	{r4, r5, r6, r7, lr}
1000eef2:	2400      	movs	r4, #0
1000eef4:	1c05      	adds	r5, r0, #0
1000eef6:	b08b      	sub	sp, #44	; 0x2c
1000eef8:	9304      	str	r3, [sp, #16]
1000eefa:	ab10      	add	r3, sp, #64	; 0x40
1000eefc:	9202      	str	r2, [sp, #8]
1000eefe:	cb04      	ldmia	r3!, {r2}
1000ef00:	9106      	str	r1, [sp, #24]
1000ef02:	881b      	ldrh	r3, [r3, #0]
1000ef04:	1c21      	adds	r1, r4, #0
1000ef06:	9305      	str	r3, [sp, #20]
1000ef08:	ab12      	add	r3, sp, #72	; 0x48
1000ef0a:	781b      	ldrb	r3, [r3, #0]
1000ef0c:	2210      	movs	r2, #16
1000ef0e:	9303      	str	r3, [sp, #12]
1000ef10:	4bc5      	ldr	r3, [pc, #788]	; (1000f228 <internal_at_ble_service_define.part.1+0x338>)
1000ef12:	681e      	ldr	r6, [r3, #0]
1000ef14:	4bc5      	ldr	r3, [pc, #788]	; (1000f22c <internal_at_ble_service_define.part.1+0x33c>)
1000ef16:	8034      	strh	r4, [r6, #0]
1000ef18:	881b      	ldrh	r3, [r3, #0]
1000ef1a:	1db7      	adds	r7, r6, #6
1000ef1c:	8073      	strh	r3, [r6, #2]
1000ef1e:	1c38      	adds	r0, r7, #0
1000ef20:	4bc3      	ldr	r3, [pc, #780]	; (1000f230 <internal_at_ble_service_define.part.1+0x340>)
1000ef22:	4798      	blx	r3
1000ef24:	4bc3      	ldr	r3, [pc, #780]	; (1000f234 <internal_at_ble_service_define.part.1+0x344>)
1000ef26:	7828      	ldrb	r0, [r5, #0]
1000ef28:	4798      	blx	r3
1000ef2a:	4bc3      	ldr	r3, [pc, #780]	; (1000f238 <internal_at_ble_service_define.part.1+0x348>)
1000ef2c:	1c02      	adds	r2, r0, #0
1000ef2e:	1c69      	adds	r1, r5, #1
1000ef30:	1c38      	adds	r0, r7, #0
1000ef32:	4798      	blx	r3
1000ef34:	2204      	movs	r2, #4
1000ef36:	782b      	ldrb	r3, [r5, #0]
1000ef38:	7174      	strb	r4, [r6, #5]
1000ef3a:	011b      	lsls	r3, r3, #4
1000ef3c:	4313      	orrs	r3, r2
1000ef3e:	9a03      	ldr	r2, [sp, #12]
1000ef40:	9c02      	ldr	r4, [sp, #8]
1000ef42:	0192      	lsls	r2, r2, #6
1000ef44:	4313      	orrs	r3, r2
1000ef46:	7133      	strb	r3, [r6, #4]
1000ef48:	2316      	movs	r3, #22
1000ef4a:	9a04      	ldr	r2, [sp, #16]
1000ef4c:	3412      	adds	r4, #18
1000ef4e:	4353      	muls	r3, r2
1000ef50:	9a02      	ldr	r2, [sp, #8]
1000ef52:	3312      	adds	r3, #18
1000ef54:	18d7      	adds	r7, r2, r3
1000ef56:	42bc      	cmp	r4, r7
1000ef58:	d00f      	beq.n	1000ef7a <internal_at_ble_service_define.part.1+0x8a>
1000ef5a:	4bb8      	ldr	r3, [pc, #736]	; (1000f23c <internal_at_ble_service_define.part.1+0x34c>)
1000ef5c:	8821      	ldrh	r1, [r4, #0]
1000ef5e:	9300      	str	r3, [sp, #0]
1000ef60:	230e      	movs	r3, #14
1000ef62:	aa06      	add	r2, sp, #24
1000ef64:	189b      	adds	r3, r3, r2
1000ef66:	9301      	str	r3, [sp, #4]
1000ef68:	4db5      	ldr	r5, [pc, #724]	; (1000f240 <internal_at_ble_service_define.part.1+0x350>)
1000ef6a:	1c30      	adds	r0, r6, #0
1000ef6c:	2201      	movs	r2, #1
1000ef6e:	2302      	movs	r3, #2
1000ef70:	47a8      	blx	r5
1000ef72:	3416      	adds	r4, #22
1000ef74:	1e05      	subs	r5, r0, #0
1000ef76:	d0ee      	beq.n	1000ef56 <internal_at_ble_service_define.part.1+0x66>
1000ef78:	e183      	b.n	1000f282 <internal_at_ble_service_define.part.1+0x392>
1000ef7a:	9f10      	ldr	r7, [sp, #64]	; 0x40
1000ef7c:	2300      	movs	r3, #0
1000ef7e:	3714      	adds	r7, #20
1000ef80:	1c3c      	adds	r4, r7, #0
1000ef82:	9302      	str	r3, [sp, #8]
1000ef84:	9b02      	ldr	r3, [sp, #8]
1000ef86:	9a05      	ldr	r2, [sp, #20]
1000ef88:	4293      	cmp	r3, r2
1000ef8a:	db00      	blt.n	1000ef8e <internal_at_ble_service_define.part.1+0x9e>
1000ef8c:	e0bf      	b.n	1000f10e <internal_at_ble_service_define.part.1+0x21e>
1000ef8e:	4bad      	ldr	r3, [pc, #692]	; (1000f244 <internal_at_ble_service_define.part.1+0x354>)
1000ef90:	aa06      	add	r2, sp, #24
1000ef92:	9300      	str	r3, [sp, #0]
1000ef94:	230e      	movs	r3, #14
1000ef96:	189b      	adds	r3, r3, r2
1000ef98:	9301      	str	r3, [sp, #4]
1000ef9a:	4da9      	ldr	r5, [pc, #676]	; (1000f240 <internal_at_ble_service_define.part.1+0x350>)
1000ef9c:	1c30      	adds	r0, r6, #0
1000ef9e:	2104      	movs	r1, #4
1000efa0:	2201      	movs	r2, #1
1000efa2:	2302      	movs	r3, #2
1000efa4:	47a8      	blx	r5
1000efa6:	1e05      	subs	r5, r0, #0
1000efa8:	d000      	beq.n	1000efac <internal_at_ble_service_define.part.1+0xbc>
1000efaa:	e16a      	b.n	1000f282 <internal_at_ble_service_define.part.1+0x392>
1000efac:	1c23      	adds	r3, r4, #0
1000efae:	3b12      	subs	r3, #18
1000efb0:	7b25      	ldrb	r5, [r4, #12]
1000efb2:	781b      	ldrb	r3, [r3, #0]
1000efb4:	1c29      	adds	r1, r5, #0
1000efb6:	1c1a      	adds	r2, r3, #0
1000efb8:	9303      	str	r3, [sp, #12]
1000efba:	8820      	ldrh	r0, [r4, #0]
1000efbc:	4ba2      	ldr	r3, [pc, #648]	; (1000f248 <internal_at_ble_service_define.part.1+0x358>)
1000efbe:	4798      	blx	r3
1000efc0:	2303      	movs	r3, #3
1000efc2:	402b      	ands	r3, r5
1000efc4:	3b03      	subs	r3, #3
1000efc6:	4259      	negs	r1, r3
1000efc8:	4159      	adcs	r1, r3
1000efca:	2301      	movs	r3, #1
1000efcc:	08ad      	lsrs	r5, r5, #2
1000efce:	401d      	ands	r5, r3
1000efd0:	430d      	orrs	r5, r1
1000efd2:	8963      	ldrh	r3, [r4, #10]
1000efd4:	03ed      	lsls	r5, r5, #15
1000efd6:	431d      	orrs	r5, r3
1000efd8:	9007      	str	r0, [sp, #28]
1000efda:	4b96      	ldr	r3, [pc, #600]	; (1000f234 <internal_at_ble_service_define.part.1+0x344>)
1000efdc:	9803      	ldr	r0, [sp, #12]
1000efde:	4798      	blx	r3
1000efe0:	1c22      	adds	r2, r4, #0
1000efe2:	3a11      	subs	r2, #17
1000efe4:	9200      	str	r2, [sp, #0]
1000efe6:	3a03      	subs	r2, #3
1000efe8:	1c03      	adds	r3, r0, #0
1000efea:	9201      	str	r2, [sp, #4]
1000efec:	1c29      	adds	r1, r5, #0
1000efee:	1c30      	adds	r0, r6, #0
1000eff0:	4d93      	ldr	r5, [pc, #588]	; (1000f240 <internal_at_ble_service_define.part.1+0x350>)
1000eff2:	9a07      	ldr	r2, [sp, #28]
1000eff4:	47a8      	blx	r5
1000eff6:	1e05      	subs	r5, r0, #0
1000eff8:	d000      	beq.n	1000effc <internal_at_ble_service_define.part.1+0x10c>
1000effa:	e142      	b.n	1000f282 <internal_at_ble_service_define.part.1+0x392>
1000effc:	22c0      	movs	r2, #192	; 0xc0
1000effe:	8823      	ldrh	r3, [r4, #0]
1000f000:	0052      	lsls	r2, r2, #1
1000f002:	4213      	tst	r3, r2
1000f004:	d104      	bne.n	1000f010 <internal_at_ble_service_define.part.1+0x120>
1000f006:	8aa3      	ldrh	r3, [r4, #20]
1000f008:	9303      	str	r3, [sp, #12]
1000f00a:	2b00      	cmp	r3, #0
1000f00c:	d116      	bne.n	1000f03c <internal_at_ble_service_define.part.1+0x14c>
1000f00e:	e03a      	b.n	1000f086 <internal_at_ble_service_define.part.1+0x196>
1000f010:	2201      	movs	r2, #1
1000f012:	09d9      	lsrs	r1, r3, #7
1000f014:	4011      	ands	r1, r2
1000f016:	05db      	lsls	r3, r3, #23
1000f018:	d501      	bpl.n	1000f01e <internal_at_ble_service_define.part.1+0x12e>
1000f01a:	2302      	movs	r3, #2
1000f01c:	4319      	orrs	r1, r3
1000f01e:	4b8b      	ldr	r3, [pc, #556]	; (1000f24c <internal_at_ble_service_define.part.1+0x35c>)
1000f020:	aa06      	add	r2, sp, #24
1000f022:	9300      	str	r3, [sp, #0]
1000f024:	230e      	movs	r3, #14
1000f026:	189b      	adds	r3, r3, r2
1000f028:	9301      	str	r3, [sp, #4]
1000f02a:	4d85      	ldr	r5, [pc, #532]	; (1000f240 <internal_at_ble_service_define.part.1+0x350>)
1000f02c:	0209      	lsls	r1, r1, #8
1000f02e:	1c30      	adds	r0, r6, #0
1000f030:	2201      	movs	r2, #1
1000f032:	2302      	movs	r3, #2
1000f034:	47a8      	blx	r5
1000f036:	1e05      	subs	r5, r0, #0
1000f038:	d0e5      	beq.n	1000f006 <internal_at_ble_service_define.part.1+0x116>
1000f03a:	e122      	b.n	1000f282 <internal_at_ble_service_define.part.1+0x392>
1000f03c:	2380      	movs	r3, #128	; 0x80
1000f03e:	8822      	ldrh	r2, [r4, #0]
1000f040:	7f25      	ldrb	r5, [r4, #28]
1000f042:	005b      	lsls	r3, r3, #1
1000f044:	401a      	ands	r2, r3
1000f046:	1c28      	adds	r0, r5, #0
1000f048:	2101      	movs	r1, #1
1000f04a:	2a00      	cmp	r2, #0
1000f04c:	d000      	beq.n	1000f050 <internal_at_ble_service_define.part.1+0x160>
1000f04e:	1c0a      	adds	r2, r1, #0
1000f050:	4b7f      	ldr	r3, [pc, #508]	; (1000f250 <internal_at_ble_service_define.part.1+0x360>)
1000f052:	4798      	blx	r3
1000f054:	2203      	movs	r2, #3
1000f056:	402a      	ands	r2, r5
1000f058:	3a03      	subs	r2, #3
1000f05a:	4251      	negs	r1, r2
1000f05c:	4151      	adcs	r1, r2
1000f05e:	4b7d      	ldr	r3, [pc, #500]	; (1000f254 <internal_at_ble_service_define.part.1+0x364>)
1000f060:	1c0a      	adds	r2, r1, #0
1000f062:	9300      	str	r3, [sp, #0]
1000f064:	1c23      	adds	r3, r4, #0
1000f066:	076d      	lsls	r5, r5, #29
1000f068:	0fed      	lsrs	r5, r5, #31
1000f06a:	432a      	orrs	r2, r5
1000f06c:	03d2      	lsls	r2, r2, #15
1000f06e:	4310      	orrs	r0, r2
1000f070:	3320      	adds	r3, #32
1000f072:	b282      	uxth	r2, r0
1000f074:	9301      	str	r3, [sp, #4]
1000f076:	4d72      	ldr	r5, [pc, #456]	; (1000f240 <internal_at_ble_service_define.part.1+0x350>)
1000f078:	1c30      	adds	r0, r6, #0
1000f07a:	9903      	ldr	r1, [sp, #12]
1000f07c:	2302      	movs	r3, #2
1000f07e:	47a8      	blx	r5
1000f080:	1e05      	subs	r5, r0, #0
1000f082:	d000      	beq.n	1000f086 <internal_at_ble_service_define.part.1+0x196>
1000f084:	e0fd      	b.n	1000f282 <internal_at_ble_service_define.part.1+0x392>
1000f086:	2101      	movs	r1, #1
1000f088:	8823      	ldrh	r3, [r4, #0]
1000f08a:	420b      	tst	r3, r1
1000f08c:	d011      	beq.n	1000f0b2 <internal_at_ble_service_define.part.1+0x1c2>
1000f08e:	7fa0      	ldrb	r0, [r4, #30]
1000f090:	4b6f      	ldr	r3, [pc, #444]	; (1000f250 <internal_at_ble_service_define.part.1+0x360>)
1000f092:	2200      	movs	r2, #0
1000f094:	4798      	blx	r3
1000f096:	4b70      	ldr	r3, [pc, #448]	; (1000f258 <internal_at_ble_service_define.part.1+0x368>)
1000f098:	1c02      	adds	r2, r0, #0
1000f09a:	9300      	str	r3, [sp, #0]
1000f09c:	1c23      	adds	r3, r4, #0
1000f09e:	3324      	adds	r3, #36	; 0x24
1000f0a0:	9301      	str	r3, [sp, #4]
1000f0a2:	4d67      	ldr	r5, [pc, #412]	; (1000f240 <internal_at_ble_service_define.part.1+0x350>)
1000f0a4:	1c30      	adds	r0, r6, #0
1000f0a6:	496d      	ldr	r1, [pc, #436]	; (1000f25c <internal_at_ble_service_define.part.1+0x36c>)
1000f0a8:	2302      	movs	r3, #2
1000f0aa:	47a8      	blx	r5
1000f0ac:	1e05      	subs	r5, r0, #0
1000f0ae:	d000      	beq.n	1000f0b2 <internal_at_ble_service_define.part.1+0x1c2>
1000f0b0:	e0e7      	b.n	1000f282 <internal_at_ble_service_define.part.1+0x392>
1000f0b2:	2330      	movs	r3, #48	; 0x30
1000f0b4:	8822      	ldrh	r2, [r4, #0]
1000f0b6:	421a      	tst	r2, r3
1000f0b8:	d012      	beq.n	1000f0e0 <internal_at_ble_service_define.part.1+0x1f0>
1000f0ba:	2101      	movs	r1, #1
1000f0bc:	7f60      	ldrb	r0, [r4, #29]
1000f0be:	1c0a      	adds	r2, r1, #0
1000f0c0:	4b63      	ldr	r3, [pc, #396]	; (1000f250 <internal_at_ble_service_define.part.1+0x360>)
1000f0c2:	4798      	blx	r3
1000f0c4:	4b66      	ldr	r3, [pc, #408]	; (1000f260 <internal_at_ble_service_define.part.1+0x370>)
1000f0c6:	1c02      	adds	r2, r0, #0
1000f0c8:	9300      	str	r3, [sp, #0]
1000f0ca:	1c23      	adds	r3, r4, #0
1000f0cc:	3322      	adds	r3, #34	; 0x22
1000f0ce:	9301      	str	r3, [sp, #4]
1000f0d0:	4d5b      	ldr	r5, [pc, #364]	; (1000f240 <internal_at_ble_service_define.part.1+0x350>)
1000f0d2:	1c30      	adds	r0, r6, #0
1000f0d4:	4961      	ldr	r1, [pc, #388]	; (1000f25c <internal_at_ble_service_define.part.1+0x36c>)
1000f0d6:	2302      	movs	r3, #2
1000f0d8:	47a8      	blx	r5
1000f0da:	1e05      	subs	r5, r0, #0
1000f0dc:	d000      	beq.n	1000f0e0 <internal_at_ble_service_define.part.1+0x1f0>
1000f0de:	e0d0      	b.n	1000f282 <internal_at_ble_service_define.part.1+0x392>
1000f0e0:	69a3      	ldr	r3, [r4, #24]
1000f0e2:	2b00      	cmp	r3, #0
1000f0e4:	d00e      	beq.n	1000f104 <internal_at_ble_service_define.part.1+0x214>
1000f0e6:	4b5f      	ldr	r3, [pc, #380]	; (1000f264 <internal_at_ble_service_define.part.1+0x374>)
1000f0e8:	aa06      	add	r2, sp, #24
1000f0ea:	9300      	str	r3, [sp, #0]
1000f0ec:	230e      	movs	r3, #14
1000f0ee:	189b      	adds	r3, r3, r2
1000f0f0:	9301      	str	r3, [sp, #4]
1000f0f2:	4d53      	ldr	r5, [pc, #332]	; (1000f240 <internal_at_ble_service_define.part.1+0x350>)
1000f0f4:	1c30      	adds	r0, r6, #0
1000f0f6:	2107      	movs	r1, #7
1000f0f8:	2201      	movs	r2, #1
1000f0fa:	2302      	movs	r3, #2
1000f0fc:	47a8      	blx	r5
1000f0fe:	1e05      	subs	r5, r0, #0
1000f100:	d000      	beq.n	1000f104 <internal_at_ble_service_define.part.1+0x214>
1000f102:	e0be      	b.n	1000f282 <internal_at_ble_service_define.part.1+0x392>
1000f104:	9b02      	ldr	r3, [sp, #8]
1000f106:	343c      	adds	r4, #60	; 0x3c
1000f108:	3301      	adds	r3, #1
1000f10a:	9302      	str	r3, [sp, #8]
1000f10c:	e73a      	b.n	1000ef84 <internal_at_ble_service_define.part.1+0x94>
1000f10e:	1c30      	adds	r0, r6, #0
1000f110:	4b55      	ldr	r3, [pc, #340]	; (1000f268 <internal_at_ble_service_define.part.1+0x378>)
1000f112:	4798      	blx	r3
1000f114:	1e05      	subs	r5, r0, #0
1000f116:	d000      	beq.n	1000f11a <internal_at_ble_service_define.part.1+0x22a>
1000f118:	e0b3      	b.n	1000f282 <internal_at_ble_service_define.part.1+0x392>
1000f11a:	8833      	ldrh	r3, [r6, #0]
1000f11c:	9a06      	ldr	r2, [sp, #24]
1000f11e:	8013      	strh	r3, [r2, #0]
1000f120:	8836      	ldrh	r6, [r6, #0]
1000f122:	9b04      	ldr	r3, [sp, #16]
1000f124:	9a05      	ldr	r2, [sp, #20]
1000f126:	18f6      	adds	r6, r6, r3
1000f128:	b2b3      	uxth	r3, r6
1000f12a:	9302      	str	r3, [sp, #8]
1000f12c:	233c      	movs	r3, #60	; 0x3c
1000f12e:	4353      	muls	r3, r2
1000f130:	9a10      	ldr	r2, [sp, #64]	; 0x40
1000f132:	3314      	adds	r3, #20
1000f134:	18d3      	adds	r3, r2, r3
1000f136:	9304      	str	r3, [sp, #16]
1000f138:	9b04      	ldr	r3, [sp, #16]
1000f13a:	429f      	cmp	r7, r3
1000f13c:	d100      	bne.n	1000f140 <internal_at_ble_service_define.part.1+0x250>
1000f13e:	e0a0      	b.n	1000f282 <internal_at_ble_service_define.part.1+0x392>
1000f140:	9b02      	ldr	r3, [sp, #8]
1000f142:	1c9c      	adds	r4, r3, #2
1000f144:	1c3b      	adds	r3, r7, #0
1000f146:	b2a4      	uxth	r4, r4
1000f148:	3b14      	subs	r3, #20
1000f14a:	801c      	strh	r4, [r3, #0]
1000f14c:	9303      	str	r3, [sp, #12]
1000f14e:	893b      	ldrh	r3, [r7, #8]
1000f150:	2b00      	cmp	r3, #0
1000f152:	d108      	bne.n	1000f166 <internal_at_ble_service_define.part.1+0x276>
1000f154:	23c0      	movs	r3, #192	; 0xc0
1000f156:	883a      	ldrh	r2, [r7, #0]
1000f158:	005b      	lsls	r3, r3, #1
1000f15a:	421a      	tst	r2, r3
1000f15c:	d026      	beq.n	1000f1ac <internal_at_ble_service_define.part.1+0x2bc>
1000f15e:	9e02      	ldr	r6, [sp, #8]
1000f160:	3603      	adds	r6, #3
1000f162:	b2b4      	uxth	r4, r6
1000f164:	e022      	b.n	1000f1ac <internal_at_ble_service_define.part.1+0x2bc>
1000f166:	2103      	movs	r1, #3
1000f168:	7b3b      	ldrb	r3, [r7, #12]
1000f16a:	4019      	ands	r1, r3
1000f16c:	3903      	subs	r1, #3
1000f16e:	424a      	negs	r2, r1
1000f170:	414a      	adcs	r2, r1
1000f172:	0759      	lsls	r1, r3, #29
1000f174:	0fc9      	lsrs	r1, r1, #31
1000f176:	4311      	orrs	r1, r2
1000f178:	03c9      	lsls	r1, r1, #15
1000f17a:	897a      	ldrh	r2, [r7, #10]
1000f17c:	2900      	cmp	r1, #0
1000f17e:	d007      	beq.n	1000f190 <internal_at_ble_service_define.part.1+0x2a0>
1000f180:	6879      	ldr	r1, [r7, #4]
1000f182:	2900      	cmp	r1, #0
1000f184:	d100      	bne.n	1000f188 <internal_at_ble_service_define.part.1+0x298>
1000f186:	4939      	ldr	r1, [pc, #228]	; (1000f26c <internal_at_ble_service_define.part.1+0x37c>)
1000f188:	1c20      	adds	r0, r4, #0
1000f18a:	4e39      	ldr	r6, [pc, #228]	; (1000f270 <internal_at_ble_service_define.part.1+0x380>)
1000f18c:	47b0      	blx	r6
1000f18e:	e00a      	b.n	1000f1a6 <internal_at_ble_service_define.part.1+0x2b6>
1000f190:	1c20      	adds	r0, r4, #0
1000f192:	4e37      	ldr	r6, [pc, #220]	; (1000f270 <internal_at_ble_service_define.part.1+0x380>)
1000f194:	47b0      	blx	r6
1000f196:	2800      	cmp	r0, #0
1000f198:	d172      	bne.n	1000f280 <internal_at_ble_service_define.part.1+0x390>
1000f19a:	9b03      	ldr	r3, [sp, #12]
1000f19c:	8939      	ldrh	r1, [r7, #8]
1000f19e:	8818      	ldrh	r0, [r3, #0]
1000f1a0:	687a      	ldr	r2, [r7, #4]
1000f1a2:	4b34      	ldr	r3, [pc, #208]	; (1000f274 <internal_at_ble_service_define.part.1+0x384>)
1000f1a4:	4798      	blx	r3
1000f1a6:	2800      	cmp	r0, #0
1000f1a8:	d0d4      	beq.n	1000f154 <internal_at_ble_service_define.part.1+0x264>
1000f1aa:	e069      	b.n	1000f280 <internal_at_ble_service_define.part.1+0x390>
1000f1ac:	8abb      	ldrh	r3, [r7, #20]
1000f1ae:	2b00      	cmp	r3, #0
1000f1b0:	d00a      	beq.n	1000f1c8 <internal_at_ble_service_define.part.1+0x2d8>
1000f1b2:	3401      	adds	r4, #1
1000f1b4:	b2a4      	uxth	r4, r4
1000f1b6:	843c      	strh	r4, [r7, #32]
1000f1b8:	7f39      	ldrb	r1, [r7, #28]
1000f1ba:	8afb      	ldrh	r3, [r7, #22]
1000f1bc:	1c20      	adds	r0, r4, #0
1000f1be:	693a      	ldr	r2, [r7, #16]
1000f1c0:	4e2d      	ldr	r6, [pc, #180]	; (1000f278 <internal_at_ble_service_define.part.1+0x388>)
1000f1c2:	47b0      	blx	r6
1000f1c4:	2800      	cmp	r0, #0
1000f1c6:	d15b      	bne.n	1000f280 <internal_at_ble_service_define.part.1+0x390>
1000f1c8:	883b      	ldrh	r3, [r7, #0]
1000f1ca:	07db      	lsls	r3, r3, #31
1000f1cc:	d50d      	bpl.n	1000f1ea <internal_at_ble_service_define.part.1+0x2fa>
1000f1ce:	2200      	movs	r2, #0
1000f1d0:	3401      	adds	r4, #1
1000f1d2:	b2a4      	uxth	r4, r4
1000f1d4:	a909      	add	r1, sp, #36	; 0x24
1000f1d6:	84bc      	strh	r4, [r7, #36]	; 0x24
1000f1d8:	7fbb      	ldrb	r3, [r7, #30]
1000f1da:	1c20      	adds	r0, r4, #0
1000f1dc:	700a      	strb	r2, [r1, #0]
1000f1de:	704a      	strb	r2, [r1, #1]
1000f1e0:	4e23      	ldr	r6, [pc, #140]	; (1000f270 <internal_at_ble_service_define.part.1+0x380>)
1000f1e2:	3202      	adds	r2, #2
1000f1e4:	47b0      	blx	r6
1000f1e6:	2800      	cmp	r0, #0
1000f1e8:	d14a      	bne.n	1000f280 <internal_at_ble_service_define.part.1+0x390>
1000f1ea:	2330      	movs	r3, #48	; 0x30
1000f1ec:	883a      	ldrh	r2, [r7, #0]
1000f1ee:	421a      	tst	r2, r3
1000f1f0:	d00d      	beq.n	1000f20e <internal_at_ble_service_define.part.1+0x31e>
1000f1f2:	2200      	movs	r2, #0
1000f1f4:	3401      	adds	r4, #1
1000f1f6:	b2a4      	uxth	r4, r4
1000f1f8:	a909      	add	r1, sp, #36	; 0x24
1000f1fa:	847c      	strh	r4, [r7, #34]	; 0x22
1000f1fc:	7f7b      	ldrb	r3, [r7, #29]
1000f1fe:	1c20      	adds	r0, r4, #0
1000f200:	700a      	strb	r2, [r1, #0]
1000f202:	704a      	strb	r2, [r1, #1]
1000f204:	4e1a      	ldr	r6, [pc, #104]	; (1000f270 <internal_at_ble_service_define.part.1+0x380>)
1000f206:	3202      	adds	r2, #2
1000f208:	47b0      	blx	r6
1000f20a:	2800      	cmp	r0, #0
1000f20c:	d138      	bne.n	1000f280 <internal_at_ble_service_define.part.1+0x390>
1000f20e:	69b9      	ldr	r1, [r7, #24]
1000f210:	2900      	cmp	r1, #0
1000f212:	d006      	beq.n	1000f222 <internal_at_ble_service_define.part.1+0x332>
1000f214:	3401      	adds	r4, #1
1000f216:	b2a4      	uxth	r4, r4
1000f218:	1c20      	adds	r0, r4, #0
1000f21a:	4b18      	ldr	r3, [pc, #96]	; (1000f27c <internal_at_ble_service_define.part.1+0x38c>)
1000f21c:	4798      	blx	r3
1000f21e:	2800      	cmp	r0, #0
1000f220:	d12e      	bne.n	1000f280 <internal_at_ble_service_define.part.1+0x390>
1000f222:	373c      	adds	r7, #60	; 0x3c
1000f224:	9402      	str	r4, [sp, #8]
1000f226:	e787      	b.n	1000f138 <internal_at_ble_service_define.part.1+0x248>
1000f228:	10014f4c 	.word	0x10014f4c
1000f22c:	10015e40 	.word	0x10015e40
1000f230:	10012ff5 	.word	0x10012ff5
1000f234:	1000ec25 	.word	0x1000ec25
1000f238:	10012fe3 	.word	0x10012fe3
1000f23c:	10014613 	.word	0x10014613
1000f240:	10011081 	.word	0x10011081
1000f244:	10014615 	.word	0x10014615
1000f248:	1000ecf1 	.word	0x1000ecf1
1000f24c:	10014611 	.word	0x10014611
1000f250:	1000ec99 	.word	0x1000ec99
1000f254:	1001460d 	.word	0x1001460d
1000f258:	1001460f 	.word	0x1001460f
1000f25c:	00008002 	.word	0x00008002
1000f260:	10014609 	.word	0x10014609
1000f264:	1001460b 	.word	0x1001460b
1000f268:	10010f75 	.word	0x10010f75
1000f26c:	10014f38 	.word	0x10014f38
1000f270:	1000edb9 	.word	0x1000edb9
1000f274:	100110f1 	.word	0x100110f1
1000f278:	1000ee71 	.word	0x1000ee71
1000f27c:	1000ed8d 	.word	0x1000ed8d
1000f280:	1c05      	adds	r5, r0, #0
1000f282:	1c28      	adds	r0, r5, #0
1000f284:	b00b      	add	sp, #44	; 0x2c
1000f286:	bdf0      	pop	{r4, r5, r6, r7, pc}

1000f288 <initi_gatt_server_module>:
1000f288:	2300      	movs	r3, #0
1000f28a:	4a06      	ldr	r2, [pc, #24]	; (1000f2a4 <initi_gatt_server_module+0x1c>)
1000f28c:	7013      	strb	r3, [r2, #0]
1000f28e:	4a06      	ldr	r2, [pc, #24]	; (1000f2a8 <initi_gatt_server_module+0x20>)
1000f290:	6013      	str	r3, [r2, #0]
1000f292:	4a06      	ldr	r2, [pc, #24]	; (1000f2ac <initi_gatt_server_module+0x24>)
1000f294:	6013      	str	r3, [r2, #0]
1000f296:	4a06      	ldr	r2, [pc, #24]	; (1000f2b0 <initi_gatt_server_module+0x28>)
1000f298:	6013      	str	r3, [r2, #0]
1000f29a:	4a06      	ldr	r2, [pc, #24]	; (1000f2b4 <initi_gatt_server_module+0x2c>)
1000f29c:	6013      	str	r3, [r2, #0]
1000f29e:	4a06      	ldr	r2, [pc, #24]	; (1000f2b8 <initi_gatt_server_module+0x30>)
1000f2a0:	6013      	str	r3, [r2, #0]
1000f2a2:	4770      	bx	lr
1000f2a4:	10014f38 	.word	0x10014f38
1000f2a8:	10014f48 	.word	0x10014f48
1000f2ac:	10014f44 	.word	0x10014f44
1000f2b0:	10014f34 	.word	0x10014f34
1000f2b4:	10014f40 	.word	0x10014f40
1000f2b8:	10014f3c 	.word	0x10014f3c

1000f2bc <db_init>:
1000f2bc:	4b0a      	ldr	r3, [pc, #40]	; (1000f2e8 <db_init+0x2c>)
1000f2be:	4a0b      	ldr	r2, [pc, #44]	; (1000f2ec <db_init+0x30>)
1000f2c0:	6018      	str	r0, [r3, #0]
1000f2c2:	084b      	lsrs	r3, r1, #1
1000f2c4:	6013      	str	r3, [r2, #0]
1000f2c6:	4a0a      	ldr	r2, [pc, #40]	; (1000f2f0 <db_init+0x34>)
1000f2c8:	18c3      	adds	r3, r0, r3
1000f2ca:	6013      	str	r3, [r2, #0]
1000f2cc:	4a09      	ldr	r2, [pc, #36]	; (1000f2f4 <db_init+0x38>)
1000f2ce:	1841      	adds	r1, r0, r1
1000f2d0:	6013      	str	r3, [r2, #0]
1000f2d2:	2303      	movs	r3, #3
1000f2d4:	2200      	movs	r2, #0
1000f2d6:	3103      	adds	r1, #3
1000f2d8:	4399      	bics	r1, r3
1000f2da:	4b07      	ldr	r3, [pc, #28]	; (1000f2f8 <db_init+0x3c>)
1000f2dc:	3904      	subs	r1, #4
1000f2de:	6019      	str	r1, [r3, #0]
1000f2e0:	4b06      	ldr	r3, [pc, #24]	; (1000f2fc <db_init+0x40>)
1000f2e2:	601a      	str	r2, [r3, #0]
1000f2e4:	4770      	bx	lr
1000f2e6:	46c0      	nop			; (mov r8, r8)
1000f2e8:	10014f4c 	.word	0x10014f4c
1000f2ec:	10014f48 	.word	0x10014f48
1000f2f0:	10014f34 	.word	0x10014f34
1000f2f4:	10014f40 	.word	0x10014f40
1000f2f8:	10014f3c 	.word	0x10014f3c
1000f2fc:	10014f44 	.word	0x10014f44

1000f300 <at_ble_primary_service_define>:
1000f300:	b57f      	push	{r0, r1, r2, r3, r4, r5, r6, lr}
1000f302:	ac08      	add	r4, sp, #32
1000f304:	cc40      	ldmia	r4!, {r6}
1000f306:	1c05      	adds	r5, r0, #0
1000f308:	8824      	ldrh	r4, [r4, #0]
1000f30a:	20cf      	movs	r0, #207	; 0xcf
1000f30c:	2d00      	cmp	r5, #0
1000f30e:	d00c      	beq.n	1000f32a <at_ble_primary_service_define+0x2a>
1000f310:	2900      	cmp	r1, #0
1000f312:	d00a      	beq.n	1000f32a <at_ble_primary_service_define+0x2a>
1000f314:	2e00      	cmp	r6, #0
1000f316:	d008      	beq.n	1000f32a <at_ble_primary_service_define+0x2a>
1000f318:	2c00      	cmp	r4, #0
1000f31a:	d006      	beq.n	1000f32a <at_ble_primary_service_define+0x2a>
1000f31c:	38ce      	subs	r0, #206	; 0xce
1000f31e:	9401      	str	r4, [sp, #4]
1000f320:	9002      	str	r0, [sp, #8]
1000f322:	9600      	str	r6, [sp, #0]
1000f324:	1c28      	adds	r0, r5, #0
1000f326:	4c02      	ldr	r4, [pc, #8]	; (1000f330 <at_ble_primary_service_define+0x30>)
1000f328:	47a0      	blx	r4
1000f32a:	b004      	add	sp, #16
1000f32c:	bd70      	pop	{r4, r5, r6, pc}
1000f32e:	46c0      	nop			; (mov r8, r8)
1000f330:	1000eef1 	.word	0x1000eef1

1000f334 <at_ble_characteristic_value_set>:
1000f334:	b570      	push	{r4, r5, r6, lr}
1000f336:	4b0b      	ldr	r3, [pc, #44]	; (1000f364 <at_ble_characteristic_value_set+0x30>)
1000f338:	1c06      	adds	r6, r0, #0
1000f33a:	1c0c      	adds	r4, r1, #0
1000f33c:	1c15      	adds	r5, r2, #0
1000f33e:	4798      	blx	r3
1000f340:	2800      	cmp	r0, #0
1000f342:	d008      	beq.n	1000f356 <at_ble_characteristic_value_set+0x22>
1000f344:	6880      	ldr	r0, [r0, #8]
1000f346:	2800      	cmp	r0, #0
1000f348:	d005      	beq.n	1000f356 <at_ble_characteristic_value_set+0x22>
1000f34a:	1c21      	adds	r1, r4, #0
1000f34c:	1c2a      	adds	r2, r5, #0
1000f34e:	4b06      	ldr	r3, [pc, #24]	; (1000f368 <at_ble_characteristic_value_set+0x34>)
1000f350:	4798      	blx	r3
1000f352:	2000      	movs	r0, #0
1000f354:	e004      	b.n	1000f360 <at_ble_characteristic_value_set+0x2c>
1000f356:	1c30      	adds	r0, r6, #0
1000f358:	1c29      	adds	r1, r5, #0
1000f35a:	1c22      	adds	r2, r4, #0
1000f35c:	4b03      	ldr	r3, [pc, #12]	; (1000f36c <at_ble_characteristic_value_set+0x38>)
1000f35e:	4798      	blx	r3
1000f360:	bd70      	pop	{r4, r5, r6, pc}
1000f362:	46c0      	nop			; (mov r8, r8)
1000f364:	1000ec59 	.word	0x1000ec59
1000f368:	10012fe3 	.word	0x10012fe3
1000f36c:	100110f1 	.word	0x100110f1

1000f370 <at_ble_characteristic_value_get>:
1000f370:	b570      	push	{r4, r5, r6, lr}
1000f372:	4b0c      	ldr	r3, [pc, #48]	; (1000f3a4 <at_ble_characteristic_value_get+0x34>)
1000f374:	1c06      	adds	r6, r0, #0
1000f376:	1c0c      	adds	r4, r1, #0
1000f378:	1c15      	adds	r5, r2, #0
1000f37a:	4798      	blx	r3
1000f37c:	2800      	cmp	r0, #0
1000f37e:	d00b      	beq.n	1000f398 <at_ble_characteristic_value_get+0x28>
1000f380:	6883      	ldr	r3, [r0, #8]
1000f382:	2b00      	cmp	r3, #0
1000f384:	d008      	beq.n	1000f398 <at_ble_characteristic_value_get+0x28>
1000f386:	8883      	ldrh	r3, [r0, #4]
1000f388:	802b      	strh	r3, [r5, #0]
1000f38a:	8882      	ldrh	r2, [r0, #4]
1000f38c:	6881      	ldr	r1, [r0, #8]
1000f38e:	4b06      	ldr	r3, [pc, #24]	; (1000f3a8 <at_ble_characteristic_value_get+0x38>)
1000f390:	1c20      	adds	r0, r4, #0
1000f392:	4798      	blx	r3
1000f394:	2000      	movs	r0, #0
1000f396:	e004      	b.n	1000f3a2 <at_ble_characteristic_value_get+0x32>
1000f398:	1c30      	adds	r0, r6, #0
1000f39a:	1c29      	adds	r1, r5, #0
1000f39c:	1c22      	adds	r2, r4, #0
1000f39e:	4b03      	ldr	r3, [pc, #12]	; (1000f3ac <at_ble_characteristic_value_get+0x3c>)
1000f3a0:	4798      	blx	r3
1000f3a2:	bd70      	pop	{r4, r5, r6, pc}
1000f3a4:	1000ec59 	.word	0x1000ec59
1000f3a8:	10012fe3 	.word	0x10012fe3
1000f3ac:	1001117d 	.word	0x1001117d

1000f3b0 <at_ble_write_authorize_reply>:
1000f3b0:	b5f0      	push	{r4, r5, r6, r7, lr}
1000f3b2:	b085      	sub	sp, #20
1000f3b4:	1c04      	adds	r4, r0, #0
1000f3b6:	9101      	str	r1, [sp, #4]
1000f3b8:	2900      	cmp	r1, #0
1000f3ba:	d128      	bne.n	1000f40e <at_ble_write_authorize_reply+0x5e>
1000f3bc:	8843      	ldrh	r3, [r0, #2]
1000f3be:	1c27      	adds	r7, r4, #0
1000f3c0:	9300      	str	r3, [sp, #0]
1000f3c2:	1c18      	adds	r0, r3, #0
1000f3c4:	4b16      	ldr	r3, [pc, #88]	; (1000f420 <at_ble_write_authorize_reply+0x70>)
1000f3c6:	4798      	blx	r3
1000f3c8:	3708      	adds	r7, #8
1000f3ca:	2800      	cmp	r0, #0
1000f3cc:	d009      	beq.n	1000f3e2 <at_ble_write_authorize_reply+0x32>
1000f3ce:	6880      	ldr	r0, [r0, #8]
1000f3d0:	2800      	cmp	r0, #0
1000f3d2:	d006      	beq.n	1000f3e2 <at_ble_write_authorize_reply+0x32>
1000f3d4:	88a3      	ldrh	r3, [r4, #4]
1000f3d6:	88e2      	ldrh	r2, [r4, #6]
1000f3d8:	18c0      	adds	r0, r0, r3
1000f3da:	1c39      	adds	r1, r7, #0
1000f3dc:	4b11      	ldr	r3, [pc, #68]	; (1000f424 <at_ble_write_authorize_reply+0x74>)
1000f3de:	4798      	blx	r3
1000f3e0:	e015      	b.n	1000f40e <at_ble_write_authorize_reply+0x5e>
1000f3e2:	ab02      	add	r3, sp, #8
1000f3e4:	1d9e      	adds	r6, r3, #6
1000f3e6:	2300      	movs	r3, #0
1000f3e8:	4d0f      	ldr	r5, [pc, #60]	; (1000f428 <at_ble_write_authorize_reply+0x78>)
1000f3ea:	8033      	strh	r3, [r6, #0]
1000f3ec:	6829      	ldr	r1, [r5, #0]
1000f3ee:	1c32      	adds	r2, r6, #0
1000f3f0:	4b0e      	ldr	r3, [pc, #56]	; (1000f42c <at_ble_write_authorize_reply+0x7c>)
1000f3f2:	9800      	ldr	r0, [sp, #0]
1000f3f4:	4798      	blx	r3
1000f3f6:	682b      	ldr	r3, [r5, #0]
1000f3f8:	88a0      	ldrh	r0, [r4, #4]
1000f3fa:	88e2      	ldrh	r2, [r4, #6]
1000f3fc:	1818      	adds	r0, r3, r0
1000f3fe:	1c39      	adds	r1, r7, #0
1000f400:	4b08      	ldr	r3, [pc, #32]	; (1000f424 <at_ble_write_authorize_reply+0x74>)
1000f402:	4798      	blx	r3
1000f404:	8860      	ldrh	r0, [r4, #2]
1000f406:	8832      	ldrh	r2, [r6, #0]
1000f408:	6829      	ldr	r1, [r5, #0]
1000f40a:	4b09      	ldr	r3, [pc, #36]	; (1000f430 <at_ble_write_authorize_reply+0x80>)
1000f40c:	4798      	blx	r3
1000f40e:	8860      	ldrh	r0, [r4, #2]
1000f410:	8821      	ldrh	r1, [r4, #0]
1000f412:	9a01      	ldr	r2, [sp, #4]
1000f414:	4b07      	ldr	r3, [pc, #28]	; (1000f434 <at_ble_write_authorize_reply+0x84>)
1000f416:	4798      	blx	r3
1000f418:	2000      	movs	r0, #0
1000f41a:	b005      	add	sp, #20
1000f41c:	bdf0      	pop	{r4, r5, r6, r7, pc}
1000f41e:	46c0      	nop			; (mov r8, r8)
1000f420:	1000ec59 	.word	0x1000ec59
1000f424:	10012fe3 	.word	0x10012fe3
1000f428:	1001481c 	.word	0x1001481c
1000f42c:	1000f371 	.word	0x1000f371
1000f430:	1000f335 	.word	0x1000f335
1000f434:	10010bf5 	.word	0x10010bf5

1000f438 <gatts_handle_read_req>:
1000f438:	b538      	push	{r3, r4, r5, lr}
1000f43a:	1c0c      	adds	r4, r1, #0
1000f43c:	4b07      	ldr	r3, [pc, #28]	; (1000f45c <gatts_handle_read_req+0x24>)
1000f43e:	4798      	blx	r3
1000f440:	8865      	ldrh	r5, [r4, #2]
1000f442:	4b07      	ldr	r3, [pc, #28]	; (1000f460 <gatts_handle_read_req+0x28>)
1000f444:	1c28      	adds	r0, r5, #0
1000f446:	4798      	blx	r3
1000f448:	7883      	ldrb	r3, [r0, #2]
1000f44a:	2026      	movs	r0, #38	; 0x26
1000f44c:	07db      	lsls	r3, r3, #31
1000f44e:	d404      	bmi.n	1000f45a <gatts_handle_read_req+0x22>
1000f450:	8820      	ldrh	r0, [r4, #0]
1000f452:	1c29      	adds	r1, r5, #0
1000f454:	4b03      	ldr	r3, [pc, #12]	; (1000f464 <gatts_handle_read_req+0x2c>)
1000f456:	4798      	blx	r3
1000f458:	203b      	movs	r0, #59	; 0x3b
1000f45a:	bd38      	pop	{r3, r4, r5, pc}
1000f45c:	10010b39 	.word	0x10010b39
1000f460:	1000ec59 	.word	0x1000ec59
1000f464:	1000eec1 	.word	0x1000eec1

1000f468 <gatts_handle_att_info_req>:
1000f468:	b538      	push	{r3, r4, r5, lr}
1000f46a:	1c0d      	adds	r5, r1, #0
1000f46c:	4b0a      	ldr	r3, [pc, #40]	; (1000f498 <gatts_handle_att_info_req+0x30>)
1000f46e:	1c14      	adds	r4, r2, #0
1000f470:	4798      	blx	r3
1000f472:	882d      	ldrh	r5, [r5, #0]
1000f474:	4b09      	ldr	r3, [pc, #36]	; (1000f49c <gatts_handle_att_info_req+0x34>)
1000f476:	1c28      	adds	r0, r5, #0
1000f478:	4798      	blx	r3
1000f47a:	0a22      	lsrs	r2, r4, #8
1000f47c:	1c03      	adds	r3, r0, #0
1000f47e:	4c08      	ldr	r4, [pc, #32]	; (1000f4a0 <gatts_handle_att_info_req+0x38>)
1000f480:	b291      	uxth	r1, r2
1000f482:	2800      	cmp	r0, #0
1000f484:	d003      	beq.n	1000f48e <gatts_handle_att_info_req+0x26>
1000f486:	8882      	ldrh	r2, [r0, #4]
1000f488:	2300      	movs	r3, #0
1000f48a:	1c28      	adds	r0, r5, #0
1000f48c:	e001      	b.n	1000f492 <gatts_handle_att_info_req+0x2a>
1000f48e:	1c28      	adds	r0, r5, #0
1000f490:	2201      	movs	r2, #1
1000f492:	47a0      	blx	r4
1000f494:	203b      	movs	r0, #59	; 0x3b
1000f496:	bd38      	pop	{r3, r4, r5, pc}
1000f498:	10010b7d 	.word	0x10010b7d
1000f49c:	1000ec59 	.word	0x1000ec59
1000f4a0:	10010c39 	.word	0x10010c39

1000f4a4 <gatts_handle_write_req>:
1000f4a4:	b510      	push	{r4, lr}
1000f4a6:	1c14      	adds	r4, r2, #0
1000f4a8:	4b07      	ldr	r3, [pc, #28]	; (1000f4c8 <gatts_handle_write_req+0x24>)
1000f4aa:	4798      	blx	r3
1000f4ac:	4b07      	ldr	r3, [pc, #28]	; (1000f4cc <gatts_handle_write_req+0x28>)
1000f4ae:	8860      	ldrh	r0, [r4, #2]
1000f4b0:	4798      	blx	r3
1000f4b2:	2302      	movs	r3, #2
1000f4b4:	7881      	ldrb	r1, [r0, #2]
1000f4b6:	2022      	movs	r0, #34	; 0x22
1000f4b8:	4019      	ands	r1, r3
1000f4ba:	d103      	bne.n	1000f4c4 <gatts_handle_write_req+0x20>
1000f4bc:	1c20      	adds	r0, r4, #0
1000f4be:	4b04      	ldr	r3, [pc, #16]	; (1000f4d0 <gatts_handle_write_req+0x2c>)
1000f4c0:	4798      	blx	r3
1000f4c2:	201f      	movs	r0, #31
1000f4c4:	bd10      	pop	{r4, pc}
1000f4c6:	46c0      	nop			; (mov r8, r8)
1000f4c8:	10010b45 	.word	0x10010b45
1000f4cc:	1000ec59 	.word	0x1000ec59
1000f4d0:	1000f3b1 	.word	0x1000f3b1

1000f4d4 <at_ble_notification_send>:
1000f4d4:	b5f0      	push	{r4, r5, r6, r7, lr}
1000f4d6:	4d17      	ldr	r5, [pc, #92]	; (1000f534 <at_ble_notification_send+0x60>)
1000f4d8:	4c17      	ldr	r4, [pc, #92]	; (1000f538 <at_ble_notification_send+0x64>)
1000f4da:	682a      	ldr	r2, [r5, #0]
1000f4dc:	44a5      	add	sp, r4
1000f4de:	23d2      	movs	r3, #210	; 0xd2
1000f4e0:	2a04      	cmp	r2, #4
1000f4e2:	d822      	bhi.n	1000f52a <at_ble_notification_send+0x56>
1000f4e4:	1c06      	adds	r6, r0, #0
1000f4e6:	4b15      	ldr	r3, [pc, #84]	; (1000f53c <at_ble_notification_send+0x68>)
1000f4e8:	1c08      	adds	r0, r1, #0
1000f4ea:	1c0c      	adds	r4, r1, #0
1000f4ec:	4798      	blx	r3
1000f4ee:	2800      	cmp	r0, #0
1000f4f0:	d008      	beq.n	1000f504 <at_ble_notification_send+0x30>
1000f4f2:	6883      	ldr	r3, [r0, #8]
1000f4f4:	2b00      	cmp	r3, #0
1000f4f6:	d005      	beq.n	1000f504 <at_ble_notification_send+0x30>
1000f4f8:	8882      	ldrh	r2, [r0, #4]
1000f4fa:	1c21      	adds	r1, r4, #0
1000f4fc:	9200      	str	r2, [sp, #0]
1000f4fe:	2012      	movs	r0, #18
1000f500:	1c32      	adds	r2, r6, #0
1000f502:	e00c      	b.n	1000f51e <at_ble_notification_send+0x4a>
1000f504:	270e      	movs	r7, #14
1000f506:	446f      	add	r7, sp
1000f508:	1c39      	adds	r1, r7, #0
1000f50a:	aa04      	add	r2, sp, #16
1000f50c:	4b0c      	ldr	r3, [pc, #48]	; (1000f540 <at_ble_notification_send+0x6c>)
1000f50e:	1c20      	adds	r0, r4, #0
1000f510:	4798      	blx	r3
1000f512:	2012      	movs	r0, #18
1000f514:	1c21      	adds	r1, r4, #0
1000f516:	1c32      	adds	r2, r6, #0
1000f518:	883b      	ldrh	r3, [r7, #0]
1000f51a:	9300      	str	r3, [sp, #0]
1000f51c:	ab04      	add	r3, sp, #16
1000f51e:	4c09      	ldr	r4, [pc, #36]	; (1000f544 <at_ble_notification_send+0x70>)
1000f520:	47a0      	blx	r4
1000f522:	682b      	ldr	r3, [r5, #0]
1000f524:	3301      	adds	r3, #1
1000f526:	602b      	str	r3, [r5, #0]
1000f528:	2300      	movs	r3, #0
1000f52a:	1c18      	adds	r0, r3, #0
1000f52c:	2385      	movs	r3, #133	; 0x85
1000f52e:	009b      	lsls	r3, r3, #2
1000f530:	449d      	add	sp, r3
1000f532:	bdf0      	pop	{r4, r5, r6, r7, pc}
1000f534:	10014fd0 	.word	0x10014fd0
1000f538:	fffffdec 	.word	0xfffffdec
1000f53c:	1000ec59 	.word	0x1000ec59
1000f540:	1001117d 	.word	0x1001117d
1000f544:	10010c81 	.word	0x10010c81

1000f548 <init_l2cc_task_module>:
1000f548:	220a      	movs	r2, #10
1000f54a:	4b01      	ldr	r3, [pc, #4]	; (1000f550 <init_l2cc_task_module+0x8>)
1000f54c:	701a      	strb	r2, [r3, #0]
1000f54e:	4770      	bx	lr
1000f550:	10014818 	.word	0x10014818

1000f554 <l2cc_data_send_rsp_handler>:
1000f554:	b510      	push	{r4, lr}
1000f556:	7802      	ldrb	r2, [r0, #0]
1000f558:	700a      	strb	r2, [r1, #0]
1000f55a:	7883      	ldrb	r3, [r0, #2]
1000f55c:	7844      	ldrb	r4, [r0, #1]
1000f55e:	021b      	lsls	r3, r3, #8
1000f560:	4323      	orrs	r3, r4
1000f562:	804b      	strh	r3, [r1, #2]
1000f564:	7903      	ldrb	r3, [r0, #4]
1000f566:	78c0      	ldrb	r0, [r0, #3]
1000f568:	021b      	lsls	r3, r3, #8
1000f56a:	4303      	orrs	r3, r0
1000f56c:	808b      	strh	r3, [r1, #4]
1000f56e:	2a00      	cmp	r2, #0
1000f570:	d103      	bne.n	1000f57a <l2cc_data_send_rsp_handler+0x26>
1000f572:	4a02      	ldr	r2, [pc, #8]	; (1000f57c <l2cc_data_send_rsp_handler+0x28>)
1000f574:	7813      	ldrb	r3, [r2, #0]
1000f576:	3301      	adds	r3, #1
1000f578:	7013      	strb	r3, [r2, #0]
1000f57a:	bd10      	pop	{r4, pc}
1000f57c:	10014818 	.word	0x10014818

1000f580 <l2cc_data_received_handler>:
1000f580:	b508      	push	{r3, lr}
1000f582:	1c03      	adds	r3, r0, #0
1000f584:	7842      	ldrb	r2, [r0, #1]
1000f586:	7800      	ldrb	r0, [r0, #0]
1000f588:	0212      	lsls	r2, r2, #8
1000f58a:	4302      	orrs	r2, r0
1000f58c:	800a      	strh	r2, [r1, #0]
1000f58e:	78da      	ldrb	r2, [r3, #3]
1000f590:	7898      	ldrb	r0, [r3, #2]
1000f592:	0212      	lsls	r2, r2, #8
1000f594:	4302      	orrs	r2, r0
1000f596:	804a      	strh	r2, [r1, #2]
1000f598:	795a      	ldrb	r2, [r3, #5]
1000f59a:	7918      	ldrb	r0, [r3, #4]
1000f59c:	0212      	lsls	r2, r2, #8
1000f59e:	4302      	orrs	r2, r0
1000f5a0:	808a      	strh	r2, [r1, #4]
1000f5a2:	1d88      	adds	r0, r1, #6
1000f5a4:	1d99      	adds	r1, r3, #6
1000f5a6:	4b01      	ldr	r3, [pc, #4]	; (1000f5ac <l2cc_data_received_handler+0x2c>)
1000f5a8:	4798      	blx	r3
1000f5aa:	bd08      	pop	{r3, pc}
1000f5ac:	10012fe3 	.word	0x10012fe3

1000f5b0 <at_ble_authenticate>:
1000f5b0:	b5f0      	push	{r4, r5, r6, r7, lr}
1000f5b2:	1c0c      	adds	r4, r1, #0
1000f5b4:	211f      	movs	r1, #31
1000f5b6:	b08b      	sub	sp, #44	; 0x2c
1000f5b8:	9307      	str	r3, [sp, #28]
1000f5ba:	ab02      	add	r3, sp, #8
1000f5bc:	18c9      	adds	r1, r1, r3
1000f5be:	230f      	movs	r3, #15
1000f5c0:	700b      	strb	r3, [r1, #0]
1000f5c2:	4b40      	ldr	r3, [pc, #256]	; (1000f6c4 <at_ble_authenticate+0x114>)
1000f5c4:	1c05      	adds	r5, r0, #0
1000f5c6:	1c16      	adds	r6, r2, #0
1000f5c8:	4798      	blx	r3
1000f5ca:	1c07      	adds	r7, r0, #0
1000f5cc:	2001      	movs	r0, #1
1000f5ce:	2f07      	cmp	r7, #7
1000f5d0:	d875      	bhi.n	1000f6be <at_ble_authenticate+0x10e>
1000f5d2:	2c00      	cmp	r4, #0
1000f5d4:	d113      	bne.n	1000f5fe <at_ble_authenticate+0x4e>
1000f5d6:	2312      	movs	r3, #18
1000f5d8:	435f      	muls	r7, r3
1000f5da:	4b3b      	ldr	r3, [pc, #236]	; (1000f6c8 <at_ble_authenticate+0x118>)
1000f5dc:	5cfb      	ldrb	r3, [r7, r3]
1000f5de:	4283      	cmp	r3, r0
1000f5e0:	d001      	beq.n	1000f5e6 <at_ble_authenticate+0x36>
1000f5e2:	20cf      	movs	r0, #207	; 0xcf
1000f5e4:	e06b      	b.n	1000f6be <at_ble_authenticate+0x10e>
1000f5e6:	9504      	str	r5, [sp, #16]
1000f5e8:	9400      	str	r4, [sp, #0]
1000f5ea:	9401      	str	r4, [sp, #4]
1000f5ec:	9402      	str	r4, [sp, #8]
1000f5ee:	9403      	str	r4, [sp, #12]
1000f5f0:	1c20      	adds	r0, r4, #0
1000f5f2:	1c21      	adds	r1, r4, #0
1000f5f4:	1c22      	adds	r2, r4, #0
1000f5f6:	1c23      	adds	r3, r4, #0
1000f5f8:	4d34      	ldr	r5, [pc, #208]	; (1000f6cc <at_ble_authenticate+0x11c>)
1000f5fa:	47a8      	blx	r5
1000f5fc:	e05e      	b.n	1000f6bc <at_ble_authenticate+0x10c>
1000f5fe:	7922      	ldrb	r2, [r4, #4]
1000f600:	2a06      	cmp	r2, #6
1000f602:	d9ee      	bls.n	1000f5e2 <at_ble_authenticate+0x32>
1000f604:	7963      	ldrb	r3, [r4, #5]
1000f606:	2b10      	cmp	r3, #16
1000f608:	d8eb      	bhi.n	1000f5e2 <at_ble_authenticate+0x32>
1000f60a:	429a      	cmp	r2, r3
1000f60c:	d8e9      	bhi.n	1000f5e2 <at_ble_authenticate+0x32>
1000f60e:	7a23      	ldrb	r3, [r4, #8]
1000f610:	2b04      	cmp	r3, #4
1000f612:	d8e6      	bhi.n	1000f5e2 <at_ble_authenticate+0x32>
1000f614:	79a3      	ldrb	r3, [r4, #6]
1000f616:	2b07      	cmp	r3, #7
1000f618:	d8e3      	bhi.n	1000f5e2 <at_ble_authenticate+0x32>
1000f61a:	79e3      	ldrb	r3, [r4, #7]
1000f61c:	2b07      	cmp	r3, #7
1000f61e:	d8e0      	bhi.n	1000f5e2 <at_ble_authenticate+0x32>
1000f620:	78a3      	ldrb	r3, [r4, #2]
1000f622:	2b00      	cmp	r3, #0
1000f624:	d006      	beq.n	1000f634 <at_ble_authenticate+0x84>
1000f626:	2e00      	cmp	r6, #0
1000f628:	d0db      	beq.n	1000f5e2 <at_ble_authenticate+0x32>
1000f62a:	4829      	ldr	r0, [pc, #164]	; (1000f6d0 <at_ble_authenticate+0x120>)
1000f62c:	1c31      	adds	r1, r6, #0
1000f62e:	221c      	movs	r2, #28
1000f630:	4b28      	ldr	r3, [pc, #160]	; (1000f6d4 <at_ble_authenticate+0x124>)
1000f632:	4798      	blx	r3
1000f634:	9b07      	ldr	r3, [sp, #28]
1000f636:	2b00      	cmp	r3, #0
1000f638:	d005      	beq.n	1000f646 <at_ble_authenticate+0x96>
1000f63a:	4827      	ldr	r0, [pc, #156]	; (1000f6d8 <at_ble_authenticate+0x128>)
1000f63c:	1c19      	adds	r1, r3, #0
1000f63e:	309a      	adds	r0, #154	; 0x9a
1000f640:	2210      	movs	r2, #16
1000f642:	4b24      	ldr	r3, [pc, #144]	; (1000f6d4 <at_ble_authenticate+0x124>)
1000f644:	4798      	blx	r3
1000f646:	7863      	ldrb	r3, [r4, #1]
1000f648:	78a2      	ldrb	r2, [r4, #2]
1000f64a:	009b      	lsls	r3, r3, #2
1000f64c:	4313      	orrs	r3, r2
1000f64e:	2212      	movs	r2, #18
1000f650:	4357      	muls	r7, r2
1000f652:	4a1d      	ldr	r2, [pc, #116]	; (1000f6c8 <at_ble_authenticate+0x118>)
1000f654:	b2db      	uxtb	r3, r3
1000f656:	5cba      	ldrb	r2, [r7, r2]
1000f658:	2a00      	cmp	r2, #0
1000f65a:	d116      	bne.n	1000f68a <at_ble_authenticate+0xda>
1000f65c:	79a0      	ldrb	r0, [r4, #6]
1000f65e:	0742      	lsls	r2, r0, #29
1000f660:	d502      	bpl.n	1000f668 <at_ble_authenticate+0xb8>
1000f662:	9a07      	ldr	r2, [sp, #28]
1000f664:	2a00      	cmp	r2, #0
1000f666:	d0bc      	beq.n	1000f5e2 <at_ble_authenticate+0x32>
1000f668:	07c2      	lsls	r2, r0, #31
1000f66a:	d501      	bpl.n	1000f670 <at_ble_authenticate+0xc0>
1000f66c:	2e00      	cmp	r6, #0
1000f66e:	d0b8      	beq.n	1000f5e2 <at_ble_authenticate+0x32>
1000f670:	7966      	ldrb	r6, [r4, #5]
1000f672:	7821      	ldrb	r1, [r4, #0]
1000f674:	78e2      	ldrb	r2, [r4, #3]
1000f676:	9600      	str	r6, [sp, #0]
1000f678:	9001      	str	r0, [sp, #4]
1000f67a:	79e0      	ldrb	r0, [r4, #7]
1000f67c:	9002      	str	r0, [sp, #8]
1000f67e:	7a20      	ldrb	r0, [r4, #8]
1000f680:	4c16      	ldr	r4, [pc, #88]	; (1000f6dc <at_ble_authenticate+0x12c>)
1000f682:	9003      	str	r0, [sp, #12]
1000f684:	1c28      	adds	r0, r5, #0
1000f686:	47a0      	blx	r4
1000f688:	e018      	b.n	1000f6bc <at_ble_authenticate+0x10c>
1000f68a:	2a01      	cmp	r2, #1
1000f68c:	d1a9      	bne.n	1000f5e2 <at_ble_authenticate+0x32>
1000f68e:	79e0      	ldrb	r0, [r4, #7]
1000f690:	0742      	lsls	r2, r0, #29
1000f692:	d502      	bpl.n	1000f69a <at_ble_authenticate+0xea>
1000f694:	9a07      	ldr	r2, [sp, #28]
1000f696:	2a00      	cmp	r2, #0
1000f698:	d0a3      	beq.n	1000f5e2 <at_ble_authenticate+0x32>
1000f69a:	07c2      	lsls	r2, r0, #31
1000f69c:	d501      	bpl.n	1000f6a2 <at_ble_authenticate+0xf2>
1000f69e:	2e00      	cmp	r6, #0
1000f6a0:	d09f      	beq.n	1000f5e2 <at_ble_authenticate+0x32>
1000f6a2:	7966      	ldrb	r6, [r4, #5]
1000f6a4:	7821      	ldrb	r1, [r4, #0]
1000f6a6:	78e2      	ldrb	r2, [r4, #3]
1000f6a8:	9600      	str	r6, [sp, #0]
1000f6aa:	79a6      	ldrb	r6, [r4, #6]
1000f6ac:	9002      	str	r0, [sp, #8]
1000f6ae:	9601      	str	r6, [sp, #4]
1000f6b0:	7a20      	ldrb	r0, [r4, #8]
1000f6b2:	9504      	str	r5, [sp, #16]
1000f6b4:	9003      	str	r0, [sp, #12]
1000f6b6:	4c05      	ldr	r4, [pc, #20]	; (1000f6cc <at_ble_authenticate+0x11c>)
1000f6b8:	2001      	movs	r0, #1
1000f6ba:	47a0      	blx	r4
1000f6bc:	2000      	movs	r0, #0
1000f6be:	b00b      	add	sp, #44	; 0x2c
1000f6c0:	bdf0      	pop	{r4, r5, r6, r7, pc}
1000f6c2:	46c0      	nop			; (mov r8, r8)
1000f6c4:	1000fa99 	.word	0x1000fa99
1000f6c8:	10015e42 	.word	0x10015e42
1000f6cc:	10010009 	.word	0x10010009
1000f6d0:	10015f50 	.word	0x10015f50
1000f6d4:	10012fe3 	.word	0x10012fe3
1000f6d8:	10015ed2 	.word	0x10015ed2
1000f6dc:	1000fde9 	.word	0x1000fde9

1000f6e0 <at_ble_pair_key_reply>:
1000f6e0:	b5f0      	push	{r4, r5, r6, r7, lr}
1000f6e2:	b085      	sub	sp, #20
1000f6e4:	1c05      	adds	r5, r0, #0
1000f6e6:	1c0c      	adds	r4, r1, #0
1000f6e8:	1c16      	adds	r6, r2, #0
1000f6ea:	2100      	movs	r1, #0
1000f6ec:	4668      	mov	r0, sp
1000f6ee:	2210      	movs	r2, #16
1000f6f0:	4b18      	ldr	r3, [pc, #96]	; (1000f754 <at_ble_pair_key_reply+0x74>)
1000f6f2:	4798      	blx	r3
1000f6f4:	2101      	movs	r1, #1
1000f6f6:	2e00      	cmp	r6, #0
1000f6f8:	d101      	bne.n	1000f6fe <at_ble_pair_key_reply+0x1e>
1000f6fa:	1c31      	adds	r1, r6, #0
1000f6fc:	466e      	mov	r6, sp
1000f6fe:	2c00      	cmp	r4, #0
1000f700:	d116      	bne.n	1000f730 <at_ble_pair_key_reply+0x50>
1000f702:	2701      	movs	r7, #1
1000f704:	1c23      	adds	r3, r4, #0
1000f706:	1d70      	adds	r0, r6, #5
1000f708:	3e01      	subs	r6, #1
1000f70a:	7802      	ldrb	r2, [r0, #0]
1000f70c:	3801      	subs	r0, #1
1000f70e:	3a30      	subs	r2, #48	; 0x30
1000f710:	437a      	muls	r2, r7
1000f712:	189b      	adds	r3, r3, r2
1000f714:	220a      	movs	r2, #10
1000f716:	4357      	muls	r7, r2
1000f718:	42b0      	cmp	r0, r6
1000f71a:	d1f6      	bne.n	1000f70a <at_ble_pair_key_reply+0x2a>
1000f71c:	466a      	mov	r2, sp
1000f71e:	4668      	mov	r0, sp
1000f720:	7013      	strb	r3, [r2, #0]
1000f722:	0a1a      	lsrs	r2, r3, #8
1000f724:	7042      	strb	r2, [r0, #1]
1000f726:	0c1a      	lsrs	r2, r3, #16
1000f728:	0e1b      	lsrs	r3, r3, #24
1000f72a:	7082      	strb	r2, [r0, #2]
1000f72c:	70c3      	strb	r3, [r0, #3]
1000f72e:	e009      	b.n	1000f744 <at_ble_pair_key_reply+0x64>
1000f730:	20cf      	movs	r0, #207	; 0xcf
1000f732:	2c01      	cmp	r4, #1
1000f734:	d10c      	bne.n	1000f750 <at_ble_pair_key_reply+0x70>
1000f736:	2300      	movs	r3, #0
1000f738:	4668      	mov	r0, sp
1000f73a:	5cf2      	ldrb	r2, [r6, r3]
1000f73c:	54c2      	strb	r2, [r0, r3]
1000f73e:	3301      	adds	r3, #1
1000f740:	2b10      	cmp	r3, #16
1000f742:	d1f9      	bne.n	1000f738 <at_ble_pair_key_reply+0x58>
1000f744:	2004      	movs	r0, #4
1000f746:	466a      	mov	r2, sp
1000f748:	1c2b      	adds	r3, r5, #0
1000f74a:	4c03      	ldr	r4, [pc, #12]	; (1000f758 <at_ble_pair_key_reply+0x78>)
1000f74c:	47a0      	blx	r4
1000f74e:	2000      	movs	r0, #0
1000f750:	b005      	add	sp, #20
1000f752:	bdf0      	pop	{r4, r5, r6, r7, pc}
1000f754:	10012ff5 	.word	0x10012ff5
1000f758:	10010085 	.word	0x10010085

1000f75c <at_ble_send_slave_sec_request>:
1000f75c:	b570      	push	{r4, r5, r6, lr}
1000f75e:	4b0c      	ldr	r3, [pc, #48]	; (1000f790 <at_ble_send_slave_sec_request+0x34>)
1000f760:	1c0e      	adds	r6, r1, #0
1000f762:	2100      	movs	r1, #0
1000f764:	1c05      	adds	r5, r0, #0
1000f766:	1c14      	adds	r4, r2, #0
1000f768:	4798      	blx	r3
1000f76a:	2301      	movs	r3, #1
1000f76c:	2807      	cmp	r0, #7
1000f76e:	d80d      	bhi.n	1000f78c <at_ble_send_slave_sec_request+0x30>
1000f770:	3311      	adds	r3, #17
1000f772:	4358      	muls	r0, r3
1000f774:	4b07      	ldr	r3, [pc, #28]	; (1000f794 <at_ble_send_slave_sec_request+0x38>)
1000f776:	5cc2      	ldrb	r2, [r0, r3]
1000f778:	23e0      	movs	r3, #224	; 0xe0
1000f77a:	2a01      	cmp	r2, #1
1000f77c:	d106      	bne.n	1000f78c <at_ble_send_slave_sec_request+0x30>
1000f77e:	00b1      	lsls	r1, r6, #2
1000f780:	430c      	orrs	r4, r1
1000f782:	4b05      	ldr	r3, [pc, #20]	; (1000f798 <at_ble_send_slave_sec_request+0x3c>)
1000f784:	b2e1      	uxtb	r1, r4
1000f786:	1c28      	adds	r0, r5, #0
1000f788:	4798      	blx	r3
1000f78a:	2300      	movs	r3, #0
1000f78c:	1c18      	adds	r0, r3, #0
1000f78e:	bd70      	pop	{r4, r5, r6, pc}
1000f790:	1000fa99 	.word	0x1000fa99
1000f794:	10015e42 	.word	0x10015e42
1000f798:	100100d5 	.word	0x100100d5

1000f79c <at_ble_encryption_start>:
1000f79c:	b5f7      	push	{r0, r1, r2, r4, r5, r6, r7, lr}
1000f79e:	23cf      	movs	r3, #207	; 0xcf
1000f7a0:	2900      	cmp	r1, #0
1000f7a2:	d02b      	beq.n	1000f7fc <at_ble_encryption_start+0x60>
1000f7a4:	2a05      	cmp	r2, #5
1000f7a6:	d829      	bhi.n	1000f7fc <at_ble_encryption_start+0x60>
1000f7a8:	2701      	movs	r7, #1
1000f7aa:	1c3d      	adds	r5, r7, #0
1000f7ac:	2433      	movs	r4, #51	; 0x33
1000f7ae:	4095      	lsls	r5, r2
1000f7b0:	4225      	tst	r5, r4
1000f7b2:	d023      	beq.n	1000f7fc <at_ble_encryption_start+0x60>
1000f7b4:	7e8c      	ldrb	r4, [r1, #26]
1000f7b6:	3c07      	subs	r4, #7
1000f7b8:	2c09      	cmp	r4, #9
1000f7ba:	d81f      	bhi.n	1000f7fc <at_ble_encryption_start+0x60>
1000f7bc:	4b10      	ldr	r3, [pc, #64]	; (1000f800 <at_ble_encryption_start+0x64>)
1000f7be:	1c0c      	adds	r4, r1, #0
1000f7c0:	2100      	movs	r1, #0
1000f7c2:	1c15      	adds	r5, r2, #0
1000f7c4:	1c06      	adds	r6, r0, #0
1000f7c6:	4798      	blx	r3
1000f7c8:	1c3b      	adds	r3, r7, #0
1000f7ca:	2807      	cmp	r0, #7
1000f7cc:	d816      	bhi.n	1000f7fc <at_ble_encryption_start+0x60>
1000f7ce:	2312      	movs	r3, #18
1000f7d0:	4358      	muls	r0, r3
1000f7d2:	4b0c      	ldr	r3, [pc, #48]	; (1000f804 <at_ble_encryption_start+0x68>)
1000f7d4:	5cc7      	ldrb	r7, [r0, r3]
1000f7d6:	23e0      	movs	r3, #224	; 0xe0
1000f7d8:	2f00      	cmp	r7, #0
1000f7da:	d10f      	bne.n	1000f7fc <at_ble_encryption_start+0x60>
1000f7dc:	1c21      	adds	r1, r4, #0
1000f7de:	221c      	movs	r2, #28
1000f7e0:	4b09      	ldr	r3, [pc, #36]	; (1000f808 <at_ble_encryption_start+0x6c>)
1000f7e2:	480a      	ldr	r0, [pc, #40]	; (1000f80c <at_ble_encryption_start+0x70>)
1000f7e4:	4798      	blx	r3
1000f7e6:	1c23      	adds	r3, r4, #0
1000f7e8:	7ea1      	ldrb	r1, [r4, #26]
1000f7ea:	8a22      	ldrh	r2, [r4, #16]
1000f7ec:	3312      	adds	r3, #18
1000f7ee:	9100      	str	r1, [sp, #0]
1000f7f0:	9501      	str	r5, [sp, #4]
1000f7f2:	1c21      	adds	r1, r4, #0
1000f7f4:	1c30      	adds	r0, r6, #0
1000f7f6:	4c06      	ldr	r4, [pc, #24]	; (1000f810 <at_ble_encryption_start+0x74>)
1000f7f8:	47a0      	blx	r4
1000f7fa:	1c3b      	adds	r3, r7, #0
1000f7fc:	1c18      	adds	r0, r3, #0
1000f7fe:	bdfe      	pop	{r1, r2, r3, r4, r5, r6, r7, pc}
1000f800:	1000fa99 	.word	0x1000fa99
1000f804:	10015e42 	.word	0x10015e42
1000f808:	10012fe3 	.word	0x10012fe3
1000f80c:	10015f50 	.word	0x10015f50
1000f810:	10010115 	.word	0x10010115

1000f814 <at_ble_encryption_request_reply>:
1000f814:	b573      	push	{r0, r1, r4, r5, r6, lr}
1000f816:	24cf      	movs	r4, #207	; 0xcf
1000f818:	2b00      	cmp	r3, #0
1000f81a:	d011      	beq.n	1000f840 <at_ble_encryption_request_reply+0x2c>
1000f81c:	2a00      	cmp	r2, #0
1000f81e:	d00a      	beq.n	1000f836 <at_ble_encryption_request_reply+0x22>
1000f820:	2905      	cmp	r1, #5
1000f822:	d80d      	bhi.n	1000f840 <at_ble_encryption_request_reply+0x2c>
1000f824:	2501      	movs	r5, #1
1000f826:	2633      	movs	r6, #51	; 0x33
1000f828:	408d      	lsls	r5, r1
1000f82a:	4235      	tst	r5, r6
1000f82c:	d008      	beq.n	1000f840 <at_ble_encryption_request_reply+0x2c>
1000f82e:	7e9d      	ldrb	r5, [r3, #26]
1000f830:	3d07      	subs	r5, #7
1000f832:	2d09      	cmp	r5, #9
1000f834:	d804      	bhi.n	1000f840 <at_ble_encryption_request_reply+0x2c>
1000f836:	7e9c      	ldrb	r4, [r3, #26]
1000f838:	9400      	str	r4, [sp, #0]
1000f83a:	4c02      	ldr	r4, [pc, #8]	; (1000f844 <at_ble_encryption_request_reply+0x30>)
1000f83c:	47a0      	blx	r4
1000f83e:	2400      	movs	r4, #0
1000f840:	1c20      	adds	r0, r4, #0
1000f842:	bd76      	pop	{r1, r2, r4, r5, r6, pc}
1000f844:	100101d1 	.word	0x100101d1

1000f848 <rx_callback>:
1000f848:	b5f7      	push	{r0, r1, r2, r4, r5, r6, r7, lr}
1000f84a:	88c5      	ldrh	r5, [r0, #6]
1000f84c:	8807      	ldrh	r7, [r0, #0]
1000f84e:	8886      	ldrh	r6, [r0, #4]
1000f850:	2d00      	cmp	r5, #0
1000f852:	d10c      	bne.n	1000f86e <rx_callback+0x26>
1000f854:	4b19      	ldr	r3, [pc, #100]	; (1000f8bc <rx_callback+0x74>)
1000f856:	1c38      	adds	r0, r7, #0
1000f858:	1c31      	adds	r1, r6, #0
1000f85a:	1c2a      	adds	r2, r5, #0
1000f85c:	4798      	blx	r3
1000f85e:	1e03      	subs	r3, r0, #0
1000f860:	d12a      	bne.n	1000f8b8 <rx_callback+0x70>
1000f862:	1c38      	adds	r0, r7, #0
1000f864:	1c31      	adds	r1, r6, #0
1000f866:	1c1a      	adds	r2, r3, #0
1000f868:	4c15      	ldr	r4, [pc, #84]	; (1000f8c0 <rx_callback+0x78>)
1000f86a:	47a0      	blx	r4
1000f86c:	e024      	b.n	1000f8b8 <rx_callback+0x70>
1000f86e:	2296      	movs	r2, #150	; 0x96
1000f870:	4c14      	ldr	r4, [pc, #80]	; (1000f8c4 <rx_callback+0x7c>)
1000f872:	0092      	lsls	r2, r2, #2
1000f874:	8823      	ldrh	r3, [r4, #0]
1000f876:	195b      	adds	r3, r3, r5
1000f878:	4293      	cmp	r3, r2
1000f87a:	dd01      	ble.n	1000f880 <rx_callback+0x38>
1000f87c:	2300      	movs	r3, #0
1000f87e:	8023      	strh	r3, [r4, #0]
1000f880:	1c01      	adds	r1, r0, #0
1000f882:	4a11      	ldr	r2, [pc, #68]	; (1000f8c8 <rx_callback+0x80>)
1000f884:	8823      	ldrh	r3, [r4, #0]
1000f886:	3108      	adds	r1, #8
1000f888:	189b      	adds	r3, r3, r2
1000f88a:	9301      	str	r3, [sp, #4]
1000f88c:	1c18      	adds	r0, r3, #0
1000f88e:	1c2a      	adds	r2, r5, #0
1000f890:	4b0e      	ldr	r3, [pc, #56]	; (1000f8cc <rx_callback+0x84>)
1000f892:	4798      	blx	r3
1000f894:	1c38      	adds	r0, r7, #0
1000f896:	1c31      	adds	r1, r6, #0
1000f898:	9a01      	ldr	r2, [sp, #4]
1000f89a:	4b08      	ldr	r3, [pc, #32]	; (1000f8bc <rx_callback+0x74>)
1000f89c:	4798      	blx	r3
1000f89e:	2800      	cmp	r0, #0
1000f8a0:	d10a      	bne.n	1000f8b8 <rx_callback+0x70>
1000f8a2:	4b09      	ldr	r3, [pc, #36]	; (1000f8c8 <rx_callback+0x80>)
1000f8a4:	8822      	ldrh	r2, [r4, #0]
1000f8a6:	1c31      	adds	r1, r6, #0
1000f8a8:	18d2      	adds	r2, r2, r3
1000f8aa:	1c38      	adds	r0, r7, #0
1000f8ac:	1c2b      	adds	r3, r5, #0
1000f8ae:	4e04      	ldr	r6, [pc, #16]	; (1000f8c0 <rx_callback+0x78>)
1000f8b0:	47b0      	blx	r6
1000f8b2:	8823      	ldrh	r3, [r4, #0]
1000f8b4:	18ed      	adds	r5, r5, r3
1000f8b6:	8025      	strh	r5, [r4, #0]
1000f8b8:	bdf7      	pop	{r0, r1, r2, r4, r5, r6, r7, pc}
1000f8ba:	46c0      	nop			; (mov r8, r8)
1000f8bc:	1000dfcd 	.word	0x1000dfcd
1000f8c0:	1000df61 	.word	0x1000df61
1000f8c4:	10015fac 	.word	0x10015fac
1000f8c8:	100163b0 	.word	0x100163b0
1000f8cc:	10012fe3 	.word	0x10012fe3

1000f8d0 <interface_send>:
1000f8d0:	b508      	push	{r3, lr}
1000f8d2:	4b02      	ldr	r3, [pc, #8]	; (1000f8dc <interface_send+0xc>)
1000f8d4:	4798      	blx	r3
1000f8d6:	2000      	movs	r0, #0
1000f8d8:	bd08      	pop	{r3, pc}
1000f8da:	46c0      	nop			; (mov r8, r8)
1000f8dc:	1000daa9 	.word	0x1000daa9

1000f8e0 <interface_init>:
1000f8e0:	2280      	movs	r2, #128	; 0x80
1000f8e2:	b510      	push	{r4, lr}
1000f8e4:	2100      	movs	r1, #0
1000f8e6:	4c08      	ldr	r4, [pc, #32]	; (1000f908 <interface_init+0x28>)
1000f8e8:	0092      	lsls	r2, r2, #2
1000f8ea:	4808      	ldr	r0, [pc, #32]	; (1000f90c <interface_init+0x2c>)
1000f8ec:	47a0      	blx	r4
1000f8ee:	2296      	movs	r2, #150	; 0x96
1000f8f0:	2100      	movs	r1, #0
1000f8f2:	0092      	lsls	r2, r2, #2
1000f8f4:	4806      	ldr	r0, [pc, #24]	; (1000f910 <interface_init+0x30>)
1000f8f6:	47a0      	blx	r4
1000f8f8:	2200      	movs	r2, #0
1000f8fa:	4b06      	ldr	r3, [pc, #24]	; (1000f914 <interface_init+0x34>)
1000f8fc:	801a      	strh	r2, [r3, #0]
1000f8fe:	4a06      	ldr	r2, [pc, #24]	; (1000f918 <interface_init+0x38>)
1000f900:	4b06      	ldr	r3, [pc, #24]	; (1000f91c <interface_init+0x3c>)
1000f902:	601a      	str	r2, [r3, #0]
1000f904:	bd10      	pop	{r4, pc}
1000f906:	46c0      	nop			; (mov r8, r8)
1000f908:	10012ff5 	.word	0x10012ff5
1000f90c:	100161b0 	.word	0x100161b0
1000f910:	100163b0 	.word	0x100163b0
1000f914:	10015fac 	.word	0x10015fac
1000f918:	10015fb0 	.word	0x10015fb0
1000f91c:	1001481c 	.word	0x1001481c

1000f920 <platform_cmd_cmpl_signal>:
1000f920:	2201      	movs	r2, #1
1000f922:	4b01      	ldr	r3, [pc, #4]	; (1000f928 <platform_cmd_cmpl_signal+0x8>)
1000f924:	601a      	str	r2, [r3, #0]
1000f926:	4770      	bx	lr
1000f928:	10014f50 	.word	0x10014f50

1000f92c <platform_cmd_cmpl_wait>:
1000f92c:	b510      	push	{r4, lr}
1000f92e:	1c04      	adds	r4, r0, #0
1000f930:	4b07      	ldr	r3, [pc, #28]	; (1000f950 <platform_cmd_cmpl_wait+0x24>)
1000f932:	681a      	ldr	r2, [r3, #0]
1000f934:	2a01      	cmp	r2, #1
1000f936:	d003      	beq.n	1000f940 <platform_cmd_cmpl_wait+0x14>
1000f938:	4b06      	ldr	r3, [pc, #24]	; (1000f954 <platform_cmd_cmpl_wait+0x28>)
1000f93a:	2000      	movs	r0, #0
1000f93c:	4798      	blx	r3
1000f93e:	e7f7      	b.n	1000f930 <platform_cmd_cmpl_wait+0x4>
1000f940:	6819      	ldr	r1, [r3, #0]
1000f942:	2901      	cmp	r1, #1
1000f944:	d102      	bne.n	1000f94c <platform_cmd_cmpl_wait+0x20>
1000f946:	2200      	movs	r2, #0
1000f948:	601a      	str	r2, [r3, #0]
1000f94a:	e000      	b.n	1000f94e <platform_cmd_cmpl_wait+0x22>
1000f94c:	7022      	strb	r2, [r4, #0]
1000f94e:	bd10      	pop	{r4, pc}
1000f950:	10014f50 	.word	0x10014f50
1000f954:	1000db4d 	.word	0x1000db4d

1000f958 <start_timer>:
1000f958:	4770      	bx	lr

1000f95a <stop_timer>:
1000f95a:	4770      	bx	lr

1000f95c <dbg_le_set_bd_addr_req_handler>:
1000f95c:	b5f7      	push	{r0, r1, r2, r4, r5, r6, r7, lr}
1000f95e:	466b      	mov	r3, sp
1000f960:	1dde      	adds	r6, r3, #7
1000f962:	2300      	movs	r3, #0
1000f964:	7033      	strb	r3, [r6, #0]
1000f966:	230f      	movs	r3, #15
1000f968:	4c13      	ldr	r4, [pc, #76]	; (1000f9b8 <dbg_le_set_bd_addr_req_handler+0x5c>)
1000f96a:	2703      	movs	r7, #3
1000f96c:	7023      	strb	r3, [r4, #0]
1000f96e:	2300      	movs	r3, #0
1000f970:	70e3      	strb	r3, [r4, #3]
1000f972:	4b12      	ldr	r3, [pc, #72]	; (1000f9bc <dbg_le_set_bd_addr_req_handler+0x60>)
1000f974:	1c01      	adds	r1, r0, #0
1000f976:	881a      	ldrh	r2, [r3, #0]
1000f978:	881b      	ldrh	r3, [r3, #0]
1000f97a:	7122      	strb	r2, [r4, #4]
1000f97c:	0a1b      	lsrs	r3, r3, #8
1000f97e:	2206      	movs	r2, #6
1000f980:	7163      	strb	r3, [r4, #5]
1000f982:	480f      	ldr	r0, [pc, #60]	; (1000f9c0 <dbg_le_set_bd_addr_req_handler+0x64>)
1000f984:	4b0f      	ldr	r3, [pc, #60]	; (1000f9c4 <dbg_le_set_bd_addr_req_handler+0x68>)
1000f986:	7067      	strb	r7, [r4, #1]
1000f988:	70a7      	strb	r7, [r4, #2]
1000f98a:	4798      	blx	r3
1000f98c:	4d0e      	ldr	r5, [pc, #56]	; (1000f9c8 <dbg_le_set_bd_addr_req_handler+0x6c>)
1000f98e:	4b0f      	ldr	r3, [pc, #60]	; (1000f9cc <dbg_le_set_bd_addr_req_handler+0x70>)
1000f990:	210e      	movs	r1, #14
1000f992:	802b      	strh	r3, [r5, #0]
1000f994:	2306      	movs	r3, #6
1000f996:	71a3      	strb	r3, [r4, #6]
1000f998:	2300      	movs	r3, #0
1000f99a:	1c20      	adds	r0, r4, #0
1000f99c:	71e3      	strb	r3, [r4, #7]
1000f99e:	4b0c      	ldr	r3, [pc, #48]	; (1000f9d0 <dbg_le_set_bd_addr_req_handler+0x74>)
1000f9a0:	80af      	strh	r7, [r5, #4]
1000f9a2:	4798      	blx	r3
1000f9a4:	1c30      	adds	r0, r6, #0
1000f9a6:	4b0b      	ldr	r3, [pc, #44]	; (1000f9d4 <dbg_le_set_bd_addr_req_handler+0x78>)
1000f9a8:	4798      	blx	r3
1000f9aa:	7833      	ldrb	r3, [r6, #0]
1000f9ac:	20e2      	movs	r0, #226	; 0xe2
1000f9ae:	2b00      	cmp	r3, #0
1000f9b0:	d101      	bne.n	1000f9b6 <dbg_le_set_bd_addr_req_handler+0x5a>
1000f9b2:	68ab      	ldr	r3, [r5, #8]
1000f9b4:	7818      	ldrb	r0, [r3, #0]
1000f9b6:	bdfe      	pop	{r1, r2, r3, r4, r5, r6, r7, pc}
1000f9b8:	100161b0 	.word	0x100161b0
1000f9bc:	10015e40 	.word	0x10015e40
1000f9c0:	100161b8 	.word	0x100161b8
1000f9c4:	10012fe3 	.word	0x10012fe3
1000f9c8:	10015e34 	.word	0x10015e34
1000f9cc:	00000329 	.word	0x00000329
1000f9d0:	1000f8d1 	.word	0x1000f8d1
1000f9d4:	1000f92d 	.word	0x1000f92d

1000f9d8 <gapc_get_dev_info_cfm.constprop.1>:
1000f9d8:	b538      	push	{r3, r4, r5, lr}
1000f9da:	230b      	movs	r3, #11
1000f9dc:	4c27      	ldr	r4, [pc, #156]	; (1000fa7c <gapc_get_dev_info_cfm.constprop.1+0xa4>)
1000f9de:	7023      	strb	r3, [r4, #0]
1000f9e0:	3303      	adds	r3, #3
1000f9e2:	7063      	strb	r3, [r4, #1]
1000f9e4:	3329      	adds	r3, #41	; 0x29
1000f9e6:	70a3      	strb	r3, [r4, #2]
1000f9e8:	4b25      	ldr	r3, [pc, #148]	; (1000fa80 <gapc_get_dev_info_cfm.constprop.1+0xa8>)
1000f9ea:	70e1      	strb	r1, [r4, #3]
1000f9ec:	881a      	ldrh	r2, [r3, #0]
1000f9ee:	881b      	ldrh	r3, [r3, #0]
1000f9f0:	7122      	strb	r2, [r4, #4]
1000f9f2:	0a1b      	lsrs	r3, r3, #8
1000f9f4:	7163      	strb	r3, [r4, #5]
1000f9f6:	2300      	movs	r3, #0
1000f9f8:	7220      	strb	r0, [r4, #8]
1000f9fa:	7263      	strb	r3, [r4, #9]
1000f9fc:	2801      	cmp	r0, #1
1000f9fe:	d02b      	beq.n	1000fa58 <gapc_get_dev_info_cfm.constprop.1+0x80>
1000fa00:	4298      	cmp	r0, r3
1000fa02:	d01b      	beq.n	1000fa3c <gapc_get_dev_info_cfm.constprop.1+0x64>
1000fa04:	2802      	cmp	r0, #2
1000fa06:	d12f      	bne.n	1000fa68 <gapc_get_dev_info_cfm.constprop.1+0x90>
1000fa08:	4b1e      	ldr	r3, [pc, #120]	; (1000fa84 <gapc_get_dev_info_cfm.constprop.1+0xac>)
1000fa0a:	2112      	movs	r1, #18
1000fa0c:	1c1a      	adds	r2, r3, #0
1000fa0e:	32ce      	adds	r2, #206	; 0xce
1000fa10:	8812      	ldrh	r2, [r2, #0]
1000fa12:	72a2      	strb	r2, [r4, #10]
1000fa14:	0a12      	lsrs	r2, r2, #8
1000fa16:	72e2      	strb	r2, [r4, #11]
1000fa18:	1c1a      	adds	r2, r3, #0
1000fa1a:	32d0      	adds	r2, #208	; 0xd0
1000fa1c:	8812      	ldrh	r2, [r2, #0]
1000fa1e:	7322      	strb	r2, [r4, #12]
1000fa20:	0a12      	lsrs	r2, r2, #8
1000fa22:	7362      	strb	r2, [r4, #13]
1000fa24:	1c1a      	adds	r2, r3, #0
1000fa26:	32d2      	adds	r2, #210	; 0xd2
1000fa28:	8812      	ldrh	r2, [r2, #0]
1000fa2a:	33d4      	adds	r3, #212	; 0xd4
1000fa2c:	73a2      	strb	r2, [r4, #14]
1000fa2e:	0a12      	lsrs	r2, r2, #8
1000fa30:	73e2      	strb	r2, [r4, #15]
1000fa32:	881b      	ldrh	r3, [r3, #0]
1000fa34:	7423      	strb	r3, [r4, #16]
1000fa36:	0a1b      	lsrs	r3, r3, #8
1000fa38:	7463      	strb	r3, [r4, #17]
1000fa3a:	e016      	b.n	1000fa6a <gapc_get_dev_info_cfm.constprop.1+0x92>
1000fa3c:	4b11      	ldr	r3, [pc, #68]	; (1000fa84 <gapc_get_dev_info_cfm.constprop.1+0xac>)
1000fa3e:	4912      	ldr	r1, [pc, #72]	; (1000fa88 <gapc_get_dev_info_cfm.constprop.1+0xb0>)
1000fa40:	33aa      	adds	r3, #170	; 0xaa
1000fa42:	881d      	ldrh	r5, [r3, #0]
1000fa44:	4811      	ldr	r0, [pc, #68]	; (1000fa8c <gapc_get_dev_info_cfm.constprop.1+0xb4>)
1000fa46:	0a2b      	lsrs	r3, r5, #8
1000fa48:	72a5      	strb	r5, [r4, #10]
1000fa4a:	72e3      	strb	r3, [r4, #11]
1000fa4c:	1c2a      	adds	r2, r5, #0
1000fa4e:	4b10      	ldr	r3, [pc, #64]	; (1000fa90 <gapc_get_dev_info_cfm.constprop.1+0xb8>)
1000fa50:	350c      	adds	r5, #12
1000fa52:	4798      	blx	r3
1000fa54:	b2a9      	uxth	r1, r5
1000fa56:	e008      	b.n	1000fa6a <gapc_get_dev_info_cfm.constprop.1+0x92>
1000fa58:	4b0a      	ldr	r3, [pc, #40]	; (1000fa84 <gapc_get_dev_info_cfm.constprop.1+0xac>)
1000fa5a:	210c      	movs	r1, #12
1000fa5c:	33cc      	adds	r3, #204	; 0xcc
1000fa5e:	881b      	ldrh	r3, [r3, #0]
1000fa60:	72a3      	strb	r3, [r4, #10]
1000fa62:	0a1b      	lsrs	r3, r3, #8
1000fa64:	72e3      	strb	r3, [r4, #11]
1000fa66:	e000      	b.n	1000fa6a <gapc_get_dev_info_cfm.constprop.1+0x92>
1000fa68:	210a      	movs	r1, #10
1000fa6a:	1c0b      	adds	r3, r1, #0
1000fa6c:	3b08      	subs	r3, #8
1000fa6e:	71a3      	strb	r3, [r4, #6]
1000fa70:	121b      	asrs	r3, r3, #8
1000fa72:	71e3      	strb	r3, [r4, #7]
1000fa74:	1c20      	adds	r0, r4, #0
1000fa76:	4b07      	ldr	r3, [pc, #28]	; (1000fa94 <gapc_get_dev_info_cfm.constprop.1+0xbc>)
1000fa78:	4798      	blx	r3
1000fa7a:	bd38      	pop	{r3, r4, r5, pc}
1000fa7c:	100161b0 	.word	0x100161b0
1000fa80:	10015e40 	.word	0x10015e40
1000fa84:	10015ed2 	.word	0x10015ed2
1000fa88:	10015f7e 	.word	0x10015f7e
1000fa8c:	100161bc 	.word	0x100161bc
1000fa90:	10012fe3 	.word	0x10012fe3
1000fa94:	1000f8d1 	.word	0x1000f8d1

1000fa98 <check_ConnData_idx_role>:
1000fa98:	4b0c      	ldr	r3, [pc, #48]	; (1000facc <check_ConnData_idx_role+0x34>)
1000fa9a:	b570      	push	{r4, r5, r6, lr}
1000fa9c:	1c04      	adds	r4, r0, #0
1000fa9e:	2008      	movs	r0, #8
1000faa0:	429c      	cmp	r4, r3
1000faa2:	d011      	beq.n	1000fac8 <check_ConnData_idx_role+0x30>
1000faa4:	2300      	movs	r3, #0
1000faa6:	2212      	movs	r2, #18
1000faa8:	435a      	muls	r2, r3
1000faaa:	4d09      	ldr	r5, [pc, #36]	; (1000fad0 <check_ConnData_idx_role+0x38>)
1000faac:	b2d8      	uxtb	r0, r3
1000faae:	1956      	adds	r6, r2, r5
1000fab0:	8976      	ldrh	r6, [r6, #10]
1000fab2:	42a6      	cmp	r6, r4
1000fab4:	d104      	bne.n	1000fac0 <check_ConnData_idx_role+0x28>
1000fab6:	2900      	cmp	r1, #0
1000fab8:	d006      	beq.n	1000fac8 <check_ConnData_idx_role+0x30>
1000faba:	5d53      	ldrb	r3, [r2, r5]
1000fabc:	700b      	strb	r3, [r1, #0]
1000fabe:	e003      	b.n	1000fac8 <check_ConnData_idx_role+0x30>
1000fac0:	3301      	adds	r3, #1
1000fac2:	2b08      	cmp	r3, #8
1000fac4:	d1ef      	bne.n	1000faa6 <check_ConnData_idx_role+0xe>
1000fac6:	1c18      	adds	r0, r3, #0
1000fac8:	bd70      	pop	{r4, r5, r6, pc}
1000faca:	46c0      	nop			; (mov r8, r8)
1000facc:	0000ffff 	.word	0x0000ffff
1000fad0:	10015e42 	.word	0x10015e42

1000fad4 <check_ConnData_emptyEntry>:
1000fad4:	2300      	movs	r3, #0
1000fad6:	2212      	movs	r2, #18
1000fad8:	435a      	muls	r2, r3
1000fada:	4906      	ldr	r1, [pc, #24]	; (1000faf4 <check_ConnData_emptyEntry+0x20>)
1000fadc:	b2d8      	uxtb	r0, r3
1000fade:	1852      	adds	r2, r2, r1
1000fae0:	8951      	ldrh	r1, [r2, #10]
1000fae2:	4a05      	ldr	r2, [pc, #20]	; (1000faf8 <check_ConnData_emptyEntry+0x24>)
1000fae4:	4291      	cmp	r1, r2
1000fae6:	d003      	beq.n	1000faf0 <check_ConnData_emptyEntry+0x1c>
1000fae8:	3301      	adds	r3, #1
1000faea:	2b08      	cmp	r3, #8
1000faec:	d1f3      	bne.n	1000fad6 <check_ConnData_emptyEntry+0x2>
1000faee:	1c18      	adds	r0, r3, #0
1000faf0:	4770      	bx	lr
1000faf2:	46c0      	nop			; (mov r8, r8)
1000faf4:	10015e42 	.word	0x10015e42
1000faf8:	0000ffff 	.word	0x0000ffff

1000fafc <gapc_cmp_evt>:
1000fafc:	b5f7      	push	{r0, r1, r2, r4, r5, r6, r7, lr}
1000fafe:	780b      	ldrb	r3, [r1, #0]
1000fb00:	1c05      	adds	r5, r0, #0
1000fb02:	1e58      	subs	r0, r3, #1
1000fb04:	784e      	ldrb	r6, [r1, #1]
1000fb06:	280f      	cmp	r0, #15
1000fb08:	d85a      	bhi.n	1000fbc0 <gapc_cmp_evt+0xc4>
1000fb0a:	1c14      	adds	r4, r2, #0
1000fb0c:	f001 fba4 	bl	10011258 <__gnu_thumb1_case_uqi>
1000fb10:	5858440a 	.word	0x5858440a
1000fb14:	4b584444 	.word	0x4b584444
1000fb18:	0825122d 	.word	0x0825122d
1000fb1c:	3e395858 	.word	0x3e395858
1000fb20:	203b      	movs	r0, #59	; 0x3b
1000fb22:	e04e      	b.n	1000fbc2 <gapc_cmp_evt+0xc6>
1000fb24:	203b      	movs	r0, #59	; 0x3b
1000fb26:	2e00      	cmp	r6, #0
1000fb28:	d04b      	beq.n	1000fbc2 <gapc_cmp_evt+0xc6>
1000fb2a:	0a2d      	lsrs	r5, r5, #8
1000fb2c:	8015      	strh	r5, [r2, #0]
1000fb2e:	7096      	strb	r6, [r2, #2]
1000fb30:	3835      	subs	r0, #53	; 0x35
1000fb32:	e046      	b.n	1000fbc2 <gapc_cmp_evt+0xc6>
1000fb34:	466b      	mov	r3, sp
1000fb36:	1ddf      	adds	r7, r3, #7
1000fb38:	2301      	movs	r3, #1
1000fb3a:	0a2d      	lsrs	r5, r5, #8
1000fb3c:	703b      	strb	r3, [r7, #0]
1000fb3e:	1c28      	adds	r0, r5, #0
1000fb40:	1c39      	adds	r1, r7, #0
1000fb42:	4b20      	ldr	r3, [pc, #128]	; (1000fbc4 <gapc_cmp_evt+0xc8>)
1000fb44:	4798      	blx	r3
1000fb46:	2807      	cmp	r0, #7
1000fb48:	d803      	bhi.n	1000fb52 <gapc_cmp_evt+0x56>
1000fb4a:	783b      	ldrb	r3, [r7, #0]
1000fb4c:	203b      	movs	r0, #59	; 0x3b
1000fb4e:	2b00      	cmp	r3, #0
1000fb50:	d037      	beq.n	1000fbc2 <gapc_cmp_evt+0xc6>
1000fb52:	8065      	strh	r5, [r4, #2]
1000fb54:	7126      	strb	r6, [r4, #4]
1000fb56:	2009      	movs	r0, #9
1000fb58:	e033      	b.n	1000fbc2 <gapc_cmp_evt+0xc6>
1000fb5a:	203b      	movs	r0, #59	; 0x3b
1000fb5c:	2e00      	cmp	r6, #0
1000fb5e:	d030      	beq.n	1000fbc2 <gapc_cmp_evt+0xc6>
1000fb60:	0a2d      	lsrs	r5, r5, #8
1000fb62:	8015      	strh	r5, [r2, #0]
1000fb64:	7096      	strb	r6, [r2, #2]
1000fb66:	382d      	subs	r0, #45	; 0x2d
1000fb68:	e02b      	b.n	1000fbc2 <gapc_cmp_evt+0xc6>
1000fb6a:	203b      	movs	r0, #59	; 0x3b
1000fb6c:	2e00      	cmp	r6, #0
1000fb6e:	d028      	beq.n	1000fbc2 <gapc_cmp_evt+0xc6>
1000fb70:	2300      	movs	r3, #0
1000fb72:	0a2d      	lsrs	r5, r5, #8
1000fb74:	8015      	strh	r5, [r2, #0]
1000fb76:	7096      	strb	r6, [r2, #2]
1000fb78:	8093      	strh	r3, [r2, #4]
1000fb7a:	80d3      	strh	r3, [r2, #6]
1000fb7c:	8113      	strh	r3, [r2, #8]
1000fb7e:	3834      	subs	r0, #52	; 0x34
1000fb80:	e01f      	b.n	1000fbc2 <gapc_cmp_evt+0xc6>
1000fb82:	203b      	movs	r0, #59	; 0x3b
1000fb84:	2e00      	cmp	r6, #0
1000fb86:	d01c      	beq.n	1000fbc2 <gapc_cmp_evt+0xc6>
1000fb88:	7216      	strb	r6, [r2, #8]
1000fb8a:	e003      	b.n	1000fb94 <gapc_cmp_evt+0x98>
1000fb8c:	203b      	movs	r0, #59	; 0x3b
1000fb8e:	2e00      	cmp	r6, #0
1000fb90:	d017      	beq.n	1000fbc2 <gapc_cmp_evt+0xc6>
1000fb92:	7116      	strb	r6, [r2, #4]
1000fb94:	3812      	subs	r0, #18
1000fb96:	e014      	b.n	1000fbc2 <gapc_cmp_evt+0xc6>
1000fb98:	203b      	movs	r0, #59	; 0x3b
1000fb9a:	2e00      	cmp	r6, #0
1000fb9c:	d011      	beq.n	1000fbc2 <gapc_cmp_evt+0xc6>
1000fb9e:	7093      	strb	r3, [r2, #2]
1000fba0:	70d6      	strb	r6, [r2, #3]
1000fba2:	382a      	subs	r0, #42	; 0x2a
1000fba4:	e00d      	b.n	1000fbc2 <gapc_cmp_evt+0xc6>
1000fba6:	203b      	movs	r0, #59	; 0x3b
1000fba8:	2e00      	cmp	r6, #0
1000fbaa:	d00a      	beq.n	1000fbc2 <gapc_cmp_evt+0xc6>
1000fbac:	0a2d      	lsrs	r5, r5, #8
1000fbae:	7016      	strb	r6, [r2, #0]
1000fbb0:	8055      	strh	r5, [r2, #2]
1000fbb2:	1d10      	adds	r0, r2, #4
1000fbb4:	2100      	movs	r1, #0
1000fbb6:	2205      	movs	r2, #5
1000fbb8:	4b03      	ldr	r3, [pc, #12]	; (1000fbc8 <gapc_cmp_evt+0xcc>)
1000fbba:	4798      	blx	r3
1000fbbc:	2012      	movs	r0, #18
1000fbbe:	e000      	b.n	1000fbc2 <gapc_cmp_evt+0xc6>
1000fbc0:	2000      	movs	r0, #0
1000fbc2:	bdfe      	pop	{r1, r2, r3, r4, r5, r6, r7, pc}
1000fbc4:	1000fa99 	.word	0x1000fa99
1000fbc8:	10012ff5 	.word	0x10012ff5

1000fbcc <gapc_connection_cfm_handler>:
1000fbcc:	b5f0      	push	{r4, r5, r6, r7, lr}
1000fbce:	b085      	sub	sp, #20
1000fbd0:	1c1d      	adds	r5, r3, #0
1000fbd2:	ab0a      	add	r3, sp, #40	; 0x28
1000fbd4:	781b      	ldrb	r3, [r3, #0]
1000fbd6:	9201      	str	r2, [sp, #4]
1000fbd8:	9302      	str	r3, [sp, #8]
1000fbda:	ab0b      	add	r3, sp, #44	; 0x2c
1000fbdc:	781b      	ldrb	r3, [r3, #0]
1000fbde:	1c07      	adds	r7, r0, #0
1000fbe0:	9303      	str	r3, [sp, #12]
1000fbe2:	ab0c      	add	r3, sp, #48	; 0x30
1000fbe4:	881a      	ldrh	r2, [r3, #0]
1000fbe6:	2302      	movs	r3, #2
1000fbe8:	1c0e      	adds	r6, r1, #0
1000fbea:	4c23      	ldr	r4, [pc, #140]	; (1000fc78 <gapc_connection_cfm_handler+0xac>)
1000fbec:	1c39      	adds	r1, r7, #0
1000fbee:	7023      	strb	r3, [r4, #0]
1000fbf0:	330c      	adds	r3, #12
1000fbf2:	7063      	strb	r3, [r4, #1]
1000fbf4:	70a3      	strb	r3, [r4, #2]
1000fbf6:	4b21      	ldr	r3, [pc, #132]	; (1000fc7c <gapc_connection_cfm_handler+0xb0>)
1000fbf8:	70e2      	strb	r2, [r4, #3]
1000fbfa:	881a      	ldrh	r2, [r3, #0]
1000fbfc:	881b      	ldrh	r3, [r3, #0]
1000fbfe:	7122      	strb	r2, [r4, #4]
1000fc00:	0a1b      	lsrs	r3, r3, #8
1000fc02:	4f1f      	ldr	r7, [pc, #124]	; (1000fc80 <gapc_connection_cfm_handler+0xb4>)
1000fc04:	2210      	movs	r2, #16
1000fc06:	481f      	ldr	r0, [pc, #124]	; (1000fc84 <gapc_connection_cfm_handler+0xb8>)
1000fc08:	7163      	strb	r3, [r4, #5]
1000fc0a:	47b8      	blx	r7
1000fc0c:	0a33      	lsrs	r3, r6, #8
1000fc0e:	7626      	strb	r6, [r4, #24]
1000fc10:	7663      	strb	r3, [r4, #25]
1000fc12:	9901      	ldr	r1, [sp, #4]
1000fc14:	0c33      	lsrs	r3, r6, #16
1000fc16:	2210      	movs	r2, #16
1000fc18:	0e36      	lsrs	r6, r6, #24
1000fc1a:	481b      	ldr	r0, [pc, #108]	; (1000fc88 <gapc_connection_cfm_handler+0xbc>)
1000fc1c:	76a3      	strb	r3, [r4, #26]
1000fc1e:	76e6      	strb	r6, [r4, #27]
1000fc20:	47b8      	blx	r7
1000fc22:	1c23      	adds	r3, r4, #0
1000fc24:	332c      	adds	r3, #44	; 0x2c
1000fc26:	701d      	strb	r5, [r3, #0]
1000fc28:	1c23      	adds	r3, r4, #0
1000fc2a:	0a2a      	lsrs	r2, r5, #8
1000fc2c:	332d      	adds	r3, #45	; 0x2d
1000fc2e:	701a      	strb	r2, [r3, #0]
1000fc30:	1c23      	adds	r3, r4, #0
1000fc32:	0c2a      	lsrs	r2, r5, #16
1000fc34:	332e      	adds	r3, #46	; 0x2e
1000fc36:	701a      	strb	r2, [r3, #0]
1000fc38:	1c23      	adds	r3, r4, #0
1000fc3a:	0e2d      	lsrs	r5, r5, #24
1000fc3c:	332f      	adds	r3, #47	; 0x2f
1000fc3e:	466a      	mov	r2, sp
1000fc40:	701d      	strb	r5, [r3, #0]
1000fc42:	1c23      	adds	r3, r4, #0
1000fc44:	7a12      	ldrb	r2, [r2, #8]
1000fc46:	3330      	adds	r3, #48	; 0x30
1000fc48:	701a      	strb	r2, [r3, #0]
1000fc4a:	1c23      	adds	r3, r4, #0
1000fc4c:	2500      	movs	r5, #0
1000fc4e:	3331      	adds	r3, #49	; 0x31
1000fc50:	466a      	mov	r2, sp
1000fc52:	701d      	strb	r5, [r3, #0]
1000fc54:	1c23      	adds	r3, r4, #0
1000fc56:	7b12      	ldrb	r2, [r2, #12]
1000fc58:	3332      	adds	r3, #50	; 0x32
1000fc5a:	701a      	strb	r2, [r3, #0]
1000fc5c:	1c23      	adds	r3, r4, #0
1000fc5e:	3333      	adds	r3, #51	; 0x33
1000fc60:	701d      	strb	r5, [r3, #0]
1000fc62:	232c      	movs	r3, #44	; 0x2c
1000fc64:	1c20      	adds	r0, r4, #0
1000fc66:	71a3      	strb	r3, [r4, #6]
1000fc68:	2134      	movs	r1, #52	; 0x34
1000fc6a:	4b08      	ldr	r3, [pc, #32]	; (1000fc8c <gapc_connection_cfm_handler+0xc0>)
1000fc6c:	71e5      	strb	r5, [r4, #7]
1000fc6e:	4798      	blx	r3
1000fc70:	1c28      	adds	r0, r5, #0
1000fc72:	b005      	add	sp, #20
1000fc74:	bdf0      	pop	{r4, r5, r6, r7, pc}
1000fc76:	46c0      	nop			; (mov r8, r8)
1000fc78:	100161b0 	.word	0x100161b0
1000fc7c:	10015e40 	.word	0x10015e40
1000fc80:	10012fe3 	.word	0x10012fe3
1000fc84:	100161b8 	.word	0x100161b8
1000fc88:	100161cc 	.word	0x100161cc
1000fc8c:	1000f8d1 	.word	0x1000f8d1

1000fc90 <gapc_con_req_ind>:
1000fc90:	b5f0      	push	{r4, r5, r6, r7, lr}
1000fc92:	7845      	ldrb	r5, [r0, #1]
1000fc94:	7803      	ldrb	r3, [r0, #0]
1000fc96:	4c30      	ldr	r4, [pc, #192]	; (1000fd58 <gapc_con_req_ind+0xc8>)
1000fc98:	022d      	lsls	r5, r5, #8
1000fc9a:	431d      	orrs	r5, r3
1000fc9c:	85a5      	strh	r5, [r4, #44]	; 0x2c
1000fc9e:	78c3      	ldrb	r3, [r0, #3]
1000fca0:	7882      	ldrb	r2, [r0, #2]
1000fca2:	b08b      	sub	sp, #44	; 0x2c
1000fca4:	021b      	lsls	r3, r3, #8
1000fca6:	431a      	orrs	r2, r3
1000fca8:	466b      	mov	r3, sp
1000fcaa:	9205      	str	r2, [sp, #20]
1000fcac:	8a9b      	ldrh	r3, [r3, #20]
1000fcae:	2120      	movs	r1, #32
1000fcb0:	85e3      	strh	r3, [r4, #46]	; 0x2e
1000fcb2:	7943      	ldrb	r3, [r0, #5]
1000fcb4:	7902      	ldrb	r2, [r0, #4]
1000fcb6:	021b      	lsls	r3, r3, #8
1000fcb8:	431a      	orrs	r2, r3
1000fcba:	466b      	mov	r3, sp
1000fcbc:	9206      	str	r2, [sp, #24]
1000fcbe:	8b1b      	ldrh	r3, [r3, #24]
1000fcc0:	1c06      	adds	r6, r0, #0
1000fcc2:	8623      	strh	r3, [r4, #48]	; 0x30
1000fcc4:	79c3      	ldrb	r3, [r0, #7]
1000fcc6:	7982      	ldrb	r2, [r0, #6]
1000fcc8:	021b      	lsls	r3, r3, #8
1000fcca:	431a      	orrs	r2, r3
1000fccc:	466b      	mov	r3, sp
1000fcce:	9207      	str	r2, [sp, #28]
1000fcd0:	466a      	mov	r2, sp
1000fcd2:	8b9b      	ldrh	r3, [r3, #28]
1000fcd4:	1852      	adds	r2, r2, r1
1000fcd6:	8663      	strh	r3, [r4, #50]	; 0x32
1000fcd8:	7a43      	ldrb	r3, [r0, #9]
1000fcda:	1c01      	adds	r1, r0, #0
1000fcdc:	9308      	str	r3, [sp, #32]
1000fcde:	1c23      	adds	r3, r4, #0
1000fce0:	7812      	ldrb	r2, [r2, #0]
1000fce2:	3377      	adds	r3, #119	; 0x77
1000fce4:	3478      	adds	r4, #120	; 0x78
1000fce6:	701a      	strb	r2, [r3, #0]
1000fce8:	310a      	adds	r1, #10
1000fcea:	2206      	movs	r2, #6
1000fcec:	4b1b      	ldr	r3, [pc, #108]	; (1000fd5c <gapc_con_req_ind+0xcc>)
1000fcee:	1c20      	adds	r0, r4, #0
1000fcf0:	4798      	blx	r3
1000fcf2:	7c33      	ldrb	r3, [r6, #16]
1000fcf4:	9309      	str	r3, [sp, #36]	; 0x24
1000fcf6:	4b1a      	ldr	r3, [pc, #104]	; (1000fd60 <gapc_con_req_ind+0xd0>)
1000fcf8:	4798      	blx	r3
1000fcfa:	4e1a      	ldr	r6, [pc, #104]	; (1000fd64 <gapc_con_req_ind+0xd4>)
1000fcfc:	1e07      	subs	r7, r0, #0
1000fcfe:	2f07      	cmp	r7, #7
1000fd00:	d81b      	bhi.n	1000fd3a <gapc_con_req_ind+0xaa>
1000fd02:	2312      	movs	r3, #18
1000fd04:	4343      	muls	r3, r0
1000fd06:	18f0      	adds	r0, r6, r3
1000fd08:	8145      	strh	r5, [r0, #10]
1000fd0a:	4669      	mov	r1, sp
1000fd0c:	2524      	movs	r5, #36	; 0x24
1000fd0e:	1949      	adds	r1, r1, r5
1000fd10:	7809      	ldrb	r1, [r1, #0]
1000fd12:	2206      	movs	r2, #6
1000fd14:	54f1      	strb	r1, [r6, r3]
1000fd16:	2120      	movs	r1, #32
1000fd18:	466b      	mov	r3, sp
1000fd1a:	185b      	adds	r3, r3, r1
1000fd1c:	781b      	ldrb	r3, [r3, #0]
1000fd1e:	1c21      	adds	r1, r4, #0
1000fd20:	7043      	strb	r3, [r0, #1]
1000fd22:	466b      	mov	r3, sp
1000fd24:	8a9b      	ldrh	r3, [r3, #20]
1000fd26:	3002      	adds	r0, #2
1000fd28:	8143      	strh	r3, [r0, #10]
1000fd2a:	466b      	mov	r3, sp
1000fd2c:	8b1b      	ldrh	r3, [r3, #24]
1000fd2e:	8183      	strh	r3, [r0, #12]
1000fd30:	466b      	mov	r3, sp
1000fd32:	8b9b      	ldrh	r3, [r3, #28]
1000fd34:	81c3      	strh	r3, [r0, #14]
1000fd36:	4b09      	ldr	r3, [pc, #36]	; (1000fd5c <gapc_con_req_ind+0xcc>)
1000fd38:	4798      	blx	r3
1000fd3a:	2112      	movs	r1, #18
1000fd3c:	2300      	movs	r3, #0
1000fd3e:	434f      	muls	r7, r1
1000fd40:	9300      	str	r3, [sp, #0]
1000fd42:	9301      	str	r3, [sp, #4]
1000fd44:	19f6      	adds	r6, r6, r7
1000fd46:	8971      	ldrh	r1, [r6, #10]
1000fd48:	4a07      	ldr	r2, [pc, #28]	; (1000fd68 <gapc_con_req_ind+0xd8>)
1000fd4a:	9102      	str	r1, [sp, #8]
1000fd4c:	1c10      	adds	r0, r2, #0
1000fd4e:	1c19      	adds	r1, r3, #0
1000fd50:	4c06      	ldr	r4, [pc, #24]	; (1000fd6c <gapc_con_req_ind+0xdc>)
1000fd52:	47a0      	blx	r4
1000fd54:	b00b      	add	sp, #44	; 0x2c
1000fd56:	bdf0      	pop	{r4, r5, r6, r7, pc}
1000fd58:	10015ed2 	.word	0x10015ed2
1000fd5c:	10012fe3 	.word	0x10012fe3
1000fd60:	1000fad5 	.word	0x1000fad5
1000fd64:	10015e42 	.word	0x10015e42
1000fd68:	10014fba 	.word	0x10014fba
1000fd6c:	1000fbcd 	.word	0x1000fbcd

1000fd70 <gapc_disconnect_cmd_handler>:
1000fd70:	2204      	movs	r2, #4
1000fd72:	b510      	push	{r4, lr}
1000fd74:	4b0c      	ldr	r3, [pc, #48]	; (1000fda8 <gapc_disconnect_cmd_handler+0x38>)
1000fd76:	2400      	movs	r4, #0
1000fd78:	701a      	strb	r2, [r3, #0]
1000fd7a:	320a      	adds	r2, #10
1000fd7c:	705a      	strb	r2, [r3, #1]
1000fd7e:	709a      	strb	r2, [r3, #2]
1000fd80:	4a0a      	ldr	r2, [pc, #40]	; (1000fdac <gapc_disconnect_cmd_handler+0x3c>)
1000fd82:	70d9      	strb	r1, [r3, #3]
1000fd84:	8811      	ldrh	r1, [r2, #0]
1000fd86:	8812      	ldrh	r2, [r2, #0]
1000fd88:	7119      	strb	r1, [r3, #4]
1000fd8a:	0a12      	lsrs	r2, r2, #8
1000fd8c:	715a      	strb	r2, [r3, #5]
1000fd8e:	2201      	movs	r2, #1
1000fd90:	721a      	strb	r2, [r3, #8]
1000fd92:	1892      	adds	r2, r2, r2
1000fd94:	7258      	strb	r0, [r3, #9]
1000fd96:	719a      	strb	r2, [r3, #6]
1000fd98:	71dc      	strb	r4, [r3, #7]
1000fd9a:	1c18      	adds	r0, r3, #0
1000fd9c:	210a      	movs	r1, #10
1000fd9e:	4b04      	ldr	r3, [pc, #16]	; (1000fdb0 <gapc_disconnect_cmd_handler+0x40>)
1000fda0:	4798      	blx	r3
1000fda2:	1c20      	adds	r0, r4, #0
1000fda4:	bd10      	pop	{r4, pc}
1000fda6:	46c0      	nop			; (mov r8, r8)
1000fda8:	100161b0 	.word	0x100161b0
1000fdac:	10015e40 	.word	0x10015e40
1000fdb0:	1000f8d1 	.word	0x1000f8d1

1000fdb4 <gapc_disconnect_ind>:
1000fdb4:	1c02      	adds	r2, r0, #0
1000fdb6:	b508      	push	{r3, lr}
1000fdb8:	7843      	ldrb	r3, [r0, #1]
1000fdba:	7800      	ldrb	r0, [r0, #0]
1000fdbc:	021b      	lsls	r3, r3, #8
1000fdbe:	4318      	orrs	r0, r3
1000fdc0:	8008      	strh	r0, [r1, #0]
1000fdc2:	7893      	ldrb	r3, [r2, #2]
1000fdc4:	708b      	strb	r3, [r1, #2]
1000fdc6:	2100      	movs	r1, #0
1000fdc8:	4b05      	ldr	r3, [pc, #20]	; (1000fde0 <gapc_disconnect_ind+0x2c>)
1000fdca:	4798      	blx	r3
1000fdcc:	2807      	cmp	r0, #7
1000fdce:	d806      	bhi.n	1000fdde <gapc_disconnect_ind+0x2a>
1000fdd0:	2312      	movs	r3, #18
1000fdd2:	4358      	muls	r0, r3
1000fdd4:	4b03      	ldr	r3, [pc, #12]	; (1000fde4 <gapc_disconnect_ind+0x30>)
1000fdd6:	1818      	adds	r0, r3, r0
1000fdd8:	2301      	movs	r3, #1
1000fdda:	425b      	negs	r3, r3
1000fddc:	8143      	strh	r3, [r0, #10]
1000fdde:	bd08      	pop	{r3, pc}
1000fde0:	1000fa99 	.word	0x1000fa99
1000fde4:	10015e42 	.word	0x10015e42

1000fde8 <gapc_bond_cmd_handler>:
1000fde8:	b5f7      	push	{r0, r1, r2, r4, r5, r6, r7, lr}
1000fdea:	9300      	str	r3, [sp, #0]
1000fdec:	2312      	movs	r3, #18
1000fdee:	1c04      	adds	r4, r0, #0
1000fdf0:	a808      	add	r0, sp, #32
1000fdf2:	7807      	ldrb	r7, [r0, #0]
1000fdf4:	a809      	add	r0, sp, #36	; 0x24
1000fdf6:	7806      	ldrb	r6, [r0, #0]
1000fdf8:	a80a      	add	r0, sp, #40	; 0x28
1000fdfa:	7805      	ldrb	r5, [r0, #0]
1000fdfc:	a80b      	add	r0, sp, #44	; 0x2c
1000fdfe:	7800      	ldrb	r0, [r0, #0]
1000fe00:	9001      	str	r0, [sp, #4]
1000fe02:	4810      	ldr	r0, [pc, #64]	; (1000fe44 <gapc_bond_cmd_handler+0x5c>)
1000fe04:	7003      	strb	r3, [r0, #0]
1000fe06:	230e      	movs	r3, #14
1000fe08:	70c4      	strb	r4, [r0, #3]
1000fe0a:	4c0f      	ldr	r4, [pc, #60]	; (1000fe48 <gapc_bond_cmd_handler+0x60>)
1000fe0c:	7043      	strb	r3, [r0, #1]
1000fe0e:	7083      	strb	r3, [r0, #2]
1000fe10:	8823      	ldrh	r3, [r4, #0]
1000fe12:	8824      	ldrh	r4, [r4, #0]
1000fe14:	7103      	strb	r3, [r0, #4]
1000fe16:	466b      	mov	r3, sp
1000fe18:	781b      	ldrb	r3, [r3, #0]
1000fe1a:	0a24      	lsrs	r4, r4, #8
1000fe1c:	72c3      	strb	r3, [r0, #11]
1000fe1e:	466b      	mov	r3, sp
1000fe20:	791b      	ldrb	r3, [r3, #4]
1000fe22:	7144      	strb	r4, [r0, #5]
1000fe24:	73c3      	strb	r3, [r0, #15]
1000fe26:	2308      	movs	r3, #8
1000fe28:	7183      	strb	r3, [r0, #6]
1000fe2a:	2300      	movs	r3, #0
1000fe2c:	240a      	movs	r4, #10
1000fe2e:	7241      	strb	r1, [r0, #9]
1000fe30:	71c3      	strb	r3, [r0, #7]
1000fe32:	2110      	movs	r1, #16
1000fe34:	4b05      	ldr	r3, [pc, #20]	; (1000fe4c <gapc_bond_cmd_handler+0x64>)
1000fe36:	7307      	strb	r7, [r0, #12]
1000fe38:	7346      	strb	r6, [r0, #13]
1000fe3a:	7385      	strb	r5, [r0, #14]
1000fe3c:	7204      	strb	r4, [r0, #8]
1000fe3e:	7282      	strb	r2, [r0, #10]
1000fe40:	4798      	blx	r3
1000fe42:	bdf7      	pop	{r0, r1, r2, r4, r5, r6, r7, pc}
1000fe44:	100161b0 	.word	0x100161b0
1000fe48:	10015e40 	.word	0x10015e40
1000fe4c:	1000f8d1 	.word	0x1000f8d1

1000fe50 <gapc_bond_ind>:
1000fe50:	b5f8      	push	{r3, r4, r5, r6, r7, lr}
1000fe52:	780e      	ldrb	r6, [r1, #0]
1000fe54:	1c03      	adds	r3, r0, #0
1000fe56:	1eb0      	subs	r0, r6, #2
1000fe58:	2805      	cmp	r0, #5
1000fe5a:	d85d      	bhi.n	1000ff18 <gapc_bond_ind+0xc8>
1000fe5c:	1c15      	adds	r5, r2, #0
1000fe5e:	1c0c      	adds	r4, r1, #0
1000fe60:	f001 f9fa 	bl	10011258 <__gnu_thumb1_case_uqi>
1000fe64:	2f5a030d 	.word	0x2f5a030d
1000fe68:	4740      	.short	0x4740
1000fe6a:	2009      	movs	r0, #9
1000fe6c:	2a00      	cmp	r2, #0
1000fe6e:	d054      	beq.n	1000ff1a <gapc_bond_ind+0xca>
1000fe70:	0a1b      	lsrs	r3, r3, #8
1000fe72:	8053      	strh	r3, [r2, #2]
1000fe74:	788b      	ldrb	r3, [r1, #2]
1000fe76:	4829      	ldr	r0, [pc, #164]	; (1000ff1c <gapc_bond_ind+0xcc>)
1000fe78:	7113      	strb	r3, [r2, #4]
1000fe7a:	2100      	movs	r1, #0
1000fe7c:	e01c      	b.n	1000feb8 <gapc_bond_ind+0x68>
1000fe7e:	2009      	movs	r0, #9
1000fe80:	2a00      	cmp	r2, #0
1000fe82:	d04a      	beq.n	1000ff1a <gapc_bond_ind+0xca>
1000fe84:	4c25      	ldr	r4, [pc, #148]	; (1000ff1c <gapc_bond_ind+0xcc>)
1000fe86:	0a1b      	lsrs	r3, r3, #8
1000fe88:	8053      	strh	r3, [r2, #2]
1000fe8a:	788b      	ldrb	r3, [r1, #2]
1000fe8c:	2700      	movs	r7, #0
1000fe8e:	1c10      	adds	r0, r2, #0
1000fe90:	1c21      	adds	r1, r4, #0
1000fe92:	7013      	strb	r3, [r2, #0]
1000fe94:	4e22      	ldr	r6, [pc, #136]	; (1000ff20 <gapc_bond_ind+0xd0>)
1000fe96:	7117      	strb	r7, [r2, #4]
1000fe98:	312e      	adds	r1, #46	; 0x2e
1000fe9a:	2217      	movs	r2, #23
1000fe9c:	3032      	adds	r0, #50	; 0x32
1000fe9e:	47b0      	blx	r6
1000fea0:	1c28      	adds	r0, r5, #0
1000fea2:	1c21      	adds	r1, r4, #0
1000fea4:	2210      	movs	r2, #16
1000fea6:	311e      	adds	r1, #30
1000fea8:	3022      	adds	r0, #34	; 0x22
1000feaa:	47b0      	blx	r6
1000feac:	1ca1      	adds	r1, r4, #2
1000feae:	1da8      	adds	r0, r5, #6
1000feb0:	221c      	movs	r2, #28
1000feb2:	47b0      	blx	r6
1000feb4:	1c20      	adds	r0, r4, #0
1000feb6:	1c39      	adds	r1, r7, #0
1000feb8:	2246      	movs	r2, #70	; 0x46
1000feba:	4b1a      	ldr	r3, [pc, #104]	; (1000ff24 <gapc_bond_ind+0xd4>)
1000febc:	4798      	blx	r3
1000febe:	2009      	movs	r0, #9
1000fec0:	e02b      	b.n	1000ff1a <gapc_bond_ind+0xca>
1000fec2:	4d16      	ldr	r5, [pc, #88]	; (1000ff1c <gapc_bond_ind+0xcc>)
1000fec4:	3102      	adds	r1, #2
1000fec6:	1c28      	adds	r0, r5, #0
1000fec8:	2210      	movs	r2, #16
1000feca:	4e15      	ldr	r6, [pc, #84]	; (1000ff20 <gapc_bond_ind+0xd0>)
1000fecc:	302e      	adds	r0, #46	; 0x2e
1000fece:	47b0      	blx	r6
1000fed0:	1c28      	adds	r0, r5, #0
1000fed2:	1c21      	adds	r1, r4, #0
1000fed4:	303f      	adds	r0, #63	; 0x3f
1000fed6:	3112      	adds	r1, #18
1000fed8:	2206      	movs	r2, #6
1000feda:	47b0      	blx	r6
1000fedc:	7e23      	ldrb	r3, [r4, #24]
1000fede:	353e      	adds	r5, #62	; 0x3e
1000fee0:	702b      	strb	r3, [r5, #0]
1000fee2:	e019      	b.n	1000ff18 <gapc_bond_ind+0xc8>
1000fee4:	480d      	ldr	r0, [pc, #52]	; (1000ff1c <gapc_bond_ind+0xcc>)
1000fee6:	3102      	adds	r1, #2
1000fee8:	2210      	movs	r2, #16
1000feea:	4b0d      	ldr	r3, [pc, #52]	; (1000ff20 <gapc_bond_ind+0xd0>)
1000feec:	301e      	adds	r0, #30
1000feee:	4798      	blx	r3
1000fef0:	e012      	b.n	1000ff18 <gapc_bond_ind+0xc8>
1000fef2:	4d0a      	ldr	r5, [pc, #40]	; (1000ff1c <gapc_bond_ind+0xcc>)
1000fef4:	3102      	adds	r1, #2
1000fef6:	2210      	movs	r2, #16
1000fef8:	4e09      	ldr	r6, [pc, #36]	; (1000ff20 <gapc_bond_ind+0xd0>)
1000fefa:	1ca8      	adds	r0, r5, #2
1000fefc:	47b0      	blx	r6
1000fefe:	1c28      	adds	r0, r5, #0
1000ff00:	1c21      	adds	r1, r4, #0
1000ff02:	7ce3      	ldrb	r3, [r4, #19]
1000ff04:	7ca2      	ldrb	r2, [r4, #18]
1000ff06:	021b      	lsls	r3, r3, #8
1000ff08:	4313      	orrs	r3, r2
1000ff0a:	3014      	adds	r0, #20
1000ff0c:	3114      	adds	r1, #20
1000ff0e:	2208      	movs	r2, #8
1000ff10:	826b      	strh	r3, [r5, #18]
1000ff12:	47b0      	blx	r6
1000ff14:	7f23      	ldrb	r3, [r4, #28]
1000ff16:	772b      	strb	r3, [r5, #28]
1000ff18:	2000      	movs	r0, #0
1000ff1a:	bdf8      	pop	{r3, r4, r5, r6, r7, pc}
1000ff1c:	10014f74 	.word	0x10014f74
1000ff20:	10012fe3 	.word	0x10012fe3
1000ff24:	10012ff5 	.word	0x10012ff5

1000ff28 <gapc_bond_req_ind>:
1000ff28:	b570      	push	{r4, r5, r6, lr}
1000ff2a:	780c      	ldrb	r4, [r1, #0]
1000ff2c:	1c03      	adds	r3, r0, #0
1000ff2e:	7849      	ldrb	r1, [r1, #1]
1000ff30:	2c07      	cmp	r4, #7
1000ff32:	d85c      	bhi.n	1000ffee <gapc_bond_req_ind+0xc6>
1000ff34:	1c20      	adds	r0, r4, #0
1000ff36:	f001 f98f 	bl	10011258 <__gnu_thumb1_case_uqi>
1000ff3a:	5a04      	.short	0x5a04
1000ff3c:	5a0b5a5a 	.word	0x5a0b5a5a
1000ff40:	1f1f      	.short	0x1f1f
1000ff42:	200a      	movs	r0, #10
1000ff44:	2a00      	cmp	r2, #0
1000ff46:	d053      	beq.n	1000fff0 <gapc_bond_req_ind+0xc8>
1000ff48:	0a1b      	lsrs	r3, r3, #8
1000ff4a:	8013      	strh	r3, [r2, #0]
1000ff4c:	7091      	strb	r1, [r2, #2]
1000ff4e:	e04f      	b.n	1000fff0 <gapc_bond_req_ind+0xc8>
1000ff50:	2a00      	cmp	r2, #0
1000ff52:	d00b      	beq.n	1000ff6c <gapc_bond_req_ind+0x44>
1000ff54:	0a1b      	lsrs	r3, r3, #8
1000ff56:	8013      	strh	r3, [r2, #0]
1000ff58:	2900      	cmp	r1, #0
1000ff5a:	d102      	bne.n	1000ff62 <gapc_bond_req_ind+0x3a>
1000ff5c:	2301      	movs	r3, #1
1000ff5e:	7093      	strb	r3, [r2, #2]
1000ff60:	e004      	b.n	1000ff6c <gapc_bond_req_ind+0x44>
1000ff62:	2300      	movs	r3, #0
1000ff64:	7093      	strb	r3, [r2, #2]
1000ff66:	2902      	cmp	r1, #2
1000ff68:	d102      	bne.n	1000ff70 <gapc_bond_req_ind+0x48>
1000ff6a:	70d3      	strb	r3, [r2, #3]
1000ff6c:	200c      	movs	r0, #12
1000ff6e:	e03f      	b.n	1000fff0 <gapc_bond_req_ind+0xc8>
1000ff70:	2901      	cmp	r1, #1
1000ff72:	d1fb      	bne.n	1000ff6c <gapc_bond_req_ind+0x44>
1000ff74:	70d1      	strb	r1, [r2, #3]
1000ff76:	e7f9      	b.n	1000ff6c <gapc_bond_req_ind+0x44>
1000ff78:	2214      	movs	r2, #20
1000ff7a:	481e      	ldr	r0, [pc, #120]	; (1000fff4 <gapc_bond_req_ind+0xcc>)
1000ff7c:	0a1b      	lsrs	r3, r3, #8
1000ff7e:	70c3      	strb	r3, [r0, #3]
1000ff80:	4b1d      	ldr	r3, [pc, #116]	; (1000fff8 <gapc_bond_req_ind+0xd0>)
1000ff82:	7002      	strb	r2, [r0, #0]
1000ff84:	3a06      	subs	r2, #6
1000ff86:	7042      	strb	r2, [r0, #1]
1000ff88:	7082      	strb	r2, [r0, #2]
1000ff8a:	881a      	ldrh	r2, [r3, #0]
1000ff8c:	881b      	ldrh	r3, [r3, #0]
1000ff8e:	4e1b      	ldr	r6, [pc, #108]	; (1000fffc <gapc_bond_req_ind+0xd4>)
1000ff90:	0a1b      	lsrs	r3, r3, #8
1000ff92:	7143      	strb	r3, [r0, #5]
1000ff94:	2301      	movs	r3, #1
1000ff96:	7102      	strb	r2, [r0, #4]
1000ff98:	7204      	strb	r4, [r0, #8]
1000ff9a:	7243      	strb	r3, [r0, #9]
1000ff9c:	1c05      	adds	r5, r0, #0
1000ff9e:	1c31      	adds	r1, r6, #0
1000ffa0:	300a      	adds	r0, #10
1000ffa2:	2c07      	cmp	r4, #7
1000ffa4:	d116      	bne.n	1000ffd4 <gapc_bond_req_ind+0xac>
1000ffa6:	317e      	adds	r1, #126	; 0x7e
1000ffa8:	2210      	movs	r2, #16
1000ffaa:	4c15      	ldr	r4, [pc, #84]	; (10010000 <gapc_bond_req_ind+0xd8>)
1000ffac:	47a0      	blx	r4
1000ffae:	1c33      	adds	r3, r6, #0
1000ffb0:	1c31      	adds	r1, r6, #0
1000ffb2:	1c28      	adds	r0, r5, #0
1000ffb4:	338e      	adds	r3, #142	; 0x8e
1000ffb6:	881b      	ldrh	r3, [r3, #0]
1000ffb8:	3190      	adds	r1, #144	; 0x90
1000ffba:	76ab      	strb	r3, [r5, #26]
1000ffbc:	2208      	movs	r2, #8
1000ffbe:	0a1b      	lsrs	r3, r3, #8
1000ffc0:	301c      	adds	r0, #28
1000ffc2:	76eb      	strb	r3, [r5, #27]
1000ffc4:	47a0      	blx	r4
1000ffc6:	1c31      	adds	r1, r6, #0
1000ffc8:	3198      	adds	r1, #152	; 0x98
1000ffca:	780a      	ldrb	r2, [r1, #0]
1000ffcc:	1d6b      	adds	r3, r5, #5
1000ffce:	77da      	strb	r2, [r3, #31]
1000ffd0:	2125      	movs	r1, #37	; 0x25
1000ffd2:	e004      	b.n	1000ffde <gapc_bond_req_ind+0xb6>
1000ffd4:	319a      	adds	r1, #154	; 0x9a
1000ffd6:	2210      	movs	r2, #16
1000ffd8:	4b09      	ldr	r3, [pc, #36]	; (10010000 <gapc_bond_req_ind+0xd8>)
1000ffda:	4798      	blx	r3
1000ffdc:	211a      	movs	r1, #26
1000ffde:	1c0b      	adds	r3, r1, #0
1000ffe0:	2400      	movs	r4, #0
1000ffe2:	3b08      	subs	r3, #8
1000ffe4:	71ab      	strb	r3, [r5, #6]
1000ffe6:	1c28      	adds	r0, r5, #0
1000ffe8:	4b06      	ldr	r3, [pc, #24]	; (10010004 <gapc_bond_req_ind+0xdc>)
1000ffea:	71ec      	strb	r4, [r5, #7]
1000ffec:	4798      	blx	r3
1000ffee:	2000      	movs	r0, #0
1000fff0:	bd70      	pop	{r4, r5, r6, pc}
1000fff2:	46c0      	nop			; (mov r8, r8)
1000fff4:	100161b0 	.word	0x100161b0
1000fff8:	10015e40 	.word	0x10015e40
1000fffc:	10015ed2 	.word	0x10015ed2
10010000:	10012fe3 	.word	0x10012fe3
10010004:	1000f8d1 	.word	0x1000f8d1

10010008 <gapc_bond_cfm_handler_pair_resp>:
10010008:	b5f0      	push	{r4, r5, r6, r7, lr}
1001000a:	b085      	sub	sp, #20
1001000c:	1c07      	adds	r7, r0, #0
1001000e:	a80a      	add	r0, sp, #40	; 0x28
10010010:	7806      	ldrb	r6, [r0, #0]
10010012:	a80b      	add	r0, sp, #44	; 0x2c
10010014:	7805      	ldrb	r5, [r0, #0]
10010016:	a80c      	add	r0, sp, #48	; 0x30
10010018:	7800      	ldrb	r0, [r0, #0]
1001001a:	2414      	movs	r4, #20
1001001c:	9002      	str	r0, [sp, #8]
1001001e:	a80d      	add	r0, sp, #52	; 0x34
10010020:	7800      	ldrb	r0, [r0, #0]
10010022:	9301      	str	r3, [sp, #4]
10010024:	9003      	str	r0, [sp, #12]
10010026:	a80e      	add	r0, sp, #56	; 0x38
10010028:	8800      	ldrh	r0, [r0, #0]
1001002a:	4684      	mov	ip, r0
1001002c:	4812      	ldr	r0, [pc, #72]	; (10010078 <gapc_bond_cfm_handler_pair_resp+0x70>)
1001002e:	7004      	strb	r4, [r0, #0]
10010030:	3c06      	subs	r4, #6
10010032:	7044      	strb	r4, [r0, #1]
10010034:	7084      	strb	r4, [r0, #2]
10010036:	4664      	mov	r4, ip
10010038:	70c4      	strb	r4, [r0, #3]
1001003a:	4c10      	ldr	r4, [pc, #64]	; (1001007c <gapc_bond_cfm_handler_pair_resp+0x74>)
1001003c:	7247      	strb	r7, [r0, #9]
1001003e:	8823      	ldrh	r3, [r4, #0]
10010040:	8824      	ldrh	r4, [r4, #0]
10010042:	7103      	strb	r3, [r0, #4]
10010044:	466b      	mov	r3, sp
10010046:	791b      	ldrb	r3, [r3, #4]
10010048:	0a24      	lsrs	r4, r4, #8
1001004a:	7303      	strb	r3, [r0, #12]
1001004c:	466b      	mov	r3, sp
1001004e:	7a1b      	ldrb	r3, [r3, #8]
10010050:	7144      	strb	r4, [r0, #5]
10010052:	73c3      	strb	r3, [r0, #15]
10010054:	466b      	mov	r3, sp
10010056:	7b1b      	ldrb	r3, [r3, #12]
10010058:	2401      	movs	r4, #1
1001005a:	7403      	strb	r3, [r0, #16]
1001005c:	2309      	movs	r3, #9
1001005e:	7183      	strb	r3, [r0, #6]
10010060:	2300      	movs	r3, #0
10010062:	7204      	strb	r4, [r0, #8]
10010064:	7281      	strb	r1, [r0, #10]
10010066:	72c2      	strb	r2, [r0, #11]
10010068:	7346      	strb	r6, [r0, #13]
1001006a:	7385      	strb	r5, [r0, #14]
1001006c:	71c3      	strb	r3, [r0, #7]
1001006e:	2111      	movs	r1, #17
10010070:	4b03      	ldr	r3, [pc, #12]	; (10010080 <gapc_bond_cfm_handler_pair_resp+0x78>)
10010072:	4798      	blx	r3
10010074:	b005      	add	sp, #20
10010076:	bdf0      	pop	{r4, r5, r6, r7, pc}
10010078:	100161b0 	.word	0x100161b0
1001007c:	10015e40 	.word	0x10015e40
10010080:	1000f8d1 	.word	0x1000f8d1

10010084 <gapc_bond_cfm_handler_key_exch>:
10010084:	b538      	push	{r3, r4, r5, lr}
10010086:	2514      	movs	r5, #20
10010088:	4c0d      	ldr	r4, [pc, #52]	; (100100c0 <gapc_bond_cfm_handler_key_exch+0x3c>)
1001008a:	70e3      	strb	r3, [r4, #3]
1001008c:	4b0d      	ldr	r3, [pc, #52]	; (100100c4 <gapc_bond_cfm_handler_key_exch+0x40>)
1001008e:	7025      	strb	r5, [r4, #0]
10010090:	3d06      	subs	r5, #6
10010092:	7065      	strb	r5, [r4, #1]
10010094:	70a5      	strb	r5, [r4, #2]
10010096:	881d      	ldrh	r5, [r3, #0]
10010098:	881b      	ldrh	r3, [r3, #0]
1001009a:	7220      	strb	r0, [r4, #8]
1001009c:	0a1b      	lsrs	r3, r3, #8
1001009e:	7163      	strb	r3, [r4, #5]
100100a0:	7261      	strb	r1, [r4, #9]
100100a2:	4b09      	ldr	r3, [pc, #36]	; (100100c8 <gapc_bond_cfm_handler_key_exch+0x44>)
100100a4:	1c11      	adds	r1, r2, #0
100100a6:	4809      	ldr	r0, [pc, #36]	; (100100cc <gapc_bond_cfm_handler_key_exch+0x48>)
100100a8:	2210      	movs	r2, #16
100100aa:	7125      	strb	r5, [r4, #4]
100100ac:	4798      	blx	r3
100100ae:	2312      	movs	r3, #18
100100b0:	71a3      	strb	r3, [r4, #6]
100100b2:	2300      	movs	r3, #0
100100b4:	1c20      	adds	r0, r4, #0
100100b6:	71e3      	strb	r3, [r4, #7]
100100b8:	211a      	movs	r1, #26
100100ba:	4b05      	ldr	r3, [pc, #20]	; (100100d0 <gapc_bond_cfm_handler_key_exch+0x4c>)
100100bc:	4798      	blx	r3
100100be:	bd38      	pop	{r3, r4, r5, pc}
100100c0:	100161b0 	.word	0x100161b0
100100c4:	10015e40 	.word	0x10015e40
100100c8:	10012fe3 	.word	0x10012fe3
100100cc:	100161ba 	.word	0x100161ba
100100d0:	1000f8d1 	.word	0x1000f8d1

100100d4 <gapc_security_cmd_handler>:
100100d4:	221a      	movs	r2, #26
100100d6:	b508      	push	{r3, lr}
100100d8:	4b0b      	ldr	r3, [pc, #44]	; (10010108 <gapc_security_cmd_handler+0x34>)
100100da:	701a      	strb	r2, [r3, #0]
100100dc:	3a0c      	subs	r2, #12
100100de:	705a      	strb	r2, [r3, #1]
100100e0:	709a      	strb	r2, [r3, #2]
100100e2:	4a0a      	ldr	r2, [pc, #40]	; (1001010c <gapc_security_cmd_handler+0x38>)
100100e4:	70d8      	strb	r0, [r3, #3]
100100e6:	8810      	ldrh	r0, [r2, #0]
100100e8:	8812      	ldrh	r2, [r2, #0]
100100ea:	7118      	strb	r0, [r3, #4]
100100ec:	0a12      	lsrs	r2, r2, #8
100100ee:	715a      	strb	r2, [r3, #5]
100100f0:	220c      	movs	r2, #12
100100f2:	721a      	strb	r2, [r3, #8]
100100f4:	3a0a      	subs	r2, #10
100100f6:	719a      	strb	r2, [r3, #6]
100100f8:	2200      	movs	r2, #0
100100fa:	7259      	strb	r1, [r3, #9]
100100fc:	71da      	strb	r2, [r3, #7]
100100fe:	1c18      	adds	r0, r3, #0
10010100:	210a      	movs	r1, #10
10010102:	4b03      	ldr	r3, [pc, #12]	; (10010110 <gapc_security_cmd_handler+0x3c>)
10010104:	4798      	blx	r3
10010106:	bd08      	pop	{r3, pc}
10010108:	100161b0 	.word	0x100161b0
1001010c:	10015e40 	.word	0x10015e40
10010110:	1000f8d1 	.word	0x1000f8d1

10010114 <gapc_encrypt_cmd_handler>:
10010114:	b5f0      	push	{r4, r5, r6, r7, lr}
10010116:	2500      	movs	r5, #0
10010118:	b089      	sub	sp, #36	; 0x24
1001011a:	9306      	str	r3, [sp, #24]
1001011c:	ab0e      	add	r3, sp, #56	; 0x38
1001011e:	781b      	ldrb	r3, [r3, #0]
10010120:	1c17      	adds	r7, r2, #0
10010122:	9307      	str	r3, [sp, #28]
10010124:	ab0f      	add	r3, sp, #60	; 0x3c
10010126:	781b      	ldrb	r3, [r3, #0]
10010128:	4a19      	ldr	r2, [pc, #100]	; (10010190 <gapc_encrypt_cmd_handler+0x7c>)
1001012a:	1c06      	adds	r6, r0, #0
1001012c:	9105      	str	r1, [sp, #20]
1001012e:	9300      	str	r3, [sp, #0]
10010130:	9002      	str	r0, [sp, #8]
10010132:	1c29      	adds	r1, r5, #0
10010134:	1c2b      	adds	r3, r5, #0
10010136:	9501      	str	r5, [sp, #4]
10010138:	1c10      	adds	r0, r2, #0
1001013a:	4c16      	ldr	r4, [pc, #88]	; (10010194 <gapc_encrypt_cmd_handler+0x80>)
1001013c:	47a0      	blx	r4
1001013e:	2316      	movs	r3, #22
10010140:	4c15      	ldr	r4, [pc, #84]	; (10010198 <gapc_encrypt_cmd_handler+0x84>)
10010142:	9905      	ldr	r1, [sp, #20]
10010144:	7023      	strb	r3, [r4, #0]
10010146:	3b08      	subs	r3, #8
10010148:	7063      	strb	r3, [r4, #1]
1001014a:	70a3      	strb	r3, [r4, #2]
1001014c:	4b13      	ldr	r3, [pc, #76]	; (1001019c <gapc_encrypt_cmd_handler+0x88>)
1001014e:	70e6      	strb	r6, [r4, #3]
10010150:	881a      	ldrh	r2, [r3, #0]
10010152:	881b      	ldrh	r3, [r3, #0]
10010154:	7122      	strb	r2, [r4, #4]
10010156:	0a1b      	lsrs	r3, r3, #8
10010158:	7163      	strb	r3, [r4, #5]
1001015a:	230b      	movs	r3, #11
1001015c:	4e10      	ldr	r6, [pc, #64]	; (100101a0 <gapc_encrypt_cmd_handler+0x8c>)
1001015e:	2210      	movs	r2, #16
10010160:	4810      	ldr	r0, [pc, #64]	; (100101a4 <gapc_encrypt_cmd_handler+0x90>)
10010162:	7223      	strb	r3, [r4, #8]
10010164:	7265      	strb	r5, [r4, #9]
10010166:	47b0      	blx	r6
10010168:	0a3b      	lsrs	r3, r7, #8
1001016a:	9906      	ldr	r1, [sp, #24]
1001016c:	2208      	movs	r2, #8
1001016e:	480e      	ldr	r0, [pc, #56]	; (100101a8 <gapc_encrypt_cmd_handler+0x94>)
10010170:	76e3      	strb	r3, [r4, #27]
10010172:	76a7      	strb	r7, [r4, #26]
10010174:	47b0      	blx	r6
10010176:	466a      	mov	r2, sp
10010178:	7f12      	ldrb	r2, [r2, #28]
1001017a:	1d63      	adds	r3, r4, #5
1001017c:	77da      	strb	r2, [r3, #31]
1001017e:	231d      	movs	r3, #29
10010180:	1c20      	adds	r0, r4, #0
10010182:	71a3      	strb	r3, [r4, #6]
10010184:	2125      	movs	r1, #37	; 0x25
10010186:	4b09      	ldr	r3, [pc, #36]	; (100101ac <gapc_encrypt_cmd_handler+0x98>)
10010188:	71e5      	strb	r5, [r4, #7]
1001018a:	4798      	blx	r3
1001018c:	b009      	add	sp, #36	; 0x24
1001018e:	bdf0      	pop	{r4, r5, r6, r7, pc}
10010190:	10014f54 	.word	0x10014f54
10010194:	1000fbcd 	.word	0x1000fbcd
10010198:	100161b0 	.word	0x100161b0
1001019c:	10015e40 	.word	0x10015e40
100101a0:	10012fe3 	.word	0x10012fe3
100101a4:	100161ba 	.word	0x100161ba
100101a8:	100161cc 	.word	0x100161cc
100101ac:	1000f8d1 	.word	0x1000f8d1

100101b0 <gapc_encrypt_req_ind>:
100101b0:	b508      	push	{r3, lr}
100101b2:	0a00      	lsrs	r0, r0, #8
100101b4:	8010      	strh	r0, [r2, #0]
100101b6:	784b      	ldrb	r3, [r1, #1]
100101b8:	7808      	ldrb	r0, [r1, #0]
100101ba:	021b      	lsls	r3, r3, #8
100101bc:	4303      	orrs	r3, r0
100101be:	8053      	strh	r3, [r2, #2]
100101c0:	1d10      	adds	r0, r2, #4
100101c2:	3102      	adds	r1, #2
100101c4:	2208      	movs	r2, #8
100101c6:	4b01      	ldr	r3, [pc, #4]	; (100101cc <gapc_encrypt_req_ind+0x1c>)
100101c8:	4798      	blx	r3
100101ca:	bd08      	pop	{r3, pc}
100101cc:	10012fe3 	.word	0x10012fe3

100101d0 <gapc_encrypt_cfm_handler>:
100101d0:	b5f0      	push	{r4, r5, r6, r7, lr}
100101d2:	2500      	movs	r5, #0
100101d4:	b087      	sub	sp, #28
100101d6:	9304      	str	r3, [sp, #16]
100101d8:	ab0c      	add	r3, sp, #48	; 0x30
100101da:	781b      	ldrb	r3, [r3, #0]
100101dc:	1c17      	adds	r7, r2, #0
100101de:	4a15      	ldr	r2, [pc, #84]	; (10010234 <gapc_encrypt_cfm_handler+0x64>)
100101e0:	1c06      	adds	r6, r0, #0
100101e2:	9305      	str	r3, [sp, #20]
100101e4:	9100      	str	r1, [sp, #0]
100101e6:	9002      	str	r0, [sp, #8]
100101e8:	1c29      	adds	r1, r5, #0
100101ea:	1c2b      	adds	r3, r5, #0
100101ec:	9501      	str	r5, [sp, #4]
100101ee:	1c10      	adds	r0, r2, #0
100101f0:	4c11      	ldr	r4, [pc, #68]	; (10010238 <gapc_encrypt_cfm_handler+0x68>)
100101f2:	47a0      	blx	r4
100101f4:	2318      	movs	r3, #24
100101f6:	4c11      	ldr	r4, [pc, #68]	; (1001023c <gapc_encrypt_cfm_handler+0x6c>)
100101f8:	9904      	ldr	r1, [sp, #16]
100101fa:	7023      	strb	r3, [r4, #0]
100101fc:	3b0a      	subs	r3, #10
100101fe:	7063      	strb	r3, [r4, #1]
10010200:	70a3      	strb	r3, [r4, #2]
10010202:	4b0f      	ldr	r3, [pc, #60]	; (10010240 <gapc_encrypt_cfm_handler+0x70>)
10010204:	480f      	ldr	r0, [pc, #60]	; (10010244 <gapc_encrypt_cfm_handler+0x74>)
10010206:	881a      	ldrh	r2, [r3, #0]
10010208:	881b      	ldrh	r3, [r3, #0]
1001020a:	7122      	strb	r2, [r4, #4]
1001020c:	0a1b      	lsrs	r3, r3, #8
1001020e:	7163      	strb	r3, [r4, #5]
10010210:	2210      	movs	r2, #16
10010212:	4b0d      	ldr	r3, [pc, #52]	; (10010248 <gapc_encrypt_cfm_handler+0x78>)
10010214:	70e6      	strb	r6, [r4, #3]
10010216:	7227      	strb	r7, [r4, #8]
10010218:	4798      	blx	r3
1001021a:	466b      	mov	r3, sp
1001021c:	7d1b      	ldrb	r3, [r3, #20]
1001021e:	1c20      	adds	r0, r4, #0
10010220:	7663      	strb	r3, [r4, #25]
10010222:	2312      	movs	r3, #18
10010224:	211a      	movs	r1, #26
10010226:	71a3      	strb	r3, [r4, #6]
10010228:	4b08      	ldr	r3, [pc, #32]	; (1001024c <gapc_encrypt_cfm_handler+0x7c>)
1001022a:	71e5      	strb	r5, [r4, #7]
1001022c:	4798      	blx	r3
1001022e:	b007      	add	sp, #28
10010230:	bdf0      	pop	{r4, r5, r6, r7, pc}
10010232:	46c0      	nop			; (mov r8, r8)
10010234:	10014f64 	.word	0x10014f64
10010238:	1000fbcd 	.word	0x1000fbcd
1001023c:	100161b0 	.word	0x100161b0
10010240:	10015e40 	.word	0x10015e40
10010244:	100161b9 	.word	0x100161b9
10010248:	10012fe3 	.word	0x10012fe3
1001024c:	1000f8d1 	.word	0x1000f8d1

10010250 <gapc_encrypt_ind>:
10010250:	780b      	ldrb	r3, [r1, #0]
10010252:	0a00      	lsrs	r0, r0, #8
10010254:	70d3      	strb	r3, [r2, #3]
10010256:	2300      	movs	r3, #0
10010258:	8010      	strh	r0, [r2, #0]
1001025a:	7093      	strb	r3, [r2, #2]
1001025c:	4770      	bx	lr
	...

10010260 <gapc_param_update_cfm_handler>:
10010260:	b538      	push	{r3, r4, r5, lr}
10010262:	2410      	movs	r4, #16
10010264:	1c05      	adds	r5, r0, #0
10010266:	480e      	ldr	r0, [pc, #56]	; (100102a0 <gapc_param_update_cfm_handler+0x40>)
10010268:	7004      	strb	r4, [r0, #0]
1001026a:	3c02      	subs	r4, #2
1001026c:	7044      	strb	r4, [r0, #1]
1001026e:	7084      	strb	r4, [r0, #2]
10010270:	4c0c      	ldr	r4, [pc, #48]	; (100102a4 <gapc_param_update_cfm_handler+0x44>)
10010272:	70c5      	strb	r5, [r0, #3]
10010274:	8825      	ldrh	r5, [r4, #0]
10010276:	8824      	ldrh	r4, [r4, #0]
10010278:	72c3      	strb	r3, [r0, #11]
1001027a:	0a1b      	lsrs	r3, r3, #8
1001027c:	0a24      	lsrs	r4, r4, #8
1001027e:	7303      	strb	r3, [r0, #12]
10010280:	2305      	movs	r3, #5
10010282:	7144      	strb	r4, [r0, #5]
10010284:	2400      	movs	r4, #0
10010286:	7201      	strb	r1, [r0, #8]
10010288:	7242      	strb	r2, [r0, #9]
1001028a:	7183      	strb	r3, [r0, #6]
1001028c:	0a12      	lsrs	r2, r2, #8
1001028e:	210d      	movs	r1, #13
10010290:	4b05      	ldr	r3, [pc, #20]	; (100102a8 <gapc_param_update_cfm_handler+0x48>)
10010292:	7105      	strb	r5, [r0, #4]
10010294:	7282      	strb	r2, [r0, #10]
10010296:	71c4      	strb	r4, [r0, #7]
10010298:	4798      	blx	r3
1001029a:	1c20      	adds	r0, r4, #0
1001029c:	bd38      	pop	{r3, r4, r5, pc}
1001029e:	46c0      	nop			; (mov r8, r8)
100102a0:	100161b0 	.word	0x100161b0
100102a4:	10015e40 	.word	0x10015e40
100102a8:	1000f8d1 	.word	0x1000f8d1

100102ac <gapc_param_updated_ind>:
100102ac:	2300      	movs	r3, #0
100102ae:	0a00      	lsrs	r0, r0, #8
100102b0:	8010      	strh	r0, [r2, #0]
100102b2:	7093      	strb	r3, [r2, #2]
100102b4:	784b      	ldrb	r3, [r1, #1]
100102b6:	7808      	ldrb	r0, [r1, #0]
100102b8:	021b      	lsls	r3, r3, #8
100102ba:	4303      	orrs	r3, r0
100102bc:	8093      	strh	r3, [r2, #4]
100102be:	78cb      	ldrb	r3, [r1, #3]
100102c0:	7888      	ldrb	r0, [r1, #2]
100102c2:	021b      	lsls	r3, r3, #8
100102c4:	4303      	orrs	r3, r0
100102c6:	80d3      	strh	r3, [r2, #6]
100102c8:	794b      	ldrb	r3, [r1, #5]
100102ca:	7909      	ldrb	r1, [r1, #4]
100102cc:	021b      	lsls	r3, r3, #8
100102ce:	430b      	orrs	r3, r1
100102d0:	2007      	movs	r0, #7
100102d2:	8113      	strh	r3, [r2, #8]
100102d4:	4770      	bx	lr

100102d6 <gapc_param_updated_req_ind>:
100102d6:	0a00      	lsrs	r0, r0, #8
100102d8:	8010      	strh	r0, [r2, #0]
100102da:	784b      	ldrb	r3, [r1, #1]
100102dc:	7808      	ldrb	r0, [r1, #0]
100102de:	021b      	lsls	r3, r3, #8
100102e0:	4303      	orrs	r3, r0
100102e2:	8053      	strh	r3, [r2, #2]
100102e4:	78cb      	ldrb	r3, [r1, #3]
100102e6:	7888      	ldrb	r0, [r1, #2]
100102e8:	021b      	lsls	r3, r3, #8
100102ea:	4303      	orrs	r3, r0
100102ec:	8093      	strh	r3, [r2, #4]
100102ee:	794b      	ldrb	r3, [r1, #5]
100102f0:	7908      	ldrb	r0, [r1, #4]
100102f2:	021b      	lsls	r3, r3, #8
100102f4:	4303      	orrs	r3, r0
100102f6:	80d3      	strh	r3, [r2, #6]
100102f8:	79cb      	ldrb	r3, [r1, #7]
100102fa:	7989      	ldrb	r1, [r1, #6]
100102fc:	021b      	lsls	r3, r3, #8
100102fe:	430b      	orrs	r3, r1
10010300:	2008      	movs	r0, #8
10010302:	8113      	strh	r3, [r2, #8]
10010304:	4770      	bx	lr
	...

10010308 <gapc_dev_info_req_ind_handler>:
10010308:	b508      	push	{r3, lr}
1001030a:	1c0b      	adds	r3, r1, #0
1001030c:	0a01      	lsrs	r1, r0, #8
1001030e:	8011      	strh	r1, [r2, #0]
10010310:	7818      	ldrb	r0, [r3, #0]
10010312:	7090      	strb	r0, [r2, #2]
10010314:	2800      	cmp	r0, #0
10010316:	d104      	bne.n	10010322 <gapc_dev_info_req_ind_handler+0x1a>
10010318:	4b03      	ldr	r3, [pc, #12]	; (10010328 <gapc_dev_info_req_ind_handler+0x20>)
1001031a:	33aa      	adds	r3, #170	; 0xaa
1001031c:	881b      	ldrh	r3, [r3, #0]
1001031e:	2b00      	cmp	r3, #0
10010320:	d001      	beq.n	10010326 <gapc_dev_info_req_ind_handler+0x1e>
10010322:	4b02      	ldr	r3, [pc, #8]	; (1001032c <gapc_dev_info_req_ind_handler+0x24>)
10010324:	4798      	blx	r3
10010326:	bd08      	pop	{r3, pc}
10010328:	10015ed2 	.word	0x10015ed2
1001032c:	1000f9d9 	.word	0x1000f9d9

10010330 <gapc_sec_req_ind>:
10010330:	0a00      	lsrs	r0, r0, #8
10010332:	8010      	strh	r0, [r2, #0]
10010334:	7809      	ldrb	r1, [r1, #0]
10010336:	2301      	movs	r3, #1
10010338:	1c08      	adds	r0, r1, #0
1001033a:	0889      	lsrs	r1, r1, #2
1001033c:	4018      	ands	r0, r3
1001033e:	400b      	ands	r3, r1
10010340:	70d0      	strb	r0, [r2, #3]
10010342:	7113      	strb	r3, [r2, #4]
10010344:	4770      	bx	lr

10010346 <gapc_sign_counter_ind_handler>:
10010346:	0a00      	lsrs	r0, r0, #8
10010348:	8010      	strh	r0, [r2, #0]
1001034a:	784b      	ldrb	r3, [r1, #1]
1001034c:	0218      	lsls	r0, r3, #8
1001034e:	788b      	ldrb	r3, [r1, #2]
10010350:	041b      	lsls	r3, r3, #16
10010352:	4303      	orrs	r3, r0
10010354:	7808      	ldrb	r0, [r1, #0]
10010356:	4303      	orrs	r3, r0
10010358:	78c8      	ldrb	r0, [r1, #3]
1001035a:	0600      	lsls	r0, r0, #24
1001035c:	4303      	orrs	r3, r0
1001035e:	6053      	str	r3, [r2, #4]
10010360:	794b      	ldrb	r3, [r1, #5]
10010362:	0218      	lsls	r0, r3, #8
10010364:	798b      	ldrb	r3, [r1, #6]
10010366:	041b      	lsls	r3, r3, #16
10010368:	4303      	orrs	r3, r0
1001036a:	7908      	ldrb	r0, [r1, #4]
1001036c:	79c9      	ldrb	r1, [r1, #7]
1001036e:	4303      	orrs	r3, r0
10010370:	0609      	lsls	r1, r1, #24
10010372:	430b      	orrs	r3, r1
10010374:	2000      	movs	r0, #0
10010376:	6093      	str	r3, [r2, #8]
10010378:	4770      	bx	lr
	...

1001037c <gapc_peer_att_info_ind_handler>:
1001037c:	b510      	push	{r4, lr}
1001037e:	0a00      	lsrs	r0, r0, #8
10010380:	8010      	strh	r0, [r2, #0]
10010382:	7808      	ldrb	r0, [r1, #0]
10010384:	7090      	strb	r0, [r2, #2]
10010386:	788b      	ldrb	r3, [r1, #2]
10010388:	784c      	ldrb	r4, [r1, #1]
1001038a:	021b      	lsls	r3, r3, #8
1001038c:	4323      	orrs	r3, r4
1001038e:	8093      	strh	r3, [r2, #4]
10010390:	2801      	cmp	r0, #1
10010392:	d027      	beq.n	100103e4 <gapc_peer_att_info_ind_handler+0x68>
10010394:	2800      	cmp	r0, #0
10010396:	d017      	beq.n	100103c8 <gapc_peer_att_info_ind_handler+0x4c>
10010398:	2802      	cmp	r0, #2
1001039a:	d12a      	bne.n	100103f2 <gapc_peer_att_info_ind_handler+0x76>
1001039c:	790b      	ldrb	r3, [r1, #4]
1001039e:	78c8      	ldrb	r0, [r1, #3]
100103a0:	021b      	lsls	r3, r3, #8
100103a2:	4303      	orrs	r3, r0
100103a4:	8113      	strh	r3, [r2, #8]
100103a6:	798b      	ldrb	r3, [r1, #6]
100103a8:	7948      	ldrb	r0, [r1, #5]
100103aa:	021b      	lsls	r3, r3, #8
100103ac:	4303      	orrs	r3, r0
100103ae:	80d3      	strh	r3, [r2, #6]
100103b0:	7a0b      	ldrb	r3, [r1, #8]
100103b2:	79c8      	ldrb	r0, [r1, #7]
100103b4:	021b      	lsls	r3, r3, #8
100103b6:	4303      	orrs	r3, r0
100103b8:	8193      	strh	r3, [r2, #12]
100103ba:	7a8b      	ldrb	r3, [r1, #10]
100103bc:	7a49      	ldrb	r1, [r1, #9]
100103be:	021b      	lsls	r3, r3, #8
100103c0:	430b      	orrs	r3, r1
100103c2:	8153      	strh	r3, [r2, #10]
100103c4:	2306      	movs	r3, #6
100103c6:	e013      	b.n	100103f0 <gapc_peer_att_info_ind_handler+0x74>
100103c8:	1c14      	adds	r4, r2, #0
100103ca:	1c20      	adds	r0, r4, #0
100103cc:	790a      	ldrb	r2, [r1, #4]
100103ce:	78cb      	ldrb	r3, [r1, #3]
100103d0:	0212      	lsls	r2, r2, #8
100103d2:	431a      	orrs	r2, r3
100103d4:	80e2      	strh	r2, [r4, #6]
100103d6:	4b07      	ldr	r3, [pc, #28]	; (100103f4 <gapc_peer_att_info_ind_handler+0x78>)
100103d8:	3008      	adds	r0, #8
100103da:	3105      	adds	r1, #5
100103dc:	4798      	blx	r3
100103de:	2302      	movs	r3, #2
100103e0:	70a3      	strb	r3, [r4, #2]
100103e2:	e006      	b.n	100103f2 <gapc_peer_att_info_ind_handler+0x76>
100103e4:	790b      	ldrb	r3, [r1, #4]
100103e6:	78c9      	ldrb	r1, [r1, #3]
100103e8:	021b      	lsls	r3, r3, #8
100103ea:	430b      	orrs	r3, r1
100103ec:	80d3      	strh	r3, [r2, #6]
100103ee:	2305      	movs	r3, #5
100103f0:	7093      	strb	r3, [r2, #2]
100103f2:	bd10      	pop	{r4, pc}
100103f4:	10012fe3 	.word	0x10012fe3

100103f8 <gapc_con_channel_map_ind_handler>:
100103f8:	b508      	push	{r3, lr}
100103fa:	2300      	movs	r3, #0
100103fc:	0a00      	lsrs	r0, r0, #8
100103fe:	7013      	strb	r3, [r2, #0]
10010400:	8050      	strh	r0, [r2, #2]
10010402:	4b02      	ldr	r3, [pc, #8]	; (1001040c <gapc_con_channel_map_ind_handler+0x14>)
10010404:	1d10      	adds	r0, r2, #4
10010406:	2205      	movs	r2, #5
10010408:	4798      	blx	r3
1001040a:	bd08      	pop	{r3, pc}
1001040c:	10012fe3 	.word	0x10012fe3

10010410 <gapc_lecb_connected>:
10010410:	7843      	ldrb	r3, [r0, #1]
10010412:	7802      	ldrb	r2, [r0, #0]
10010414:	021b      	lsls	r3, r3, #8
10010416:	4313      	orrs	r3, r2
10010418:	800b      	strh	r3, [r1, #0]
1001041a:	78c3      	ldrb	r3, [r0, #3]
1001041c:	7882      	ldrb	r2, [r0, #2]
1001041e:	021b      	lsls	r3, r3, #8
10010420:	4313      	orrs	r3, r2
10010422:	804b      	strh	r3, [r1, #2]
10010424:	7943      	ldrb	r3, [r0, #5]
10010426:	7902      	ldrb	r2, [r0, #4]
10010428:	021b      	lsls	r3, r3, #8
1001042a:	4313      	orrs	r3, r2
1001042c:	808b      	strh	r3, [r1, #4]
1001042e:	79c3      	ldrb	r3, [r0, #7]
10010430:	7982      	ldrb	r2, [r0, #6]
10010432:	021b      	lsls	r3, r3, #8
10010434:	4313      	orrs	r3, r2
10010436:	80cb      	strh	r3, [r1, #6]
10010438:	2300      	movs	r3, #0
1001043a:	720b      	strb	r3, [r1, #8]
1001043c:	4770      	bx	lr

1001043e <gapc_lecb_disconnected>:
1001043e:	7843      	ldrb	r3, [r0, #1]
10010440:	7802      	ldrb	r2, [r0, #0]
10010442:	021b      	lsls	r3, r3, #8
10010444:	4313      	orrs	r3, r2
10010446:	800b      	strh	r3, [r1, #0]
10010448:	78c3      	ldrb	r3, [r0, #3]
1001044a:	7882      	ldrb	r2, [r0, #2]
1001044c:	021b      	lsls	r3, r3, #8
1001044e:	4313      	orrs	r3, r2
10010450:	804b      	strh	r3, [r1, #2]
10010452:	4770      	bx	lr

10010454 <gapc_lecb_connect_req_ind>:
10010454:	7843      	ldrb	r3, [r0, #1]
10010456:	7802      	ldrb	r2, [r0, #0]
10010458:	021b      	lsls	r3, r3, #8
1001045a:	4313      	orrs	r3, r2
1001045c:	800b      	strh	r3, [r1, #0]
1001045e:	78c3      	ldrb	r3, [r0, #3]
10010460:	7882      	ldrb	r2, [r0, #2]
10010462:	021b      	lsls	r3, r3, #8
10010464:	4313      	orrs	r3, r2
10010466:	804b      	strh	r3, [r1, #2]
10010468:	7943      	ldrb	r3, [r0, #5]
1001046a:	7902      	ldrb	r2, [r0, #4]
1001046c:	021b      	lsls	r3, r3, #8
1001046e:	4313      	orrs	r3, r2
10010470:	808b      	strh	r3, [r1, #4]
10010472:	79c3      	ldrb	r3, [r0, #7]
10010474:	7982      	ldrb	r2, [r0, #6]
10010476:	021b      	lsls	r3, r3, #8
10010478:	4313      	orrs	r3, r2
1001047a:	80cb      	strh	r3, [r1, #6]
1001047c:	4770      	bx	lr

1001047e <gapc_lecb_add_credit_resp_handler>:
1001047e:	7843      	ldrb	r3, [r0, #1]
10010480:	7802      	ldrb	r2, [r0, #0]
10010482:	021b      	lsls	r3, r3, #8
10010484:	4313      	orrs	r3, r2
10010486:	800b      	strh	r3, [r1, #0]
10010488:	78c3      	ldrb	r3, [r0, #3]
1001048a:	7882      	ldrb	r2, [r0, #2]
1001048c:	021b      	lsls	r3, r3, #8
1001048e:	4313      	orrs	r3, r2
10010490:	804b      	strh	r3, [r1, #2]
10010492:	7943      	ldrb	r3, [r0, #5]
10010494:	7902      	ldrb	r2, [r0, #4]
10010496:	021b      	lsls	r3, r3, #8
10010498:	4313      	orrs	r3, r2
1001049a:	808b      	strh	r3, [r1, #4]
1001049c:	4770      	bx	lr
	...

100104a0 <gapm_reset_req_handler>:
100104a0:	b573      	push	{r0, r1, r4, r5, r6, lr}
100104a2:	466b      	mov	r3, sp
100104a4:	4915      	ldr	r1, [pc, #84]	; (100104fc <gapm_reset_req_handler+0x5c>)
100104a6:	4816      	ldr	r0, [pc, #88]	; (10010500 <gapm_reset_req_handler+0x60>)
100104a8:	880c      	ldrh	r4, [r1, #0]
100104aa:	8809      	ldrh	r1, [r1, #0]
100104ac:	1ddd      	adds	r5, r3, #7
100104ae:	0a09      	lsrs	r1, r1, #8
100104b0:	2300      	movs	r3, #0
100104b2:	2202      	movs	r2, #2
100104b4:	7141      	strb	r1, [r0, #5]
100104b6:	26d0      	movs	r6, #208	; 0xd0
100104b8:	2101      	movs	r1, #1
100104ba:	7104      	strb	r4, [r0, #4]
100104bc:	4c11      	ldr	r4, [pc, #68]	; (10010504 <gapm_reset_req_handler+0x64>)
100104be:	702b      	strb	r3, [r5, #0]
100104c0:	7002      	strb	r2, [r0, #0]
100104c2:	70c3      	strb	r3, [r0, #3]
100104c4:	320b      	adds	r2, #11
100104c6:	7201      	strb	r1, [r0, #8]
100104c8:	7181      	strb	r1, [r0, #6]
100104ca:	71c3      	strb	r3, [r0, #7]
100104cc:	3108      	adds	r1, #8
100104ce:	4b0e      	ldr	r3, [pc, #56]	; (10010508 <gapm_reset_req_handler+0x68>)
100104d0:	0136      	lsls	r6, r6, #4
100104d2:	7042      	strb	r2, [r0, #1]
100104d4:	7082      	strb	r2, [r0, #2]
100104d6:	80a2      	strh	r2, [r4, #4]
100104d8:	8026      	strh	r6, [r4, #0]
100104da:	4798      	blx	r3
100104dc:	1c28      	adds	r0, r5, #0
100104de:	4b0b      	ldr	r3, [pc, #44]	; (1001050c <gapm_reset_req_handler+0x6c>)
100104e0:	4798      	blx	r3
100104e2:	782b      	ldrb	r3, [r5, #0]
100104e4:	20e2      	movs	r0, #226	; 0xe2
100104e6:	2b00      	cmp	r3, #0
100104e8:	d106      	bne.n	100104f8 <gapm_reset_req_handler+0x58>
100104ea:	68a3      	ldr	r3, [r4, #8]
100104ec:	20e2      	movs	r0, #226	; 0xe2
100104ee:	781a      	ldrb	r2, [r3, #0]
100104f0:	785b      	ldrb	r3, [r3, #1]
100104f2:	2a01      	cmp	r2, #1
100104f4:	d100      	bne.n	100104f8 <gapm_reset_req_handler+0x58>
100104f6:	1c18      	adds	r0, r3, #0
100104f8:	bd76      	pop	{r1, r2, r4, r5, r6, pc}
100104fa:	46c0      	nop			; (mov r8, r8)
100104fc:	10015e40 	.word	0x10015e40
10010500:	100161b0 	.word	0x100161b0
10010504:	10015e34 	.word	0x10015e34
10010508:	1000f8d1 	.word	0x1000f8d1
1001050c:	1000f92d 	.word	0x1000f92d

10010510 <gapm_set_dev_config_cmd_handler>:
10010510:	b5f0      	push	{r4, r5, r6, r7, lr}
10010512:	b089      	sub	sp, #36	; 0x24
10010514:	9303      	str	r3, [sp, #12]
10010516:	ab0e      	add	r3, sp, #56	; 0x38
10010518:	781b      	ldrb	r3, [r3, #0]
1001051a:	4c37      	ldr	r4, [pc, #220]	; (100105f8 <gapm_set_dev_config_cmd_handler+0xe8>)
1001051c:	9304      	str	r3, [sp, #16]
1001051e:	ab0f      	add	r3, sp, #60	; 0x3c
10010520:	781b      	ldrb	r3, [r3, #0]
10010522:	270d      	movs	r7, #13
10010524:	9305      	str	r3, [sp, #20]
10010526:	ab10      	add	r3, sp, #64	; 0x40
10010528:	881b      	ldrh	r3, [r3, #0]
1001052a:	72a1      	strb	r1, [r4, #10]
1001052c:	9300      	str	r3, [sp, #0]
1001052e:	ab11      	add	r3, sp, #68	; 0x44
10010530:	881b      	ldrh	r3, [r3, #0]
10010532:	0a09      	lsrs	r1, r1, #8
10010534:	9301      	str	r3, [sp, #4]
10010536:	ab12      	add	r3, sp, #72	; 0x48
10010538:	881b      	ldrh	r3, [r3, #0]
1001053a:	7260      	strb	r0, [r4, #9]
1001053c:	9302      	str	r3, [sp, #8]
1001053e:	ab06      	add	r3, sp, #24
10010540:	1dde      	adds	r6, r3, #7
10010542:	2300      	movs	r3, #0
10010544:	7033      	strb	r3, [r6, #0]
10010546:	2304      	movs	r3, #4
10010548:	7023      	strb	r3, [r4, #0]
1001054a:	2300      	movs	r3, #0
1001054c:	70e3      	strb	r3, [r4, #3]
1001054e:	4b2b      	ldr	r3, [pc, #172]	; (100105fc <gapm_set_dev_config_cmd_handler+0xec>)
10010550:	72e1      	strb	r1, [r4, #11]
10010552:	881d      	ldrh	r5, [r3, #0]
10010554:	881b      	ldrh	r3, [r3, #0]
10010556:	1c11      	adds	r1, r2, #0
10010558:	0a1b      	lsrs	r3, r3, #8
1001055a:	7163      	strb	r3, [r4, #5]
1001055c:	2303      	movs	r3, #3
1001055e:	7125      	strb	r5, [r4, #4]
10010560:	2206      	movs	r2, #6
10010562:	4d27      	ldr	r5, [pc, #156]	; (10010600 <gapm_set_dev_config_cmd_handler+0xf0>)
10010564:	4827      	ldr	r0, [pc, #156]	; (10010604 <gapm_set_dev_config_cmd_handler+0xf4>)
10010566:	7223      	strb	r3, [r4, #8]
10010568:	7067      	strb	r7, [r4, #1]
1001056a:	70a7      	strb	r7, [r4, #2]
1001056c:	47a8      	blx	r5
1001056e:	9903      	ldr	r1, [sp, #12]
10010570:	2210      	movs	r2, #16
10010572:	4825      	ldr	r0, [pc, #148]	; (10010608 <gapm_set_dev_config_cmd_handler+0xf8>)
10010574:	47a8      	blx	r5
10010576:	466a      	mov	r2, sp
10010578:	7c12      	ldrb	r2, [r2, #16]
1001057a:	1ce3      	adds	r3, r4, #3
1001057c:	77da      	strb	r2, [r3, #31]
1001057e:	466a      	mov	r2, sp
10010580:	7d12      	ldrb	r2, [r2, #20]
10010582:	1d23      	adds	r3, r4, #4
10010584:	77da      	strb	r2, [r3, #31]
10010586:	466a      	mov	r2, sp
10010588:	7812      	ldrb	r2, [r2, #0]
1001058a:	1d63      	adds	r3, r4, #5
1001058c:	77da      	strb	r2, [r3, #31]
1001058e:	9b00      	ldr	r3, [sp, #0]
10010590:	1da2      	adds	r2, r4, #6
10010592:	0a1b      	lsrs	r3, r3, #8
10010594:	77d3      	strb	r3, [r2, #31]
10010596:	466a      	mov	r2, sp
10010598:	7912      	ldrb	r2, [r2, #4]
1001059a:	1de3      	adds	r3, r4, #7
1001059c:	77da      	strb	r2, [r3, #31]
1001059e:	1c22      	adds	r2, r4, #0
100105a0:	9b01      	ldr	r3, [sp, #4]
100105a2:	3208      	adds	r2, #8
100105a4:	0a1b      	lsrs	r3, r3, #8
100105a6:	77d3      	strb	r3, [r2, #31]
100105a8:	466a      	mov	r2, sp
100105aa:	1c23      	adds	r3, r4, #0
100105ac:	7a12      	ldrb	r2, [r2, #8]
100105ae:	3328      	adds	r3, #40	; 0x28
100105b0:	701a      	strb	r2, [r3, #0]
100105b2:	1c22      	adds	r2, r4, #0
100105b4:	9b02      	ldr	r3, [sp, #8]
100105b6:	3229      	adds	r2, #41	; 0x29
100105b8:	0a1b      	lsrs	r3, r3, #8
100105ba:	7013      	strb	r3, [r2, #0]
100105bc:	23d0      	movs	r3, #208	; 0xd0
100105be:	4d13      	ldr	r5, [pc, #76]	; (1001060c <gapm_set_dev_config_cmd_handler+0xfc>)
100105c0:	011b      	lsls	r3, r3, #4
100105c2:	802b      	strh	r3, [r5, #0]
100105c4:	2322      	movs	r3, #34	; 0x22
100105c6:	71a3      	strb	r3, [r4, #6]
100105c8:	2300      	movs	r3, #0
100105ca:	212a      	movs	r1, #42	; 0x2a
100105cc:	71e3      	strb	r3, [r4, #7]
100105ce:	1c20      	adds	r0, r4, #0
100105d0:	4b0f      	ldr	r3, [pc, #60]	; (10010610 <gapm_set_dev_config_cmd_handler+0x100>)
100105d2:	80af      	strh	r7, [r5, #4]
100105d4:	4798      	blx	r3
100105d6:	1c30      	adds	r0, r6, #0
100105d8:	4b0e      	ldr	r3, [pc, #56]	; (10010614 <gapm_set_dev_config_cmd_handler+0x104>)
100105da:	4798      	blx	r3
100105dc:	7833      	ldrb	r3, [r6, #0]
100105de:	20e2      	movs	r0, #226	; 0xe2
100105e0:	2b00      	cmp	r3, #0
100105e2:	d106      	bne.n	100105f2 <gapm_set_dev_config_cmd_handler+0xe2>
100105e4:	68ab      	ldr	r3, [r5, #8]
100105e6:	20e2      	movs	r0, #226	; 0xe2
100105e8:	781a      	ldrb	r2, [r3, #0]
100105ea:	785b      	ldrb	r3, [r3, #1]
100105ec:	2a03      	cmp	r2, #3
100105ee:	d100      	bne.n	100105f2 <gapm_set_dev_config_cmd_handler+0xe2>
100105f0:	1c18      	adds	r0, r3, #0
100105f2:	b009      	add	sp, #36	; 0x24
100105f4:	bdf0      	pop	{r4, r5, r6, r7, pc}
100105f6:	46c0      	nop			; (mov r8, r8)
100105f8:	100161b0 	.word	0x100161b0
100105fc:	10015e40 	.word	0x10015e40
10010600:	10012fe3 	.word	0x10012fe3
10010604:	100161bc 	.word	0x100161bc
10010608:	100161c2 	.word	0x100161c2
1001060c:	10015e34 	.word	0x10015e34
10010610:	1000f8d1 	.word	0x1000f8d1
10010614:	1000f92d 	.word	0x1000f92d

10010618 <gapm_get_dev_config_cmd_handler>:
10010618:	4684      	mov	ip, r0
1001061a:	4663      	mov	r3, ip
1001061c:	b5f0      	push	{r4, r5, r6, r7, lr}
1001061e:	b085      	sub	sp, #20
10010620:	9100      	str	r1, [sp, #0]
10010622:	20cf      	movs	r0, #207	; 0xcf
10010624:	2b01      	cmp	r3, #1
10010626:	d854      	bhi.n	100106d2 <gapm_get_dev_config_cmd_handler+0xba>
10010628:	2900      	cmp	r1, #0
1001062a:	d052      	beq.n	100106d2 <gapm_get_dev_config_cmd_handler+0xba>
1001062c:	2200      	movs	r2, #0
1001062e:	492a      	ldr	r1, [pc, #168]	; (100106d8 <gapm_get_dev_config_cmd_handler+0xc0>)
10010630:	ab02      	add	r3, sp, #8
10010632:	880c      	ldrh	r4, [r1, #0]
10010634:	8809      	ldrh	r1, [r1, #0]
10010636:	1d9f      	adds	r7, r3, #6
10010638:	719a      	strb	r2, [r3, #6]
1001063a:	4b28      	ldr	r3, [pc, #160]	; (100106dc <gapm_get_dev_config_cmd_handler+0xc4>)
1001063c:	0a09      	lsrs	r1, r1, #8
1001063e:	250d      	movs	r5, #13
10010640:	2606      	movs	r6, #6
10010642:	7159      	strb	r1, [r3, #5]
10010644:	4661      	mov	r1, ip
10010646:	701e      	strb	r6, [r3, #0]
10010648:	705d      	strb	r5, [r3, #1]
1001064a:	709d      	strb	r5, [r3, #2]
1001064c:	70da      	strb	r2, [r3, #3]
1001064e:	711c      	strb	r4, [r3, #4]
10010650:	2901      	cmp	r1, #1
10010652:	d13e      	bne.n	100106d2 <gapm_get_dev_config_cmd_handler+0xba>
10010654:	21d0      	movs	r1, #208	; 0xd0
10010656:	4c22      	ldr	r4, [pc, #136]	; (100106e0 <gapm_get_dev_config_cmd_handler+0xc8>)
10010658:	0109      	lsls	r1, r1, #4
1001065a:	8061      	strh	r1, [r4, #2]
1001065c:	4921      	ldr	r1, [pc, #132]	; (100106e4 <gapm_get_dev_config_cmd_handler+0xcc>)
1001065e:	71da      	strb	r2, [r3, #7]
10010660:	8021      	strh	r1, [r4, #0]
10010662:	4661      	mov	r1, ip
10010664:	721e      	strb	r6, [r3, #8]
10010666:	7199      	strb	r1, [r3, #6]
10010668:	1c18      	adds	r0, r3, #0
1001066a:	2109      	movs	r1, #9
1001066c:	4b1e      	ldr	r3, [pc, #120]	; (100106e8 <gapm_get_dev_config_cmd_handler+0xd0>)
1001066e:	80a5      	strh	r5, [r4, #4]
10010670:	4798      	blx	r3
10010672:	1c38      	adds	r0, r7, #0
10010674:	4b1d      	ldr	r3, [pc, #116]	; (100106ec <gapm_get_dev_config_cmd_handler+0xd4>)
10010676:	4798      	blx	r3
10010678:	783b      	ldrb	r3, [r7, #0]
1001067a:	20e2      	movs	r0, #226	; 0xe2
1001067c:	9301      	str	r3, [sp, #4]
1001067e:	2b00      	cmp	r3, #0
10010680:	d127      	bne.n	100106d2 <gapm_get_dev_config_cmd_handler+0xba>
10010682:	8821      	ldrh	r1, [r4, #0]
10010684:	4a1a      	ldr	r2, [pc, #104]	; (100106f0 <gapm_get_dev_config_cmd_handler+0xd8>)
10010686:	68a7      	ldr	r7, [r4, #8]
10010688:	3b01      	subs	r3, #1
1001068a:	4291      	cmp	r1, r2
1001068c:	d001      	beq.n	10010692 <gapm_get_dev_config_cmd_handler+0x7a>
1001068e:	8023      	strh	r3, [r4, #0]
10010690:	e01a      	b.n	100106c8 <gapm_get_dev_config_cmd_handler+0xb0>
10010692:	8063      	strh	r3, [r4, #2]
10010694:	9b00      	ldr	r3, [sp, #0]
10010696:	1c39      	adds	r1, r7, #0
10010698:	1c58      	adds	r0, r3, #1
1001069a:	1c32      	adds	r2, r6, #0
1001069c:	4b15      	ldr	r3, [pc, #84]	; (100106f4 <gapm_get_dev_config_cmd_handler+0xdc>)
1001069e:	4798      	blx	r3
100106a0:	79bb      	ldrb	r3, [r7, #6]
100106a2:	9a00      	ldr	r2, [sp, #0]
100106a4:	7013      	strb	r3, [r2, #0]
100106a6:	23d0      	movs	r3, #208	; 0xd0
100106a8:	011b      	lsls	r3, r3, #4
100106aa:	8023      	strh	r3, [r4, #0]
100106ac:	ab02      	add	r3, sp, #8
100106ae:	80a5      	strh	r5, [r4, #4]
100106b0:	1ddd      	adds	r5, r3, #7
100106b2:	466b      	mov	r3, sp
100106b4:	791b      	ldrb	r3, [r3, #4]
100106b6:	1c28      	adds	r0, r5, #0
100106b8:	702b      	strb	r3, [r5, #0]
100106ba:	4b0c      	ldr	r3, [pc, #48]	; (100106ec <gapm_get_dev_config_cmd_handler+0xd4>)
100106bc:	4798      	blx	r3
100106be:	782b      	ldrb	r3, [r5, #0]
100106c0:	20d0      	movs	r0, #208	; 0xd0
100106c2:	2b00      	cmp	r3, #0
100106c4:	d105      	bne.n	100106d2 <gapm_get_dev_config_cmd_handler+0xba>
100106c6:	68a7      	ldr	r7, [r4, #8]
100106c8:	783b      	ldrb	r3, [r7, #0]
100106ca:	7878      	ldrb	r0, [r7, #1]
100106cc:	2b06      	cmp	r3, #6
100106ce:	d000      	beq.n	100106d2 <gapm_get_dev_config_cmd_handler+0xba>
100106d0:	20e2      	movs	r0, #226	; 0xe2
100106d2:	b005      	add	sp, #20
100106d4:	bdf0      	pop	{r4, r5, r6, r7, pc}
100106d6:	46c0      	nop			; (mov r8, r8)
100106d8:	10015e40 	.word	0x10015e40
100106dc:	100161b0 	.word	0x100161b0
100106e0:	10015e34 	.word	0x10015e34
100106e4:	00000d08 	.word	0x00000d08
100106e8:	1000f8d1 	.word	0x1000f8d1
100106ec:	1000f92d 	.word	0x1000f92d
100106f0:	0000ffff 	.word	0x0000ffff
100106f4:	10012fe3 	.word	0x10012fe3

100106f8 <gapm_cancel_cmd_handler>:
100106f8:	b537      	push	{r0, r1, r2, r4, r5, lr}
100106fa:	4916      	ldr	r1, [pc, #88]	; (10010754 <gapm_cancel_cmd_handler+0x5c>)
100106fc:	4816      	ldr	r0, [pc, #88]	; (10010758 <gapm_cancel_cmd_handler+0x60>)
100106fe:	880c      	ldrh	r4, [r1, #0]
10010700:	8809      	ldrh	r1, [r1, #0]
10010702:	466b      	mov	r3, sp
10010704:	0a09      	lsrs	r1, r1, #8
10010706:	7141      	strb	r1, [r0, #5]
10010708:	2102      	movs	r1, #2
1001070a:	2203      	movs	r2, #3
1001070c:	7201      	strb	r1, [r0, #8]
1001070e:	21d0      	movs	r1, #208	; 0xd0
10010710:	1ddd      	adds	r5, r3, #7
10010712:	2300      	movs	r3, #0
10010714:	7104      	strb	r4, [r0, #4]
10010716:	4c11      	ldr	r4, [pc, #68]	; (1001075c <gapm_cancel_cmd_handler+0x64>)
10010718:	7002      	strb	r2, [r0, #0]
1001071a:	0109      	lsls	r1, r1, #4
1001071c:	320a      	adds	r2, #10
1001071e:	702b      	strb	r3, [r5, #0]
10010720:	7042      	strb	r2, [r0, #1]
10010722:	7082      	strb	r2, [r0, #2]
10010724:	70c3      	strb	r3, [r0, #3]
10010726:	8021      	strh	r1, [r4, #0]
10010728:	80a2      	strh	r2, [r4, #4]
1001072a:	71c3      	strb	r3, [r0, #7]
1001072c:	3a0c      	subs	r2, #12
1001072e:	2109      	movs	r1, #9
10010730:	4b0b      	ldr	r3, [pc, #44]	; (10010760 <gapm_cancel_cmd_handler+0x68>)
10010732:	7182      	strb	r2, [r0, #6]
10010734:	4798      	blx	r3
10010736:	1c28      	adds	r0, r5, #0
10010738:	4b0a      	ldr	r3, [pc, #40]	; (10010764 <gapm_cancel_cmd_handler+0x6c>)
1001073a:	4798      	blx	r3
1001073c:	7828      	ldrb	r0, [r5, #0]
1001073e:	2800      	cmp	r0, #0
10010740:	d001      	beq.n	10010746 <gapm_cancel_cmd_handler+0x4e>
10010742:	20e2      	movs	r0, #226	; 0xe2
10010744:	e004      	b.n	10010750 <gapm_cancel_cmd_handler+0x58>
10010746:	68a3      	ldr	r3, [r4, #8]
10010748:	785b      	ldrb	r3, [r3, #1]
1001074a:	2b44      	cmp	r3, #68	; 0x44
1001074c:	d000      	beq.n	10010750 <gapm_cancel_cmd_handler+0x58>
1001074e:	1c18      	adds	r0, r3, #0
10010750:	bd3e      	pop	{r1, r2, r3, r4, r5, pc}
10010752:	46c0      	nop			; (mov r8, r8)
10010754:	10015e40 	.word	0x10015e40
10010758:	100161b0 	.word	0x100161b0
1001075c:	10015e34 	.word	0x10015e34
10010760:	1000f8d1 	.word	0x1000f8d1
10010764:	1000f92d 	.word	0x1000f92d

10010768 <gapm_dev_bdaddr_ind_handler>:
10010768:	b538      	push	{r3, r4, r5, lr}
1001076a:	1c05      	adds	r5, r0, #0
1001076c:	1c0c      	adds	r4, r1, #0
1001076e:	1c48      	adds	r0, r1, #1
10010770:	2206      	movs	r2, #6
10010772:	1c29      	adds	r1, r5, #0
10010774:	4b02      	ldr	r3, [pc, #8]	; (10010780 <gapm_dev_bdaddr_ind_handler+0x18>)
10010776:	4798      	blx	r3
10010778:	79ab      	ldrb	r3, [r5, #6]
1001077a:	2000      	movs	r0, #0
1001077c:	7023      	strb	r3, [r4, #0]
1001077e:	bd38      	pop	{r3, r4, r5, pc}
10010780:	10012fe3 	.word	0x10012fe3

10010784 <gapm_cmp_evt>:
10010784:	b5f7      	push	{r0, r1, r2, r4, r5, r6, r7, lr}
10010786:	7803      	ldrb	r3, [r0, #0]
10010788:	7845      	ldrb	r5, [r0, #1]
1001078a:	3b0c      	subs	r3, #12
1001078c:	1e18      	subs	r0, r3, #0
1001078e:	280b      	cmp	r0, #11
10010790:	d900      	bls.n	10010794 <gapm_cmp_evt+0x10>
10010792:	e08d      	b.n	100108b0 <gapm_cmp_evt+0x12c>
10010794:	1c0c      	adds	r4, r1, #0
10010796:	f000 fd5f 	bl	10011258 <__gnu_thumb1_case_uqi>
1001079a:	1952      	.short	0x1952
1001079c:	068b1919 	.word	0x068b1919
100107a0:	8b595906 	.word	0x8b595906
100107a4:	0d8b      	.short	0x0d8b
100107a6:	2300      	movs	r3, #0
100107a8:	2d45      	cmp	r5, #69	; 0x45
100107aa:	d000      	beq.n	100107ae <gapm_cmp_evt+0x2a>
100107ac:	1c2b      	adds	r3, r5, #0
100107ae:	7023      	strb	r3, [r4, #0]
100107b0:	2002      	movs	r0, #2
100107b2:	e07e      	b.n	100108b2 <gapm_cmp_evt+0x12e>
100107b4:	203b      	movs	r0, #59	; 0x3b
100107b6:	2d00      	cmp	r5, #0
100107b8:	d100      	bne.n	100107bc <gapm_cmp_evt+0x38>
100107ba:	e07a      	b.n	100108b2 <gapm_cmp_evt+0x12e>
100107bc:	700d      	strb	r5, [r1, #0]
100107be:	1c48      	adds	r0, r1, #1
100107c0:	2210      	movs	r2, #16
100107c2:	2100      	movs	r1, #0
100107c4:	4b3b      	ldr	r3, [pc, #236]	; (100108b4 <gapm_cmp_evt+0x130>)
100107c6:	4798      	blx	r3
100107c8:	200f      	movs	r0, #15
100107ca:	e072      	b.n	100108b2 <gapm_cmp_evt+0x12e>
100107cc:	2d00      	cmp	r5, #0
100107ce:	d134      	bne.n	1001083a <gapm_cmp_evt+0xb6>
100107d0:	4b39      	ldr	r3, [pc, #228]	; (100108b8 <gapm_cmp_evt+0x134>)
100107d2:	4798      	blx	r3
100107d4:	1e43      	subs	r3, r0, #1
100107d6:	b2db      	uxtb	r3, r3
100107d8:	1c28      	adds	r0, r5, #0
100107da:	2b06      	cmp	r3, #6
100107dc:	d869      	bhi.n	100108b2 <gapm_cmp_evt+0x12e>
100107de:	466b      	mov	r3, sp
100107e0:	4e36      	ldr	r6, [pc, #216]	; (100108bc <gapm_cmp_evt+0x138>)
100107e2:	1dd9      	adds	r1, r3, #7
100107e4:	8db0      	ldrh	r0, [r6, #44]	; 0x2c
100107e6:	4b36      	ldr	r3, [pc, #216]	; (100108c0 <gapm_cmp_evt+0x13c>)
100107e8:	4798      	blx	r3
100107ea:	2312      	movs	r3, #18
100107ec:	4358      	muls	r0, r3
100107ee:	4935      	ldr	r1, [pc, #212]	; (100108c4 <gapm_cmp_evt+0x140>)
100107f0:	1809      	adds	r1, r1, r0
100107f2:	1c0b      	adds	r3, r1, #0
100107f4:	894a      	ldrh	r2, [r1, #10]
100107f6:	3308      	adds	r3, #8
100107f8:	8122      	strh	r2, [r4, #8]
100107fa:	784f      	ldrb	r7, [r1, #1]
100107fc:	72a5      	strb	r5, [r4, #10]
100107fe:	7027      	strb	r7, [r4, #0]
10010800:	898a      	ldrh	r2, [r1, #12]
10010802:	1c60      	adds	r0, r4, #1
10010804:	81a2      	strh	r2, [r4, #12]
10010806:	88db      	ldrh	r3, [r3, #6]
10010808:	3102      	adds	r1, #2
1001080a:	81e3      	strh	r3, [r4, #14]
1001080c:	89cb      	ldrh	r3, [r1, #14]
1001080e:	2206      	movs	r2, #6
10010810:	8223      	strh	r3, [r4, #16]
10010812:	4b2d      	ldr	r3, [pc, #180]	; (100108c8 <gapm_cmp_evt+0x144>)
10010814:	4798      	blx	r3
10010816:	2f00      	cmp	r7, #0
10010818:	d00a      	beq.n	10010830 <gapm_cmp_evt+0xac>
1001081a:	79a3      	ldrb	r3, [r4, #6]
1001081c:	223f      	movs	r2, #63	; 0x3f
1001081e:	1c19      	adds	r1, r3, #0
10010820:	3501      	adds	r5, #1
10010822:	4391      	bics	r1, r2
10010824:	29c0      	cmp	r1, #192	; 0xc0
10010826:	d003      	beq.n	10010830 <gapm_cmp_evt+0xac>
10010828:	065b      	lsls	r3, r3, #25
1001082a:	0fdb      	lsrs	r3, r3, #31
1001082c:	3502      	adds	r5, #2
1001082e:	1aed      	subs	r5, r5, r3
10010830:	2301      	movs	r3, #1
10010832:	425b      	negs	r3, r3
10010834:	7025      	strb	r5, [r4, #0]
10010836:	85b3      	strh	r3, [r6, #44]	; 0x2c
10010838:	e038      	b.n	100108ac <gapm_cmp_evt+0x128>
1001083a:	700d      	strb	r5, [r1, #0]
1001083c:	e004      	b.n	10010848 <gapm_cmp_evt+0xc4>
1001083e:	2300      	movs	r3, #0
10010840:	2d45      	cmp	r5, #69	; 0x45
10010842:	d000      	beq.n	10010846 <gapm_cmp_evt+0xc2>
10010844:	1c2b      	adds	r3, r5, #0
10010846:	7023      	strb	r3, [r4, #0]
10010848:	2003      	movs	r0, #3
1001084a:	e032      	b.n	100108b2 <gapm_cmp_evt+0x12e>
1001084c:	4e1b      	ldr	r6, [pc, #108]	; (100108bc <gapm_cmp_evt+0x138>)
1001084e:	2100      	movs	r1, #0
10010850:	8db0      	ldrh	r0, [r6, #44]	; 0x2c
10010852:	4b1b      	ldr	r3, [pc, #108]	; (100108c0 <gapm_cmp_evt+0x13c>)
10010854:	4798      	blx	r3
10010856:	2807      	cmp	r0, #7
10010858:	d818      	bhi.n	1001088c <gapm_cmp_evt+0x108>
1001085a:	2301      	movs	r3, #1
1001085c:	425b      	negs	r3, r3
1001085e:	85b3      	strh	r3, [r6, #44]	; 0x2c
10010860:	3313      	adds	r3, #19
10010862:	4358      	muls	r0, r3
10010864:	4917      	ldr	r1, [pc, #92]	; (100108c4 <gapm_cmp_evt+0x140>)
10010866:	1809      	adds	r1, r1, r0
10010868:	1c0b      	adds	r3, r1, #0
1001086a:	894a      	ldrh	r2, [r1, #10]
1001086c:	3308      	adds	r3, #8
1001086e:	8122      	strh	r2, [r4, #8]
10010870:	784a      	ldrb	r2, [r1, #1]
10010872:	72a5      	strb	r5, [r4, #10]
10010874:	7022      	strb	r2, [r4, #0]
10010876:	898a      	ldrh	r2, [r1, #12]
10010878:	1c60      	adds	r0, r4, #1
1001087a:	81a2      	strh	r2, [r4, #12]
1001087c:	88db      	ldrh	r3, [r3, #6]
1001087e:	3102      	adds	r1, #2
10010880:	81e3      	strh	r3, [r4, #14]
10010882:	89cb      	ldrh	r3, [r1, #14]
10010884:	2206      	movs	r2, #6
10010886:	8223      	strh	r3, [r4, #16]
10010888:	4b0f      	ldr	r3, [pc, #60]	; (100108c8 <gapm_cmp_evt+0x144>)
1001088a:	4798      	blx	r3
1001088c:	2200      	movs	r2, #0
1001088e:	7823      	ldrb	r3, [r4, #0]
10010890:	4293      	cmp	r3, r2
10010892:	d00a      	beq.n	100108aa <gapm_cmp_evt+0x126>
10010894:	79a3      	ldrb	r3, [r4, #6]
10010896:	323f      	adds	r2, #63	; 0x3f
10010898:	1c19      	adds	r1, r3, #0
1001089a:	4391      	bics	r1, r2
1001089c:	3a3e      	subs	r2, #62	; 0x3e
1001089e:	29c0      	cmp	r1, #192	; 0xc0
100108a0:	d003      	beq.n	100108aa <gapm_cmp_evt+0x126>
100108a2:	065b      	lsls	r3, r3, #25
100108a4:	0fdb      	lsrs	r3, r3, #31
100108a6:	3202      	adds	r2, #2
100108a8:	1ad2      	subs	r2, r2, r3
100108aa:	7022      	strb	r2, [r4, #0]
100108ac:	2005      	movs	r0, #5
100108ae:	e000      	b.n	100108b2 <gapm_cmp_evt+0x12e>
100108b0:	2000      	movs	r0, #0
100108b2:	bdfe      	pop	{r1, r2, r3, r4, r5, r6, r7, pc}
100108b4:	10012ff5 	.word	0x10012ff5
100108b8:	1000fad5 	.word	0x1000fad5
100108bc:	10015ed2 	.word	0x10015ed2
100108c0:	1000fa99 	.word	0x1000fa99
100108c4:	10015e42 	.word	0x10015e42
100108c8:	10012fe3 	.word	0x10012fe3

100108cc <gapm_start_adv_cmd_handler>:
100108cc:	b5f0      	push	{r4, r5, r6, r7, lr}
100108ce:	b089      	sub	sp, #36	; 0x24
100108d0:	9303      	str	r3, [sp, #12]
100108d2:	ab0e      	add	r3, sp, #56	; 0x38
100108d4:	9102      	str	r1, [sp, #8]
100108d6:	cb02      	ldmia	r3!, {r1}
100108d8:	aa08      	add	r2, sp, #32
100108da:	881b      	ldrh	r3, [r3, #0]
100108dc:	4e3c      	ldr	r6, [pc, #240]	; (100109d0 <gapm_start_adv_cmd_handler+0x104>)
100108de:	9300      	str	r3, [sp, #0]
100108e0:	ab10      	add	r3, sp, #64	; 0x40
100108e2:	881b      	ldrh	r3, [r3, #0]
100108e4:	240d      	movs	r4, #13
100108e6:	469c      	mov	ip, r3
100108e8:	ab11      	add	r3, sp, #68	; 0x44
100108ea:	781b      	ldrb	r3, [r3, #0]
100108ec:	9304      	str	r3, [sp, #16]
100108ee:	ab12      	add	r3, sp, #72	; 0x48
100108f0:	781b      	ldrb	r3, [r3, #0]
100108f2:	9305      	str	r3, [sp, #20]
100108f4:	ab13      	add	r3, sp, #76	; 0x4c
100108f6:	781b      	ldrb	r3, [r3, #0]
100108f8:	9306      	str	r3, [sp, #24]
100108fa:	ab14      	add	r3, sp, #80	; 0x50
100108fc:	781b      	ldrb	r3, [r3, #0]
100108fe:	9301      	str	r3, [sp, #4]
10010900:	2319      	movs	r3, #25
10010902:	189b      	adds	r3, r3, r2
10010904:	7fdd      	ldrb	r5, [r3, #31]
10010906:	ab18      	add	r3, sp, #96	; 0x60
10010908:	881f      	ldrh	r7, [r3, #0]
1001090a:	ab19      	add	r3, sp, #100	; 0x64
1001090c:	781b      	ldrb	r3, [r3, #0]
1001090e:	8832      	ldrh	r2, [r6, #0]
10010910:	9307      	str	r3, [sp, #28]
10010912:	4b30      	ldr	r3, [pc, #192]	; (100109d4 <gapm_start_adv_cmd_handler+0x108>)
10010914:	8836      	ldrh	r6, [r6, #0]
10010916:	711a      	strb	r2, [r3, #4]
10010918:	466a      	mov	r2, sp
1001091a:	7a12      	ldrb	r2, [r2, #8]
1001091c:	701c      	strb	r4, [r3, #0]
1001091e:	705c      	strb	r4, [r3, #1]
10010920:	709c      	strb	r4, [r3, #2]
10010922:	725a      	strb	r2, [r3, #9]
10010924:	2400      	movs	r4, #0
10010926:	466a      	mov	r2, sp
10010928:	0a36      	lsrs	r6, r6, #8
1001092a:	70dc      	strb	r4, [r3, #3]
1001092c:	7218      	strb	r0, [r3, #8]
1001092e:	729c      	strb	r4, [r3, #10]
10010930:	715e      	strb	r6, [r3, #5]
10010932:	72dc      	strb	r4, [r3, #11]
10010934:	7812      	ldrb	r2, [r2, #0]
10010936:	380e      	subs	r0, #14
10010938:	731a      	strb	r2, [r3, #12]
1001093a:	9a00      	ldr	r2, [sp, #0]
1001093c:	0a14      	lsrs	r4, r2, #8
1001093e:	4662      	mov	r2, ip
10010940:	739a      	strb	r2, [r3, #14]
10010942:	4662      	mov	r2, ip
10010944:	735c      	strb	r4, [r3, #13]
10010946:	0a14      	lsrs	r4, r2, #8
10010948:	466a      	mov	r2, sp
1001094a:	7c12      	ldrb	r2, [r2, #16]
1001094c:	73dc      	strb	r4, [r3, #15]
1001094e:	741a      	strb	r2, [r3, #16]
10010950:	1c1c      	adds	r4, r3, #0
10010952:	2801      	cmp	r0, #1
10010954:	d809      	bhi.n	1001096a <gapm_start_adv_cmd_handler+0x9e>
10010956:	2900      	cmp	r1, #0
10010958:	d003      	beq.n	10010962 <gapm_start_adv_cmd_handler+0x96>
1001095a:	481f      	ldr	r0, [pc, #124]	; (100109d8 <gapm_start_adv_cmd_handler+0x10c>)
1001095c:	2206      	movs	r2, #6
1001095e:	4b1f      	ldr	r3, [pc, #124]	; (100109dc <gapm_start_adv_cmd_handler+0x110>)
10010960:	4798      	blx	r3
10010962:	466b      	mov	r3, sp
10010964:	7b1b      	ldrb	r3, [r3, #12]
10010966:	75e3      	strb	r3, [r4, #23]
10010968:	e014      	b.n	10010994 <gapm_start_adv_cmd_handler+0xc8>
1001096a:	466b      	mov	r3, sp
1001096c:	7d1b      	ldrb	r3, [r3, #20]
1001096e:	9915      	ldr	r1, [sp, #84]	; 0x54
10010970:	7463      	strb	r3, [r4, #17]
10010972:	466b      	mov	r3, sp
10010974:	7e1b      	ldrb	r3, [r3, #24]
10010976:	9a01      	ldr	r2, [sp, #4]
10010978:	74a3      	strb	r3, [r4, #18]
1001097a:	466b      	mov	r3, sp
1001097c:	791b      	ldrb	r3, [r3, #4]
1001097e:	4818      	ldr	r0, [pc, #96]	; (100109e0 <gapm_start_adv_cmd_handler+0x114>)
10010980:	4e16      	ldr	r6, [pc, #88]	; (100109dc <gapm_start_adv_cmd_handler+0x110>)
10010982:	74e3      	strb	r3, [r4, #19]
10010984:	47b0      	blx	r6
10010986:	1c23      	adds	r3, r4, #0
10010988:	4816      	ldr	r0, [pc, #88]	; (100109e4 <gapm_start_adv_cmd_handler+0x118>)
1001098a:	3330      	adds	r3, #48	; 0x30
1001098c:	9917      	ldr	r1, [sp, #92]	; 0x5c
1001098e:	1c2a      	adds	r2, r5, #0
10010990:	701d      	strb	r5, [r3, #0]
10010992:	47b0      	blx	r6
10010994:	1c22      	adds	r2, r4, #0
10010996:	23a5      	movs	r3, #165	; 0xa5
10010998:	3250      	adds	r2, #80	; 0x50
1001099a:	7013      	strb	r3, [r2, #0]
1001099c:	1c22      	adds	r2, r4, #0
1001099e:	3251      	adds	r2, #81	; 0x51
100109a0:	7013      	strb	r3, [r2, #0]
100109a2:	1c23      	adds	r3, r4, #0
100109a4:	1c22      	adds	r2, r4, #0
100109a6:	3352      	adds	r3, #82	; 0x52
100109a8:	701f      	strb	r7, [r3, #0]
100109aa:	3253      	adds	r2, #83	; 0x53
100109ac:	0a3b      	lsrs	r3, r7, #8
100109ae:	7013      	strb	r3, [r2, #0]
100109b0:	466a      	mov	r2, sp
100109b2:	1c23      	adds	r3, r4, #0
100109b4:	7f12      	ldrb	r2, [r2, #28]
100109b6:	3354      	adds	r3, #84	; 0x54
100109b8:	701a      	strb	r2, [r3, #0]
100109ba:	234d      	movs	r3, #77	; 0x4d
100109bc:	2500      	movs	r5, #0
100109be:	71a3      	strb	r3, [r4, #6]
100109c0:	1c20      	adds	r0, r4, #0
100109c2:	2155      	movs	r1, #85	; 0x55
100109c4:	4b08      	ldr	r3, [pc, #32]	; (100109e8 <gapm_start_adv_cmd_handler+0x11c>)
100109c6:	71e5      	strb	r5, [r4, #7]
100109c8:	4798      	blx	r3
100109ca:	1c28      	adds	r0, r5, #0
100109cc:	b009      	add	sp, #36	; 0x24
100109ce:	bdf0      	pop	{r4, r5, r6, r7, pc}
100109d0:	10015e40 	.word	0x10015e40
100109d4:	100161b0 	.word	0x100161b0
100109d8:	100161c1 	.word	0x100161c1
100109dc:	10012fe3 	.word	0x10012fe3
100109e0:	100161c4 	.word	0x100161c4
100109e4:	100161e1 	.word	0x100161e1
100109e8:	1000f8d1 	.word	0x1000f8d1

100109ec <get_gap_local_addr_type>:
100109ec:	4b04      	ldr	r3, [pc, #16]	; (10010a00 <get_gap_local_addr_type+0x14>)
100109ee:	2001      	movs	r0, #1
100109f0:	791b      	ldrb	r3, [r3, #4]
100109f2:	2b02      	cmp	r3, #2
100109f4:	d003      	beq.n	100109fe <get_gap_local_addr_type+0x12>
100109f6:	3b03      	subs	r3, #3
100109f8:	4258      	negs	r0, r3
100109fa:	4158      	adcs	r0, r3
100109fc:	0040      	lsls	r0, r0, #1
100109fe:	4770      	bx	lr
10010a00:	10015ed2 	.word	0x10015ed2

10010a04 <gapm_adv_report_evt_handler>:
10010a04:	b5f7      	push	{r0, r1, r2, r4, r5, r6, r7, lr}
10010a06:	7843      	ldrb	r3, [r0, #1]
10010a08:	1c05      	adds	r5, r0, #0
10010a0a:	9301      	str	r3, [sp, #4]
10010a0c:	466b      	mov	r3, sp
10010a0e:	1c0c      	adds	r4, r1, #0
10010a10:	791b      	ldrb	r3, [r3, #4]
10010a12:	7806      	ldrb	r6, [r0, #0]
10010a14:	2206      	movs	r2, #6
10010a16:	704b      	strb	r3, [r1, #1]
10010a18:	1c88      	adds	r0, r1, #2
10010a1a:	4f1b      	ldr	r7, [pc, #108]	; (10010a88 <gapm_adv_report_evt_handler+0x84>)
10010a1c:	1ca9      	adds	r1, r5, #2
10010a1e:	47b8      	blx	r7
10010a20:	1c20      	adds	r0, r4, #0
10010a22:	1c29      	adds	r1, r5, #0
10010a24:	7a2a      	ldrb	r2, [r5, #8]
10010a26:	3008      	adds	r0, #8
10010a28:	77c2      	strb	r2, [r0, #31]
10010a2a:	3109      	adds	r1, #9
10010a2c:	3528      	adds	r5, #40	; 0x28
10010a2e:	47b8      	blx	r7
10010a30:	782b      	ldrb	r3, [r5, #0]
10010a32:	b25a      	sxtb	r2, r3
10010a34:	2a00      	cmp	r2, #0
10010a36:	da01      	bge.n	10010a3c <gapm_adv_report_evt_handler+0x38>
10010a38:	3301      	adds	r3, #1
10010a3a:	b2db      	uxtb	r3, r3
10010a3c:	1c22      	adds	r2, r4, #0
10010a3e:	3228      	adds	r2, #40	; 0x28
10010a40:	7013      	strb	r3, [r2, #0]
10010a42:	2200      	movs	r2, #0
10010a44:	9b01      	ldr	r3, [sp, #4]
10010a46:	4293      	cmp	r3, r2
10010a48:	d00a      	beq.n	10010a60 <gapm_adv_report_evt_handler+0x5c>
10010a4a:	79e3      	ldrb	r3, [r4, #7]
10010a4c:	323f      	adds	r2, #63	; 0x3f
10010a4e:	1c19      	adds	r1, r3, #0
10010a50:	4391      	bics	r1, r2
10010a52:	3a3e      	subs	r2, #62	; 0x3e
10010a54:	29c0      	cmp	r1, #192	; 0xc0
10010a56:	d003      	beq.n	10010a60 <gapm_adv_report_evt_handler+0x5c>
10010a58:	065b      	lsls	r3, r3, #25
10010a5a:	0fdb      	lsrs	r3, r3, #31
10010a5c:	3202      	adds	r2, #2
10010a5e:	1ad2      	subs	r2, r2, r3
10010a60:	7062      	strb	r2, [r4, #1]
10010a62:	2e04      	cmp	r6, #4
10010a64:	d80f      	bhi.n	10010a86 <gapm_adv_report_evt_handler+0x82>
10010a66:	1c30      	adds	r0, r6, #0
10010a68:	f000 fbf6 	bl	10011258 <__gnu_thumb1_case_uqi>
10010a6c:	09070503 	.word	0x09070503
10010a70:	0b          	.byte	0x0b
10010a71:	00          	.byte	0x00
10010a72:	2300      	movs	r3, #0
10010a74:	e006      	b.n	10010a84 <gapm_adv_report_evt_handler+0x80>
10010a76:	2301      	movs	r3, #1
10010a78:	e004      	b.n	10010a84 <gapm_adv_report_evt_handler+0x80>
10010a7a:	2302      	movs	r3, #2
10010a7c:	e002      	b.n	10010a84 <gapm_adv_report_evt_handler+0x80>
10010a7e:	2303      	movs	r3, #3
10010a80:	e000      	b.n	10010a84 <gapm_adv_report_evt_handler+0x80>
10010a82:	2305      	movs	r3, #5
10010a84:	7023      	strb	r3, [r4, #0]
10010a86:	bdf7      	pop	{r0, r1, r2, r4, r5, r6, r7, pc}
10010a88:	10012fe3 	.word	0x10012fe3

10010a8c <gapm_resolv_addr_cmd_handler>:
10010a8c:	b5f8      	push	{r3, r4, r5, r6, r7, lr}
10010a8e:	2314      	movs	r3, #20
10010a90:	4c12      	ldr	r4, [pc, #72]	; (10010adc <gapm_resolv_addr_cmd_handler+0x50>)
10010a92:	1c17      	adds	r7, r2, #0
10010a94:	7023      	strb	r3, [r4, #0]
10010a96:	3b07      	subs	r3, #7
10010a98:	7063      	strb	r3, [r4, #1]
10010a9a:	70a3      	strb	r3, [r4, #2]
10010a9c:	2300      	movs	r3, #0
10010a9e:	70e3      	strb	r3, [r4, #3]
10010aa0:	4b0f      	ldr	r3, [pc, #60]	; (10010ae0 <gapm_resolv_addr_cmd_handler+0x54>)
10010aa2:	1c05      	adds	r5, r0, #0
10010aa4:	881a      	ldrh	r2, [r3, #0]
10010aa6:	881b      	ldrh	r3, [r3, #0]
10010aa8:	4e0e      	ldr	r6, [pc, #56]	; (10010ae4 <gapm_resolv_addr_cmd_handler+0x58>)
10010aaa:	0a1b      	lsrs	r3, r3, #8
10010aac:	7163      	strb	r3, [r4, #5]
10010aae:	2317      	movs	r3, #23
10010ab0:	012d      	lsls	r5, r5, #4
10010ab2:	7122      	strb	r2, [r4, #4]
10010ab4:	7260      	strb	r0, [r4, #9]
10010ab6:	2206      	movs	r2, #6
10010ab8:	480b      	ldr	r0, [pc, #44]	; (10010ae8 <gapm_resolv_addr_cmd_handler+0x5c>)
10010aba:	7223      	strb	r3, [r4, #8]
10010abc:	47b0      	blx	r6
10010abe:	1c39      	adds	r1, r7, #0
10010ac0:	1c2a      	adds	r2, r5, #0
10010ac2:	480a      	ldr	r0, [pc, #40]	; (10010aec <gapm_resolv_addr_cmd_handler+0x60>)
10010ac4:	47b0      	blx	r6
10010ac6:	1c29      	adds	r1, r5, #0
10010ac8:	3110      	adds	r1, #16
10010aca:	1c0b      	adds	r3, r1, #0
10010acc:	3b08      	subs	r3, #8
10010ace:	71a3      	strb	r3, [r4, #6]
10010ad0:	121b      	asrs	r3, r3, #8
10010ad2:	71e3      	strb	r3, [r4, #7]
10010ad4:	1c20      	adds	r0, r4, #0
10010ad6:	4b06      	ldr	r3, [pc, #24]	; (10010af0 <gapm_resolv_addr_cmd_handler+0x64>)
10010ad8:	4798      	blx	r3
10010ada:	bdf8      	pop	{r3, r4, r5, r6, r7, pc}
10010adc:	100161b0 	.word	0x100161b0
10010ae0:	10015e40 	.word	0x10015e40
10010ae4:	10012fe3 	.word	0x10012fe3
10010ae8:	100161ba 	.word	0x100161ba
10010aec:	100161c0 	.word	0x100161c0
10010af0:	1000f8d1 	.word	0x1000f8d1

10010af4 <gapm_addr_solved_ind_handler>:
10010af4:	b570      	push	{r4, r5, r6, lr}
10010af6:	1c04      	adds	r4, r0, #0
10010af8:	1c08      	adds	r0, r1, #0
10010afa:	1c0d      	adds	r5, r1, #0
10010afc:	4e05      	ldr	r6, [pc, #20]	; (10010b14 <gapm_addr_solved_ind_handler+0x20>)
10010afe:	1c21      	adds	r1, r4, #0
10010b00:	2206      	movs	r2, #6
10010b02:	3011      	adds	r0, #17
10010b04:	47b0      	blx	r6
10010b06:	1c68      	adds	r0, r5, #1
10010b08:	1da1      	adds	r1, r4, #6
10010b0a:	2210      	movs	r2, #16
10010b0c:	47b0      	blx	r6
10010b0e:	2300      	movs	r3, #0
10010b10:	702b      	strb	r3, [r5, #0]
10010b12:	bd70      	pop	{r4, r5, r6, pc}
10010b14:	10012fe3 	.word	0x10012fe3

10010b18 <gapm_profile_added_ind_handler>:
10010b18:	b510      	push	{r4, lr}
10010b1a:	7843      	ldrb	r3, [r0, #1]
10010b1c:	7902      	ldrb	r2, [r0, #4]
10010b1e:	7944      	ldrb	r4, [r0, #5]
10010b20:	7800      	ldrb	r0, [r0, #0]
10010b22:	021b      	lsls	r3, r3, #8
10010b24:	4303      	orrs	r3, r0
10010b26:	2b1b      	cmp	r3, #27
10010b28:	d104      	bne.n	10010b34 <gapm_profile_added_ind_handler+0x1c>
10010b2a:	2300      	movs	r3, #0
10010b2c:	700b      	strb	r3, [r1, #0]
10010b2e:	0223      	lsls	r3, r4, #8
10010b30:	4313      	orrs	r3, r2
10010b32:	804b      	strh	r3, [r1, #2]
10010b34:	203b      	movs	r0, #59	; 0x3b
10010b36:	bd10      	pop	{r4, pc}

10010b38 <gattc_read_req_ind_parser>:
10010b38:	7843      	ldrb	r3, [r0, #1]
10010b3a:	7802      	ldrb	r2, [r0, #0]
10010b3c:	021b      	lsls	r3, r3, #8
10010b3e:	4313      	orrs	r3, r2
10010b40:	804b      	strh	r3, [r1, #2]
10010b42:	4770      	bx	lr

10010b44 <gattc_write_req_ind_parser>:
10010b44:	b508      	push	{r3, lr}
10010b46:	1c13      	adds	r3, r2, #0
10010b48:	0a00      	lsrs	r0, r0, #8
10010b4a:	8010      	strh	r0, [r2, #0]
10010b4c:	784a      	ldrb	r2, [r1, #1]
10010b4e:	7808      	ldrb	r0, [r1, #0]
10010b50:	0212      	lsls	r2, r2, #8
10010b52:	4302      	orrs	r2, r0
10010b54:	805a      	strh	r2, [r3, #2]
10010b56:	78ca      	ldrb	r2, [r1, #3]
10010b58:	7888      	ldrb	r0, [r1, #2]
10010b5a:	0212      	lsls	r2, r2, #8
10010b5c:	4302      	orrs	r2, r0
10010b5e:	809a      	strh	r2, [r3, #4]
10010b60:	794a      	ldrb	r2, [r1, #5]
10010b62:	7908      	ldrb	r0, [r1, #4]
10010b64:	0212      	lsls	r2, r2, #8
10010b66:	4302      	orrs	r2, r0
10010b68:	80da      	strh	r2, [r3, #6]
10010b6a:	3308      	adds	r3, #8
10010b6c:	1c18      	adds	r0, r3, #0
10010b6e:	3106      	adds	r1, #6
10010b70:	4b01      	ldr	r3, [pc, #4]	; (10010b78 <gattc_write_req_ind_parser+0x34>)
10010b72:	4798      	blx	r3
10010b74:	bd08      	pop	{r3, pc}
10010b76:	46c0      	nop			; (mov r8, r8)
10010b78:	10012fe3 	.word	0x10012fe3

10010b7c <gattc_att_info_req_parser>:
10010b7c:	7843      	ldrb	r3, [r0, #1]
10010b7e:	7802      	ldrb	r2, [r0, #0]
10010b80:	021b      	lsls	r3, r3, #8
10010b82:	4313      	orrs	r3, r2
10010b84:	800b      	strh	r3, [r1, #0]
10010b86:	4770      	bx	lr

10010b88 <gattc_read_cfm>:
10010b88:	b538      	push	{r3, r4, r5, lr}
10010b8a:	2514      	movs	r5, #20
10010b8c:	1c1c      	adds	r4, r3, #0
10010b8e:	4b14      	ldr	r3, [pc, #80]	; (10010be0 <gattc_read_cfm+0x58>)
10010b90:	70d9      	strb	r1, [r3, #3]
10010b92:	4914      	ldr	r1, [pc, #80]	; (10010be4 <gattc_read_cfm+0x5c>)
10010b94:	701d      	strb	r5, [r3, #0]
10010b96:	3d08      	subs	r5, #8
10010b98:	705d      	strb	r5, [r3, #1]
10010b9a:	709d      	strb	r5, [r3, #2]
10010b9c:	880d      	ldrh	r5, [r1, #0]
10010b9e:	8809      	ldrh	r1, [r1, #0]
10010ba0:	7218      	strb	r0, [r3, #8]
10010ba2:	0a09      	lsrs	r1, r1, #8
10010ba4:	7159      	strb	r1, [r3, #5]
10010ba6:	0a00      	lsrs	r0, r0, #8
10010ba8:	0a21      	lsrs	r1, r4, #8
10010baa:	711d      	strb	r5, [r3, #4]
10010bac:	7258      	strb	r0, [r3, #9]
10010bae:	729c      	strb	r4, [r3, #10]
10010bb0:	72d9      	strb	r1, [r3, #11]
10010bb2:	731a      	strb	r2, [r3, #12]
10010bb4:	1c1d      	adds	r5, r3, #0
10010bb6:	2c00      	cmp	r4, #0
10010bb8:	d007      	beq.n	10010bca <gattc_read_cfm+0x42>
10010bba:	9904      	ldr	r1, [sp, #16]
10010bbc:	1c22      	adds	r2, r4, #0
10010bbe:	480a      	ldr	r0, [pc, #40]	; (10010be8 <gattc_read_cfm+0x60>)
10010bc0:	4b0a      	ldr	r3, [pc, #40]	; (10010bec <gattc_read_cfm+0x64>)
10010bc2:	340d      	adds	r4, #13
10010bc4:	4798      	blx	r3
10010bc6:	b2a1      	uxth	r1, r4
10010bc8:	e001      	b.n	10010bce <gattc_read_cfm+0x46>
10010bca:	210e      	movs	r1, #14
10010bcc:	735c      	strb	r4, [r3, #13]
10010bce:	1c0b      	adds	r3, r1, #0
10010bd0:	3b08      	subs	r3, #8
10010bd2:	71ab      	strb	r3, [r5, #6]
10010bd4:	121b      	asrs	r3, r3, #8
10010bd6:	71eb      	strb	r3, [r5, #7]
10010bd8:	1c28      	adds	r0, r5, #0
10010bda:	4b05      	ldr	r3, [pc, #20]	; (10010bf0 <gattc_read_cfm+0x68>)
10010bdc:	4798      	blx	r3
10010bde:	bd38      	pop	{r3, r4, r5, pc}
10010be0:	100161b0 	.word	0x100161b0
10010be4:	10015e40 	.word	0x10015e40
10010be8:	100161bd 	.word	0x100161bd
10010bec:	10012fe3 	.word	0x10012fe3
10010bf0:	1000f8d1 	.word	0x1000f8d1

10010bf4 <gattc_write_cfm>:
10010bf4:	4b0d      	ldr	r3, [pc, #52]	; (10010c2c <gattc_write_cfm+0x38>)
10010bf6:	b510      	push	{r4, lr}
10010bf8:	729a      	strb	r2, [r3, #10]
10010bfa:	2203      	movs	r2, #3
10010bfc:	2416      	movs	r4, #22
10010bfe:	719a      	strb	r2, [r3, #6]
10010c00:	2200      	movs	r2, #0
10010c02:	70d9      	strb	r1, [r3, #3]
10010c04:	490a      	ldr	r1, [pc, #40]	; (10010c30 <gattc_write_cfm+0x3c>)
10010c06:	701c      	strb	r4, [r3, #0]
10010c08:	3c0a      	subs	r4, #10
10010c0a:	705c      	strb	r4, [r3, #1]
10010c0c:	709c      	strb	r4, [r3, #2]
10010c0e:	880c      	ldrh	r4, [r1, #0]
10010c10:	8809      	ldrh	r1, [r1, #0]
10010c12:	7218      	strb	r0, [r3, #8]
10010c14:	0a09      	lsrs	r1, r1, #8
10010c16:	0a00      	lsrs	r0, r0, #8
10010c18:	711c      	strb	r4, [r3, #4]
10010c1a:	7159      	strb	r1, [r3, #5]
10010c1c:	7258      	strb	r0, [r3, #9]
10010c1e:	71da      	strb	r2, [r3, #7]
10010c20:	1c18      	adds	r0, r3, #0
10010c22:	210b      	movs	r1, #11
10010c24:	4b03      	ldr	r3, [pc, #12]	; (10010c34 <gattc_write_cfm+0x40>)
10010c26:	4798      	blx	r3
10010c28:	bd10      	pop	{r4, pc}
10010c2a:	46c0      	nop			; (mov r8, r8)
10010c2c:	100161b0 	.word	0x100161b0
10010c30:	10015e40 	.word	0x10015e40
10010c34:	1000f8d1 	.word	0x1000f8d1

10010c38 <gattc_att_info_cfm>:
10010c38:	b538      	push	{r3, r4, r5, lr}
10010c3a:	4c0e      	ldr	r4, [pc, #56]	; (10010c74 <gattc_att_info_cfm+0x3c>)
10010c3c:	2518      	movs	r5, #24
10010c3e:	7323      	strb	r3, [r4, #12]
10010c40:	2305      	movs	r3, #5
10010c42:	71a3      	strb	r3, [r4, #6]
10010c44:	2300      	movs	r3, #0
10010c46:	70e1      	strb	r1, [r4, #3]
10010c48:	490b      	ldr	r1, [pc, #44]	; (10010c78 <gattc_att_info_cfm+0x40>)
10010c4a:	7025      	strb	r5, [r4, #0]
10010c4c:	3d0c      	subs	r5, #12
10010c4e:	7065      	strb	r5, [r4, #1]
10010c50:	70a5      	strb	r5, [r4, #2]
10010c52:	880d      	ldrh	r5, [r1, #0]
10010c54:	8809      	ldrh	r1, [r1, #0]
10010c56:	7220      	strb	r0, [r4, #8]
10010c58:	0a09      	lsrs	r1, r1, #8
10010c5a:	0a00      	lsrs	r0, r0, #8
10010c5c:	7161      	strb	r1, [r4, #5]
10010c5e:	7260      	strb	r0, [r4, #9]
10010c60:	72a2      	strb	r2, [r4, #10]
10010c62:	71e3      	strb	r3, [r4, #7]
10010c64:	0a12      	lsrs	r2, r2, #8
10010c66:	1c20      	adds	r0, r4, #0
10010c68:	210d      	movs	r1, #13
10010c6a:	4b04      	ldr	r3, [pc, #16]	; (10010c7c <gattc_att_info_cfm+0x44>)
10010c6c:	7125      	strb	r5, [r4, #4]
10010c6e:	72e2      	strb	r2, [r4, #11]
10010c70:	4798      	blx	r3
10010c72:	bd38      	pop	{r3, r4, r5, pc}
10010c74:	100161b0 	.word	0x100161b0
10010c78:	10015e40 	.word	0x10015e40
10010c7c:	1000f8d1 	.word	0x1000f8d1

10010c80 <gattc_send_evt_cmd_handler>:
10010c80:	b570      	push	{r4, r5, r6, lr}
10010c82:	2610      	movs	r6, #16
10010c84:	ac04      	add	r4, sp, #16
10010c86:	8825      	ldrh	r5, [r4, #0]
10010c88:	4c15      	ldr	r4, [pc, #84]	; (10010ce0 <gattc_send_evt_cmd_handler+0x60>)
10010c8a:	70e2      	strb	r2, [r4, #3]
10010c8c:	4a15      	ldr	r2, [pc, #84]	; (10010ce4 <gattc_send_evt_cmd_handler+0x64>)
10010c8e:	7026      	strb	r6, [r4, #0]
10010c90:	3e04      	subs	r6, #4
10010c92:	7066      	strb	r6, [r4, #1]
10010c94:	70a6      	strb	r6, [r4, #2]
10010c96:	8816      	ldrh	r6, [r2, #0]
10010c98:	8812      	ldrh	r2, [r2, #0]
10010c9a:	7220      	strb	r0, [r4, #8]
10010c9c:	0a12      	lsrs	r2, r2, #8
10010c9e:	7162      	strb	r2, [r4, #5]
10010ca0:	4a11      	ldr	r2, [pc, #68]	; (10010ce8 <gattc_send_evt_cmd_handler+0x68>)
10010ca2:	7321      	strb	r1, [r4, #12]
10010ca4:	8812      	ldrh	r2, [r2, #0]
10010ca6:	73a5      	strb	r5, [r4, #14]
10010ca8:	3201      	adds	r2, #1
10010caa:	7262      	strb	r2, [r4, #9]
10010cac:	1212      	asrs	r2, r2, #8
10010cae:	72a2      	strb	r2, [r4, #10]
10010cb0:	2200      	movs	r2, #0
10010cb2:	72e2      	strb	r2, [r4, #11]
10010cb4:	0a0a      	lsrs	r2, r1, #8
10010cb6:	7362      	strb	r2, [r4, #13]
10010cb8:	0a2a      	lsrs	r2, r5, #8
10010cba:	73e2      	strb	r2, [r4, #15]
10010cbc:	1c19      	adds	r1, r3, #0
10010cbe:	1c2a      	adds	r2, r5, #0
10010cc0:	4b0a      	ldr	r3, [pc, #40]	; (10010cec <gattc_send_evt_cmd_handler+0x6c>)
10010cc2:	3510      	adds	r5, #16
10010cc4:	480a      	ldr	r0, [pc, #40]	; (10010cf0 <gattc_send_evt_cmd_handler+0x70>)
10010cc6:	7126      	strb	r6, [r4, #4]
10010cc8:	4798      	blx	r3
10010cca:	b2a9      	uxth	r1, r5
10010ccc:	1c0b      	adds	r3, r1, #0
10010cce:	3b08      	subs	r3, #8
10010cd0:	71a3      	strb	r3, [r4, #6]
10010cd2:	121b      	asrs	r3, r3, #8
10010cd4:	71e3      	strb	r3, [r4, #7]
10010cd6:	1c20      	adds	r0, r4, #0
10010cd8:	4b06      	ldr	r3, [pc, #24]	; (10010cf4 <gattc_send_evt_cmd_handler+0x74>)
10010cda:	4798      	blx	r3
10010cdc:	bd70      	pop	{r4, r5, r6, pc}
10010cde:	46c0      	nop			; (mov r8, r8)
10010ce0:	100161b0 	.word	0x100161b0
10010ce4:	10015e40 	.word	0x10015e40
10010ce8:	10014fcc 	.word	0x10014fcc
10010cec:	10012fe3 	.word	0x10012fe3
10010cf0:	100161c0 	.word	0x100161c0
10010cf4:	1000f8d1 	.word	0x1000f8d1

10010cf8 <gattc_event_cfm_handler>:
10010cf8:	220e      	movs	r2, #14
10010cfa:	b508      	push	{r3, lr}
10010cfc:	4b0b      	ldr	r3, [pc, #44]	; (10010d2c <gattc_event_cfm_handler+0x34>)
10010cfe:	701a      	strb	r2, [r3, #0]
10010d00:	3a02      	subs	r2, #2
10010d02:	705a      	strb	r2, [r3, #1]
10010d04:	709a      	strb	r2, [r3, #2]
10010d06:	4a0a      	ldr	r2, [pc, #40]	; (10010d30 <gattc_event_cfm_handler+0x38>)
10010d08:	70d8      	strb	r0, [r3, #3]
10010d0a:	8810      	ldrh	r0, [r2, #0]
10010d0c:	8812      	ldrh	r2, [r2, #0]
10010d0e:	7219      	strb	r1, [r3, #8]
10010d10:	0a12      	lsrs	r2, r2, #8
10010d12:	715a      	strb	r2, [r3, #5]
10010d14:	2202      	movs	r2, #2
10010d16:	719a      	strb	r2, [r3, #6]
10010d18:	2200      	movs	r2, #0
10010d1a:	0a09      	lsrs	r1, r1, #8
10010d1c:	7118      	strb	r0, [r3, #4]
10010d1e:	7259      	strb	r1, [r3, #9]
10010d20:	71da      	strb	r2, [r3, #7]
10010d22:	1c18      	adds	r0, r3, #0
10010d24:	210a      	movs	r1, #10
10010d26:	4b03      	ldr	r3, [pc, #12]	; (10010d34 <gattc_event_cfm_handler+0x3c>)
10010d28:	4798      	blx	r3
10010d2a:	bd08      	pop	{r3, pc}
10010d2c:	100161b0 	.word	0x100161b0
10010d30:	10015e40 	.word	0x10015e40
10010d34:	1000f8d1 	.word	0x1000f8d1

10010d38 <gattc_disc_svc_ind_parser>:
10010d38:	b570      	push	{r4, r5, r6, lr}
10010d3a:	1c15      	adds	r5, r2, #0
10010d3c:	0a00      	lsrs	r0, r0, #8
10010d3e:	8010      	strh	r0, [r2, #0]
10010d40:	784b      	ldrb	r3, [r1, #1]
10010d42:	780a      	ldrb	r2, [r1, #0]
10010d44:	021b      	lsls	r3, r3, #8
10010d46:	4313      	orrs	r3, r2
10010d48:	806b      	strh	r3, [r5, #2]
10010d4a:	78cb      	ldrb	r3, [r1, #3]
10010d4c:	788a      	ldrb	r2, [r1, #2]
10010d4e:	021b      	lsls	r3, r3, #8
10010d50:	4313      	orrs	r3, r2
10010d52:	80ab      	strh	r3, [r5, #4]
10010d54:	790e      	ldrb	r6, [r1, #4]
10010d56:	4b05      	ldr	r3, [pc, #20]	; (10010d6c <gattc_disc_svc_ind_parser+0x34>)
10010d58:	1c30      	adds	r0, r6, #0
10010d5a:	1c0c      	adds	r4, r1, #0
10010d5c:	4798      	blx	r3
10010d5e:	1c32      	adds	r2, r6, #0
10010d60:	71a8      	strb	r0, [r5, #6]
10010d62:	1d61      	adds	r1, r4, #5
10010d64:	1de8      	adds	r0, r5, #7
10010d66:	4b02      	ldr	r3, [pc, #8]	; (10010d70 <gattc_disc_svc_ind_parser+0x38>)
10010d68:	4798      	blx	r3
10010d6a:	bd70      	pop	{r4, r5, r6, pc}
10010d6c:	1000ec39 	.word	0x1000ec39
10010d70:	10012fe3 	.word	0x10012fe3

10010d74 <gattc_disc_svc_incl_ind_parser>:
10010d74:	b570      	push	{r4, r5, r6, lr}
10010d76:	1c15      	adds	r5, r2, #0
10010d78:	0a00      	lsrs	r0, r0, #8
10010d7a:	8010      	strh	r0, [r2, #0]
10010d7c:	784b      	ldrb	r3, [r1, #1]
10010d7e:	780a      	ldrb	r2, [r1, #0]
10010d80:	021b      	lsls	r3, r3, #8
10010d82:	4313      	orrs	r3, r2
10010d84:	806b      	strh	r3, [r5, #2]
10010d86:	78cb      	ldrb	r3, [r1, #3]
10010d88:	788a      	ldrb	r2, [r1, #2]
10010d8a:	021b      	lsls	r3, r3, #8
10010d8c:	4313      	orrs	r3, r2
10010d8e:	80ab      	strh	r3, [r5, #4]
10010d90:	794b      	ldrb	r3, [r1, #5]
10010d92:	790a      	ldrb	r2, [r1, #4]
10010d94:	021b      	lsls	r3, r3, #8
10010d96:	4313      	orrs	r3, r2
10010d98:	80eb      	strh	r3, [r5, #6]
10010d9a:	798e      	ldrb	r6, [r1, #6]
10010d9c:	4b05      	ldr	r3, [pc, #20]	; (10010db4 <gattc_disc_svc_incl_ind_parser+0x40>)
10010d9e:	1c30      	adds	r0, r6, #0
10010da0:	1c0c      	adds	r4, r1, #0
10010da2:	4798      	blx	r3
10010da4:	7228      	strb	r0, [r5, #8]
10010da6:	1c28      	adds	r0, r5, #0
10010da8:	1c32      	adds	r2, r6, #0
10010daa:	1de1      	adds	r1, r4, #7
10010dac:	4b02      	ldr	r3, [pc, #8]	; (10010db8 <gattc_disc_svc_incl_ind_parser+0x44>)
10010dae:	3009      	adds	r0, #9
10010db0:	4798      	blx	r3
10010db2:	bd70      	pop	{r4, r5, r6, pc}
10010db4:	1000ec39 	.word	0x1000ec39
10010db8:	10012fe3 	.word	0x10012fe3

10010dbc <gattc_disc_char_ind_parser>:
10010dbc:	b570      	push	{r4, r5, r6, lr}
10010dbe:	1c15      	adds	r5, r2, #0
10010dc0:	0a00      	lsrs	r0, r0, #8
10010dc2:	8010      	strh	r0, [r2, #0]
10010dc4:	784b      	ldrb	r3, [r1, #1]
10010dc6:	780a      	ldrb	r2, [r1, #0]
10010dc8:	021b      	lsls	r3, r3, #8
10010dca:	4313      	orrs	r3, r2
10010dcc:	806b      	strh	r3, [r5, #2]
10010dce:	78cb      	ldrb	r3, [r1, #3]
10010dd0:	788a      	ldrb	r2, [r1, #2]
10010dd2:	021b      	lsls	r3, r3, #8
10010dd4:	4313      	orrs	r3, r2
10010dd6:	80ab      	strh	r3, [r5, #4]
10010dd8:	790b      	ldrb	r3, [r1, #4]
10010dda:	1c0c      	adds	r4, r1, #0
10010ddc:	71ab      	strb	r3, [r5, #6]
10010dde:	794e      	ldrb	r6, [r1, #5]
10010de0:	4b05      	ldr	r3, [pc, #20]	; (10010df8 <gattc_disc_char_ind_parser+0x3c>)
10010de2:	1c30      	adds	r0, r6, #0
10010de4:	4798      	blx	r3
10010de6:	71e8      	strb	r0, [r5, #7]
10010de8:	1c28      	adds	r0, r5, #0
10010dea:	1c32      	adds	r2, r6, #0
10010dec:	1da1      	adds	r1, r4, #6
10010dee:	4b03      	ldr	r3, [pc, #12]	; (10010dfc <gattc_disc_char_ind_parser+0x40>)
10010df0:	3008      	adds	r0, #8
10010df2:	4798      	blx	r3
10010df4:	bd70      	pop	{r4, r5, r6, pc}
10010df6:	46c0      	nop			; (mov r8, r8)
10010df8:	1000ec39 	.word	0x1000ec39
10010dfc:	10012fe3 	.word	0x10012fe3

10010e00 <gattc_disc_char_desc_ind_parser>:
10010e00:	b570      	push	{r4, r5, r6, lr}
10010e02:	1c15      	adds	r5, r2, #0
10010e04:	0a00      	lsrs	r0, r0, #8
10010e06:	8010      	strh	r0, [r2, #0]
10010e08:	784b      	ldrb	r3, [r1, #1]
10010e0a:	780a      	ldrb	r2, [r1, #0]
10010e0c:	021b      	lsls	r3, r3, #8
10010e0e:	4313      	orrs	r3, r2
10010e10:	806b      	strh	r3, [r5, #2]
10010e12:	788e      	ldrb	r6, [r1, #2]
10010e14:	4b05      	ldr	r3, [pc, #20]	; (10010e2c <gattc_disc_char_desc_ind_parser+0x2c>)
10010e16:	1c30      	adds	r0, r6, #0
10010e18:	1c0c      	adds	r4, r1, #0
10010e1a:	4798      	blx	r3
10010e1c:	1c32      	adds	r2, r6, #0
10010e1e:	7128      	strb	r0, [r5, #4]
10010e20:	1ce1      	adds	r1, r4, #3
10010e22:	1d68      	adds	r0, r5, #5
10010e24:	4b02      	ldr	r3, [pc, #8]	; (10010e30 <gattc_disc_char_desc_ind_parser+0x30>)
10010e26:	4798      	blx	r3
10010e28:	bd70      	pop	{r4, r5, r6, pc}
10010e2a:	46c0      	nop			; (mov r8, r8)
10010e2c:	1000ec39 	.word	0x1000ec39
10010e30:	10012fe3 	.word	0x10012fe3

10010e34 <gattc_event_ind_and_notification_parser>:
10010e34:	b510      	push	{r4, lr}
10010e36:	780c      	ldrb	r4, [r1, #0]
10010e38:	1c13      	adds	r3, r2, #0
10010e3a:	2c12      	cmp	r4, #18
10010e3c:	d10e      	bne.n	10010e5c <gattc_event_ind_and_notification_parser+0x28>
10010e3e:	0a00      	lsrs	r0, r0, #8
10010e40:	8010      	strh	r0, [r2, #0]
10010e42:	788a      	ldrb	r2, [r1, #2]
10010e44:	709a      	strb	r2, [r3, #2]
10010e46:	7948      	ldrb	r0, [r1, #5]
10010e48:	790c      	ldrb	r4, [r1, #4]
10010e4a:	0200      	lsls	r0, r0, #8
10010e4c:	4320      	orrs	r0, r4
10010e4e:	8098      	strh	r0, [r3, #4]
10010e50:	3106      	adds	r1, #6
10010e52:	1d98      	adds	r0, r3, #6
10010e54:	4b0b      	ldr	r3, [pc, #44]	; (10010e84 <gattc_event_ind_and_notification_parser+0x50>)
10010e56:	4798      	blx	r3
10010e58:	221b      	movs	r2, #27
10010e5a:	e010      	b.n	10010e7e <gattc_event_ind_and_notification_parser+0x4a>
10010e5c:	2200      	movs	r2, #0
10010e5e:	2c13      	cmp	r4, #19
10010e60:	d10d      	bne.n	10010e7e <gattc_event_ind_and_notification_parser+0x4a>
10010e62:	0a00      	lsrs	r0, r0, #8
10010e64:	8018      	strh	r0, [r3, #0]
10010e66:	788a      	ldrb	r2, [r1, #2]
10010e68:	709a      	strb	r2, [r3, #2]
10010e6a:	7908      	ldrb	r0, [r1, #4]
10010e6c:	78cc      	ldrb	r4, [r1, #3]
10010e6e:	0200      	lsls	r0, r0, #8
10010e70:	4320      	orrs	r0, r4
10010e72:	8098      	strh	r0, [r3, #4]
10010e74:	3106      	adds	r1, #6
10010e76:	1d98      	adds	r0, r3, #6
10010e78:	4b02      	ldr	r3, [pc, #8]	; (10010e84 <gattc_event_ind_and_notification_parser+0x50>)
10010e7a:	4798      	blx	r3
10010e7c:	221c      	movs	r2, #28
10010e7e:	1c10      	adds	r0, r2, #0
10010e80:	bd10      	pop	{r4, pc}
10010e82:	46c0      	nop			; (mov r8, r8)
10010e84:	10012fe3 	.word	0x10012fe3

10010e88 <gattc_complete_evt_handler>:
10010e88:	b500      	push	{lr}
10010e8a:	0a00      	lsrs	r0, r0, #8
10010e8c:	8010      	strh	r0, [r2, #0]
10010e8e:	7808      	ldrb	r0, [r1, #0]
10010e90:	7090      	strb	r0, [r2, #2]
10010e92:	784b      	ldrb	r3, [r1, #1]
10010e94:	3801      	subs	r0, #1
10010e96:	70d3      	strb	r3, [r2, #3]
10010e98:	2813      	cmp	r0, #19
10010e9a:	d82c      	bhi.n	10010ef6 <gattc_complete_evt_handler+0x6e>
10010e9c:	f000 f9dc 	bl	10011258 <__gnu_thumb1_case_uqi>
10010ea0:	0a0a0a0c 	.word	0x0a0a0a0c
10010ea4:	210a0a0a 	.word	0x210a0a0a
10010ea8:	111f2121 	.word	0x111f2121
10010eac:	2b111111 	.word	0x2b111111
10010eb0:	2919132b 	.word	0x2919132b
10010eb4:	2017      	movs	r0, #23
10010eb6:	e01f      	b.n	10010ef8 <gattc_complete_evt_handler+0x70>
10010eb8:	2024      	movs	r0, #36	; 0x24
10010eba:	2b00      	cmp	r3, #0
10010ebc:	d11c      	bne.n	10010ef8 <gattc_complete_evt_handler+0x70>
10010ebe:	3017      	adds	r0, #23
10010ec0:	e01a      	b.n	10010ef8 <gattc_complete_evt_handler+0x70>
10010ec2:	2025      	movs	r0, #37	; 0x25
10010ec4:	e018      	b.n	10010ef8 <gattc_complete_evt_handler+0x70>
10010ec6:	4a0d      	ldr	r2, [pc, #52]	; (10010efc <gattc_complete_evt_handler+0x74>)
10010ec8:	201d      	movs	r0, #29
10010eca:	6813      	ldr	r3, [r2, #0]
10010ecc:	3b01      	subs	r3, #1
10010ece:	6013      	str	r3, [r2, #0]
10010ed0:	e012      	b.n	10010ef8 <gattc_complete_evt_handler+0x70>
10010ed2:	4a0a      	ldr	r2, [pc, #40]	; (10010efc <gattc_complete_evt_handler+0x74>)
10010ed4:	201e      	movs	r0, #30
10010ed6:	6813      	ldr	r3, [r2, #0]
10010ed8:	3b01      	subs	r3, #1
10010eda:	6013      	str	r3, [r2, #0]
10010edc:	e00c      	b.n	10010ef8 <gattc_complete_evt_handler+0x70>
10010ede:	2019      	movs	r0, #25
10010ee0:	e00a      	b.n	10010ef8 <gattc_complete_evt_handler+0x70>
10010ee2:	203b      	movs	r0, #59	; 0x3b
10010ee4:	2b00      	cmp	r3, #0
10010ee6:	d007      	beq.n	10010ef8 <gattc_complete_evt_handler+0x70>
10010ee8:	2182      	movs	r1, #130	; 0x82
10010eea:	0089      	lsls	r1, r1, #2
10010eec:	5453      	strb	r3, [r2, r1]
10010eee:	3823      	subs	r0, #35	; 0x23
10010ef0:	e002      	b.n	10010ef8 <gattc_complete_evt_handler+0x70>
10010ef2:	2021      	movs	r0, #33	; 0x21
10010ef4:	e000      	b.n	10010ef8 <gattc_complete_evt_handler+0x70>
10010ef6:	2000      	movs	r0, #0
10010ef8:	bd00      	pop	{pc}
10010efa:	46c0      	nop			; (mov r8, r8)
10010efc:	10014fd0 	.word	0x10014fd0

10010f00 <gattc_event_mtu_changed_ind_parser>:
10010f00:	0a00      	lsrs	r0, r0, #8
10010f02:	8010      	strh	r0, [r2, #0]
10010f04:	784b      	ldrb	r3, [r1, #1]
10010f06:	7809      	ldrb	r1, [r1, #0]
10010f08:	021b      	lsls	r3, r3, #8
10010f0a:	430b      	orrs	r3, r1
10010f0c:	8053      	strh	r3, [r2, #2]
10010f0e:	4770      	bx	lr

10010f10 <gattc_read_ind_parser>:
10010f10:	0a00      	lsrs	r0, r0, #8
10010f12:	b508      	push	{r3, lr}
10010f14:	8010      	strh	r0, [r2, #0]
10010f16:	1c13      	adds	r3, r2, #0
10010f18:	2282      	movs	r2, #130	; 0x82
10010f1a:	2000      	movs	r0, #0
10010f1c:	0092      	lsls	r2, r2, #2
10010f1e:	5498      	strb	r0, [r3, r2]
10010f20:	784a      	ldrb	r2, [r1, #1]
10010f22:	7808      	ldrb	r0, [r1, #0]
10010f24:	0212      	lsls	r2, r2, #8
10010f26:	4302      	orrs	r2, r0
10010f28:	805a      	strh	r2, [r3, #2]
10010f2a:	78ca      	ldrb	r2, [r1, #3]
10010f2c:	7888      	ldrb	r0, [r1, #2]
10010f2e:	0212      	lsls	r2, r2, #8
10010f30:	4302      	orrs	r2, r0
10010f32:	80da      	strh	r2, [r3, #6]
10010f34:	794a      	ldrb	r2, [r1, #5]
10010f36:	7908      	ldrb	r0, [r1, #4]
10010f38:	0212      	lsls	r2, r2, #8
10010f3a:	4302      	orrs	r2, r0
10010f3c:	809a      	strh	r2, [r3, #4]
10010f3e:	3308      	adds	r3, #8
10010f40:	1c18      	adds	r0, r3, #0
10010f42:	3106      	adds	r1, #6
10010f44:	4b01      	ldr	r3, [pc, #4]	; (10010f4c <gattc_read_ind_parser+0x3c>)
10010f46:	4798      	blx	r3
10010f48:	bd08      	pop	{r3, pc}
10010f4a:	46c0      	nop			; (mov r8, r8)
10010f4c:	10012fe3 	.word	0x10012fe3

10010f50 <gattc_svc_changed_cfg_ind_parser>:
10010f50:	0a00      	lsrs	r0, r0, #8
10010f52:	8010      	strh	r0, [r2, #0]
10010f54:	784b      	ldrb	r3, [r1, #1]
10010f56:	7809      	ldrb	r1, [r1, #0]
10010f58:	021b      	lsls	r3, r3, #8
10010f5a:	430b      	orrs	r3, r1
10010f5c:	8053      	strh	r3, [r2, #2]
10010f5e:	4770      	bx	lr

10010f60 <init_gattc_task_module>:
10010f60:	2300      	movs	r3, #0
10010f62:	4a02      	ldr	r2, [pc, #8]	; (10010f6c <init_gattc_task_module+0xc>)
10010f64:	8013      	strh	r3, [r2, #0]
10010f66:	4a02      	ldr	r2, [pc, #8]	; (10010f70 <init_gattc_task_module+0x10>)
10010f68:	8013      	strh	r3, [r2, #0]
10010f6a:	4770      	bx	lr
10010f6c:	10014fca 	.word	0x10014fca
10010f70:	10014fcc 	.word	0x10014fcc

10010f74 <gattm_add_svc_req_handler>:
10010f74:	2200      	movs	r2, #0
10010f76:	210b      	movs	r1, #11
10010f78:	b5f0      	push	{r4, r5, r6, r7, lr}
10010f7a:	1c04      	adds	r4, r0, #0
10010f7c:	7943      	ldrb	r3, [r0, #5]
10010f7e:	b085      	sub	sp, #20
10010f80:	9301      	str	r3, [sp, #4]
10010f82:	ab02      	add	r3, sp, #8
10010f84:	71da      	strb	r2, [r3, #7]
10010f86:	4b37      	ldr	r3, [pc, #220]	; (10011064 <gattm_add_svc_req_handler+0xf0>)
10010f88:	7059      	strb	r1, [r3, #1]
10010f8a:	7099      	strb	r1, [r3, #2]
10010f8c:	4936      	ldr	r1, [pc, #216]	; (10011068 <gattm_add_svc_req_handler+0xf4>)
10010f8e:	701a      	strb	r2, [r3, #0]
10010f90:	8808      	ldrh	r0, [r1, #0]
10010f92:	8809      	ldrh	r1, [r1, #0]
10010f94:	70da      	strb	r2, [r3, #3]
10010f96:	0a09      	lsrs	r1, r1, #8
10010f98:	7118      	strb	r0, [r3, #4]
10010f9a:	7159      	strb	r1, [r3, #5]
10010f9c:	8821      	ldrh	r1, [r4, #0]
10010f9e:	7219      	strb	r1, [r3, #8]
10010fa0:	8821      	ldrh	r1, [r4, #0]
10010fa2:	0a09      	lsrs	r1, r1, #8
10010fa4:	7259      	strb	r1, [r3, #9]
10010fa6:	8861      	ldrh	r1, [r4, #2]
10010fa8:	7299      	strb	r1, [r3, #10]
10010faa:	8861      	ldrh	r1, [r4, #2]
10010fac:	0a09      	lsrs	r1, r1, #8
10010fae:	72d9      	strb	r1, [r3, #11]
10010fb0:	7921      	ldrb	r1, [r4, #4]
10010fb2:	7319      	strb	r1, [r3, #12]
10010fb4:	4669      	mov	r1, sp
10010fb6:	7909      	ldrb	r1, [r1, #4]
10010fb8:	7359      	strb	r1, [r3, #13]
10010fba:	18a1      	adds	r1, r4, r2
10010fbc:	7988      	ldrb	r0, [r1, #6]
10010fbe:	1899      	adds	r1, r3, r2
10010fc0:	3201      	adds	r2, #1
10010fc2:	7388      	strb	r0, [r1, #14]
10010fc4:	2a10      	cmp	r2, #16
10010fc6:	d1f8      	bne.n	10010fba <gattm_add_svc_req_handler+0x46>
10010fc8:	1c27      	adds	r7, r4, #0
10010fca:	2300      	movs	r3, #0
10010fcc:	251e      	movs	r5, #30
10010fce:	3716      	adds	r7, #22
10010fd0:	9300      	str	r3, [sp, #0]
10010fd2:	9b00      	ldr	r3, [sp, #0]
10010fd4:	9a01      	ldr	r2, [sp, #4]
10010fd6:	4e23      	ldr	r6, [pc, #140]	; (10011064 <gattm_add_svc_req_handler+0xf0>)
10010fd8:	4293      	cmp	r3, r2
10010fda:	da21      	bge.n	10011020 <gattm_add_svc_req_handler+0xac>
10010fdc:	1c39      	adds	r1, r7, #0
10010fde:	1970      	adds	r0, r6, r5
10010fe0:	2210      	movs	r2, #16
10010fe2:	4b22      	ldr	r3, [pc, #136]	; (1001106c <gattm_add_svc_req_handler+0xf8>)
10010fe4:	4798      	blx	r3
10010fe6:	1c2b      	adds	r3, r5, #0
10010fe8:	8a3a      	ldrh	r2, [r7, #16]
10010fea:	3310      	adds	r3, #16
10010fec:	b29b      	uxth	r3, r3
10010fee:	54f2      	strb	r2, [r6, r3]
10010ff0:	1c2b      	adds	r3, r5, #0
10010ff2:	8a3a      	ldrh	r2, [r7, #16]
10010ff4:	3311      	adds	r3, #17
10010ff6:	b29b      	uxth	r3, r3
10010ff8:	0a12      	lsrs	r2, r2, #8
10010ffa:	54f2      	strb	r2, [r6, r3]
10010ffc:	1c2a      	adds	r2, r5, #0
10010ffe:	1c2b      	adds	r3, r5, #0
10011000:	8a79      	ldrh	r1, [r7, #18]
10011002:	3212      	adds	r2, #18
10011004:	b292      	uxth	r2, r2
10011006:	54b1      	strb	r1, [r6, r2]
10011008:	8a7a      	ldrh	r2, [r7, #18]
1001100a:	3313      	adds	r3, #19
1001100c:	b29b      	uxth	r3, r3
1001100e:	0a12      	lsrs	r2, r2, #8
10011010:	54f2      	strb	r2, [r6, r3]
10011012:	9b00      	ldr	r3, [sp, #0]
10011014:	3514      	adds	r5, #20
10011016:	3301      	adds	r3, #1
10011018:	b2ad      	uxth	r5, r5
1001101a:	9300      	str	r3, [sp, #0]
1001101c:	3714      	adds	r7, #20
1001101e:	e7d8      	b.n	10010fd2 <gattm_add_svc_req_handler+0x5e>
10011020:	2114      	movs	r1, #20
10011022:	4d13      	ldr	r5, [pc, #76]	; (10011070 <gattm_add_svc_req_handler+0xfc>)
10011024:	4b13      	ldr	r3, [pc, #76]	; (10011074 <gattm_add_svc_req_handler+0x100>)
10011026:	4351      	muls	r1, r2
10011028:	802b      	strh	r3, [r5, #0]
1001102a:	230b      	movs	r3, #11
1001102c:	311e      	adds	r1, #30
1001102e:	80ab      	strh	r3, [r5, #4]
10011030:	1c0b      	adds	r3, r1, #0
10011032:	3b08      	subs	r3, #8
10011034:	71b3      	strb	r3, [r6, #6]
10011036:	121b      	asrs	r3, r3, #8
10011038:	71f3      	strb	r3, [r6, #7]
1001103a:	1c30      	adds	r0, r6, #0
1001103c:	4b0e      	ldr	r3, [pc, #56]	; (10011078 <gattm_add_svc_req_handler+0x104>)
1001103e:	4798      	blx	r3
10011040:	ab02      	add	r3, sp, #8
10011042:	1dde      	adds	r6, r3, #7
10011044:	1c30      	adds	r0, r6, #0
10011046:	4b0d      	ldr	r3, [pc, #52]	; (1001107c <gattm_add_svc_req_handler+0x108>)
10011048:	4798      	blx	r3
1001104a:	7833      	ldrb	r3, [r6, #0]
1001104c:	20e2      	movs	r0, #226	; 0xe2
1001104e:	2b00      	cmp	r3, #0
10011050:	d106      	bne.n	10011060 <gattm_add_svc_req_handler+0xec>
10011052:	68aa      	ldr	r2, [r5, #8]
10011054:	7853      	ldrb	r3, [r2, #1]
10011056:	7811      	ldrb	r1, [r2, #0]
10011058:	021b      	lsls	r3, r3, #8
1001105a:	430b      	orrs	r3, r1
1001105c:	8023      	strh	r3, [r4, #0]
1001105e:	7890      	ldrb	r0, [r2, #2]
10011060:	b005      	add	sp, #20
10011062:	bdf0      	pop	{r4, r5, r6, r7, pc}
10011064:	100161b0 	.word	0x100161b0
10011068:	10015e40 	.word	0x10015e40
1001106c:	10012fe3 	.word	0x10012fe3
10011070:	10015e34 	.word	0x10015e34
10011074:	00000b01 	.word	0x00000b01
10011078:	1000f8d1 	.word	0x1000f8d1
1001107c:	1000f92d 	.word	0x1000f92d

10011080 <gattm_add_attribute_req_handler>:
10011080:	b5f7      	push	{r0, r1, r2, r4, r5, r6, r7, lr}
10011082:	1c1f      	adds	r7, r3, #0
10011084:	4b16      	ldr	r3, [pc, #88]	; (100110e0 <gattm_add_attribute_req_handler+0x60>)
10011086:	9100      	str	r1, [sp, #0]
10011088:	9201      	str	r2, [sp, #4]
1001108a:	1c05      	adds	r5, r0, #0
1001108c:	7946      	ldrb	r6, [r0, #5]
1001108e:	6818      	ldr	r0, [r3, #0]
10011090:	2114      	movs	r1, #20
10011092:	4b14      	ldr	r3, [pc, #80]	; (100110e4 <gattm_add_attribute_req_handler+0x64>)
10011094:	382a      	subs	r0, #42	; 0x2a
10011096:	4798      	blx	r3
10011098:	2311      	movs	r3, #17
1001109a:	4286      	cmp	r6, r0
1001109c:	d21e      	bcs.n	100110dc <gattm_add_attribute_req_handler+0x5c>
1001109e:	2414      	movs	r4, #20
100110a0:	4366      	muls	r6, r4
100110a2:	19a8      	adds	r0, r5, r6
100110a4:	2100      	movs	r1, #0
100110a6:	2210      	movs	r2, #16
100110a8:	4b0f      	ldr	r3, [pc, #60]	; (100110e8 <gattm_add_attribute_req_handler+0x68>)
100110aa:	3016      	adds	r0, #22
100110ac:	4798      	blx	r3
100110ae:	7968      	ldrb	r0, [r5, #5]
100110b0:	1c3a      	adds	r2, r7, #0
100110b2:	4360      	muls	r0, r4
100110b4:	1828      	adds	r0, r5, r0
100110b6:	4b0d      	ldr	r3, [pc, #52]	; (100110ec <gattm_add_attribute_req_handler+0x6c>)
100110b8:	3016      	adds	r0, #22
100110ba:	9908      	ldr	r1, [sp, #32]
100110bc:	4798      	blx	r3
100110be:	466a      	mov	r2, sp
100110c0:	796b      	ldrb	r3, [r5, #5]
100110c2:	8812      	ldrh	r2, [r2, #0]
100110c4:	435c      	muls	r4, r3
100110c6:	192c      	adds	r4, r5, r4
100110c8:	8522      	strh	r2, [r4, #40]	; 0x28
100110ca:	466a      	mov	r2, sp
100110cc:	8892      	ldrh	r2, [r2, #4]
100110ce:	84e2      	strh	r2, [r4, #38]	; 0x26
100110d0:	9a09      	ldr	r2, [sp, #36]	; 0x24
100110d2:	8013      	strh	r3, [r2, #0]
100110d4:	796b      	ldrb	r3, [r5, #5]
100110d6:	3301      	adds	r3, #1
100110d8:	716b      	strb	r3, [r5, #5]
100110da:	2300      	movs	r3, #0
100110dc:	1c18      	adds	r0, r3, #0
100110de:	bdfe      	pop	{r1, r2, r3, r4, r5, r6, r7, pc}
100110e0:	10014f48 	.word	0x10014f48
100110e4:	1001126d 	.word	0x1001126d
100110e8:	10012ff5 	.word	0x10012ff5
100110ec:	10012fe3 	.word	0x10012fe3

100110f0 <gattm_att_set_value_req_handler>:
100110f0:	b5f7      	push	{r0, r1, r2, r4, r5, r6, r7, lr}
100110f2:	466b      	mov	r3, sp
100110f4:	1dde      	adds	r6, r3, #7
100110f6:	2300      	movs	r3, #0
100110f8:	1c0d      	adds	r5, r1, #0
100110fa:	210c      	movs	r1, #12
100110fc:	270b      	movs	r7, #11
100110fe:	4c17      	ldr	r4, [pc, #92]	; (1001115c <gattm_att_set_value_req_handler+0x6c>)
10011100:	7033      	strb	r3, [r6, #0]
10011102:	70e3      	strb	r3, [r4, #3]
10011104:	4b16      	ldr	r3, [pc, #88]	; (10011160 <gattm_att_set_value_req_handler+0x70>)
10011106:	7021      	strb	r1, [r4, #0]
10011108:	8819      	ldrh	r1, [r3, #0]
1001110a:	881b      	ldrh	r3, [r3, #0]
1001110c:	7220      	strb	r0, [r4, #8]
1001110e:	0a1b      	lsrs	r3, r3, #8
10011110:	7163      	strb	r3, [r4, #5]
10011112:	0a00      	lsrs	r0, r0, #8
10011114:	0a2b      	lsrs	r3, r5, #8
10011116:	7121      	strb	r1, [r4, #4]
10011118:	7260      	strb	r0, [r4, #9]
1001111a:	1c11      	adds	r1, r2, #0
1001111c:	72a5      	strb	r5, [r4, #10]
1001111e:	1c2a      	adds	r2, r5, #0
10011120:	72e3      	strb	r3, [r4, #11]
10011122:	350c      	adds	r5, #12
10011124:	4b0f      	ldr	r3, [pc, #60]	; (10011164 <gattm_att_set_value_req_handler+0x74>)
10011126:	4810      	ldr	r0, [pc, #64]	; (10011168 <gattm_att_set_value_req_handler+0x78>)
10011128:	7067      	strb	r7, [r4, #1]
1001112a:	70a7      	strb	r7, [r4, #2]
1001112c:	4798      	blx	r3
1001112e:	b2a9      	uxth	r1, r5
10011130:	4b0e      	ldr	r3, [pc, #56]	; (1001116c <gattm_att_set_value_req_handler+0x7c>)
10011132:	4d0f      	ldr	r5, [pc, #60]	; (10011170 <gattm_att_set_value_req_handler+0x80>)
10011134:	1c20      	adds	r0, r4, #0
10011136:	802b      	strh	r3, [r5, #0]
10011138:	1c0b      	adds	r3, r1, #0
1001113a:	3b08      	subs	r3, #8
1001113c:	71a3      	strb	r3, [r4, #6]
1001113e:	121b      	asrs	r3, r3, #8
10011140:	71e3      	strb	r3, [r4, #7]
10011142:	4b0c      	ldr	r3, [pc, #48]	; (10011174 <gattm_att_set_value_req_handler+0x84>)
10011144:	80af      	strh	r7, [r5, #4]
10011146:	4798      	blx	r3
10011148:	1c30      	adds	r0, r6, #0
1001114a:	4b0b      	ldr	r3, [pc, #44]	; (10011178 <gattm_att_set_value_req_handler+0x88>)
1001114c:	4798      	blx	r3
1001114e:	7833      	ldrb	r3, [r6, #0]
10011150:	20e2      	movs	r0, #226	; 0xe2
10011152:	2b00      	cmp	r3, #0
10011154:	d101      	bne.n	1001115a <gattm_att_set_value_req_handler+0x6a>
10011156:	68ab      	ldr	r3, [r5, #8]
10011158:	7898      	ldrb	r0, [r3, #2]
1001115a:	bdfe      	pop	{r1, r2, r3, r4, r5, r6, r7, pc}
1001115c:	100161b0 	.word	0x100161b0
10011160:	10015e40 	.word	0x10015e40
10011164:	10012fe3 	.word	0x10012fe3
10011168:	100161bc 	.word	0x100161bc
1001116c:	00000b0d 	.word	0x00000b0d
10011170:	10015e34 	.word	0x10015e34
10011174:	1000f8d1 	.word	0x1000f8d1
10011178:	1000f92d 	.word	0x1000f92d

1001117c <gattm_att_get_value_req_handler>:
1001117c:	b5f0      	push	{r4, r5, r6, r7, lr}
1001117e:	b085      	sub	sp, #20
10011180:	9201      	str	r2, [sp, #4]
10011182:	220a      	movs	r2, #10
10011184:	1c04      	adds	r4, r0, #0
10011186:	481d      	ldr	r0, [pc, #116]	; (100111fc <gattm_att_get_value_req_handler+0x80>)
10011188:	ab02      	add	r3, sp, #8
1001118a:	1dde      	adds	r6, r3, #7
1001118c:	7002      	strb	r2, [r0, #0]
1001118e:	2300      	movs	r3, #0
10011190:	220b      	movs	r2, #11
10011192:	4d1b      	ldr	r5, [pc, #108]	; (10011200 <gattm_att_get_value_req_handler+0x84>)
10011194:	1c0f      	adds	r7, r1, #0
10011196:	8829      	ldrh	r1, [r5, #0]
10011198:	882d      	ldrh	r5, [r5, #0]
1001119a:	7101      	strb	r1, [r0, #4]
1001119c:	0a2d      	lsrs	r5, r5, #8
1001119e:	7145      	strb	r5, [r0, #5]
100111a0:	0a25      	lsrs	r5, r4, #8
100111a2:	7245      	strb	r5, [r0, #9]
100111a4:	4917      	ldr	r1, [pc, #92]	; (10011204 <gattm_att_get_value_req_handler+0x88>)
100111a6:	4d18      	ldr	r5, [pc, #96]	; (10011208 <gattm_att_get_value_req_handler+0x8c>)
100111a8:	7033      	strb	r3, [r6, #0]
100111aa:	7042      	strb	r2, [r0, #1]
100111ac:	7082      	strb	r2, [r0, #2]
100111ae:	70c3      	strb	r3, [r0, #3]
100111b0:	8029      	strh	r1, [r5, #0]
100111b2:	80aa      	strh	r2, [r5, #4]
100111b4:	71c3      	strb	r3, [r0, #7]
100111b6:	3a09      	subs	r2, #9
100111b8:	210a      	movs	r1, #10
100111ba:	4b14      	ldr	r3, [pc, #80]	; (1001120c <gattm_att_get_value_req_handler+0x90>)
100111bc:	7182      	strb	r2, [r0, #6]
100111be:	7204      	strb	r4, [r0, #8]
100111c0:	4798      	blx	r3
100111c2:	1c30      	adds	r0, r6, #0
100111c4:	4b12      	ldr	r3, [pc, #72]	; (10011210 <gattm_att_get_value_req_handler+0x94>)
100111c6:	4798      	blx	r3
100111c8:	7833      	ldrb	r3, [r6, #0]
100111ca:	20e2      	movs	r0, #226	; 0xe2
100111cc:	2b00      	cmp	r3, #0
100111ce:	d112      	bne.n	100111f6 <gattm_att_get_value_req_handler+0x7a>
100111d0:	68a9      	ldr	r1, [r5, #8]
100111d2:	9801      	ldr	r0, [sp, #4]
100111d4:	784d      	ldrb	r5, [r1, #1]
100111d6:	780b      	ldrb	r3, [r1, #0]
100111d8:	78ca      	ldrb	r2, [r1, #3]
100111da:	022d      	lsls	r5, r5, #8
100111dc:	431d      	orrs	r5, r3
100111de:	788b      	ldrb	r3, [r1, #2]
100111e0:	0212      	lsls	r2, r2, #8
100111e2:	431a      	orrs	r2, r3
100111e4:	803a      	strh	r2, [r7, #0]
100111e6:	790e      	ldrb	r6, [r1, #4]
100111e8:	4b0a      	ldr	r3, [pc, #40]	; (10011214 <gattm_att_get_value_req_handler+0x98>)
100111ea:	3105      	adds	r1, #5
100111ec:	4798      	blx	r3
100111ee:	20e2      	movs	r0, #226	; 0xe2
100111f0:	42ac      	cmp	r4, r5
100111f2:	d100      	bne.n	100111f6 <gattm_att_get_value_req_handler+0x7a>
100111f4:	1c30      	adds	r0, r6, #0
100111f6:	b005      	add	sp, #20
100111f8:	bdf0      	pop	{r4, r5, r6, r7, pc}
100111fa:	46c0      	nop			; (mov r8, r8)
100111fc:	100161b0 	.word	0x100161b0
10011200:	10015e40 	.word	0x10015e40
10011204:	00000b0b 	.word	0x00000b0b
10011208:	10015e34 	.word	0x10015e34
1001120c:	1000f8d1 	.word	0x1000f8d1
10011210:	1000f92d 	.word	0x1000f92d
10011214:	10012fe3 	.word	0x10012fe3

10011218 <htpt_enable_rsp_handler>:
10011218:	780b      	ldrb	r3, [r1, #0]
1001121a:	7013      	strb	r3, [r2, #0]
1001121c:	784b      	ldrb	r3, [r1, #1]
1001121e:	7053      	strb	r3, [r2, #1]
10011220:	4770      	bx	lr

10011222 <htpt_temp_send_rsp_handler>:
10011222:	780b      	ldrb	r3, [r1, #0]
10011224:	7013      	strb	r3, [r2, #0]
10011226:	4770      	bx	lr

10011228 <htpt_meas_intv_upd_rsp_handler>:
10011228:	780b      	ldrb	r3, [r1, #0]
1001122a:	7013      	strb	r3, [r2, #0]
1001122c:	4770      	bx	lr

1001122e <htpt_meas_intv_chg_req_ind_handler>:
1001122e:	78cb      	ldrb	r3, [r1, #3]
10011230:	7889      	ldrb	r1, [r1, #2]
10011232:	021b      	lsls	r3, r3, #8
10011234:	430b      	orrs	r3, r1
10011236:	8013      	strh	r3, [r2, #0]
10011238:	4770      	bx	lr

1001123a <htpt_cfg_indntf_ind_handler>:
1001123a:	780b      	ldrb	r3, [r1, #0]
1001123c:	7013      	strb	r3, [r2, #0]
1001123e:	784b      	ldrb	r3, [r1, #1]
10011240:	7053      	strb	r3, [r2, #1]
10011242:	4770      	bx	lr

10011244 <__gnu_thumb1_case_sqi>:
10011244:	b402      	push	{r1}
10011246:	4671      	mov	r1, lr
10011248:	0849      	lsrs	r1, r1, #1
1001124a:	0049      	lsls	r1, r1, #1
1001124c:	5609      	ldrsb	r1, [r1, r0]
1001124e:	0049      	lsls	r1, r1, #1
10011250:	448e      	add	lr, r1
10011252:	bc02      	pop	{r1}
10011254:	4770      	bx	lr
10011256:	46c0      	nop			; (mov r8, r8)

10011258 <__gnu_thumb1_case_uqi>:
10011258:	b402      	push	{r1}
1001125a:	4671      	mov	r1, lr
1001125c:	0849      	lsrs	r1, r1, #1
1001125e:	0049      	lsls	r1, r1, #1
10011260:	5c09      	ldrb	r1, [r1, r0]
10011262:	0049      	lsls	r1, r1, #1
10011264:	448e      	add	lr, r1
10011266:	bc02      	pop	{r1}
10011268:	4770      	bx	lr
1001126a:	46c0      	nop			; (mov r8, r8)

1001126c <__aeabi_uidiv>:
1001126c:	2200      	movs	r2, #0
1001126e:	0843      	lsrs	r3, r0, #1
10011270:	428b      	cmp	r3, r1
10011272:	d374      	bcc.n	1001135e <__aeabi_uidiv+0xf2>
10011274:	0903      	lsrs	r3, r0, #4
10011276:	428b      	cmp	r3, r1
10011278:	d35f      	bcc.n	1001133a <__aeabi_uidiv+0xce>
1001127a:	0a03      	lsrs	r3, r0, #8
1001127c:	428b      	cmp	r3, r1
1001127e:	d344      	bcc.n	1001130a <__aeabi_uidiv+0x9e>
10011280:	0b03      	lsrs	r3, r0, #12
10011282:	428b      	cmp	r3, r1
10011284:	d328      	bcc.n	100112d8 <__aeabi_uidiv+0x6c>
10011286:	0c03      	lsrs	r3, r0, #16
10011288:	428b      	cmp	r3, r1
1001128a:	d30d      	bcc.n	100112a8 <__aeabi_uidiv+0x3c>
1001128c:	22ff      	movs	r2, #255	; 0xff
1001128e:	0209      	lsls	r1, r1, #8
10011290:	ba12      	rev	r2, r2
10011292:	0c03      	lsrs	r3, r0, #16
10011294:	428b      	cmp	r3, r1
10011296:	d302      	bcc.n	1001129e <__aeabi_uidiv+0x32>
10011298:	1212      	asrs	r2, r2, #8
1001129a:	0209      	lsls	r1, r1, #8
1001129c:	d065      	beq.n	1001136a <__aeabi_uidiv+0xfe>
1001129e:	0b03      	lsrs	r3, r0, #12
100112a0:	428b      	cmp	r3, r1
100112a2:	d319      	bcc.n	100112d8 <__aeabi_uidiv+0x6c>
100112a4:	e000      	b.n	100112a8 <__aeabi_uidiv+0x3c>
100112a6:	0a09      	lsrs	r1, r1, #8
100112a8:	0bc3      	lsrs	r3, r0, #15
100112aa:	428b      	cmp	r3, r1
100112ac:	d301      	bcc.n	100112b2 <__aeabi_uidiv+0x46>
100112ae:	03cb      	lsls	r3, r1, #15
100112b0:	1ac0      	subs	r0, r0, r3
100112b2:	4152      	adcs	r2, r2
100112b4:	0b83      	lsrs	r3, r0, #14
100112b6:	428b      	cmp	r3, r1
100112b8:	d301      	bcc.n	100112be <__aeabi_uidiv+0x52>
100112ba:	038b      	lsls	r3, r1, #14
100112bc:	1ac0      	subs	r0, r0, r3
100112be:	4152      	adcs	r2, r2
100112c0:	0b43      	lsrs	r3, r0, #13
100112c2:	428b      	cmp	r3, r1
100112c4:	d301      	bcc.n	100112ca <__aeabi_uidiv+0x5e>
100112c6:	034b      	lsls	r3, r1, #13
100112c8:	1ac0      	subs	r0, r0, r3
100112ca:	4152      	adcs	r2, r2
100112cc:	0b03      	lsrs	r3, r0, #12
100112ce:	428b      	cmp	r3, r1
100112d0:	d301      	bcc.n	100112d6 <__aeabi_uidiv+0x6a>
100112d2:	030b      	lsls	r3, r1, #12
100112d4:	1ac0      	subs	r0, r0, r3
100112d6:	4152      	adcs	r2, r2
100112d8:	0ac3      	lsrs	r3, r0, #11
100112da:	428b      	cmp	r3, r1
100112dc:	d301      	bcc.n	100112e2 <__aeabi_uidiv+0x76>
100112de:	02cb      	lsls	r3, r1, #11
100112e0:	1ac0      	subs	r0, r0, r3
100112e2:	4152      	adcs	r2, r2
100112e4:	0a83      	lsrs	r3, r0, #10
100112e6:	428b      	cmp	r3, r1
100112e8:	d301      	bcc.n	100112ee <__aeabi_uidiv+0x82>
100112ea:	028b      	lsls	r3, r1, #10
100112ec:	1ac0      	subs	r0, r0, r3
100112ee:	4152      	adcs	r2, r2
100112f0:	0a43      	lsrs	r3, r0, #9
100112f2:	428b      	cmp	r3, r1
100112f4:	d301      	bcc.n	100112fa <__aeabi_uidiv+0x8e>
100112f6:	024b      	lsls	r3, r1, #9
100112f8:	1ac0      	subs	r0, r0, r3
100112fa:	4152      	adcs	r2, r2
100112fc:	0a03      	lsrs	r3, r0, #8
100112fe:	428b      	cmp	r3, r1
10011300:	d301      	bcc.n	10011306 <__aeabi_uidiv+0x9a>
10011302:	020b      	lsls	r3, r1, #8
10011304:	1ac0      	subs	r0, r0, r3
10011306:	4152      	adcs	r2, r2
10011308:	d2cd      	bcs.n	100112a6 <__aeabi_uidiv+0x3a>
1001130a:	09c3      	lsrs	r3, r0, #7
1001130c:	428b      	cmp	r3, r1
1001130e:	d301      	bcc.n	10011314 <__aeabi_uidiv+0xa8>
10011310:	01cb      	lsls	r3, r1, #7
10011312:	1ac0      	subs	r0, r0, r3
10011314:	4152      	adcs	r2, r2
10011316:	0983      	lsrs	r3, r0, #6
10011318:	428b      	cmp	r3, r1
1001131a:	d301      	bcc.n	10011320 <__aeabi_uidiv+0xb4>
1001131c:	018b      	lsls	r3, r1, #6
1001131e:	1ac0      	subs	r0, r0, r3
10011320:	4152      	adcs	r2, r2
10011322:	0943      	lsrs	r3, r0, #5
10011324:	428b      	cmp	r3, r1
10011326:	d301      	bcc.n	1001132c <__aeabi_uidiv+0xc0>
10011328:	014b      	lsls	r3, r1, #5
1001132a:	1ac0      	subs	r0, r0, r3
1001132c:	4152      	adcs	r2, r2
1001132e:	0903      	lsrs	r3, r0, #4
10011330:	428b      	cmp	r3, r1
10011332:	d301      	bcc.n	10011338 <__aeabi_uidiv+0xcc>
10011334:	010b      	lsls	r3, r1, #4
10011336:	1ac0      	subs	r0, r0, r3
10011338:	4152      	adcs	r2, r2
1001133a:	08c3      	lsrs	r3, r0, #3
1001133c:	428b      	cmp	r3, r1
1001133e:	d301      	bcc.n	10011344 <__aeabi_uidiv+0xd8>
10011340:	00cb      	lsls	r3, r1, #3
10011342:	1ac0      	subs	r0, r0, r3
10011344:	4152      	adcs	r2, r2
10011346:	0883      	lsrs	r3, r0, #2
10011348:	428b      	cmp	r3, r1
1001134a:	d301      	bcc.n	10011350 <__aeabi_uidiv+0xe4>
1001134c:	008b      	lsls	r3, r1, #2
1001134e:	1ac0      	subs	r0, r0, r3
10011350:	4152      	adcs	r2, r2
10011352:	0843      	lsrs	r3, r0, #1
10011354:	428b      	cmp	r3, r1
10011356:	d301      	bcc.n	1001135c <__aeabi_uidiv+0xf0>
10011358:	004b      	lsls	r3, r1, #1
1001135a:	1ac0      	subs	r0, r0, r3
1001135c:	4152      	adcs	r2, r2
1001135e:	1a41      	subs	r1, r0, r1
10011360:	d200      	bcs.n	10011364 <__aeabi_uidiv+0xf8>
10011362:	4601      	mov	r1, r0
10011364:	4152      	adcs	r2, r2
10011366:	4610      	mov	r0, r2
10011368:	4770      	bx	lr
1001136a:	e7ff      	b.n	1001136c <__aeabi_uidiv+0x100>
1001136c:	b501      	push	{r0, lr}
1001136e:	2000      	movs	r0, #0
10011370:	f000 f8f0 	bl	10011554 <__aeabi_idiv0>
10011374:	bd02      	pop	{r1, pc}
10011376:	46c0      	nop			; (mov r8, r8)

10011378 <__aeabi_uidivmod>:
10011378:	2900      	cmp	r1, #0
1001137a:	d0f7      	beq.n	1001136c <__aeabi_uidiv+0x100>
1001137c:	e776      	b.n	1001126c <__aeabi_uidiv>
1001137e:	4770      	bx	lr

10011380 <__aeabi_idiv>:
10011380:	4603      	mov	r3, r0
10011382:	430b      	orrs	r3, r1
10011384:	d47f      	bmi.n	10011486 <__aeabi_idiv+0x106>
10011386:	2200      	movs	r2, #0
10011388:	0843      	lsrs	r3, r0, #1
1001138a:	428b      	cmp	r3, r1
1001138c:	d374      	bcc.n	10011478 <__aeabi_idiv+0xf8>
1001138e:	0903      	lsrs	r3, r0, #4
10011390:	428b      	cmp	r3, r1
10011392:	d35f      	bcc.n	10011454 <__aeabi_idiv+0xd4>
10011394:	0a03      	lsrs	r3, r0, #8
10011396:	428b      	cmp	r3, r1
10011398:	d344      	bcc.n	10011424 <__aeabi_idiv+0xa4>
1001139a:	0b03      	lsrs	r3, r0, #12
1001139c:	428b      	cmp	r3, r1
1001139e:	d328      	bcc.n	100113f2 <__aeabi_idiv+0x72>
100113a0:	0c03      	lsrs	r3, r0, #16
100113a2:	428b      	cmp	r3, r1
100113a4:	d30d      	bcc.n	100113c2 <__aeabi_idiv+0x42>
100113a6:	22ff      	movs	r2, #255	; 0xff
100113a8:	0209      	lsls	r1, r1, #8
100113aa:	ba12      	rev	r2, r2
100113ac:	0c03      	lsrs	r3, r0, #16
100113ae:	428b      	cmp	r3, r1
100113b0:	d302      	bcc.n	100113b8 <__aeabi_idiv+0x38>
100113b2:	1212      	asrs	r2, r2, #8
100113b4:	0209      	lsls	r1, r1, #8
100113b6:	d065      	beq.n	10011484 <__aeabi_idiv+0x104>
100113b8:	0b03      	lsrs	r3, r0, #12
100113ba:	428b      	cmp	r3, r1
100113bc:	d319      	bcc.n	100113f2 <__aeabi_idiv+0x72>
100113be:	e000      	b.n	100113c2 <__aeabi_idiv+0x42>
100113c0:	0a09      	lsrs	r1, r1, #8
100113c2:	0bc3      	lsrs	r3, r0, #15
100113c4:	428b      	cmp	r3, r1
100113c6:	d301      	bcc.n	100113cc <__aeabi_idiv+0x4c>
100113c8:	03cb      	lsls	r3, r1, #15
100113ca:	1ac0      	subs	r0, r0, r3
100113cc:	4152      	adcs	r2, r2
100113ce:	0b83      	lsrs	r3, r0, #14
100113d0:	428b      	cmp	r3, r1
100113d2:	d301      	bcc.n	100113d8 <__aeabi_idiv+0x58>
100113d4:	038b      	lsls	r3, r1, #14
100113d6:	1ac0      	subs	r0, r0, r3
100113d8:	4152      	adcs	r2, r2
100113da:	0b43      	lsrs	r3, r0, #13
100113dc:	428b      	cmp	r3, r1
100113de:	d301      	bcc.n	100113e4 <__aeabi_idiv+0x64>
100113e0:	034b      	lsls	r3, r1, #13
100113e2:	1ac0      	subs	r0, r0, r3
100113e4:	4152      	adcs	r2, r2
100113e6:	0b03      	lsrs	r3, r0, #12
100113e8:	428b      	cmp	r3, r1
100113ea:	d301      	bcc.n	100113f0 <__aeabi_idiv+0x70>
100113ec:	030b      	lsls	r3, r1, #12
100113ee:	1ac0      	subs	r0, r0, r3
100113f0:	4152      	adcs	r2, r2
100113f2:	0ac3      	lsrs	r3, r0, #11
100113f4:	428b      	cmp	r3, r1
100113f6:	d301      	bcc.n	100113fc <__aeabi_idiv+0x7c>
100113f8:	02cb      	lsls	r3, r1, #11
100113fa:	1ac0      	subs	r0, r0, r3
100113fc:	4152      	adcs	r2, r2
100113fe:	0a83      	lsrs	r3, r0, #10
10011400:	428b      	cmp	r3, r1
10011402:	d301      	bcc.n	10011408 <__aeabi_idiv+0x88>
10011404:	028b      	lsls	r3, r1, #10
10011406:	1ac0      	subs	r0, r0, r3
10011408:	4152      	adcs	r2, r2
1001140a:	0a43      	lsrs	r3, r0, #9
1001140c:	428b      	cmp	r3, r1
1001140e:	d301      	bcc.n	10011414 <__aeabi_idiv+0x94>
10011410:	024b      	lsls	r3, r1, #9
10011412:	1ac0      	subs	r0, r0, r3
10011414:	4152      	adcs	r2, r2
10011416:	0a03      	lsrs	r3, r0, #8
10011418:	428b      	cmp	r3, r1
1001141a:	d301      	bcc.n	10011420 <__aeabi_idiv+0xa0>
1001141c:	020b      	lsls	r3, r1, #8
1001141e:	1ac0      	subs	r0, r0, r3
10011420:	4152      	adcs	r2, r2
10011422:	d2cd      	bcs.n	100113c0 <__aeabi_idiv+0x40>
10011424:	09c3      	lsrs	r3, r0, #7
10011426:	428b      	cmp	r3, r1
10011428:	d301      	bcc.n	1001142e <__aeabi_idiv+0xae>
1001142a:	01cb      	lsls	r3, r1, #7
1001142c:	1ac0      	subs	r0, r0, r3
1001142e:	4152      	adcs	r2, r2
10011430:	0983      	lsrs	r3, r0, #6
10011432:	428b      	cmp	r3, r1
10011434:	d301      	bcc.n	1001143a <__aeabi_idiv+0xba>
10011436:	018b      	lsls	r3, r1, #6
10011438:	1ac0      	subs	r0, r0, r3
1001143a:	4152      	adcs	r2, r2
1001143c:	0943      	lsrs	r3, r0, #5
1001143e:	428b      	cmp	r3, r1
10011440:	d301      	bcc.n	10011446 <__aeabi_idiv+0xc6>
10011442:	014b      	lsls	r3, r1, #5
10011444:	1ac0      	subs	r0, r0, r3
10011446:	4152      	adcs	r2, r2
10011448:	0903      	lsrs	r3, r0, #4
1001144a:	428b      	cmp	r3, r1
1001144c:	d301      	bcc.n	10011452 <__aeabi_idiv+0xd2>
1001144e:	010b      	lsls	r3, r1, #4
10011450:	1ac0      	subs	r0, r0, r3
10011452:	4152      	adcs	r2, r2
10011454:	08c3      	lsrs	r3, r0, #3
10011456:	428b      	cmp	r3, r1
10011458:	d301      	bcc.n	1001145e <__aeabi_idiv+0xde>
1001145a:	00cb      	lsls	r3, r1, #3
1001145c:	1ac0      	subs	r0, r0, r3
1001145e:	4152      	adcs	r2, r2
10011460:	0883      	lsrs	r3, r0, #2
10011462:	428b      	cmp	r3, r1
10011464:	d301      	bcc.n	1001146a <__aeabi_idiv+0xea>
10011466:	008b      	lsls	r3, r1, #2
10011468:	1ac0      	subs	r0, r0, r3
1001146a:	4152      	adcs	r2, r2
1001146c:	0843      	lsrs	r3, r0, #1
1001146e:	428b      	cmp	r3, r1
10011470:	d301      	bcc.n	10011476 <__aeabi_idiv+0xf6>
10011472:	004b      	lsls	r3, r1, #1
10011474:	1ac0      	subs	r0, r0, r3
10011476:	4152      	adcs	r2, r2
10011478:	1a41      	subs	r1, r0, r1
1001147a:	d200      	bcs.n	1001147e <__aeabi_idiv+0xfe>
1001147c:	4601      	mov	r1, r0
1001147e:	4152      	adcs	r2, r2
10011480:	4610      	mov	r0, r2
10011482:	4770      	bx	lr
10011484:	e05d      	b.n	10011542 <__aeabi_idiv+0x1c2>
10011486:	0fca      	lsrs	r2, r1, #31
10011488:	d000      	beq.n	1001148c <__aeabi_idiv+0x10c>
1001148a:	4249      	negs	r1, r1
1001148c:	1003      	asrs	r3, r0, #32
1001148e:	d300      	bcc.n	10011492 <__aeabi_idiv+0x112>
10011490:	4240      	negs	r0, r0
10011492:	4053      	eors	r3, r2
10011494:	2200      	movs	r2, #0
10011496:	469c      	mov	ip, r3
10011498:	0903      	lsrs	r3, r0, #4
1001149a:	428b      	cmp	r3, r1
1001149c:	d32d      	bcc.n	100114fa <__aeabi_idiv+0x17a>
1001149e:	0a03      	lsrs	r3, r0, #8
100114a0:	428b      	cmp	r3, r1
100114a2:	d312      	bcc.n	100114ca <__aeabi_idiv+0x14a>
100114a4:	22fc      	movs	r2, #252	; 0xfc
100114a6:	0189      	lsls	r1, r1, #6
100114a8:	ba12      	rev	r2, r2
100114aa:	0a03      	lsrs	r3, r0, #8
100114ac:	428b      	cmp	r3, r1
100114ae:	d30c      	bcc.n	100114ca <__aeabi_idiv+0x14a>
100114b0:	0189      	lsls	r1, r1, #6
100114b2:	1192      	asrs	r2, r2, #6
100114b4:	428b      	cmp	r3, r1
100114b6:	d308      	bcc.n	100114ca <__aeabi_idiv+0x14a>
100114b8:	0189      	lsls	r1, r1, #6
100114ba:	1192      	asrs	r2, r2, #6
100114bc:	428b      	cmp	r3, r1
100114be:	d304      	bcc.n	100114ca <__aeabi_idiv+0x14a>
100114c0:	0189      	lsls	r1, r1, #6
100114c2:	d03a      	beq.n	1001153a <__aeabi_idiv+0x1ba>
100114c4:	1192      	asrs	r2, r2, #6
100114c6:	e000      	b.n	100114ca <__aeabi_idiv+0x14a>
100114c8:	0989      	lsrs	r1, r1, #6
100114ca:	09c3      	lsrs	r3, r0, #7
100114cc:	428b      	cmp	r3, r1
100114ce:	d301      	bcc.n	100114d4 <__aeabi_idiv+0x154>
100114d0:	01cb      	lsls	r3, r1, #7
100114d2:	1ac0      	subs	r0, r0, r3
100114d4:	4152      	adcs	r2, r2
100114d6:	0983      	lsrs	r3, r0, #6
100114d8:	428b      	cmp	r3, r1
100114da:	d301      	bcc.n	100114e0 <__aeabi_idiv+0x160>
100114dc:	018b      	lsls	r3, r1, #6
100114de:	1ac0      	subs	r0, r0, r3
100114e0:	4152      	adcs	r2, r2
100114e2:	0943      	lsrs	r3, r0, #5
100114e4:	428b      	cmp	r3, r1
100114e6:	d301      	bcc.n	100114ec <__aeabi_idiv+0x16c>
100114e8:	014b      	lsls	r3, r1, #5
100114ea:	1ac0      	subs	r0, r0, r3
100114ec:	4152      	adcs	r2, r2
100114ee:	0903      	lsrs	r3, r0, #4
100114f0:	428b      	cmp	r3, r1
100114f2:	d301      	bcc.n	100114f8 <__aeabi_idiv+0x178>
100114f4:	010b      	lsls	r3, r1, #4
100114f6:	1ac0      	subs	r0, r0, r3
100114f8:	4152      	adcs	r2, r2
100114fa:	08c3      	lsrs	r3, r0, #3
100114fc:	428b      	cmp	r3, r1
100114fe:	d301      	bcc.n	10011504 <__aeabi_idiv+0x184>
10011500:	00cb      	lsls	r3, r1, #3
10011502:	1ac0      	subs	r0, r0, r3
10011504:	4152      	adcs	r2, r2
10011506:	0883      	lsrs	r3, r0, #2
10011508:	428b      	cmp	r3, r1
1001150a:	d301      	bcc.n	10011510 <__aeabi_idiv+0x190>
1001150c:	008b      	lsls	r3, r1, #2
1001150e:	1ac0      	subs	r0, r0, r3
10011510:	4152      	adcs	r2, r2
10011512:	d2d9      	bcs.n	100114c8 <__aeabi_idiv+0x148>
10011514:	0843      	lsrs	r3, r0, #1
10011516:	428b      	cmp	r3, r1
10011518:	d301      	bcc.n	1001151e <__aeabi_idiv+0x19e>
1001151a:	004b      	lsls	r3, r1, #1
1001151c:	1ac0      	subs	r0, r0, r3
1001151e:	4152      	adcs	r2, r2
10011520:	1a41      	subs	r1, r0, r1
10011522:	d200      	bcs.n	10011526 <__aeabi_idiv+0x1a6>
10011524:	4601      	mov	r1, r0
10011526:	4663      	mov	r3, ip
10011528:	4152      	adcs	r2, r2
1001152a:	105b      	asrs	r3, r3, #1
1001152c:	4610      	mov	r0, r2
1001152e:	d301      	bcc.n	10011534 <__aeabi_idiv+0x1b4>
10011530:	4240      	negs	r0, r0
10011532:	2b00      	cmp	r3, #0
10011534:	d500      	bpl.n	10011538 <__aeabi_idiv+0x1b8>
10011536:	4249      	negs	r1, r1
10011538:	4770      	bx	lr
1001153a:	4663      	mov	r3, ip
1001153c:	105b      	asrs	r3, r3, #1
1001153e:	d300      	bcc.n	10011542 <__aeabi_idiv+0x1c2>
10011540:	4240      	negs	r0, r0
10011542:	b501      	push	{r0, lr}
10011544:	2000      	movs	r0, #0
10011546:	f000 f805 	bl	10011554 <__aeabi_idiv0>
1001154a:	bd02      	pop	{r1, pc}

1001154c <__aeabi_idivmod>:
1001154c:	2900      	cmp	r1, #0
1001154e:	d0f8      	beq.n	10011542 <__aeabi_idiv+0x1c2>
10011550:	e716      	b.n	10011380 <__aeabi_idiv>
10011552:	4770      	bx	lr

10011554 <__aeabi_idiv0>:
10011554:	4770      	bx	lr
10011556:	46c0      	nop			; (mov r8, r8)

10011558 <__aeabi_cdrcmple>:
10011558:	4684      	mov	ip, r0
1001155a:	1c10      	adds	r0, r2, #0
1001155c:	4662      	mov	r2, ip
1001155e:	468c      	mov	ip, r1
10011560:	1c19      	adds	r1, r3, #0
10011562:	4663      	mov	r3, ip
10011564:	e000      	b.n	10011568 <__aeabi_cdcmpeq>
10011566:	46c0      	nop			; (mov r8, r8)

10011568 <__aeabi_cdcmpeq>:
10011568:	b51f      	push	{r0, r1, r2, r3, r4, lr}
1001156a:	f000 fe37 	bl	100121dc <__ledf2>
1001156e:	2800      	cmp	r0, #0
10011570:	d401      	bmi.n	10011576 <__aeabi_cdcmpeq+0xe>
10011572:	2100      	movs	r1, #0
10011574:	42c8      	cmn	r0, r1
10011576:	bd1f      	pop	{r0, r1, r2, r3, r4, pc}

10011578 <__aeabi_dcmpeq>:
10011578:	b510      	push	{r4, lr}
1001157a:	f000 fd8b 	bl	10012094 <__eqdf2>
1001157e:	4240      	negs	r0, r0
10011580:	3001      	adds	r0, #1
10011582:	bd10      	pop	{r4, pc}

10011584 <__aeabi_dcmplt>:
10011584:	b510      	push	{r4, lr}
10011586:	f000 fe29 	bl	100121dc <__ledf2>
1001158a:	2800      	cmp	r0, #0
1001158c:	db01      	blt.n	10011592 <__aeabi_dcmplt+0xe>
1001158e:	2000      	movs	r0, #0
10011590:	bd10      	pop	{r4, pc}
10011592:	2001      	movs	r0, #1
10011594:	bd10      	pop	{r4, pc}
10011596:	46c0      	nop			; (mov r8, r8)

10011598 <__aeabi_dcmple>:
10011598:	b510      	push	{r4, lr}
1001159a:	f000 fe1f 	bl	100121dc <__ledf2>
1001159e:	2800      	cmp	r0, #0
100115a0:	dd01      	ble.n	100115a6 <__aeabi_dcmple+0xe>
100115a2:	2000      	movs	r0, #0
100115a4:	bd10      	pop	{r4, pc}
100115a6:	2001      	movs	r0, #1
100115a8:	bd10      	pop	{r4, pc}
100115aa:	46c0      	nop			; (mov r8, r8)

100115ac <__aeabi_dcmpgt>:
100115ac:	b510      	push	{r4, lr}
100115ae:	f000 fdb1 	bl	10012114 <__gedf2>
100115b2:	2800      	cmp	r0, #0
100115b4:	dc01      	bgt.n	100115ba <__aeabi_dcmpgt+0xe>
100115b6:	2000      	movs	r0, #0
100115b8:	bd10      	pop	{r4, pc}
100115ba:	2001      	movs	r0, #1
100115bc:	bd10      	pop	{r4, pc}
100115be:	46c0      	nop			; (mov r8, r8)

100115c0 <__aeabi_dcmpge>:
100115c0:	b510      	push	{r4, lr}
100115c2:	f000 fda7 	bl	10012114 <__gedf2>
100115c6:	2800      	cmp	r0, #0
100115c8:	da01      	bge.n	100115ce <__aeabi_dcmpge+0xe>
100115ca:	2000      	movs	r0, #0
100115cc:	bd10      	pop	{r4, pc}
100115ce:	2001      	movs	r0, #1
100115d0:	bd10      	pop	{r4, pc}
100115d2:	46c0      	nop			; (mov r8, r8)

100115d4 <__aeabi_cfrcmple>:
100115d4:	4684      	mov	ip, r0
100115d6:	1c08      	adds	r0, r1, #0
100115d8:	4661      	mov	r1, ip
100115da:	e7ff      	b.n	100115dc <__aeabi_cfcmpeq>

100115dc <__aeabi_cfcmpeq>:
100115dc:	b51f      	push	{r0, r1, r2, r3, r4, lr}
100115de:	f000 fa1b 	bl	10011a18 <__lesf2>
100115e2:	2800      	cmp	r0, #0
100115e4:	d401      	bmi.n	100115ea <__aeabi_cfcmpeq+0xe>
100115e6:	2100      	movs	r1, #0
100115e8:	42c8      	cmn	r0, r1
100115ea:	bd1f      	pop	{r0, r1, r2, r3, r4, pc}

100115ec <__aeabi_fcmpeq>:
100115ec:	b510      	push	{r4, lr}
100115ee:	f000 f9a7 	bl	10011940 <__eqsf2>
100115f2:	4240      	negs	r0, r0
100115f4:	3001      	adds	r0, #1
100115f6:	bd10      	pop	{r4, pc}

100115f8 <__aeabi_fcmplt>:
100115f8:	b510      	push	{r4, lr}
100115fa:	f000 fa0d 	bl	10011a18 <__lesf2>
100115fe:	2800      	cmp	r0, #0
10011600:	db01      	blt.n	10011606 <__aeabi_fcmplt+0xe>
10011602:	2000      	movs	r0, #0
10011604:	bd10      	pop	{r4, pc}
10011606:	2001      	movs	r0, #1
10011608:	bd10      	pop	{r4, pc}
1001160a:	46c0      	nop			; (mov r8, r8)

1001160c <__aeabi_fcmple>:
1001160c:	b510      	push	{r4, lr}
1001160e:	f000 fa03 	bl	10011a18 <__lesf2>
10011612:	2800      	cmp	r0, #0
10011614:	dd01      	ble.n	1001161a <__aeabi_fcmple+0xe>
10011616:	2000      	movs	r0, #0
10011618:	bd10      	pop	{r4, pc}
1001161a:	2001      	movs	r0, #1
1001161c:	bd10      	pop	{r4, pc}
1001161e:	46c0      	nop			; (mov r8, r8)

10011620 <__aeabi_fcmpgt>:
10011620:	b510      	push	{r4, lr}
10011622:	f000 f9b5 	bl	10011990 <__gesf2>
10011626:	2800      	cmp	r0, #0
10011628:	dc01      	bgt.n	1001162e <__aeabi_fcmpgt+0xe>
1001162a:	2000      	movs	r0, #0
1001162c:	bd10      	pop	{r4, pc}
1001162e:	2001      	movs	r0, #1
10011630:	bd10      	pop	{r4, pc}
10011632:	46c0      	nop			; (mov r8, r8)

10011634 <__aeabi_fcmpge>:
10011634:	b510      	push	{r4, lr}
10011636:	f000 f9ab 	bl	10011990 <__gesf2>
1001163a:	2800      	cmp	r0, #0
1001163c:	da01      	bge.n	10011642 <__aeabi_fcmpge+0xe>
1001163e:	2000      	movs	r0, #0
10011640:	bd10      	pop	{r4, pc}
10011642:	2001      	movs	r0, #1
10011644:	bd10      	pop	{r4, pc}
10011646:	46c0      	nop			; (mov r8, r8)

10011648 <__aeabi_lmul>:
10011648:	b5f0      	push	{r4, r5, r6, r7, lr}
1001164a:	464f      	mov	r7, r9
1001164c:	4646      	mov	r6, r8
1001164e:	b4c0      	push	{r6, r7}
10011650:	0416      	lsls	r6, r2, #16
10011652:	0c36      	lsrs	r6, r6, #16
10011654:	4699      	mov	r9, r3
10011656:	0033      	movs	r3, r6
10011658:	0405      	lsls	r5, r0, #16
1001165a:	0c2c      	lsrs	r4, r5, #16
1001165c:	0c07      	lsrs	r7, r0, #16
1001165e:	0c15      	lsrs	r5, r2, #16
10011660:	4363      	muls	r3, r4
10011662:	437e      	muls	r6, r7
10011664:	436f      	muls	r7, r5
10011666:	4365      	muls	r5, r4
10011668:	0c1c      	lsrs	r4, r3, #16
1001166a:	19ad      	adds	r5, r5, r6
1001166c:	1964      	adds	r4, r4, r5
1001166e:	469c      	mov	ip, r3
10011670:	42a6      	cmp	r6, r4
10011672:	d903      	bls.n	1001167c <__aeabi_lmul+0x34>
10011674:	2380      	movs	r3, #128	; 0x80
10011676:	025b      	lsls	r3, r3, #9
10011678:	4698      	mov	r8, r3
1001167a:	4447      	add	r7, r8
1001167c:	4663      	mov	r3, ip
1001167e:	0c25      	lsrs	r5, r4, #16
10011680:	19ef      	adds	r7, r5, r7
10011682:	041d      	lsls	r5, r3, #16
10011684:	464b      	mov	r3, r9
10011686:	434a      	muls	r2, r1
10011688:	4343      	muls	r3, r0
1001168a:	0c2d      	lsrs	r5, r5, #16
1001168c:	0424      	lsls	r4, r4, #16
1001168e:	1964      	adds	r4, r4, r5
10011690:	1899      	adds	r1, r3, r2
10011692:	19c9      	adds	r1, r1, r7
10011694:	0020      	movs	r0, r4
10011696:	bc0c      	pop	{r2, r3}
10011698:	4690      	mov	r8, r2
1001169a:	4699      	mov	r9, r3
1001169c:	bdf0      	pop	{r4, r5, r6, r7, pc}
1001169e:	46c0      	nop			; (mov r8, r8)

100116a0 <__aeabi_f2uiz>:
100116a0:	219e      	movs	r1, #158	; 0x9e
100116a2:	b510      	push	{r4, lr}
100116a4:	05c9      	lsls	r1, r1, #23
100116a6:	1c04      	adds	r4, r0, #0
100116a8:	f7ff ffc4 	bl	10011634 <__aeabi_fcmpge>
100116ac:	2800      	cmp	r0, #0
100116ae:	d103      	bne.n	100116b8 <__aeabi_f2uiz+0x18>
100116b0:	1c20      	adds	r0, r4, #0
100116b2:	f000 fc8f 	bl	10011fd4 <__aeabi_f2iz>
100116b6:	bd10      	pop	{r4, pc}
100116b8:	219e      	movs	r1, #158	; 0x9e
100116ba:	1c20      	adds	r0, r4, #0
100116bc:	05c9      	lsls	r1, r1, #23
100116be:	f000 fb03 	bl	10011cc8 <__aeabi_fsub>
100116c2:	f000 fc87 	bl	10011fd4 <__aeabi_f2iz>
100116c6:	2380      	movs	r3, #128	; 0x80
100116c8:	061b      	lsls	r3, r3, #24
100116ca:	469c      	mov	ip, r3
100116cc:	4460      	add	r0, ip
100116ce:	e7f2      	b.n	100116b6 <__aeabi_f2uiz+0x16>

100116d0 <__aeabi_d2uiz>:
100116d0:	b570      	push	{r4, r5, r6, lr}
100116d2:	2200      	movs	r2, #0
100116d4:	4b0c      	ldr	r3, [pc, #48]	; (10011708 <__aeabi_d2uiz+0x38>)
100116d6:	0004      	movs	r4, r0
100116d8:	000d      	movs	r5, r1
100116da:	f7ff ff71 	bl	100115c0 <__aeabi_dcmpge>
100116de:	2800      	cmp	r0, #0
100116e0:	d104      	bne.n	100116ec <__aeabi_d2uiz+0x1c>
100116e2:	0020      	movs	r0, r4
100116e4:	0029      	movs	r1, r5
100116e6:	f001 fbb1 	bl	10012e4c <__aeabi_d2iz>
100116ea:	bd70      	pop	{r4, r5, r6, pc}
100116ec:	4b06      	ldr	r3, [pc, #24]	; (10011708 <__aeabi_d2uiz+0x38>)
100116ee:	2200      	movs	r2, #0
100116f0:	0020      	movs	r0, r4
100116f2:	0029      	movs	r1, r5
100116f4:	f001 f856 	bl	100127a4 <__aeabi_dsub>
100116f8:	f001 fba8 	bl	10012e4c <__aeabi_d2iz>
100116fc:	2380      	movs	r3, #128	; 0x80
100116fe:	061b      	lsls	r3, r3, #24
10011700:	469c      	mov	ip, r3
10011702:	4460      	add	r0, ip
10011704:	e7f1      	b.n	100116ea <__aeabi_d2uiz+0x1a>
10011706:	46c0      	nop			; (mov r8, r8)
10011708:	41e00000 	.word	0x41e00000

1001170c <__aeabi_fdiv>:
1001170c:	b5f0      	push	{r4, r5, r6, r7, lr}
1001170e:	4656      	mov	r6, sl
10011710:	4644      	mov	r4, r8
10011712:	465f      	mov	r7, fp
10011714:	464d      	mov	r5, r9
10011716:	b4f0      	push	{r4, r5, r6, r7}
10011718:	0244      	lsls	r4, r0, #9
1001171a:	0046      	lsls	r6, r0, #1
1001171c:	0fc7      	lsrs	r7, r0, #31
1001171e:	b083      	sub	sp, #12
10011720:	4688      	mov	r8, r1
10011722:	0a65      	lsrs	r5, r4, #9
10011724:	0e36      	lsrs	r6, r6, #24
10011726:	46ba      	mov	sl, r7
10011728:	d03d      	beq.n	100117a6 <__aeabi_fdiv+0x9a>
1001172a:	2eff      	cmp	r6, #255	; 0xff
1001172c:	d022      	beq.n	10011774 <__aeabi_fdiv+0x68>
1001172e:	2300      	movs	r3, #0
10011730:	00ec      	lsls	r4, r5, #3
10011732:	2580      	movs	r5, #128	; 0x80
10011734:	4699      	mov	r9, r3
10011736:	469b      	mov	fp, r3
10011738:	04ed      	lsls	r5, r5, #19
1001173a:	4325      	orrs	r5, r4
1001173c:	3e7f      	subs	r6, #127	; 0x7f
1001173e:	4643      	mov	r3, r8
10011740:	025c      	lsls	r4, r3, #9
10011742:	0058      	lsls	r0, r3, #1
10011744:	0fdb      	lsrs	r3, r3, #31
10011746:	0a64      	lsrs	r4, r4, #9
10011748:	0e00      	lsrs	r0, r0, #24
1001174a:	4698      	mov	r8, r3
1001174c:	d036      	beq.n	100117bc <__aeabi_fdiv+0xb0>
1001174e:	28ff      	cmp	r0, #255	; 0xff
10011750:	d030      	beq.n	100117b4 <__aeabi_fdiv+0xa8>
10011752:	2380      	movs	r3, #128	; 0x80
10011754:	2100      	movs	r1, #0
10011756:	00e4      	lsls	r4, r4, #3
10011758:	04db      	lsls	r3, r3, #19
1001175a:	431c      	orrs	r4, r3
1001175c:	387f      	subs	r0, #127	; 0x7f
1001175e:	1a30      	subs	r0, r6, r0
10011760:	9001      	str	r0, [sp, #4]
10011762:	4648      	mov	r0, r9
10011764:	4642      	mov	r2, r8
10011766:	4308      	orrs	r0, r1
10011768:	4e72      	ldr	r6, [pc, #456]	; (10011934 <__aeabi_fdiv+0x228>)
1001176a:	0080      	lsls	r0, r0, #2
1001176c:	5830      	ldr	r0, [r6, r0]
1001176e:	407a      	eors	r2, r7
10011770:	0013      	movs	r3, r2
10011772:	4687      	mov	pc, r0
10011774:	2d00      	cmp	r5, #0
10011776:	d144      	bne.n	10011802 <__aeabi_fdiv+0xf6>
10011778:	2308      	movs	r3, #8
1001177a:	4699      	mov	r9, r3
1001177c:	3b06      	subs	r3, #6
1001177e:	469b      	mov	fp, r3
10011780:	e7dd      	b.n	1001173e <__aeabi_fdiv+0x32>
10011782:	2201      	movs	r2, #1
10011784:	20ff      	movs	r0, #255	; 0xff
10011786:	2400      	movs	r4, #0
10011788:	401a      	ands	r2, r3
1001178a:	0264      	lsls	r4, r4, #9
1001178c:	05c3      	lsls	r3, r0, #23
1001178e:	0a64      	lsrs	r4, r4, #9
10011790:	07d2      	lsls	r2, r2, #31
10011792:	431c      	orrs	r4, r3
10011794:	4314      	orrs	r4, r2
10011796:	0020      	movs	r0, r4
10011798:	b003      	add	sp, #12
1001179a:	bc3c      	pop	{r2, r3, r4, r5}
1001179c:	4690      	mov	r8, r2
1001179e:	4699      	mov	r9, r3
100117a0:	46a2      	mov	sl, r4
100117a2:	46ab      	mov	fp, r5
100117a4:	bdf0      	pop	{r4, r5, r6, r7, pc}
100117a6:	2d00      	cmp	r5, #0
100117a8:	d120      	bne.n	100117ec <__aeabi_fdiv+0xe0>
100117aa:	2304      	movs	r3, #4
100117ac:	4699      	mov	r9, r3
100117ae:	3b03      	subs	r3, #3
100117b0:	469b      	mov	fp, r3
100117b2:	e7c4      	b.n	1001173e <__aeabi_fdiv+0x32>
100117b4:	2c00      	cmp	r4, #0
100117b6:	d117      	bne.n	100117e8 <__aeabi_fdiv+0xdc>
100117b8:	2102      	movs	r1, #2
100117ba:	e002      	b.n	100117c2 <__aeabi_fdiv+0xb6>
100117bc:	2c00      	cmp	r4, #0
100117be:	d10a      	bne.n	100117d6 <__aeabi_fdiv+0xca>
100117c0:	2101      	movs	r1, #1
100117c2:	1a32      	subs	r2, r6, r0
100117c4:	9201      	str	r2, [sp, #4]
100117c6:	464a      	mov	r2, r9
100117c8:	4643      	mov	r3, r8
100117ca:	430a      	orrs	r2, r1
100117cc:	485a      	ldr	r0, [pc, #360]	; (10011938 <__aeabi_fdiv+0x22c>)
100117ce:	0092      	lsls	r2, r2, #2
100117d0:	5882      	ldr	r2, [r0, r2]
100117d2:	407b      	eors	r3, r7
100117d4:	4697      	mov	pc, r2
100117d6:	0020      	movs	r0, r4
100117d8:	f001 fba6 	bl	10012f28 <__clzsi2>
100117dc:	1f43      	subs	r3, r0, #5
100117de:	3076      	adds	r0, #118	; 0x76
100117e0:	409c      	lsls	r4, r3
100117e2:	4240      	negs	r0, r0
100117e4:	2100      	movs	r1, #0
100117e6:	e7ba      	b.n	1001175e <__aeabi_fdiv+0x52>
100117e8:	2103      	movs	r1, #3
100117ea:	e7b8      	b.n	1001175e <__aeabi_fdiv+0x52>
100117ec:	0028      	movs	r0, r5
100117ee:	f001 fb9b 	bl	10012f28 <__clzsi2>
100117f2:	1f43      	subs	r3, r0, #5
100117f4:	409d      	lsls	r5, r3
100117f6:	2300      	movs	r3, #0
100117f8:	3076      	adds	r0, #118	; 0x76
100117fa:	4246      	negs	r6, r0
100117fc:	4699      	mov	r9, r3
100117fe:	469b      	mov	fp, r3
10011800:	e79d      	b.n	1001173e <__aeabi_fdiv+0x32>
10011802:	230c      	movs	r3, #12
10011804:	4699      	mov	r9, r3
10011806:	3b09      	subs	r3, #9
10011808:	469b      	mov	fp, r3
1001180a:	e798      	b.n	1001173e <__aeabi_fdiv+0x32>
1001180c:	2480      	movs	r4, #128	; 0x80
1001180e:	2200      	movs	r2, #0
10011810:	03e4      	lsls	r4, r4, #15
10011812:	20ff      	movs	r0, #255	; 0xff
10011814:	e7b9      	b.n	1001178a <__aeabi_fdiv+0x7e>
10011816:	2400      	movs	r4, #0
10011818:	46c2      	mov	sl, r8
1001181a:	468b      	mov	fp, r1
1001181c:	465a      	mov	r2, fp
1001181e:	4653      	mov	r3, sl
10011820:	2a02      	cmp	r2, #2
10011822:	d0ae      	beq.n	10011782 <__aeabi_fdiv+0x76>
10011824:	2a03      	cmp	r2, #3
10011826:	d07d      	beq.n	10011924 <__aeabi_fdiv+0x218>
10011828:	2a01      	cmp	r2, #1
1001182a:	d131      	bne.n	10011890 <__aeabi_fdiv+0x184>
1001182c:	2201      	movs	r2, #1
1001182e:	2000      	movs	r0, #0
10011830:	401a      	ands	r2, r3
10011832:	2400      	movs	r4, #0
10011834:	e7a9      	b.n	1001178a <__aeabi_fdiv+0x7e>
10011836:	2201      	movs	r2, #1
10011838:	1a10      	subs	r0, r2, r0
1001183a:	281b      	cmp	r0, #27
1001183c:	dd56      	ble.n	100118ec <__aeabi_fdiv+0x1e0>
1001183e:	401a      	ands	r2, r3
10011840:	2000      	movs	r0, #0
10011842:	2400      	movs	r4, #0
10011844:	e7a1      	b.n	1001178a <__aeabi_fdiv+0x7e>
10011846:	2380      	movs	r3, #128	; 0x80
10011848:	03db      	lsls	r3, r3, #15
1001184a:	421d      	tst	r5, r3
1001184c:	d14b      	bne.n	100118e6 <__aeabi_fdiv+0x1da>
1001184e:	2380      	movs	r3, #128	; 0x80
10011850:	03db      	lsls	r3, r3, #15
10011852:	432b      	orrs	r3, r5
10011854:	025c      	lsls	r4, r3, #9
10011856:	0a64      	lsrs	r4, r4, #9
10011858:	003a      	movs	r2, r7
1001185a:	20ff      	movs	r0, #255	; 0xff
1001185c:	e795      	b.n	1001178a <__aeabi_fdiv+0x7e>
1001185e:	016d      	lsls	r5, r5, #5
10011860:	0160      	lsls	r0, r4, #5
10011862:	4285      	cmp	r5, r0
10011864:	d230      	bcs.n	100118c8 <__aeabi_fdiv+0x1bc>
10011866:	9a01      	ldr	r2, [sp, #4]
10011868:	2400      	movs	r4, #0
1001186a:	3a01      	subs	r2, #1
1001186c:	9201      	str	r2, [sp, #4]
1001186e:	221b      	movs	r2, #27
10011870:	2701      	movs	r7, #1
10011872:	0029      	movs	r1, r5
10011874:	0064      	lsls	r4, r4, #1
10011876:	006d      	lsls	r5, r5, #1
10011878:	2900      	cmp	r1, #0
1001187a:	db01      	blt.n	10011880 <__aeabi_fdiv+0x174>
1001187c:	42a8      	cmp	r0, r5
1001187e:	d801      	bhi.n	10011884 <__aeabi_fdiv+0x178>
10011880:	1a2d      	subs	r5, r5, r0
10011882:	433c      	orrs	r4, r7
10011884:	3a01      	subs	r2, #1
10011886:	2a00      	cmp	r2, #0
10011888:	d1f3      	bne.n	10011872 <__aeabi_fdiv+0x166>
1001188a:	1e6a      	subs	r2, r5, #1
1001188c:	4195      	sbcs	r5, r2
1001188e:	432c      	orrs	r4, r5
10011890:	9801      	ldr	r0, [sp, #4]
10011892:	307f      	adds	r0, #127	; 0x7f
10011894:	2800      	cmp	r0, #0
10011896:	ddce      	ble.n	10011836 <__aeabi_fdiv+0x12a>
10011898:	0762      	lsls	r2, r4, #29
1001189a:	d004      	beq.n	100118a6 <__aeabi_fdiv+0x19a>
1001189c:	220f      	movs	r2, #15
1001189e:	4022      	ands	r2, r4
100118a0:	2a04      	cmp	r2, #4
100118a2:	d000      	beq.n	100118a6 <__aeabi_fdiv+0x19a>
100118a4:	3404      	adds	r4, #4
100118a6:	0122      	lsls	r2, r4, #4
100118a8:	d503      	bpl.n	100118b2 <__aeabi_fdiv+0x1a6>
100118aa:	4a24      	ldr	r2, [pc, #144]	; (1001193c <__aeabi_fdiv+0x230>)
100118ac:	9801      	ldr	r0, [sp, #4]
100118ae:	4014      	ands	r4, r2
100118b0:	3080      	adds	r0, #128	; 0x80
100118b2:	28fe      	cmp	r0, #254	; 0xfe
100118b4:	dd00      	ble.n	100118b8 <__aeabi_fdiv+0x1ac>
100118b6:	e764      	b.n	10011782 <__aeabi_fdiv+0x76>
100118b8:	2201      	movs	r2, #1
100118ba:	01a4      	lsls	r4, r4, #6
100118bc:	0a64      	lsrs	r4, r4, #9
100118be:	b2c0      	uxtb	r0, r0
100118c0:	401a      	ands	r2, r3
100118c2:	e762      	b.n	1001178a <__aeabi_fdiv+0x7e>
100118c4:	002c      	movs	r4, r5
100118c6:	e7a9      	b.n	1001181c <__aeabi_fdiv+0x110>
100118c8:	1a2d      	subs	r5, r5, r0
100118ca:	221a      	movs	r2, #26
100118cc:	2401      	movs	r4, #1
100118ce:	e7cf      	b.n	10011870 <__aeabi_fdiv+0x164>
100118d0:	026b      	lsls	r3, r5, #9
100118d2:	d5bc      	bpl.n	1001184e <__aeabi_fdiv+0x142>
100118d4:	2400      	movs	r4, #0
100118d6:	2380      	movs	r3, #128	; 0x80
100118d8:	03db      	lsls	r3, r3, #15
100118da:	431c      	orrs	r4, r3
100118dc:	0264      	lsls	r4, r4, #9
100118de:	0a64      	lsrs	r4, r4, #9
100118e0:	4642      	mov	r2, r8
100118e2:	20ff      	movs	r0, #255	; 0xff
100118e4:	e751      	b.n	1001178a <__aeabi_fdiv+0x7e>
100118e6:	421c      	tst	r4, r3
100118e8:	d1b3      	bne.n	10011852 <__aeabi_fdiv+0x146>
100118ea:	e7f4      	b.n	100118d6 <__aeabi_fdiv+0x1ca>
100118ec:	0021      	movs	r1, r4
100118ee:	2220      	movs	r2, #32
100118f0:	40c1      	lsrs	r1, r0
100118f2:	1a10      	subs	r0, r2, r0
100118f4:	4084      	lsls	r4, r0
100118f6:	1e62      	subs	r2, r4, #1
100118f8:	4194      	sbcs	r4, r2
100118fa:	430c      	orrs	r4, r1
100118fc:	0762      	lsls	r2, r4, #29
100118fe:	d004      	beq.n	1001190a <__aeabi_fdiv+0x1fe>
10011900:	220f      	movs	r2, #15
10011902:	4022      	ands	r2, r4
10011904:	2a04      	cmp	r2, #4
10011906:	d000      	beq.n	1001190a <__aeabi_fdiv+0x1fe>
10011908:	3404      	adds	r4, #4
1001190a:	0162      	lsls	r2, r4, #5
1001190c:	d504      	bpl.n	10011918 <__aeabi_fdiv+0x20c>
1001190e:	2201      	movs	r2, #1
10011910:	2001      	movs	r0, #1
10011912:	401a      	ands	r2, r3
10011914:	2400      	movs	r4, #0
10011916:	e738      	b.n	1001178a <__aeabi_fdiv+0x7e>
10011918:	2201      	movs	r2, #1
1001191a:	01a4      	lsls	r4, r4, #6
1001191c:	0a64      	lsrs	r4, r4, #9
1001191e:	401a      	ands	r2, r3
10011920:	2000      	movs	r0, #0
10011922:	e732      	b.n	1001178a <__aeabi_fdiv+0x7e>
10011924:	2380      	movs	r3, #128	; 0x80
10011926:	03db      	lsls	r3, r3, #15
10011928:	431c      	orrs	r4, r3
1001192a:	0264      	lsls	r4, r4, #9
1001192c:	0a64      	lsrs	r4, r4, #9
1001192e:	4652      	mov	r2, sl
10011930:	20ff      	movs	r0, #255	; 0xff
10011932:	e72a      	b.n	1001178a <__aeabi_fdiv+0x7e>
10011934:	10014618 	.word	0x10014618
10011938:	10014658 	.word	0x10014658
1001193c:	f7ffffff 	.word	0xf7ffffff

10011940 <__eqsf2>:
10011940:	0243      	lsls	r3, r0, #9
10011942:	b570      	push	{r4, r5, r6, lr}
10011944:	0042      	lsls	r2, r0, #1
10011946:	004c      	lsls	r4, r1, #1
10011948:	0a5d      	lsrs	r5, r3, #9
1001194a:	0fc3      	lsrs	r3, r0, #31
1001194c:	0248      	lsls	r0, r1, #9
1001194e:	0e12      	lsrs	r2, r2, #24
10011950:	0a46      	lsrs	r6, r0, #9
10011952:	0e24      	lsrs	r4, r4, #24
10011954:	0fc9      	lsrs	r1, r1, #31
10011956:	2aff      	cmp	r2, #255	; 0xff
10011958:	d00f      	beq.n	1001197a <__eqsf2+0x3a>
1001195a:	2cff      	cmp	r4, #255	; 0xff
1001195c:	d011      	beq.n	10011982 <__eqsf2+0x42>
1001195e:	2001      	movs	r0, #1
10011960:	42a2      	cmp	r2, r4
10011962:	d000      	beq.n	10011966 <__eqsf2+0x26>
10011964:	bd70      	pop	{r4, r5, r6, pc}
10011966:	42b5      	cmp	r5, r6
10011968:	d1fc      	bne.n	10011964 <__eqsf2+0x24>
1001196a:	428b      	cmp	r3, r1
1001196c:	d00d      	beq.n	1001198a <__eqsf2+0x4a>
1001196e:	2a00      	cmp	r2, #0
10011970:	d1f8      	bne.n	10011964 <__eqsf2+0x24>
10011972:	0028      	movs	r0, r5
10011974:	1e43      	subs	r3, r0, #1
10011976:	4198      	sbcs	r0, r3
10011978:	e7f4      	b.n	10011964 <__eqsf2+0x24>
1001197a:	2001      	movs	r0, #1
1001197c:	2d00      	cmp	r5, #0
1001197e:	d1f1      	bne.n	10011964 <__eqsf2+0x24>
10011980:	e7eb      	b.n	1001195a <__eqsf2+0x1a>
10011982:	2001      	movs	r0, #1
10011984:	2e00      	cmp	r6, #0
10011986:	d1ed      	bne.n	10011964 <__eqsf2+0x24>
10011988:	e7e9      	b.n	1001195e <__eqsf2+0x1e>
1001198a:	2000      	movs	r0, #0
1001198c:	e7ea      	b.n	10011964 <__eqsf2+0x24>
1001198e:	46c0      	nop			; (mov r8, r8)

10011990 <__gesf2>:
10011990:	0243      	lsls	r3, r0, #9
10011992:	b5f0      	push	{r4, r5, r6, r7, lr}
10011994:	0042      	lsls	r2, r0, #1
10011996:	0a5d      	lsrs	r5, r3, #9
10011998:	0fc3      	lsrs	r3, r0, #31
1001199a:	0248      	lsls	r0, r1, #9
1001199c:	0a44      	lsrs	r4, r0, #9
1001199e:	0048      	lsls	r0, r1, #1
100119a0:	0e12      	lsrs	r2, r2, #24
100119a2:	0e00      	lsrs	r0, r0, #24
100119a4:	0fc9      	lsrs	r1, r1, #31
100119a6:	2aff      	cmp	r2, #255	; 0xff
100119a8:	d01f      	beq.n	100119ea <__gesf2+0x5a>
100119aa:	28ff      	cmp	r0, #255	; 0xff
100119ac:	d022      	beq.n	100119f4 <__gesf2+0x64>
100119ae:	2a00      	cmp	r2, #0
100119b0:	d109      	bne.n	100119c6 <__gesf2+0x36>
100119b2:	426e      	negs	r6, r5
100119b4:	416e      	adcs	r6, r5
100119b6:	2800      	cmp	r0, #0
100119b8:	d10f      	bne.n	100119da <__gesf2+0x4a>
100119ba:	2c00      	cmp	r4, #0
100119bc:	d10d      	bne.n	100119da <__gesf2+0x4a>
100119be:	2000      	movs	r0, #0
100119c0:	2d00      	cmp	r5, #0
100119c2:	d009      	beq.n	100119d8 <__gesf2+0x48>
100119c4:	e005      	b.n	100119d2 <__gesf2+0x42>
100119c6:	2800      	cmp	r0, #0
100119c8:	d101      	bne.n	100119ce <__gesf2+0x3e>
100119ca:	2c00      	cmp	r4, #0
100119cc:	d001      	beq.n	100119d2 <__gesf2+0x42>
100119ce:	428b      	cmp	r3, r1
100119d0:	d013      	beq.n	100119fa <__gesf2+0x6a>
100119d2:	4258      	negs	r0, r3
100119d4:	2301      	movs	r3, #1
100119d6:	4318      	orrs	r0, r3
100119d8:	bdf0      	pop	{r4, r5, r6, r7, pc}
100119da:	2e00      	cmp	r6, #0
100119dc:	d0f7      	beq.n	100119ce <__gesf2+0x3e>
100119de:	4248      	negs	r0, r1
100119e0:	4141      	adcs	r1, r0
100119e2:	2001      	movs	r0, #1
100119e4:	4249      	negs	r1, r1
100119e6:	4308      	orrs	r0, r1
100119e8:	e7f6      	b.n	100119d8 <__gesf2+0x48>
100119ea:	2d00      	cmp	r5, #0
100119ec:	d0dd      	beq.n	100119aa <__gesf2+0x1a>
100119ee:	2002      	movs	r0, #2
100119f0:	4240      	negs	r0, r0
100119f2:	e7f1      	b.n	100119d8 <__gesf2+0x48>
100119f4:	2c00      	cmp	r4, #0
100119f6:	d0da      	beq.n	100119ae <__gesf2+0x1e>
100119f8:	e7f9      	b.n	100119ee <__gesf2+0x5e>
100119fa:	4282      	cmp	r2, r0
100119fc:	dce9      	bgt.n	100119d2 <__gesf2+0x42>
100119fe:	db04      	blt.n	10011a0a <__gesf2+0x7a>
10011a00:	42a5      	cmp	r5, r4
10011a02:	d8e6      	bhi.n	100119d2 <__gesf2+0x42>
10011a04:	2000      	movs	r0, #0
10011a06:	42a5      	cmp	r5, r4
10011a08:	d2e6      	bcs.n	100119d8 <__gesf2+0x48>
10011a0a:	4258      	negs	r0, r3
10011a0c:	4143      	adcs	r3, r0
10011a0e:	2001      	movs	r0, #1
10011a10:	425b      	negs	r3, r3
10011a12:	4318      	orrs	r0, r3
10011a14:	e7e0      	b.n	100119d8 <__gesf2+0x48>
10011a16:	46c0      	nop			; (mov r8, r8)

10011a18 <__lesf2>:
10011a18:	0243      	lsls	r3, r0, #9
10011a1a:	b5f0      	push	{r4, r5, r6, r7, lr}
10011a1c:	0042      	lsls	r2, r0, #1
10011a1e:	004c      	lsls	r4, r1, #1
10011a20:	0a5e      	lsrs	r6, r3, #9
10011a22:	0fc3      	lsrs	r3, r0, #31
10011a24:	0248      	lsls	r0, r1, #9
10011a26:	0e12      	lsrs	r2, r2, #24
10011a28:	0a45      	lsrs	r5, r0, #9
10011a2a:	0e24      	lsrs	r4, r4, #24
10011a2c:	0fc9      	lsrs	r1, r1, #31
10011a2e:	2aff      	cmp	r2, #255	; 0xff
10011a30:	d017      	beq.n	10011a62 <__lesf2+0x4a>
10011a32:	2cff      	cmp	r4, #255	; 0xff
10011a34:	d019      	beq.n	10011a6a <__lesf2+0x52>
10011a36:	2a00      	cmp	r2, #0
10011a38:	d10b      	bne.n	10011a52 <__lesf2+0x3a>
10011a3a:	4270      	negs	r0, r6
10011a3c:	4170      	adcs	r0, r6
10011a3e:	2c00      	cmp	r4, #0
10011a40:	d017      	beq.n	10011a72 <__lesf2+0x5a>
10011a42:	2800      	cmp	r0, #0
10011a44:	d007      	beq.n	10011a56 <__lesf2+0x3e>
10011a46:	4248      	negs	r0, r1
10011a48:	4141      	adcs	r1, r0
10011a4a:	2001      	movs	r0, #1
10011a4c:	4249      	negs	r1, r1
10011a4e:	4308      	orrs	r0, r1
10011a50:	bdf0      	pop	{r4, r5, r6, r7, pc}
10011a52:	2c00      	cmp	r4, #0
10011a54:	d013      	beq.n	10011a7e <__lesf2+0x66>
10011a56:	428b      	cmp	r3, r1
10011a58:	d014      	beq.n	10011a84 <__lesf2+0x6c>
10011a5a:	4258      	negs	r0, r3
10011a5c:	2301      	movs	r3, #1
10011a5e:	4318      	orrs	r0, r3
10011a60:	e7f6      	b.n	10011a50 <__lesf2+0x38>
10011a62:	2002      	movs	r0, #2
10011a64:	2e00      	cmp	r6, #0
10011a66:	d1f3      	bne.n	10011a50 <__lesf2+0x38>
10011a68:	e7e3      	b.n	10011a32 <__lesf2+0x1a>
10011a6a:	2002      	movs	r0, #2
10011a6c:	2d00      	cmp	r5, #0
10011a6e:	d1ef      	bne.n	10011a50 <__lesf2+0x38>
10011a70:	e7e1      	b.n	10011a36 <__lesf2+0x1e>
10011a72:	2d00      	cmp	r5, #0
10011a74:	d1e5      	bne.n	10011a42 <__lesf2+0x2a>
10011a76:	2000      	movs	r0, #0
10011a78:	2e00      	cmp	r6, #0
10011a7a:	d0e9      	beq.n	10011a50 <__lesf2+0x38>
10011a7c:	e7ed      	b.n	10011a5a <__lesf2+0x42>
10011a7e:	2d00      	cmp	r5, #0
10011a80:	d1e9      	bne.n	10011a56 <__lesf2+0x3e>
10011a82:	e7ea      	b.n	10011a5a <__lesf2+0x42>
10011a84:	42a2      	cmp	r2, r4
10011a86:	dce8      	bgt.n	10011a5a <__lesf2+0x42>
10011a88:	db04      	blt.n	10011a94 <__lesf2+0x7c>
10011a8a:	42ae      	cmp	r6, r5
10011a8c:	d8e5      	bhi.n	10011a5a <__lesf2+0x42>
10011a8e:	2000      	movs	r0, #0
10011a90:	42ae      	cmp	r6, r5
10011a92:	d2dd      	bcs.n	10011a50 <__lesf2+0x38>
10011a94:	4258      	negs	r0, r3
10011a96:	4143      	adcs	r3, r0
10011a98:	2001      	movs	r0, #1
10011a9a:	425b      	negs	r3, r3
10011a9c:	4318      	orrs	r0, r3
10011a9e:	e7d7      	b.n	10011a50 <__lesf2+0x38>

10011aa0 <__aeabi_fmul>:
10011aa0:	b5f0      	push	{r4, r5, r6, r7, lr}
10011aa2:	4657      	mov	r7, sl
10011aa4:	464e      	mov	r6, r9
10011aa6:	4645      	mov	r5, r8
10011aa8:	0043      	lsls	r3, r0, #1
10011aaa:	b4e0      	push	{r5, r6, r7}
10011aac:	0246      	lsls	r6, r0, #9
10011aae:	4688      	mov	r8, r1
10011ab0:	0a76      	lsrs	r6, r6, #9
10011ab2:	0e1f      	lsrs	r7, r3, #24
10011ab4:	0fc4      	lsrs	r4, r0, #31
10011ab6:	2f00      	cmp	r7, #0
10011ab8:	d047      	beq.n	10011b4a <__aeabi_fmul+0xaa>
10011aba:	2fff      	cmp	r7, #255	; 0xff
10011abc:	d025      	beq.n	10011b0a <__aeabi_fmul+0x6a>
10011abe:	2300      	movs	r3, #0
10011ac0:	2580      	movs	r5, #128	; 0x80
10011ac2:	469a      	mov	sl, r3
10011ac4:	4699      	mov	r9, r3
10011ac6:	00f6      	lsls	r6, r6, #3
10011ac8:	04ed      	lsls	r5, r5, #19
10011aca:	432e      	orrs	r6, r5
10011acc:	3f7f      	subs	r7, #127	; 0x7f
10011ace:	4643      	mov	r3, r8
10011ad0:	4642      	mov	r2, r8
10011ad2:	025d      	lsls	r5, r3, #9
10011ad4:	0fd2      	lsrs	r2, r2, #31
10011ad6:	005b      	lsls	r3, r3, #1
10011ad8:	0a6d      	lsrs	r5, r5, #9
10011ada:	0e1b      	lsrs	r3, r3, #24
10011adc:	4690      	mov	r8, r2
10011ade:	d040      	beq.n	10011b62 <__aeabi_fmul+0xc2>
10011ae0:	2bff      	cmp	r3, #255	; 0xff
10011ae2:	d039      	beq.n	10011b58 <__aeabi_fmul+0xb8>
10011ae4:	2280      	movs	r2, #128	; 0x80
10011ae6:	2000      	movs	r0, #0
10011ae8:	00ed      	lsls	r5, r5, #3
10011aea:	04d2      	lsls	r2, r2, #19
10011aec:	4315      	orrs	r5, r2
10011aee:	3b7f      	subs	r3, #127	; 0x7f
10011af0:	18fb      	adds	r3, r7, r3
10011af2:	4642      	mov	r2, r8
10011af4:	4657      	mov	r7, sl
10011af6:	1c59      	adds	r1, r3, #1
10011af8:	4062      	eors	r2, r4
10011afa:	468c      	mov	ip, r1
10011afc:	4307      	orrs	r7, r0
10011afe:	2f0f      	cmp	r7, #15
10011b00:	d85c      	bhi.n	10011bbc <__aeabi_fmul+0x11c>
10011b02:	496f      	ldr	r1, [pc, #444]	; (10011cc0 <__aeabi_fmul+0x220>)
10011b04:	00bf      	lsls	r7, r7, #2
10011b06:	59c9      	ldr	r1, [r1, r7]
10011b08:	468f      	mov	pc, r1
10011b0a:	2e00      	cmp	r6, #0
10011b0c:	d145      	bne.n	10011b9a <__aeabi_fmul+0xfa>
10011b0e:	2308      	movs	r3, #8
10011b10:	469a      	mov	sl, r3
10011b12:	3b06      	subs	r3, #6
10011b14:	4699      	mov	r9, r3
10011b16:	e7da      	b.n	10011ace <__aeabi_fmul+0x2e>
10011b18:	4642      	mov	r2, r8
10011b1a:	2802      	cmp	r0, #2
10011b1c:	d02d      	beq.n	10011b7a <__aeabi_fmul+0xda>
10011b1e:	2803      	cmp	r0, #3
10011b20:	d100      	bne.n	10011b24 <__aeabi_fmul+0x84>
10011b22:	e0c3      	b.n	10011cac <__aeabi_fmul+0x20c>
10011b24:	2801      	cmp	r0, #1
10011b26:	d000      	beq.n	10011b2a <__aeabi_fmul+0x8a>
10011b28:	e0a2      	b.n	10011c70 <__aeabi_fmul+0x1d0>
10011b2a:	2500      	movs	r5, #0
10011b2c:	2600      	movs	r6, #0
10011b2e:	4002      	ands	r2, r0
10011b30:	b2d4      	uxtb	r4, r2
10011b32:	0276      	lsls	r6, r6, #9
10011b34:	05ed      	lsls	r5, r5, #23
10011b36:	0a76      	lsrs	r6, r6, #9
10011b38:	432e      	orrs	r6, r5
10011b3a:	07e4      	lsls	r4, r4, #31
10011b3c:	4326      	orrs	r6, r4
10011b3e:	0030      	movs	r0, r6
10011b40:	bc1c      	pop	{r2, r3, r4}
10011b42:	4690      	mov	r8, r2
10011b44:	4699      	mov	r9, r3
10011b46:	46a2      	mov	sl, r4
10011b48:	bdf0      	pop	{r4, r5, r6, r7, pc}
10011b4a:	2e00      	cmp	r6, #0
10011b4c:	d11a      	bne.n	10011b84 <__aeabi_fmul+0xe4>
10011b4e:	2304      	movs	r3, #4
10011b50:	469a      	mov	sl, r3
10011b52:	3b03      	subs	r3, #3
10011b54:	4699      	mov	r9, r3
10011b56:	e7ba      	b.n	10011ace <__aeabi_fmul+0x2e>
10011b58:	002a      	movs	r2, r5
10011b5a:	1e51      	subs	r1, r2, #1
10011b5c:	418a      	sbcs	r2, r1
10011b5e:	1c90      	adds	r0, r2, #2
10011b60:	e7c6      	b.n	10011af0 <__aeabi_fmul+0x50>
10011b62:	2001      	movs	r0, #1
10011b64:	2d00      	cmp	r5, #0
10011b66:	d0c3      	beq.n	10011af0 <__aeabi_fmul+0x50>
10011b68:	0028      	movs	r0, r5
10011b6a:	f001 f9dd 	bl	10012f28 <__clzsi2>
10011b6e:	1f43      	subs	r3, r0, #5
10011b70:	3076      	adds	r0, #118	; 0x76
10011b72:	409d      	lsls	r5, r3
10011b74:	4243      	negs	r3, r0
10011b76:	2000      	movs	r0, #0
10011b78:	e7ba      	b.n	10011af0 <__aeabi_fmul+0x50>
10011b7a:	2401      	movs	r4, #1
10011b7c:	25ff      	movs	r5, #255	; 0xff
10011b7e:	4014      	ands	r4, r2
10011b80:	2600      	movs	r6, #0
10011b82:	e7d6      	b.n	10011b32 <__aeabi_fmul+0x92>
10011b84:	0030      	movs	r0, r6
10011b86:	f001 f9cf 	bl	10012f28 <__clzsi2>
10011b8a:	1f43      	subs	r3, r0, #5
10011b8c:	409e      	lsls	r6, r3
10011b8e:	2300      	movs	r3, #0
10011b90:	3076      	adds	r0, #118	; 0x76
10011b92:	4247      	negs	r7, r0
10011b94:	469a      	mov	sl, r3
10011b96:	4699      	mov	r9, r3
10011b98:	e799      	b.n	10011ace <__aeabi_fmul+0x2e>
10011b9a:	230c      	movs	r3, #12
10011b9c:	469a      	mov	sl, r3
10011b9e:	3b09      	subs	r3, #9
10011ba0:	4699      	mov	r9, r3
10011ba2:	e794      	b.n	10011ace <__aeabi_fmul+0x2e>
10011ba4:	2680      	movs	r6, #128	; 0x80
10011ba6:	2400      	movs	r4, #0
10011ba8:	03f6      	lsls	r6, r6, #15
10011baa:	25ff      	movs	r5, #255	; 0xff
10011bac:	e7c1      	b.n	10011b32 <__aeabi_fmul+0x92>
10011bae:	0035      	movs	r5, r6
10011bb0:	4648      	mov	r0, r9
10011bb2:	e7b2      	b.n	10011b1a <__aeabi_fmul+0x7a>
10011bb4:	0035      	movs	r5, r6
10011bb6:	0022      	movs	r2, r4
10011bb8:	4648      	mov	r0, r9
10011bba:	e7ae      	b.n	10011b1a <__aeabi_fmul+0x7a>
10011bbc:	0429      	lsls	r1, r5, #16
10011bbe:	0c09      	lsrs	r1, r1, #16
10011bc0:	0008      	movs	r0, r1
10011bc2:	0c37      	lsrs	r7, r6, #16
10011bc4:	0436      	lsls	r6, r6, #16
10011bc6:	0c36      	lsrs	r6, r6, #16
10011bc8:	0c2c      	lsrs	r4, r5, #16
10011bca:	4379      	muls	r1, r7
10011bcc:	4370      	muls	r0, r6
10011bce:	4367      	muls	r7, r4
10011bd0:	4374      	muls	r4, r6
10011bd2:	0c06      	lsrs	r6, r0, #16
10011bd4:	1864      	adds	r4, r4, r1
10011bd6:	1936      	adds	r6, r6, r4
10011bd8:	42b1      	cmp	r1, r6
10011bda:	d903      	bls.n	10011be4 <__aeabi_fmul+0x144>
10011bdc:	2180      	movs	r1, #128	; 0x80
10011bde:	0249      	lsls	r1, r1, #9
10011be0:	4688      	mov	r8, r1
10011be2:	4447      	add	r7, r8
10011be4:	0400      	lsls	r0, r0, #16
10011be6:	0c00      	lsrs	r0, r0, #16
10011be8:	0431      	lsls	r1, r6, #16
10011bea:	1809      	adds	r1, r1, r0
10011bec:	018d      	lsls	r5, r1, #6
10011bee:	1e68      	subs	r0, r5, #1
10011bf0:	4185      	sbcs	r5, r0
10011bf2:	0e89      	lsrs	r1, r1, #26
10011bf4:	4329      	orrs	r1, r5
10011bf6:	0c35      	lsrs	r5, r6, #16
10011bf8:	19ed      	adds	r5, r5, r7
10011bfa:	01ad      	lsls	r5, r5, #6
10011bfc:	430d      	orrs	r5, r1
10011bfe:	0129      	lsls	r1, r5, #4
10011c00:	d504      	bpl.n	10011c0c <__aeabi_fmul+0x16c>
10011c02:	2301      	movs	r3, #1
10011c04:	0869      	lsrs	r1, r5, #1
10011c06:	401d      	ands	r5, r3
10011c08:	4663      	mov	r3, ip
10011c0a:	430d      	orrs	r5, r1
10011c0c:	0019      	movs	r1, r3
10011c0e:	317f      	adds	r1, #127	; 0x7f
10011c10:	2900      	cmp	r1, #0
10011c12:	dd25      	ble.n	10011c60 <__aeabi_fmul+0x1c0>
10011c14:	0768      	lsls	r0, r5, #29
10011c16:	d004      	beq.n	10011c22 <__aeabi_fmul+0x182>
10011c18:	200f      	movs	r0, #15
10011c1a:	4028      	ands	r0, r5
10011c1c:	2804      	cmp	r0, #4
10011c1e:	d000      	beq.n	10011c22 <__aeabi_fmul+0x182>
10011c20:	3504      	adds	r5, #4
10011c22:	0128      	lsls	r0, r5, #4
10011c24:	d503      	bpl.n	10011c2e <__aeabi_fmul+0x18e>
10011c26:	4927      	ldr	r1, [pc, #156]	; (10011cc4 <__aeabi_fmul+0x224>)
10011c28:	3380      	adds	r3, #128	; 0x80
10011c2a:	400d      	ands	r5, r1
10011c2c:	0019      	movs	r1, r3
10011c2e:	29fe      	cmp	r1, #254	; 0xfe
10011c30:	dca3      	bgt.n	10011b7a <__aeabi_fmul+0xda>
10011c32:	2401      	movs	r4, #1
10011c34:	01ad      	lsls	r5, r5, #6
10011c36:	0a6e      	lsrs	r6, r5, #9
10011c38:	4014      	ands	r4, r2
10011c3a:	b2cd      	uxtb	r5, r1
10011c3c:	e779      	b.n	10011b32 <__aeabi_fmul+0x92>
10011c3e:	2080      	movs	r0, #128	; 0x80
10011c40:	03c0      	lsls	r0, r0, #15
10011c42:	4206      	tst	r6, r0
10011c44:	d007      	beq.n	10011c56 <__aeabi_fmul+0x1b6>
10011c46:	4205      	tst	r5, r0
10011c48:	d105      	bne.n	10011c56 <__aeabi_fmul+0x1b6>
10011c4a:	4328      	orrs	r0, r5
10011c4c:	0246      	lsls	r6, r0, #9
10011c4e:	0a76      	lsrs	r6, r6, #9
10011c50:	4644      	mov	r4, r8
10011c52:	25ff      	movs	r5, #255	; 0xff
10011c54:	e76d      	b.n	10011b32 <__aeabi_fmul+0x92>
10011c56:	4306      	orrs	r6, r0
10011c58:	0276      	lsls	r6, r6, #9
10011c5a:	0a76      	lsrs	r6, r6, #9
10011c5c:	25ff      	movs	r5, #255	; 0xff
10011c5e:	e768      	b.n	10011b32 <__aeabi_fmul+0x92>
10011c60:	2401      	movs	r4, #1
10011c62:	1a61      	subs	r1, r4, r1
10011c64:	291b      	cmp	r1, #27
10011c66:	dd05      	ble.n	10011c74 <__aeabi_fmul+0x1d4>
10011c68:	4014      	ands	r4, r2
10011c6a:	2500      	movs	r5, #0
10011c6c:	2600      	movs	r6, #0
10011c6e:	e760      	b.n	10011b32 <__aeabi_fmul+0x92>
10011c70:	4663      	mov	r3, ip
10011c72:	e7cb      	b.n	10011c0c <__aeabi_fmul+0x16c>
10011c74:	002e      	movs	r6, r5
10011c76:	2320      	movs	r3, #32
10011c78:	40ce      	lsrs	r6, r1
10011c7a:	1a59      	subs	r1, r3, r1
10011c7c:	408d      	lsls	r5, r1
10011c7e:	1e6b      	subs	r3, r5, #1
10011c80:	419d      	sbcs	r5, r3
10011c82:	432e      	orrs	r6, r5
10011c84:	0773      	lsls	r3, r6, #29
10011c86:	d004      	beq.n	10011c92 <__aeabi_fmul+0x1f2>
10011c88:	230f      	movs	r3, #15
10011c8a:	4033      	ands	r3, r6
10011c8c:	2b04      	cmp	r3, #4
10011c8e:	d000      	beq.n	10011c92 <__aeabi_fmul+0x1f2>
10011c90:	3604      	adds	r6, #4
10011c92:	0173      	lsls	r3, r6, #5
10011c94:	d504      	bpl.n	10011ca0 <__aeabi_fmul+0x200>
10011c96:	2401      	movs	r4, #1
10011c98:	2501      	movs	r5, #1
10011c9a:	4014      	ands	r4, r2
10011c9c:	2600      	movs	r6, #0
10011c9e:	e748      	b.n	10011b32 <__aeabi_fmul+0x92>
10011ca0:	2401      	movs	r4, #1
10011ca2:	01b6      	lsls	r6, r6, #6
10011ca4:	0a76      	lsrs	r6, r6, #9
10011ca6:	4014      	ands	r4, r2
10011ca8:	2500      	movs	r5, #0
10011caa:	e742      	b.n	10011b32 <__aeabi_fmul+0x92>
10011cac:	2680      	movs	r6, #128	; 0x80
10011cae:	2401      	movs	r4, #1
10011cb0:	03f6      	lsls	r6, r6, #15
10011cb2:	432e      	orrs	r6, r5
10011cb4:	0276      	lsls	r6, r6, #9
10011cb6:	0a76      	lsrs	r6, r6, #9
10011cb8:	4014      	ands	r4, r2
10011cba:	25ff      	movs	r5, #255	; 0xff
10011cbc:	e739      	b.n	10011b32 <__aeabi_fmul+0x92>
10011cbe:	46c0      	nop			; (mov r8, r8)
10011cc0:	10014698 	.word	0x10014698
10011cc4:	f7ffffff 	.word	0xf7ffffff

10011cc8 <__aeabi_fsub>:
10011cc8:	b5f8      	push	{r3, r4, r5, r6, r7, lr}
10011cca:	024a      	lsls	r2, r1, #9
10011ccc:	004e      	lsls	r6, r1, #1
10011cce:	0243      	lsls	r3, r0, #9
10011cd0:	0044      	lsls	r4, r0, #1
10011cd2:	0e24      	lsrs	r4, r4, #24
10011cd4:	0fc5      	lsrs	r5, r0, #31
10011cd6:	099b      	lsrs	r3, r3, #6
10011cd8:	0e36      	lsrs	r6, r6, #24
10011cda:	0fc9      	lsrs	r1, r1, #31
10011cdc:	0992      	lsrs	r2, r2, #6
10011cde:	2eff      	cmp	r6, #255	; 0xff
10011ce0:	d100      	bne.n	10011ce4 <__aeabi_fsub+0x1c>
10011ce2:	e083      	b.n	10011dec <__aeabi_fsub+0x124>
10011ce4:	2001      	movs	r0, #1
10011ce6:	4041      	eors	r1, r0
10011ce8:	1ba0      	subs	r0, r4, r6
10011cea:	42a9      	cmp	r1, r5
10011cec:	d05c      	beq.n	10011da8 <__aeabi_fsub+0xe0>
10011cee:	2800      	cmp	r0, #0
10011cf0:	dc00      	bgt.n	10011cf4 <__aeabi_fsub+0x2c>
10011cf2:	e095      	b.n	10011e20 <__aeabi_fsub+0x158>
10011cf4:	2e00      	cmp	r6, #0
10011cf6:	d11c      	bne.n	10011d32 <__aeabi_fsub+0x6a>
10011cf8:	2a00      	cmp	r2, #0
10011cfa:	d000      	beq.n	10011cfe <__aeabi_fsub+0x36>
10011cfc:	e081      	b.n	10011e02 <__aeabi_fsub+0x13a>
10011cfe:	075a      	lsls	r2, r3, #29
10011d00:	d004      	beq.n	10011d0c <__aeabi_fsub+0x44>
10011d02:	220f      	movs	r2, #15
10011d04:	401a      	ands	r2, r3
10011d06:	2a04      	cmp	r2, #4
10011d08:	d000      	beq.n	10011d0c <__aeabi_fsub+0x44>
10011d0a:	3304      	adds	r3, #4
10011d0c:	015a      	lsls	r2, r3, #5
10011d0e:	d53b      	bpl.n	10011d88 <__aeabi_fsub+0xc0>
10011d10:	3401      	adds	r4, #1
10011d12:	2cff      	cmp	r4, #255	; 0xff
10011d14:	d100      	bne.n	10011d18 <__aeabi_fsub+0x50>
10011d16:	e091      	b.n	10011e3c <__aeabi_fsub+0x174>
10011d18:	2001      	movs	r0, #1
10011d1a:	019b      	lsls	r3, r3, #6
10011d1c:	0a5b      	lsrs	r3, r3, #9
10011d1e:	b2e4      	uxtb	r4, r4
10011d20:	4005      	ands	r5, r0
10011d22:	025b      	lsls	r3, r3, #9
10011d24:	05e4      	lsls	r4, r4, #23
10011d26:	0a5b      	lsrs	r3, r3, #9
10011d28:	07ed      	lsls	r5, r5, #31
10011d2a:	4323      	orrs	r3, r4
10011d2c:	432b      	orrs	r3, r5
10011d2e:	0018      	movs	r0, r3
10011d30:	bdf8      	pop	{r3, r4, r5, r6, r7, pc}
10011d32:	2cff      	cmp	r4, #255	; 0xff
10011d34:	d0e3      	beq.n	10011cfe <__aeabi_fsub+0x36>
10011d36:	2180      	movs	r1, #128	; 0x80
10011d38:	04c9      	lsls	r1, r1, #19
10011d3a:	430a      	orrs	r2, r1
10011d3c:	281b      	cmp	r0, #27
10011d3e:	dd00      	ble.n	10011d42 <__aeabi_fsub+0x7a>
10011d40:	e090      	b.n	10011e64 <__aeabi_fsub+0x19c>
10011d42:	0016      	movs	r6, r2
10011d44:	2120      	movs	r1, #32
10011d46:	40c6      	lsrs	r6, r0
10011d48:	1a08      	subs	r0, r1, r0
10011d4a:	4082      	lsls	r2, r0
10011d4c:	1e51      	subs	r1, r2, #1
10011d4e:	418a      	sbcs	r2, r1
10011d50:	4332      	orrs	r2, r6
10011d52:	1a9b      	subs	r3, r3, r2
10011d54:	015a      	lsls	r2, r3, #5
10011d56:	d515      	bpl.n	10011d84 <__aeabi_fsub+0xbc>
10011d58:	019b      	lsls	r3, r3, #6
10011d5a:	099e      	lsrs	r6, r3, #6
10011d5c:	0030      	movs	r0, r6
10011d5e:	f001 f8e3 	bl	10012f28 <__clzsi2>
10011d62:	3805      	subs	r0, #5
10011d64:	4086      	lsls	r6, r0
10011d66:	4284      	cmp	r4, r0
10011d68:	dc6c      	bgt.n	10011e44 <__aeabi_fsub+0x17c>
10011d6a:	1b04      	subs	r4, r0, r4
10011d6c:	0033      	movs	r3, r6
10011d6e:	2020      	movs	r0, #32
10011d70:	3401      	adds	r4, #1
10011d72:	40e3      	lsrs	r3, r4
10011d74:	1b04      	subs	r4, r0, r4
10011d76:	40a6      	lsls	r6, r4
10011d78:	1e72      	subs	r2, r6, #1
10011d7a:	4196      	sbcs	r6, r2
10011d7c:	2400      	movs	r4, #0
10011d7e:	4333      	orrs	r3, r6
10011d80:	e7bd      	b.n	10011cfe <__aeabi_fsub+0x36>
10011d82:	000d      	movs	r5, r1
10011d84:	075a      	lsls	r2, r3, #29
10011d86:	d1bc      	bne.n	10011d02 <__aeabi_fsub+0x3a>
10011d88:	08df      	lsrs	r7, r3, #3
10011d8a:	2301      	movs	r3, #1
10011d8c:	401d      	ands	r5, r3
10011d8e:	2cff      	cmp	r4, #255	; 0xff
10011d90:	d133      	bne.n	10011dfa <__aeabi_fsub+0x132>
10011d92:	2f00      	cmp	r7, #0
10011d94:	d100      	bne.n	10011d98 <__aeabi_fsub+0xd0>
10011d96:	e090      	b.n	10011eba <__aeabi_fsub+0x1f2>
10011d98:	2280      	movs	r2, #128	; 0x80
10011d9a:	03d2      	lsls	r2, r2, #15
10011d9c:	0013      	movs	r3, r2
10011d9e:	433b      	orrs	r3, r7
10011da0:	025b      	lsls	r3, r3, #9
10011da2:	0a5b      	lsrs	r3, r3, #9
10011da4:	24ff      	movs	r4, #255	; 0xff
10011da6:	e7bc      	b.n	10011d22 <__aeabi_fsub+0x5a>
10011da8:	2800      	cmp	r0, #0
10011daa:	dd4f      	ble.n	10011e4c <__aeabi_fsub+0x184>
10011dac:	2e00      	cmp	r6, #0
10011dae:	d02e      	beq.n	10011e0e <__aeabi_fsub+0x146>
10011db0:	2cff      	cmp	r4, #255	; 0xff
10011db2:	d0a4      	beq.n	10011cfe <__aeabi_fsub+0x36>
10011db4:	2580      	movs	r5, #128	; 0x80
10011db6:	04ed      	lsls	r5, r5, #19
10011db8:	432a      	orrs	r2, r5
10011dba:	281b      	cmp	r0, #27
10011dbc:	dd00      	ble.n	10011dc0 <__aeabi_fsub+0xf8>
10011dbe:	e097      	b.n	10011ef0 <__aeabi_fsub+0x228>
10011dc0:	0016      	movs	r6, r2
10011dc2:	2520      	movs	r5, #32
10011dc4:	40c6      	lsrs	r6, r0
10011dc6:	1a28      	subs	r0, r5, r0
10011dc8:	4082      	lsls	r2, r0
10011dca:	1e50      	subs	r0, r2, #1
10011dcc:	4182      	sbcs	r2, r0
10011dce:	4332      	orrs	r2, r6
10011dd0:	189b      	adds	r3, r3, r2
10011dd2:	015a      	lsls	r2, r3, #5
10011dd4:	d5d5      	bpl.n	10011d82 <__aeabi_fsub+0xba>
10011dd6:	3401      	adds	r4, #1
10011dd8:	2cff      	cmp	r4, #255	; 0xff
10011dda:	d06d      	beq.n	10011eb8 <__aeabi_fsub+0x1f0>
10011ddc:	2201      	movs	r2, #1
10011dde:	487b      	ldr	r0, [pc, #492]	; (10011fcc <__aeabi_fsub+0x304>)
10011de0:	401a      	ands	r2, r3
10011de2:	085b      	lsrs	r3, r3, #1
10011de4:	4003      	ands	r3, r0
10011de6:	4313      	orrs	r3, r2
10011de8:	000d      	movs	r5, r1
10011dea:	e788      	b.n	10011cfe <__aeabi_fsub+0x36>
10011dec:	2a00      	cmp	r2, #0
10011dee:	d000      	beq.n	10011df2 <__aeabi_fsub+0x12a>
10011df0:	e77a      	b.n	10011ce8 <__aeabi_fsub+0x20>
10011df2:	e777      	b.n	10011ce4 <__aeabi_fsub+0x1c>
10011df4:	1e03      	subs	r3, r0, #0
10011df6:	d1c5      	bne.n	10011d84 <__aeabi_fsub+0xbc>
10011df8:	2500      	movs	r5, #0
10011dfa:	027b      	lsls	r3, r7, #9
10011dfc:	0a5b      	lsrs	r3, r3, #9
10011dfe:	b2e4      	uxtb	r4, r4
10011e00:	e78f      	b.n	10011d22 <__aeabi_fsub+0x5a>
10011e02:	3801      	subs	r0, #1
10011e04:	2800      	cmp	r0, #0
10011e06:	d0a4      	beq.n	10011d52 <__aeabi_fsub+0x8a>
10011e08:	2cff      	cmp	r4, #255	; 0xff
10011e0a:	d197      	bne.n	10011d3c <__aeabi_fsub+0x74>
10011e0c:	e777      	b.n	10011cfe <__aeabi_fsub+0x36>
10011e0e:	2a00      	cmp	r2, #0
10011e10:	d100      	bne.n	10011e14 <__aeabi_fsub+0x14c>
10011e12:	e774      	b.n	10011cfe <__aeabi_fsub+0x36>
10011e14:	3801      	subs	r0, #1
10011e16:	2800      	cmp	r0, #0
10011e18:	d0da      	beq.n	10011dd0 <__aeabi_fsub+0x108>
10011e1a:	2cff      	cmp	r4, #255	; 0xff
10011e1c:	d1cd      	bne.n	10011dba <__aeabi_fsub+0xf2>
10011e1e:	e76e      	b.n	10011cfe <__aeabi_fsub+0x36>
10011e20:	2800      	cmp	r0, #0
10011e22:	d121      	bne.n	10011e68 <__aeabi_fsub+0x1a0>
10011e24:	1c60      	adds	r0, r4, #1
10011e26:	b2c0      	uxtb	r0, r0
10011e28:	2801      	cmp	r0, #1
10011e2a:	dd58      	ble.n	10011ede <__aeabi_fsub+0x216>
10011e2c:	2780      	movs	r7, #128	; 0x80
10011e2e:	1a9e      	subs	r6, r3, r2
10011e30:	04ff      	lsls	r7, r7, #19
10011e32:	4037      	ands	r7, r6
10011e34:	d02f      	beq.n	10011e96 <__aeabi_fsub+0x1ce>
10011e36:	1ad6      	subs	r6, r2, r3
10011e38:	000d      	movs	r5, r1
10011e3a:	e78f      	b.n	10011d5c <__aeabi_fsub+0x94>
10011e3c:	2301      	movs	r3, #1
10011e3e:	401d      	ands	r5, r3
10011e40:	2300      	movs	r3, #0
10011e42:	e76e      	b.n	10011d22 <__aeabi_fsub+0x5a>
10011e44:	4b62      	ldr	r3, [pc, #392]	; (10011fd0 <__aeabi_fsub+0x308>)
10011e46:	1a24      	subs	r4, r4, r0
10011e48:	4033      	ands	r3, r6
10011e4a:	e758      	b.n	10011cfe <__aeabi_fsub+0x36>
10011e4c:	2800      	cmp	r0, #0
10011e4e:	d151      	bne.n	10011ef4 <__aeabi_fsub+0x22c>
10011e50:	1c60      	adds	r0, r4, #1
10011e52:	b2c6      	uxtb	r6, r0
10011e54:	2e01      	cmp	r6, #1
10011e56:	dd33      	ble.n	10011ec0 <__aeabi_fsub+0x1f8>
10011e58:	28ff      	cmp	r0, #255	; 0xff
10011e5a:	d02d      	beq.n	10011eb8 <__aeabi_fsub+0x1f0>
10011e5c:	189b      	adds	r3, r3, r2
10011e5e:	085b      	lsrs	r3, r3, #1
10011e60:	0004      	movs	r4, r0
10011e62:	e74c      	b.n	10011cfe <__aeabi_fsub+0x36>
10011e64:	2201      	movs	r2, #1
10011e66:	e774      	b.n	10011d52 <__aeabi_fsub+0x8a>
10011e68:	2c00      	cmp	r4, #0
10011e6a:	d01a      	beq.n	10011ea2 <__aeabi_fsub+0x1da>
10011e6c:	2eff      	cmp	r6, #255	; 0xff
10011e6e:	d01f      	beq.n	10011eb0 <__aeabi_fsub+0x1e8>
10011e70:	2480      	movs	r4, #128	; 0x80
10011e72:	04e4      	lsls	r4, r4, #19
10011e74:	4240      	negs	r0, r0
10011e76:	4323      	orrs	r3, r4
10011e78:	281b      	cmp	r0, #27
10011e7a:	dd00      	ble.n	10011e7e <__aeabi_fsub+0x1b6>
10011e7c:	e096      	b.n	10011fac <__aeabi_fsub+0x2e4>
10011e7e:	001d      	movs	r5, r3
10011e80:	2420      	movs	r4, #32
10011e82:	40c5      	lsrs	r5, r0
10011e84:	1a20      	subs	r0, r4, r0
10011e86:	4083      	lsls	r3, r0
10011e88:	1e58      	subs	r0, r3, #1
10011e8a:	4183      	sbcs	r3, r0
10011e8c:	432b      	orrs	r3, r5
10011e8e:	1ad3      	subs	r3, r2, r3
10011e90:	0034      	movs	r4, r6
10011e92:	000d      	movs	r5, r1
10011e94:	e75e      	b.n	10011d54 <__aeabi_fsub+0x8c>
10011e96:	2e00      	cmp	r6, #0
10011e98:	d000      	beq.n	10011e9c <__aeabi_fsub+0x1d4>
10011e9a:	e75f      	b.n	10011d5c <__aeabi_fsub+0x94>
10011e9c:	2500      	movs	r5, #0
10011e9e:	2400      	movs	r4, #0
10011ea0:	e7ab      	b.n	10011dfa <__aeabi_fsub+0x132>
10011ea2:	2b00      	cmp	r3, #0
10011ea4:	d044      	beq.n	10011f30 <__aeabi_fsub+0x268>
10011ea6:	43c0      	mvns	r0, r0
10011ea8:	2800      	cmp	r0, #0
10011eaa:	d0f0      	beq.n	10011e8e <__aeabi_fsub+0x1c6>
10011eac:	2eff      	cmp	r6, #255	; 0xff
10011eae:	d1e3      	bne.n	10011e78 <__aeabi_fsub+0x1b0>
10011eb0:	0013      	movs	r3, r2
10011eb2:	24ff      	movs	r4, #255	; 0xff
10011eb4:	000d      	movs	r5, r1
10011eb6:	e722      	b.n	10011cfe <__aeabi_fsub+0x36>
10011eb8:	000d      	movs	r5, r1
10011eba:	24ff      	movs	r4, #255	; 0xff
10011ebc:	2300      	movs	r3, #0
10011ebe:	e730      	b.n	10011d22 <__aeabi_fsub+0x5a>
10011ec0:	2c00      	cmp	r4, #0
10011ec2:	d15d      	bne.n	10011f80 <__aeabi_fsub+0x2b8>
10011ec4:	2b00      	cmp	r3, #0
10011ec6:	d07d      	beq.n	10011fc4 <__aeabi_fsub+0x2fc>
10011ec8:	2a00      	cmp	r2, #0
10011eca:	d100      	bne.n	10011ece <__aeabi_fsub+0x206>
10011ecc:	e717      	b.n	10011cfe <__aeabi_fsub+0x36>
10011ece:	189b      	adds	r3, r3, r2
10011ed0:	015a      	lsls	r2, r3, #5
10011ed2:	d400      	bmi.n	10011ed6 <__aeabi_fsub+0x20e>
10011ed4:	e756      	b.n	10011d84 <__aeabi_fsub+0xbc>
10011ed6:	4a3e      	ldr	r2, [pc, #248]	; (10011fd0 <__aeabi_fsub+0x308>)
10011ed8:	0004      	movs	r4, r0
10011eda:	4013      	ands	r3, r2
10011edc:	e70f      	b.n	10011cfe <__aeabi_fsub+0x36>
10011ede:	2c00      	cmp	r4, #0
10011ee0:	d11e      	bne.n	10011f20 <__aeabi_fsub+0x258>
10011ee2:	2b00      	cmp	r3, #0
10011ee4:	d12f      	bne.n	10011f46 <__aeabi_fsub+0x27e>
10011ee6:	2a00      	cmp	r2, #0
10011ee8:	d065      	beq.n	10011fb6 <__aeabi_fsub+0x2ee>
10011eea:	0013      	movs	r3, r2
10011eec:	000d      	movs	r5, r1
10011eee:	e706      	b.n	10011cfe <__aeabi_fsub+0x36>
10011ef0:	2201      	movs	r2, #1
10011ef2:	e76d      	b.n	10011dd0 <__aeabi_fsub+0x108>
10011ef4:	2c00      	cmp	r4, #0
10011ef6:	d11f      	bne.n	10011f38 <__aeabi_fsub+0x270>
10011ef8:	2b00      	cmp	r3, #0
10011efa:	d059      	beq.n	10011fb0 <__aeabi_fsub+0x2e8>
10011efc:	43c0      	mvns	r0, r0
10011efe:	2800      	cmp	r0, #0
10011f00:	d00b      	beq.n	10011f1a <__aeabi_fsub+0x252>
10011f02:	2eff      	cmp	r6, #255	; 0xff
10011f04:	d04f      	beq.n	10011fa6 <__aeabi_fsub+0x2de>
10011f06:	281b      	cmp	r0, #27
10011f08:	dc5e      	bgt.n	10011fc8 <__aeabi_fsub+0x300>
10011f0a:	001d      	movs	r5, r3
10011f0c:	2420      	movs	r4, #32
10011f0e:	40c5      	lsrs	r5, r0
10011f10:	1a20      	subs	r0, r4, r0
10011f12:	4083      	lsls	r3, r0
10011f14:	1e58      	subs	r0, r3, #1
10011f16:	4183      	sbcs	r3, r0
10011f18:	432b      	orrs	r3, r5
10011f1a:	189b      	adds	r3, r3, r2
10011f1c:	0034      	movs	r4, r6
10011f1e:	e758      	b.n	10011dd2 <__aeabi_fsub+0x10a>
10011f20:	2b00      	cmp	r3, #0
10011f22:	d11c      	bne.n	10011f5e <__aeabi_fsub+0x296>
10011f24:	2a00      	cmp	r2, #0
10011f26:	d049      	beq.n	10011fbc <__aeabi_fsub+0x2f4>
10011f28:	0013      	movs	r3, r2
10011f2a:	000d      	movs	r5, r1
10011f2c:	24ff      	movs	r4, #255	; 0xff
10011f2e:	e6e6      	b.n	10011cfe <__aeabi_fsub+0x36>
10011f30:	0013      	movs	r3, r2
10011f32:	0034      	movs	r4, r6
10011f34:	000d      	movs	r5, r1
10011f36:	e6e2      	b.n	10011cfe <__aeabi_fsub+0x36>
10011f38:	2eff      	cmp	r6, #255	; 0xff
10011f3a:	d034      	beq.n	10011fa6 <__aeabi_fsub+0x2de>
10011f3c:	2480      	movs	r4, #128	; 0x80
10011f3e:	04e4      	lsls	r4, r4, #19
10011f40:	4240      	negs	r0, r0
10011f42:	4323      	orrs	r3, r4
10011f44:	e7df      	b.n	10011f06 <__aeabi_fsub+0x23e>
10011f46:	2a00      	cmp	r2, #0
10011f48:	d100      	bne.n	10011f4c <__aeabi_fsub+0x284>
10011f4a:	e6d8      	b.n	10011cfe <__aeabi_fsub+0x36>
10011f4c:	2780      	movs	r7, #128	; 0x80
10011f4e:	1a98      	subs	r0, r3, r2
10011f50:	04ff      	lsls	r7, r7, #19
10011f52:	4007      	ands	r7, r0
10011f54:	d100      	bne.n	10011f58 <__aeabi_fsub+0x290>
10011f56:	e74d      	b.n	10011df4 <__aeabi_fsub+0x12c>
10011f58:	1ad3      	subs	r3, r2, r3
10011f5a:	000d      	movs	r5, r1
10011f5c:	e6cf      	b.n	10011cfe <__aeabi_fsub+0x36>
10011f5e:	24ff      	movs	r4, #255	; 0xff
10011f60:	2a00      	cmp	r2, #0
10011f62:	d100      	bne.n	10011f66 <__aeabi_fsub+0x29e>
10011f64:	e6cb      	b.n	10011cfe <__aeabi_fsub+0x36>
10011f66:	2080      	movs	r0, #128	; 0x80
10011f68:	08db      	lsrs	r3, r3, #3
10011f6a:	03c0      	lsls	r0, r0, #15
10011f6c:	4203      	tst	r3, r0
10011f6e:	d004      	beq.n	10011f7a <__aeabi_fsub+0x2b2>
10011f70:	08d2      	lsrs	r2, r2, #3
10011f72:	4202      	tst	r2, r0
10011f74:	d101      	bne.n	10011f7a <__aeabi_fsub+0x2b2>
10011f76:	0013      	movs	r3, r2
10011f78:	000d      	movs	r5, r1
10011f7a:	00db      	lsls	r3, r3, #3
10011f7c:	24ff      	movs	r4, #255	; 0xff
10011f7e:	e6be      	b.n	10011cfe <__aeabi_fsub+0x36>
10011f80:	2b00      	cmp	r3, #0
10011f82:	d010      	beq.n	10011fa6 <__aeabi_fsub+0x2de>
10011f84:	24ff      	movs	r4, #255	; 0xff
10011f86:	2a00      	cmp	r2, #0
10011f88:	d100      	bne.n	10011f8c <__aeabi_fsub+0x2c4>
10011f8a:	e6b8      	b.n	10011cfe <__aeabi_fsub+0x36>
10011f8c:	2080      	movs	r0, #128	; 0x80
10011f8e:	08db      	lsrs	r3, r3, #3
10011f90:	03c0      	lsls	r0, r0, #15
10011f92:	4203      	tst	r3, r0
10011f94:	d003      	beq.n	10011f9e <__aeabi_fsub+0x2d6>
10011f96:	08d2      	lsrs	r2, r2, #3
10011f98:	4202      	tst	r2, r0
10011f9a:	d100      	bne.n	10011f9e <__aeabi_fsub+0x2d6>
10011f9c:	0013      	movs	r3, r2
10011f9e:	00db      	lsls	r3, r3, #3
10011fa0:	000d      	movs	r5, r1
10011fa2:	24ff      	movs	r4, #255	; 0xff
10011fa4:	e6ab      	b.n	10011cfe <__aeabi_fsub+0x36>
10011fa6:	0013      	movs	r3, r2
10011fa8:	24ff      	movs	r4, #255	; 0xff
10011faa:	e6a8      	b.n	10011cfe <__aeabi_fsub+0x36>
10011fac:	2301      	movs	r3, #1
10011fae:	e76e      	b.n	10011e8e <__aeabi_fsub+0x1c6>
10011fb0:	0013      	movs	r3, r2
10011fb2:	0034      	movs	r4, r6
10011fb4:	e6a3      	b.n	10011cfe <__aeabi_fsub+0x36>
10011fb6:	2700      	movs	r7, #0
10011fb8:	2500      	movs	r5, #0
10011fba:	e71e      	b.n	10011dfa <__aeabi_fsub+0x132>
10011fbc:	2780      	movs	r7, #128	; 0x80
10011fbe:	2500      	movs	r5, #0
10011fc0:	03ff      	lsls	r7, r7, #15
10011fc2:	e6e9      	b.n	10011d98 <__aeabi_fsub+0xd0>
10011fc4:	0013      	movs	r3, r2
10011fc6:	e69a      	b.n	10011cfe <__aeabi_fsub+0x36>
10011fc8:	2301      	movs	r3, #1
10011fca:	e7a6      	b.n	10011f1a <__aeabi_fsub+0x252>
10011fcc:	7dffffff 	.word	0x7dffffff
10011fd0:	fbffffff 	.word	0xfbffffff

10011fd4 <__aeabi_f2iz>:
10011fd4:	0243      	lsls	r3, r0, #9
10011fd6:	0a59      	lsrs	r1, r3, #9
10011fd8:	0043      	lsls	r3, r0, #1
10011fda:	0fc2      	lsrs	r2, r0, #31
10011fdc:	0e1b      	lsrs	r3, r3, #24
10011fde:	2000      	movs	r0, #0
10011fe0:	2b7e      	cmp	r3, #126	; 0x7e
10011fe2:	dd0e      	ble.n	10012002 <__aeabi_f2iz+0x2e>
10011fe4:	2b9d      	cmp	r3, #157	; 0x9d
10011fe6:	dc0d      	bgt.n	10012004 <__aeabi_f2iz+0x30>
10011fe8:	2080      	movs	r0, #128	; 0x80
10011fea:	0400      	lsls	r0, r0, #16
10011fec:	4301      	orrs	r1, r0
10011fee:	2b95      	cmp	r3, #149	; 0x95
10011ff0:	dc0b      	bgt.n	1001200a <__aeabi_f2iz+0x36>
10011ff2:	2096      	movs	r0, #150	; 0x96
10011ff4:	1ac3      	subs	r3, r0, r3
10011ff6:	40d9      	lsrs	r1, r3
10011ff8:	000b      	movs	r3, r1
10011ffa:	4258      	negs	r0, r3
10011ffc:	2a00      	cmp	r2, #0
10011ffe:	d100      	bne.n	10012002 <__aeabi_f2iz+0x2e>
10012000:	0018      	movs	r0, r3
10012002:	4770      	bx	lr
10012004:	4b03      	ldr	r3, [pc, #12]	; (10012014 <__aeabi_f2iz+0x40>)
10012006:	18d0      	adds	r0, r2, r3
10012008:	e7fb      	b.n	10012002 <__aeabi_f2iz+0x2e>
1001200a:	3b96      	subs	r3, #150	; 0x96
1001200c:	4099      	lsls	r1, r3
1001200e:	000b      	movs	r3, r1
10012010:	e7f3      	b.n	10011ffa <__aeabi_f2iz+0x26>
10012012:	46c0      	nop			; (mov r8, r8)
10012014:	7fffffff 	.word	0x7fffffff

10012018 <__aeabi_ui2f>:
10012018:	b570      	push	{r4, r5, r6, lr}
1001201a:	1e04      	subs	r4, r0, #0
1001201c:	d028      	beq.n	10012070 <__aeabi_ui2f+0x58>
1001201e:	f000 ff83 	bl	10012f28 <__clzsi2>
10012022:	239e      	movs	r3, #158	; 0x9e
10012024:	1a1b      	subs	r3, r3, r0
10012026:	2b96      	cmp	r3, #150	; 0x96
10012028:	dc0a      	bgt.n	10012040 <__aeabi_ui2f+0x28>
1001202a:	2296      	movs	r2, #150	; 0x96
1001202c:	1ad2      	subs	r2, r2, r3
1001202e:	4094      	lsls	r4, r2
10012030:	0262      	lsls	r2, r4, #9
10012032:	0a52      	lsrs	r2, r2, #9
10012034:	b2d8      	uxtb	r0, r3
10012036:	0252      	lsls	r2, r2, #9
10012038:	0a52      	lsrs	r2, r2, #9
1001203a:	05c0      	lsls	r0, r0, #23
1001203c:	4310      	orrs	r0, r2
1001203e:	bd70      	pop	{r4, r5, r6, pc}
10012040:	2b99      	cmp	r3, #153	; 0x99
10012042:	dc18      	bgt.n	10012076 <__aeabi_ui2f+0x5e>
10012044:	2299      	movs	r2, #153	; 0x99
10012046:	1ad2      	subs	r2, r2, r3
10012048:	4094      	lsls	r4, r2
1001204a:	4a11      	ldr	r2, [pc, #68]	; (10012090 <__aeabi_ui2f+0x78>)
1001204c:	4022      	ands	r2, r4
1001204e:	0761      	lsls	r1, r4, #29
10012050:	d004      	beq.n	1001205c <__aeabi_ui2f+0x44>
10012052:	210f      	movs	r1, #15
10012054:	400c      	ands	r4, r1
10012056:	2c04      	cmp	r4, #4
10012058:	d000      	beq.n	1001205c <__aeabi_ui2f+0x44>
1001205a:	3204      	adds	r2, #4
1001205c:	0151      	lsls	r1, r2, #5
1001205e:	d503      	bpl.n	10012068 <__aeabi_ui2f+0x50>
10012060:	4b0b      	ldr	r3, [pc, #44]	; (10012090 <__aeabi_ui2f+0x78>)
10012062:	401a      	ands	r2, r3
10012064:	239f      	movs	r3, #159	; 0x9f
10012066:	1a1b      	subs	r3, r3, r0
10012068:	0192      	lsls	r2, r2, #6
1001206a:	0a52      	lsrs	r2, r2, #9
1001206c:	b2d8      	uxtb	r0, r3
1001206e:	e7e2      	b.n	10012036 <__aeabi_ui2f+0x1e>
10012070:	2000      	movs	r0, #0
10012072:	2200      	movs	r2, #0
10012074:	e7df      	b.n	10012036 <__aeabi_ui2f+0x1e>
10012076:	2205      	movs	r2, #5
10012078:	0025      	movs	r5, r4
1001207a:	1a12      	subs	r2, r2, r0
1001207c:	21b9      	movs	r1, #185	; 0xb9
1001207e:	40d5      	lsrs	r5, r2
10012080:	0022      	movs	r2, r4
10012082:	1ac9      	subs	r1, r1, r3
10012084:	408a      	lsls	r2, r1
10012086:	1e54      	subs	r4, r2, #1
10012088:	41a2      	sbcs	r2, r4
1001208a:	002c      	movs	r4, r5
1001208c:	4314      	orrs	r4, r2
1001208e:	e7dc      	b.n	1001204a <__aeabi_ui2f+0x32>
10012090:	fbffffff 	.word	0xfbffffff

10012094 <__eqdf2>:
10012094:	b5f0      	push	{r4, r5, r6, r7, lr}
10012096:	465f      	mov	r7, fp
10012098:	4656      	mov	r6, sl
1001209a:	464d      	mov	r5, r9
1001209c:	4644      	mov	r4, r8
1001209e:	b4f0      	push	{r4, r5, r6, r7}
100120a0:	031f      	lsls	r7, r3, #12
100120a2:	005c      	lsls	r4, r3, #1
100120a4:	0fdb      	lsrs	r3, r3, #31
100120a6:	469a      	mov	sl, r3
100120a8:	4b19      	ldr	r3, [pc, #100]	; (10012110 <__eqdf2+0x7c>)
100120aa:	030e      	lsls	r6, r1, #12
100120ac:	004d      	lsls	r5, r1, #1
100120ae:	0fc9      	lsrs	r1, r1, #31
100120b0:	4680      	mov	r8, r0
100120b2:	0b36      	lsrs	r6, r6, #12
100120b4:	0d6d      	lsrs	r5, r5, #21
100120b6:	468b      	mov	fp, r1
100120b8:	4691      	mov	r9, r2
100120ba:	0b3f      	lsrs	r7, r7, #12
100120bc:	0d64      	lsrs	r4, r4, #21
100120be:	429d      	cmp	r5, r3
100120c0:	d019      	beq.n	100120f6 <__eqdf2+0x62>
100120c2:	4b13      	ldr	r3, [pc, #76]	; (10012110 <__eqdf2+0x7c>)
100120c4:	429c      	cmp	r4, r3
100120c6:	d01b      	beq.n	10012100 <__eqdf2+0x6c>
100120c8:	2301      	movs	r3, #1
100120ca:	42a5      	cmp	r5, r4
100120cc:	d006      	beq.n	100120dc <__eqdf2+0x48>
100120ce:	0018      	movs	r0, r3
100120d0:	bc3c      	pop	{r2, r3, r4, r5}
100120d2:	4690      	mov	r8, r2
100120d4:	4699      	mov	r9, r3
100120d6:	46a2      	mov	sl, r4
100120d8:	46ab      	mov	fp, r5
100120da:	bdf0      	pop	{r4, r5, r6, r7, pc}
100120dc:	42be      	cmp	r6, r7
100120de:	d1f6      	bne.n	100120ce <__eqdf2+0x3a>
100120e0:	45c8      	cmp	r8, r9
100120e2:	d1f4      	bne.n	100120ce <__eqdf2+0x3a>
100120e4:	45d3      	cmp	fp, sl
100120e6:	d010      	beq.n	1001210a <__eqdf2+0x76>
100120e8:	2d00      	cmp	r5, #0
100120ea:	d1f0      	bne.n	100120ce <__eqdf2+0x3a>
100120ec:	4330      	orrs	r0, r6
100120ee:	0003      	movs	r3, r0
100120f0:	1e5a      	subs	r2, r3, #1
100120f2:	4193      	sbcs	r3, r2
100120f4:	e7eb      	b.n	100120ce <__eqdf2+0x3a>
100120f6:	0031      	movs	r1, r6
100120f8:	2301      	movs	r3, #1
100120fa:	4301      	orrs	r1, r0
100120fc:	d1e7      	bne.n	100120ce <__eqdf2+0x3a>
100120fe:	e7e0      	b.n	100120c2 <__eqdf2+0x2e>
10012100:	433a      	orrs	r2, r7
10012102:	2301      	movs	r3, #1
10012104:	2a00      	cmp	r2, #0
10012106:	d1e2      	bne.n	100120ce <__eqdf2+0x3a>
10012108:	e7de      	b.n	100120c8 <__eqdf2+0x34>
1001210a:	2300      	movs	r3, #0
1001210c:	e7df      	b.n	100120ce <__eqdf2+0x3a>
1001210e:	46c0      	nop			; (mov r8, r8)
10012110:	000007ff 	.word	0x000007ff

10012114 <__gedf2>:
10012114:	b5f0      	push	{r4, r5, r6, r7, lr}
10012116:	465f      	mov	r7, fp
10012118:	4644      	mov	r4, r8
1001211a:	4656      	mov	r6, sl
1001211c:	464d      	mov	r5, r9
1001211e:	b4f0      	push	{r4, r5, r6, r7}
10012120:	031f      	lsls	r7, r3, #12
10012122:	0b3c      	lsrs	r4, r7, #12
10012124:	4f2c      	ldr	r7, [pc, #176]	; (100121d8 <__gedf2+0xc4>)
10012126:	030e      	lsls	r6, r1, #12
10012128:	004d      	lsls	r5, r1, #1
1001212a:	46a3      	mov	fp, r4
1001212c:	005c      	lsls	r4, r3, #1
1001212e:	4684      	mov	ip, r0
10012130:	0b36      	lsrs	r6, r6, #12
10012132:	0d6d      	lsrs	r5, r5, #21
10012134:	0fc9      	lsrs	r1, r1, #31
10012136:	4690      	mov	r8, r2
10012138:	0d64      	lsrs	r4, r4, #21
1001213a:	0fdb      	lsrs	r3, r3, #31
1001213c:	42bd      	cmp	r5, r7
1001213e:	d02b      	beq.n	10012198 <__gedf2+0x84>
10012140:	4f25      	ldr	r7, [pc, #148]	; (100121d8 <__gedf2+0xc4>)
10012142:	42bc      	cmp	r4, r7
10012144:	d02e      	beq.n	100121a4 <__gedf2+0x90>
10012146:	2d00      	cmp	r5, #0
10012148:	d10e      	bne.n	10012168 <__gedf2+0x54>
1001214a:	4330      	orrs	r0, r6
1001214c:	0007      	movs	r7, r0
1001214e:	4681      	mov	r9, r0
10012150:	4278      	negs	r0, r7
10012152:	4178      	adcs	r0, r7
10012154:	2c00      	cmp	r4, #0
10012156:	d117      	bne.n	10012188 <__gedf2+0x74>
10012158:	465f      	mov	r7, fp
1001215a:	433a      	orrs	r2, r7
1001215c:	d114      	bne.n	10012188 <__gedf2+0x74>
1001215e:	464b      	mov	r3, r9
10012160:	2000      	movs	r0, #0
10012162:	2b00      	cmp	r3, #0
10012164:	d00a      	beq.n	1001217c <__gedf2+0x68>
10012166:	e006      	b.n	10012176 <__gedf2+0x62>
10012168:	2c00      	cmp	r4, #0
1001216a:	d102      	bne.n	10012172 <__gedf2+0x5e>
1001216c:	4658      	mov	r0, fp
1001216e:	4302      	orrs	r2, r0
10012170:	d001      	beq.n	10012176 <__gedf2+0x62>
10012172:	4299      	cmp	r1, r3
10012174:	d01a      	beq.n	100121ac <__gedf2+0x98>
10012176:	2301      	movs	r3, #1
10012178:	4248      	negs	r0, r1
1001217a:	4318      	orrs	r0, r3
1001217c:	bc3c      	pop	{r2, r3, r4, r5}
1001217e:	4690      	mov	r8, r2
10012180:	4699      	mov	r9, r3
10012182:	46a2      	mov	sl, r4
10012184:	46ab      	mov	fp, r5
10012186:	bdf0      	pop	{r4, r5, r6, r7, pc}
10012188:	2800      	cmp	r0, #0
1001218a:	d0f2      	beq.n	10012172 <__gedf2+0x5e>
1001218c:	4258      	negs	r0, r3
1001218e:	4158      	adcs	r0, r3
10012190:	2201      	movs	r2, #1
10012192:	4240      	negs	r0, r0
10012194:	4310      	orrs	r0, r2
10012196:	e7f1      	b.n	1001217c <__gedf2+0x68>
10012198:	0037      	movs	r7, r6
1001219a:	4307      	orrs	r7, r0
1001219c:	d0d0      	beq.n	10012140 <__gedf2+0x2c>
1001219e:	2002      	movs	r0, #2
100121a0:	4240      	negs	r0, r0
100121a2:	e7eb      	b.n	1001217c <__gedf2+0x68>
100121a4:	465f      	mov	r7, fp
100121a6:	4317      	orrs	r7, r2
100121a8:	d0cd      	beq.n	10012146 <__gedf2+0x32>
100121aa:	e7f8      	b.n	1001219e <__gedf2+0x8a>
100121ac:	42a5      	cmp	r5, r4
100121ae:	dce2      	bgt.n	10012176 <__gedf2+0x62>
100121b0:	db05      	blt.n	100121be <__gedf2+0xaa>
100121b2:	455e      	cmp	r6, fp
100121b4:	d8df      	bhi.n	10012176 <__gedf2+0x62>
100121b6:	d008      	beq.n	100121ca <__gedf2+0xb6>
100121b8:	2000      	movs	r0, #0
100121ba:	455e      	cmp	r6, fp
100121bc:	d2de      	bcs.n	1001217c <__gedf2+0x68>
100121be:	4248      	negs	r0, r1
100121c0:	4148      	adcs	r0, r1
100121c2:	2301      	movs	r3, #1
100121c4:	4240      	negs	r0, r0
100121c6:	4318      	orrs	r0, r3
100121c8:	e7d8      	b.n	1001217c <__gedf2+0x68>
100121ca:	45c4      	cmp	ip, r8
100121cc:	d8d3      	bhi.n	10012176 <__gedf2+0x62>
100121ce:	2000      	movs	r0, #0
100121d0:	45c4      	cmp	ip, r8
100121d2:	d3f4      	bcc.n	100121be <__gedf2+0xaa>
100121d4:	e7d2      	b.n	1001217c <__gedf2+0x68>
100121d6:	46c0      	nop			; (mov r8, r8)
100121d8:	000007ff 	.word	0x000007ff

100121dc <__ledf2>:
100121dc:	b5f0      	push	{r4, r5, r6, r7, lr}
100121de:	465f      	mov	r7, fp
100121e0:	464d      	mov	r5, r9
100121e2:	4644      	mov	r4, r8
100121e4:	4656      	mov	r6, sl
100121e6:	b4f0      	push	{r4, r5, r6, r7}
100121e8:	031c      	lsls	r4, r3, #12
100121ea:	0b24      	lsrs	r4, r4, #12
100121ec:	46a4      	mov	ip, r4
100121ee:	4c2f      	ldr	r4, [pc, #188]	; (100122ac <__ledf2+0xd0>)
100121f0:	030f      	lsls	r7, r1, #12
100121f2:	004d      	lsls	r5, r1, #1
100121f4:	005e      	lsls	r6, r3, #1
100121f6:	0fc9      	lsrs	r1, r1, #31
100121f8:	4680      	mov	r8, r0
100121fa:	0b3f      	lsrs	r7, r7, #12
100121fc:	0d6d      	lsrs	r5, r5, #21
100121fe:	468b      	mov	fp, r1
10012200:	4691      	mov	r9, r2
10012202:	0d76      	lsrs	r6, r6, #21
10012204:	0fdb      	lsrs	r3, r3, #31
10012206:	42a5      	cmp	r5, r4
10012208:	d020      	beq.n	1001224c <__ledf2+0x70>
1001220a:	4c28      	ldr	r4, [pc, #160]	; (100122ac <__ledf2+0xd0>)
1001220c:	42a6      	cmp	r6, r4
1001220e:	d022      	beq.n	10012256 <__ledf2+0x7a>
10012210:	2d00      	cmp	r5, #0
10012212:	d112      	bne.n	1001223a <__ledf2+0x5e>
10012214:	4338      	orrs	r0, r7
10012216:	4244      	negs	r4, r0
10012218:	4144      	adcs	r4, r0
1001221a:	2e00      	cmp	r6, #0
1001221c:	d020      	beq.n	10012260 <__ledf2+0x84>
1001221e:	2c00      	cmp	r4, #0
10012220:	d00d      	beq.n	1001223e <__ledf2+0x62>
10012222:	425c      	negs	r4, r3
10012224:	4163      	adcs	r3, r4
10012226:	2401      	movs	r4, #1
10012228:	425b      	negs	r3, r3
1001222a:	431c      	orrs	r4, r3
1001222c:	0020      	movs	r0, r4
1001222e:	bc3c      	pop	{r2, r3, r4, r5}
10012230:	4690      	mov	r8, r2
10012232:	4699      	mov	r9, r3
10012234:	46a2      	mov	sl, r4
10012236:	46ab      	mov	fp, r5
10012238:	bdf0      	pop	{r4, r5, r6, r7, pc}
1001223a:	2e00      	cmp	r6, #0
1001223c:	d017      	beq.n	1001226e <__ledf2+0x92>
1001223e:	455b      	cmp	r3, fp
10012240:	d019      	beq.n	10012276 <__ledf2+0x9a>
10012242:	465b      	mov	r3, fp
10012244:	425c      	negs	r4, r3
10012246:	2301      	movs	r3, #1
10012248:	431c      	orrs	r4, r3
1001224a:	e7ef      	b.n	1001222c <__ledf2+0x50>
1001224c:	0039      	movs	r1, r7
1001224e:	2402      	movs	r4, #2
10012250:	4301      	orrs	r1, r0
10012252:	d1eb      	bne.n	1001222c <__ledf2+0x50>
10012254:	e7d9      	b.n	1001220a <__ledf2+0x2e>
10012256:	4661      	mov	r1, ip
10012258:	2402      	movs	r4, #2
1001225a:	4311      	orrs	r1, r2
1001225c:	d1e6      	bne.n	1001222c <__ledf2+0x50>
1001225e:	e7d7      	b.n	10012210 <__ledf2+0x34>
10012260:	4661      	mov	r1, ip
10012262:	430a      	orrs	r2, r1
10012264:	d1db      	bne.n	1001221e <__ledf2+0x42>
10012266:	2400      	movs	r4, #0
10012268:	2800      	cmp	r0, #0
1001226a:	d0df      	beq.n	1001222c <__ledf2+0x50>
1001226c:	e7e9      	b.n	10012242 <__ledf2+0x66>
1001226e:	4661      	mov	r1, ip
10012270:	430a      	orrs	r2, r1
10012272:	d1e4      	bne.n	1001223e <__ledf2+0x62>
10012274:	e7e5      	b.n	10012242 <__ledf2+0x66>
10012276:	42b5      	cmp	r5, r6
10012278:	dd03      	ble.n	10012282 <__ledf2+0xa6>
1001227a:	2201      	movs	r2, #1
1001227c:	425c      	negs	r4, r3
1001227e:	4314      	orrs	r4, r2
10012280:	e7d4      	b.n	1001222c <__ledf2+0x50>
10012282:	42b5      	cmp	r5, r6
10012284:	dbcd      	blt.n	10012222 <__ledf2+0x46>
10012286:	4567      	cmp	r7, ip
10012288:	d8db      	bhi.n	10012242 <__ledf2+0x66>
1001228a:	d009      	beq.n	100122a0 <__ledf2+0xc4>
1001228c:	2400      	movs	r4, #0
1001228e:	4567      	cmp	r7, ip
10012290:	d2cc      	bcs.n	1001222c <__ledf2+0x50>
10012292:	4659      	mov	r1, fp
10012294:	424c      	negs	r4, r1
10012296:	4161      	adcs	r1, r4
10012298:	2401      	movs	r4, #1
1001229a:	4249      	negs	r1, r1
1001229c:	430c      	orrs	r4, r1
1001229e:	e7c5      	b.n	1001222c <__ledf2+0x50>
100122a0:	45c8      	cmp	r8, r9
100122a2:	d8ce      	bhi.n	10012242 <__ledf2+0x66>
100122a4:	2400      	movs	r4, #0
100122a6:	45c8      	cmp	r8, r9
100122a8:	d3f3      	bcc.n	10012292 <__ledf2+0xb6>
100122aa:	e7bf      	b.n	1001222c <__ledf2+0x50>
100122ac:	000007ff 	.word	0x000007ff

100122b0 <__aeabi_dmul>:
100122b0:	b5f0      	push	{r4, r5, r6, r7, lr}
100122b2:	465f      	mov	r7, fp
100122b4:	4656      	mov	r6, sl
100122b6:	464d      	mov	r5, r9
100122b8:	4644      	mov	r4, r8
100122ba:	b4f0      	push	{r4, r5, r6, r7}
100122bc:	030d      	lsls	r5, r1, #12
100122be:	4699      	mov	r9, r3
100122c0:	004e      	lsls	r6, r1, #1
100122c2:	0b2b      	lsrs	r3, r5, #12
100122c4:	b087      	sub	sp, #28
100122c6:	0007      	movs	r7, r0
100122c8:	4692      	mov	sl, r2
100122ca:	4680      	mov	r8, r0
100122cc:	469b      	mov	fp, r3
100122ce:	0d76      	lsrs	r6, r6, #21
100122d0:	0fcc      	lsrs	r4, r1, #31
100122d2:	2e00      	cmp	r6, #0
100122d4:	d069      	beq.n	100123aa <__aeabi_dmul+0xfa>
100122d6:	4b6d      	ldr	r3, [pc, #436]	; (1001248c <__aeabi_dmul+0x1dc>)
100122d8:	429e      	cmp	r6, r3
100122da:	d035      	beq.n	10012348 <__aeabi_dmul+0x98>
100122dc:	465b      	mov	r3, fp
100122de:	2280      	movs	r2, #128	; 0x80
100122e0:	00dd      	lsls	r5, r3, #3
100122e2:	0412      	lsls	r2, r2, #16
100122e4:	0f43      	lsrs	r3, r0, #29
100122e6:	4313      	orrs	r3, r2
100122e8:	432b      	orrs	r3, r5
100122ea:	469b      	mov	fp, r3
100122ec:	00c3      	lsls	r3, r0, #3
100122ee:	4698      	mov	r8, r3
100122f0:	4b67      	ldr	r3, [pc, #412]	; (10012490 <__aeabi_dmul+0x1e0>)
100122f2:	2700      	movs	r7, #0
100122f4:	469c      	mov	ip, r3
100122f6:	2300      	movs	r3, #0
100122f8:	4466      	add	r6, ip
100122fa:	9301      	str	r3, [sp, #4]
100122fc:	464a      	mov	r2, r9
100122fe:	0315      	lsls	r5, r2, #12
10012300:	0050      	lsls	r0, r2, #1
10012302:	0fd2      	lsrs	r2, r2, #31
10012304:	4653      	mov	r3, sl
10012306:	0b2d      	lsrs	r5, r5, #12
10012308:	0d40      	lsrs	r0, r0, #21
1001230a:	4691      	mov	r9, r2
1001230c:	d100      	bne.n	10012310 <__aeabi_dmul+0x60>
1001230e:	e076      	b.n	100123fe <__aeabi_dmul+0x14e>
10012310:	4a5e      	ldr	r2, [pc, #376]	; (1001248c <__aeabi_dmul+0x1dc>)
10012312:	4290      	cmp	r0, r2
10012314:	d06c      	beq.n	100123f0 <__aeabi_dmul+0x140>
10012316:	2280      	movs	r2, #128	; 0x80
10012318:	0f5b      	lsrs	r3, r3, #29
1001231a:	0412      	lsls	r2, r2, #16
1001231c:	4313      	orrs	r3, r2
1001231e:	4a5c      	ldr	r2, [pc, #368]	; (10012490 <__aeabi_dmul+0x1e0>)
10012320:	00ed      	lsls	r5, r5, #3
10012322:	4694      	mov	ip, r2
10012324:	431d      	orrs	r5, r3
10012326:	4653      	mov	r3, sl
10012328:	2200      	movs	r2, #0
1001232a:	00db      	lsls	r3, r3, #3
1001232c:	4460      	add	r0, ip
1001232e:	4649      	mov	r1, r9
10012330:	1836      	adds	r6, r6, r0
10012332:	1c70      	adds	r0, r6, #1
10012334:	4061      	eors	r1, r4
10012336:	9002      	str	r0, [sp, #8]
10012338:	4317      	orrs	r7, r2
1001233a:	2f0f      	cmp	r7, #15
1001233c:	d900      	bls.n	10012340 <__aeabi_dmul+0x90>
1001233e:	e0af      	b.n	100124a0 <__aeabi_dmul+0x1f0>
10012340:	4854      	ldr	r0, [pc, #336]	; (10012494 <__aeabi_dmul+0x1e4>)
10012342:	00bf      	lsls	r7, r7, #2
10012344:	59c7      	ldr	r7, [r0, r7]
10012346:	46bf      	mov	pc, r7
10012348:	465b      	mov	r3, fp
1001234a:	431f      	orrs	r7, r3
1001234c:	d000      	beq.n	10012350 <__aeabi_dmul+0xa0>
1001234e:	e088      	b.n	10012462 <__aeabi_dmul+0x1b2>
10012350:	2300      	movs	r3, #0
10012352:	469b      	mov	fp, r3
10012354:	4698      	mov	r8, r3
10012356:	3302      	adds	r3, #2
10012358:	2708      	movs	r7, #8
1001235a:	9301      	str	r3, [sp, #4]
1001235c:	e7ce      	b.n	100122fc <__aeabi_dmul+0x4c>
1001235e:	4649      	mov	r1, r9
10012360:	2a02      	cmp	r2, #2
10012362:	d06a      	beq.n	1001243a <__aeabi_dmul+0x18a>
10012364:	2a03      	cmp	r2, #3
10012366:	d100      	bne.n	1001236a <__aeabi_dmul+0xba>
10012368:	e209      	b.n	1001277e <__aeabi_dmul+0x4ce>
1001236a:	2a01      	cmp	r2, #1
1001236c:	d000      	beq.n	10012370 <__aeabi_dmul+0xc0>
1001236e:	e1bb      	b.n	100126e8 <__aeabi_dmul+0x438>
10012370:	4011      	ands	r1, r2
10012372:	2200      	movs	r2, #0
10012374:	2300      	movs	r3, #0
10012376:	2500      	movs	r5, #0
10012378:	4690      	mov	r8, r2
1001237a:	b2cc      	uxtb	r4, r1
1001237c:	2100      	movs	r1, #0
1001237e:	032d      	lsls	r5, r5, #12
10012380:	0d0a      	lsrs	r2, r1, #20
10012382:	0512      	lsls	r2, r2, #20
10012384:	0b2d      	lsrs	r5, r5, #12
10012386:	4315      	orrs	r5, r2
10012388:	4a43      	ldr	r2, [pc, #268]	; (10012498 <__aeabi_dmul+0x1e8>)
1001238a:	051b      	lsls	r3, r3, #20
1001238c:	4015      	ands	r5, r2
1001238e:	431d      	orrs	r5, r3
10012390:	006d      	lsls	r5, r5, #1
10012392:	07e4      	lsls	r4, r4, #31
10012394:	086d      	lsrs	r5, r5, #1
10012396:	4325      	orrs	r5, r4
10012398:	4640      	mov	r0, r8
1001239a:	0029      	movs	r1, r5
1001239c:	b007      	add	sp, #28
1001239e:	bc3c      	pop	{r2, r3, r4, r5}
100123a0:	4690      	mov	r8, r2
100123a2:	4699      	mov	r9, r3
100123a4:	46a2      	mov	sl, r4
100123a6:	46ab      	mov	fp, r5
100123a8:	bdf0      	pop	{r4, r5, r6, r7, pc}
100123aa:	4303      	orrs	r3, r0
100123ac:	d052      	beq.n	10012454 <__aeabi_dmul+0x1a4>
100123ae:	465b      	mov	r3, fp
100123b0:	2b00      	cmp	r3, #0
100123b2:	d100      	bne.n	100123b6 <__aeabi_dmul+0x106>
100123b4:	e18a      	b.n	100126cc <__aeabi_dmul+0x41c>
100123b6:	4658      	mov	r0, fp
100123b8:	f000 fdb6 	bl	10012f28 <__clzsi2>
100123bc:	0003      	movs	r3, r0
100123be:	3b0b      	subs	r3, #11
100123c0:	2b1c      	cmp	r3, #28
100123c2:	dd00      	ble.n	100123c6 <__aeabi_dmul+0x116>
100123c4:	e17b      	b.n	100126be <__aeabi_dmul+0x40e>
100123c6:	221d      	movs	r2, #29
100123c8:	1ad3      	subs	r3, r2, r3
100123ca:	003a      	movs	r2, r7
100123cc:	0001      	movs	r1, r0
100123ce:	465d      	mov	r5, fp
100123d0:	40da      	lsrs	r2, r3
100123d2:	3908      	subs	r1, #8
100123d4:	408d      	lsls	r5, r1
100123d6:	0013      	movs	r3, r2
100123d8:	408f      	lsls	r7, r1
100123da:	432b      	orrs	r3, r5
100123dc:	469b      	mov	fp, r3
100123de:	46b8      	mov	r8, r7
100123e0:	4b2e      	ldr	r3, [pc, #184]	; (1001249c <__aeabi_dmul+0x1ec>)
100123e2:	2700      	movs	r7, #0
100123e4:	469c      	mov	ip, r3
100123e6:	2300      	movs	r3, #0
100123e8:	4460      	add	r0, ip
100123ea:	4246      	negs	r6, r0
100123ec:	9301      	str	r3, [sp, #4]
100123ee:	e785      	b.n	100122fc <__aeabi_dmul+0x4c>
100123f0:	4652      	mov	r2, sl
100123f2:	432a      	orrs	r2, r5
100123f4:	d12c      	bne.n	10012450 <__aeabi_dmul+0x1a0>
100123f6:	2500      	movs	r5, #0
100123f8:	2300      	movs	r3, #0
100123fa:	2202      	movs	r2, #2
100123fc:	e797      	b.n	1001232e <__aeabi_dmul+0x7e>
100123fe:	4652      	mov	r2, sl
10012400:	432a      	orrs	r2, r5
10012402:	d021      	beq.n	10012448 <__aeabi_dmul+0x198>
10012404:	2d00      	cmp	r5, #0
10012406:	d100      	bne.n	1001240a <__aeabi_dmul+0x15a>
10012408:	e154      	b.n	100126b4 <__aeabi_dmul+0x404>
1001240a:	0028      	movs	r0, r5
1001240c:	f000 fd8c 	bl	10012f28 <__clzsi2>
10012410:	0003      	movs	r3, r0
10012412:	3b0b      	subs	r3, #11
10012414:	2b1c      	cmp	r3, #28
10012416:	dd00      	ble.n	1001241a <__aeabi_dmul+0x16a>
10012418:	e146      	b.n	100126a8 <__aeabi_dmul+0x3f8>
1001241a:	211d      	movs	r1, #29
1001241c:	1acb      	subs	r3, r1, r3
1001241e:	4651      	mov	r1, sl
10012420:	0002      	movs	r2, r0
10012422:	40d9      	lsrs	r1, r3
10012424:	4653      	mov	r3, sl
10012426:	3a08      	subs	r2, #8
10012428:	4095      	lsls	r5, r2
1001242a:	4093      	lsls	r3, r2
1001242c:	430d      	orrs	r5, r1
1001242e:	4a1b      	ldr	r2, [pc, #108]	; (1001249c <__aeabi_dmul+0x1ec>)
10012430:	4694      	mov	ip, r2
10012432:	4460      	add	r0, ip
10012434:	4240      	negs	r0, r0
10012436:	2200      	movs	r2, #0
10012438:	e779      	b.n	1001232e <__aeabi_dmul+0x7e>
1001243a:	2401      	movs	r4, #1
1001243c:	2200      	movs	r2, #0
1001243e:	400c      	ands	r4, r1
10012440:	4b12      	ldr	r3, [pc, #72]	; (1001248c <__aeabi_dmul+0x1dc>)
10012442:	2500      	movs	r5, #0
10012444:	4690      	mov	r8, r2
10012446:	e799      	b.n	1001237c <__aeabi_dmul+0xcc>
10012448:	2500      	movs	r5, #0
1001244a:	2300      	movs	r3, #0
1001244c:	2201      	movs	r2, #1
1001244e:	e76e      	b.n	1001232e <__aeabi_dmul+0x7e>
10012450:	2203      	movs	r2, #3
10012452:	e76c      	b.n	1001232e <__aeabi_dmul+0x7e>
10012454:	2300      	movs	r3, #0
10012456:	469b      	mov	fp, r3
10012458:	4698      	mov	r8, r3
1001245a:	3301      	adds	r3, #1
1001245c:	2704      	movs	r7, #4
1001245e:	9301      	str	r3, [sp, #4]
10012460:	e74c      	b.n	100122fc <__aeabi_dmul+0x4c>
10012462:	2303      	movs	r3, #3
10012464:	270c      	movs	r7, #12
10012466:	9301      	str	r3, [sp, #4]
10012468:	e748      	b.n	100122fc <__aeabi_dmul+0x4c>
1001246a:	2300      	movs	r3, #0
1001246c:	2580      	movs	r5, #128	; 0x80
1001246e:	4698      	mov	r8, r3
10012470:	2400      	movs	r4, #0
10012472:	032d      	lsls	r5, r5, #12
10012474:	4b05      	ldr	r3, [pc, #20]	; (1001248c <__aeabi_dmul+0x1dc>)
10012476:	e781      	b.n	1001237c <__aeabi_dmul+0xcc>
10012478:	465d      	mov	r5, fp
1001247a:	4643      	mov	r3, r8
1001247c:	9a01      	ldr	r2, [sp, #4]
1001247e:	e76f      	b.n	10012360 <__aeabi_dmul+0xb0>
10012480:	465d      	mov	r5, fp
10012482:	4643      	mov	r3, r8
10012484:	0021      	movs	r1, r4
10012486:	9a01      	ldr	r2, [sp, #4]
10012488:	e76a      	b.n	10012360 <__aeabi_dmul+0xb0>
1001248a:	46c0      	nop			; (mov r8, r8)
1001248c:	000007ff 	.word	0x000007ff
10012490:	fffffc01 	.word	0xfffffc01
10012494:	100146d8 	.word	0x100146d8
10012498:	800fffff 	.word	0x800fffff
1001249c:	000003f3 	.word	0x000003f3
100124a0:	4642      	mov	r2, r8
100124a2:	0c12      	lsrs	r2, r2, #16
100124a4:	4691      	mov	r9, r2
100124a6:	0c1a      	lsrs	r2, r3, #16
100124a8:	4694      	mov	ip, r2
100124aa:	4642      	mov	r2, r8
100124ac:	0417      	lsls	r7, r2, #16
100124ae:	464a      	mov	r2, r9
100124b0:	041b      	lsls	r3, r3, #16
100124b2:	0c1b      	lsrs	r3, r3, #16
100124b4:	435a      	muls	r2, r3
100124b6:	4660      	mov	r0, ip
100124b8:	4690      	mov	r8, r2
100124ba:	464a      	mov	r2, r9
100124bc:	4342      	muls	r2, r0
100124be:	0010      	movs	r0, r2
100124c0:	9203      	str	r2, [sp, #12]
100124c2:	4662      	mov	r2, ip
100124c4:	001c      	movs	r4, r3
100124c6:	0c3f      	lsrs	r7, r7, #16
100124c8:	437a      	muls	r2, r7
100124ca:	437c      	muls	r4, r7
100124cc:	4442      	add	r2, r8
100124ce:	9201      	str	r2, [sp, #4]
100124d0:	0c22      	lsrs	r2, r4, #16
100124d2:	4692      	mov	sl, r2
100124d4:	9a01      	ldr	r2, [sp, #4]
100124d6:	4452      	add	r2, sl
100124d8:	4590      	cmp	r8, r2
100124da:	d906      	bls.n	100124ea <__aeabi_dmul+0x23a>
100124dc:	4682      	mov	sl, r0
100124de:	2080      	movs	r0, #128	; 0x80
100124e0:	0240      	lsls	r0, r0, #9
100124e2:	4680      	mov	r8, r0
100124e4:	44c2      	add	sl, r8
100124e6:	4650      	mov	r0, sl
100124e8:	9003      	str	r0, [sp, #12]
100124ea:	0c10      	lsrs	r0, r2, #16
100124ec:	9004      	str	r0, [sp, #16]
100124ee:	4648      	mov	r0, r9
100124f0:	0424      	lsls	r4, r4, #16
100124f2:	0c24      	lsrs	r4, r4, #16
100124f4:	0412      	lsls	r2, r2, #16
100124f6:	1912      	adds	r2, r2, r4
100124f8:	9205      	str	r2, [sp, #20]
100124fa:	0c2a      	lsrs	r2, r5, #16
100124fc:	042d      	lsls	r5, r5, #16
100124fe:	0c2d      	lsrs	r5, r5, #16
10012500:	4368      	muls	r0, r5
10012502:	002c      	movs	r4, r5
10012504:	4682      	mov	sl, r0
10012506:	4648      	mov	r0, r9
10012508:	437c      	muls	r4, r7
1001250a:	4350      	muls	r0, r2
1001250c:	4681      	mov	r9, r0
1001250e:	0c20      	lsrs	r0, r4, #16
10012510:	4680      	mov	r8, r0
10012512:	4357      	muls	r7, r2
10012514:	4457      	add	r7, sl
10012516:	4447      	add	r7, r8
10012518:	45ba      	cmp	sl, r7
1001251a:	d903      	bls.n	10012524 <__aeabi_dmul+0x274>
1001251c:	2080      	movs	r0, #128	; 0x80
1001251e:	0240      	lsls	r0, r0, #9
10012520:	4680      	mov	r8, r0
10012522:	44c1      	add	r9, r8
10012524:	0c38      	lsrs	r0, r7, #16
10012526:	043f      	lsls	r7, r7, #16
10012528:	46b8      	mov	r8, r7
1001252a:	4448      	add	r0, r9
1001252c:	0424      	lsls	r4, r4, #16
1001252e:	0c24      	lsrs	r4, r4, #16
10012530:	9001      	str	r0, [sp, #4]
10012532:	9804      	ldr	r0, [sp, #16]
10012534:	44a0      	add	r8, r4
10012536:	4440      	add	r0, r8
10012538:	9004      	str	r0, [sp, #16]
1001253a:	4658      	mov	r0, fp
1001253c:	0c00      	lsrs	r0, r0, #16
1001253e:	4681      	mov	r9, r0
10012540:	4658      	mov	r0, fp
10012542:	0404      	lsls	r4, r0, #16
10012544:	0c20      	lsrs	r0, r4, #16
10012546:	4682      	mov	sl, r0
10012548:	0007      	movs	r7, r0
1001254a:	4648      	mov	r0, r9
1001254c:	435f      	muls	r7, r3
1001254e:	464c      	mov	r4, r9
10012550:	4343      	muls	r3, r0
10012552:	4660      	mov	r0, ip
10012554:	4360      	muls	r0, r4
10012556:	4664      	mov	r4, ip
10012558:	4683      	mov	fp, r0
1001255a:	4650      	mov	r0, sl
1001255c:	4344      	muls	r4, r0
1001255e:	0c38      	lsrs	r0, r7, #16
10012560:	4684      	mov	ip, r0
10012562:	18e4      	adds	r4, r4, r3
10012564:	4464      	add	r4, ip
10012566:	42a3      	cmp	r3, r4
10012568:	d903      	bls.n	10012572 <__aeabi_dmul+0x2c2>
1001256a:	2380      	movs	r3, #128	; 0x80
1001256c:	025b      	lsls	r3, r3, #9
1001256e:	469c      	mov	ip, r3
10012570:	44e3      	add	fp, ip
10012572:	4648      	mov	r0, r9
10012574:	043f      	lsls	r7, r7, #16
10012576:	0c23      	lsrs	r3, r4, #16
10012578:	0c3f      	lsrs	r7, r7, #16
1001257a:	0424      	lsls	r4, r4, #16
1001257c:	19e4      	adds	r4, r4, r7
1001257e:	4657      	mov	r7, sl
10012580:	4368      	muls	r0, r5
10012582:	436f      	muls	r7, r5
10012584:	4684      	mov	ip, r0
10012586:	464d      	mov	r5, r9
10012588:	4650      	mov	r0, sl
1001258a:	4355      	muls	r5, r2
1001258c:	4342      	muls	r2, r0
1001258e:	0c38      	lsrs	r0, r7, #16
10012590:	4681      	mov	r9, r0
10012592:	4462      	add	r2, ip
10012594:	444a      	add	r2, r9
10012596:	445b      	add	r3, fp
10012598:	4594      	cmp	ip, r2
1001259a:	d903      	bls.n	100125a4 <__aeabi_dmul+0x2f4>
1001259c:	2080      	movs	r0, #128	; 0x80
1001259e:	0240      	lsls	r0, r0, #9
100125a0:	4684      	mov	ip, r0
100125a2:	4465      	add	r5, ip
100125a4:	9803      	ldr	r0, [sp, #12]
100125a6:	043f      	lsls	r7, r7, #16
100125a8:	4683      	mov	fp, r0
100125aa:	9804      	ldr	r0, [sp, #16]
100125ac:	0c3f      	lsrs	r7, r7, #16
100125ae:	4684      	mov	ip, r0
100125b0:	44e3      	add	fp, ip
100125b2:	45c3      	cmp	fp, r8
100125b4:	4180      	sbcs	r0, r0
100125b6:	4240      	negs	r0, r0
100125b8:	4682      	mov	sl, r0
100125ba:	0410      	lsls	r0, r2, #16
100125bc:	4684      	mov	ip, r0
100125be:	9801      	ldr	r0, [sp, #4]
100125c0:	4467      	add	r7, ip
100125c2:	4684      	mov	ip, r0
100125c4:	4467      	add	r7, ip
100125c6:	44a3      	add	fp, r4
100125c8:	46bc      	mov	ip, r7
100125ca:	45a3      	cmp	fp, r4
100125cc:	41a4      	sbcs	r4, r4
100125ce:	4699      	mov	r9, r3
100125d0:	44d4      	add	ip, sl
100125d2:	4264      	negs	r4, r4
100125d4:	4287      	cmp	r7, r0
100125d6:	41bf      	sbcs	r7, r7
100125d8:	45d4      	cmp	ip, sl
100125da:	4180      	sbcs	r0, r0
100125dc:	44e1      	add	r9, ip
100125de:	46a0      	mov	r8, r4
100125e0:	4599      	cmp	r9, r3
100125e2:	419b      	sbcs	r3, r3
100125e4:	427f      	negs	r7, r7
100125e6:	4240      	negs	r0, r0
100125e8:	44c8      	add	r8, r9
100125ea:	4307      	orrs	r7, r0
100125ec:	0c12      	lsrs	r2, r2, #16
100125ee:	18ba      	adds	r2, r7, r2
100125f0:	45a0      	cmp	r8, r4
100125f2:	41a4      	sbcs	r4, r4
100125f4:	425f      	negs	r7, r3
100125f6:	003b      	movs	r3, r7
100125f8:	4264      	negs	r4, r4
100125fa:	4323      	orrs	r3, r4
100125fc:	18d7      	adds	r7, r2, r3
100125fe:	4643      	mov	r3, r8
10012600:	197d      	adds	r5, r7, r5
10012602:	0ddb      	lsrs	r3, r3, #23
10012604:	026d      	lsls	r5, r5, #9
10012606:	431d      	orrs	r5, r3
10012608:	465b      	mov	r3, fp
1001260a:	025a      	lsls	r2, r3, #9
1001260c:	9b05      	ldr	r3, [sp, #20]
1001260e:	431a      	orrs	r2, r3
10012610:	1e53      	subs	r3, r2, #1
10012612:	419a      	sbcs	r2, r3
10012614:	465b      	mov	r3, fp
10012616:	0ddb      	lsrs	r3, r3, #23
10012618:	431a      	orrs	r2, r3
1001261a:	4643      	mov	r3, r8
1001261c:	025b      	lsls	r3, r3, #9
1001261e:	4313      	orrs	r3, r2
10012620:	01ea      	lsls	r2, r5, #7
10012622:	d507      	bpl.n	10012634 <__aeabi_dmul+0x384>
10012624:	2201      	movs	r2, #1
10012626:	085c      	lsrs	r4, r3, #1
10012628:	4013      	ands	r3, r2
1001262a:	4323      	orrs	r3, r4
1001262c:	07ea      	lsls	r2, r5, #31
1001262e:	9e02      	ldr	r6, [sp, #8]
10012630:	4313      	orrs	r3, r2
10012632:	086d      	lsrs	r5, r5, #1
10012634:	4a57      	ldr	r2, [pc, #348]	; (10012794 <__aeabi_dmul+0x4e4>)
10012636:	18b2      	adds	r2, r6, r2
10012638:	2a00      	cmp	r2, #0
1001263a:	dd4b      	ble.n	100126d4 <__aeabi_dmul+0x424>
1001263c:	0758      	lsls	r0, r3, #29
1001263e:	d009      	beq.n	10012654 <__aeabi_dmul+0x3a4>
10012640:	200f      	movs	r0, #15
10012642:	4018      	ands	r0, r3
10012644:	2804      	cmp	r0, #4
10012646:	d005      	beq.n	10012654 <__aeabi_dmul+0x3a4>
10012648:	1d18      	adds	r0, r3, #4
1001264a:	4298      	cmp	r0, r3
1001264c:	419b      	sbcs	r3, r3
1001264e:	425b      	negs	r3, r3
10012650:	18ed      	adds	r5, r5, r3
10012652:	0003      	movs	r3, r0
10012654:	01e8      	lsls	r0, r5, #7
10012656:	d504      	bpl.n	10012662 <__aeabi_dmul+0x3b2>
10012658:	4a4f      	ldr	r2, [pc, #316]	; (10012798 <__aeabi_dmul+0x4e8>)
1001265a:	4015      	ands	r5, r2
1001265c:	2280      	movs	r2, #128	; 0x80
1001265e:	00d2      	lsls	r2, r2, #3
10012660:	18b2      	adds	r2, r6, r2
10012662:	484e      	ldr	r0, [pc, #312]	; (1001279c <__aeabi_dmul+0x4ec>)
10012664:	4282      	cmp	r2, r0
10012666:	dd00      	ble.n	1001266a <__aeabi_dmul+0x3ba>
10012668:	e6e7      	b.n	1001243a <__aeabi_dmul+0x18a>
1001266a:	2401      	movs	r4, #1
1001266c:	08db      	lsrs	r3, r3, #3
1001266e:	0768      	lsls	r0, r5, #29
10012670:	4318      	orrs	r0, r3
10012672:	026d      	lsls	r5, r5, #9
10012674:	0553      	lsls	r3, r2, #21
10012676:	4680      	mov	r8, r0
10012678:	0b2d      	lsrs	r5, r5, #12
1001267a:	0d5b      	lsrs	r3, r3, #21
1001267c:	400c      	ands	r4, r1
1001267e:	e67d      	b.n	1001237c <__aeabi_dmul+0xcc>
10012680:	2280      	movs	r2, #128	; 0x80
10012682:	4659      	mov	r1, fp
10012684:	0312      	lsls	r2, r2, #12
10012686:	4211      	tst	r1, r2
10012688:	d008      	beq.n	1001269c <__aeabi_dmul+0x3ec>
1001268a:	4215      	tst	r5, r2
1001268c:	d106      	bne.n	1001269c <__aeabi_dmul+0x3ec>
1001268e:	4315      	orrs	r5, r2
10012690:	032d      	lsls	r5, r5, #12
10012692:	4698      	mov	r8, r3
10012694:	0b2d      	lsrs	r5, r5, #12
10012696:	464c      	mov	r4, r9
10012698:	4b41      	ldr	r3, [pc, #260]	; (100127a0 <__aeabi_dmul+0x4f0>)
1001269a:	e66f      	b.n	1001237c <__aeabi_dmul+0xcc>
1001269c:	465d      	mov	r5, fp
1001269e:	4315      	orrs	r5, r2
100126a0:	032d      	lsls	r5, r5, #12
100126a2:	0b2d      	lsrs	r5, r5, #12
100126a4:	4b3e      	ldr	r3, [pc, #248]	; (100127a0 <__aeabi_dmul+0x4f0>)
100126a6:	e669      	b.n	1001237c <__aeabi_dmul+0xcc>
100126a8:	0003      	movs	r3, r0
100126aa:	4655      	mov	r5, sl
100126ac:	3b28      	subs	r3, #40	; 0x28
100126ae:	409d      	lsls	r5, r3
100126b0:	2300      	movs	r3, #0
100126b2:	e6bc      	b.n	1001242e <__aeabi_dmul+0x17e>
100126b4:	4650      	mov	r0, sl
100126b6:	f000 fc37 	bl	10012f28 <__clzsi2>
100126ba:	3020      	adds	r0, #32
100126bc:	e6a8      	b.n	10012410 <__aeabi_dmul+0x160>
100126be:	0003      	movs	r3, r0
100126c0:	3b28      	subs	r3, #40	; 0x28
100126c2:	409f      	lsls	r7, r3
100126c4:	2300      	movs	r3, #0
100126c6:	46bb      	mov	fp, r7
100126c8:	4698      	mov	r8, r3
100126ca:	e689      	b.n	100123e0 <__aeabi_dmul+0x130>
100126cc:	f000 fc2c 	bl	10012f28 <__clzsi2>
100126d0:	3020      	adds	r0, #32
100126d2:	e673      	b.n	100123bc <__aeabi_dmul+0x10c>
100126d4:	2401      	movs	r4, #1
100126d6:	1aa6      	subs	r6, r4, r2
100126d8:	2e38      	cmp	r6, #56	; 0x38
100126da:	dd07      	ble.n	100126ec <__aeabi_dmul+0x43c>
100126dc:	2200      	movs	r2, #0
100126de:	400c      	ands	r4, r1
100126e0:	2300      	movs	r3, #0
100126e2:	2500      	movs	r5, #0
100126e4:	4690      	mov	r8, r2
100126e6:	e649      	b.n	1001237c <__aeabi_dmul+0xcc>
100126e8:	9e02      	ldr	r6, [sp, #8]
100126ea:	e7a3      	b.n	10012634 <__aeabi_dmul+0x384>
100126ec:	2e1f      	cmp	r6, #31
100126ee:	dc20      	bgt.n	10012732 <__aeabi_dmul+0x482>
100126f0:	2220      	movs	r2, #32
100126f2:	002c      	movs	r4, r5
100126f4:	0018      	movs	r0, r3
100126f6:	1b92      	subs	r2, r2, r6
100126f8:	40f0      	lsrs	r0, r6
100126fa:	4094      	lsls	r4, r2
100126fc:	4093      	lsls	r3, r2
100126fe:	4304      	orrs	r4, r0
10012700:	1e58      	subs	r0, r3, #1
10012702:	4183      	sbcs	r3, r0
10012704:	431c      	orrs	r4, r3
10012706:	40f5      	lsrs	r5, r6
10012708:	0763      	lsls	r3, r4, #29
1001270a:	d009      	beq.n	10012720 <__aeabi_dmul+0x470>
1001270c:	230f      	movs	r3, #15
1001270e:	4023      	ands	r3, r4
10012710:	2b04      	cmp	r3, #4
10012712:	d005      	beq.n	10012720 <__aeabi_dmul+0x470>
10012714:	0023      	movs	r3, r4
10012716:	1d1c      	adds	r4, r3, #4
10012718:	429c      	cmp	r4, r3
1001271a:	4192      	sbcs	r2, r2
1001271c:	4252      	negs	r2, r2
1001271e:	18ad      	adds	r5, r5, r2
10012720:	022b      	lsls	r3, r5, #8
10012722:	d51f      	bpl.n	10012764 <__aeabi_dmul+0x4b4>
10012724:	2401      	movs	r4, #1
10012726:	2200      	movs	r2, #0
10012728:	400c      	ands	r4, r1
1001272a:	2301      	movs	r3, #1
1001272c:	2500      	movs	r5, #0
1001272e:	4690      	mov	r8, r2
10012730:	e624      	b.n	1001237c <__aeabi_dmul+0xcc>
10012732:	201f      	movs	r0, #31
10012734:	002c      	movs	r4, r5
10012736:	4240      	negs	r0, r0
10012738:	1a82      	subs	r2, r0, r2
1001273a:	40d4      	lsrs	r4, r2
1001273c:	2e20      	cmp	r6, #32
1001273e:	d01c      	beq.n	1001277a <__aeabi_dmul+0x4ca>
10012740:	2240      	movs	r2, #64	; 0x40
10012742:	1b96      	subs	r6, r2, r6
10012744:	40b5      	lsls	r5, r6
10012746:	432b      	orrs	r3, r5
10012748:	1e58      	subs	r0, r3, #1
1001274a:	4183      	sbcs	r3, r0
1001274c:	2007      	movs	r0, #7
1001274e:	4323      	orrs	r3, r4
10012750:	4018      	ands	r0, r3
10012752:	2500      	movs	r5, #0
10012754:	2800      	cmp	r0, #0
10012756:	d009      	beq.n	1001276c <__aeabi_dmul+0x4bc>
10012758:	220f      	movs	r2, #15
1001275a:	2500      	movs	r5, #0
1001275c:	401a      	ands	r2, r3
1001275e:	001c      	movs	r4, r3
10012760:	2a04      	cmp	r2, #4
10012762:	d1d8      	bne.n	10012716 <__aeabi_dmul+0x466>
10012764:	0023      	movs	r3, r4
10012766:	0768      	lsls	r0, r5, #29
10012768:	026d      	lsls	r5, r5, #9
1001276a:	0b2d      	lsrs	r5, r5, #12
1001276c:	2401      	movs	r4, #1
1001276e:	08db      	lsrs	r3, r3, #3
10012770:	4303      	orrs	r3, r0
10012772:	4698      	mov	r8, r3
10012774:	400c      	ands	r4, r1
10012776:	2300      	movs	r3, #0
10012778:	e600      	b.n	1001237c <__aeabi_dmul+0xcc>
1001277a:	2500      	movs	r5, #0
1001277c:	e7e3      	b.n	10012746 <__aeabi_dmul+0x496>
1001277e:	2280      	movs	r2, #128	; 0x80
10012780:	2401      	movs	r4, #1
10012782:	0312      	lsls	r2, r2, #12
10012784:	4315      	orrs	r5, r2
10012786:	032d      	lsls	r5, r5, #12
10012788:	4698      	mov	r8, r3
1001278a:	0b2d      	lsrs	r5, r5, #12
1001278c:	400c      	ands	r4, r1
1001278e:	4b04      	ldr	r3, [pc, #16]	; (100127a0 <__aeabi_dmul+0x4f0>)
10012790:	e5f4      	b.n	1001237c <__aeabi_dmul+0xcc>
10012792:	46c0      	nop			; (mov r8, r8)
10012794:	000003ff 	.word	0x000003ff
10012798:	feffffff 	.word	0xfeffffff
1001279c:	000007fe 	.word	0x000007fe
100127a0:	000007ff 	.word	0x000007ff

100127a4 <__aeabi_dsub>:
100127a4:	b5f0      	push	{r4, r5, r6, r7, lr}
100127a6:	4657      	mov	r7, sl
100127a8:	464e      	mov	r6, r9
100127aa:	4645      	mov	r5, r8
100127ac:	b4e0      	push	{r5, r6, r7}
100127ae:	000e      	movs	r6, r1
100127b0:	0011      	movs	r1, r2
100127b2:	0ff2      	lsrs	r2, r6, #31
100127b4:	4692      	mov	sl, r2
100127b6:	00c5      	lsls	r5, r0, #3
100127b8:	0f42      	lsrs	r2, r0, #29
100127ba:	0318      	lsls	r0, r3, #12
100127bc:	0337      	lsls	r7, r6, #12
100127be:	0074      	lsls	r4, r6, #1
100127c0:	0a40      	lsrs	r0, r0, #9
100127c2:	0f4e      	lsrs	r6, r1, #29
100127c4:	0a7f      	lsrs	r7, r7, #9
100127c6:	4330      	orrs	r0, r6
100127c8:	4ecf      	ldr	r6, [pc, #828]	; (10012b08 <__aeabi_dsub+0x364>)
100127ca:	4317      	orrs	r7, r2
100127cc:	005a      	lsls	r2, r3, #1
100127ce:	0d64      	lsrs	r4, r4, #21
100127d0:	0d52      	lsrs	r2, r2, #21
100127d2:	0fdb      	lsrs	r3, r3, #31
100127d4:	00c9      	lsls	r1, r1, #3
100127d6:	42b2      	cmp	r2, r6
100127d8:	d100      	bne.n	100127dc <__aeabi_dsub+0x38>
100127da:	e0e5      	b.n	100129a8 <__aeabi_dsub+0x204>
100127dc:	2601      	movs	r6, #1
100127de:	4073      	eors	r3, r6
100127e0:	1aa6      	subs	r6, r4, r2
100127e2:	46b4      	mov	ip, r6
100127e4:	4553      	cmp	r3, sl
100127e6:	d100      	bne.n	100127ea <__aeabi_dsub+0x46>
100127e8:	e0af      	b.n	1001294a <__aeabi_dsub+0x1a6>
100127ea:	2e00      	cmp	r6, #0
100127ec:	dc00      	bgt.n	100127f0 <__aeabi_dsub+0x4c>
100127ee:	e10d      	b.n	10012a0c <__aeabi_dsub+0x268>
100127f0:	2a00      	cmp	r2, #0
100127f2:	d13a      	bne.n	1001286a <__aeabi_dsub+0xc6>
100127f4:	0003      	movs	r3, r0
100127f6:	430b      	orrs	r3, r1
100127f8:	d000      	beq.n	100127fc <__aeabi_dsub+0x58>
100127fa:	e0e4      	b.n	100129c6 <__aeabi_dsub+0x222>
100127fc:	076b      	lsls	r3, r5, #29
100127fe:	d009      	beq.n	10012814 <__aeabi_dsub+0x70>
10012800:	230f      	movs	r3, #15
10012802:	402b      	ands	r3, r5
10012804:	2b04      	cmp	r3, #4
10012806:	d005      	beq.n	10012814 <__aeabi_dsub+0x70>
10012808:	1d2b      	adds	r3, r5, #4
1001280a:	42ab      	cmp	r3, r5
1001280c:	41ad      	sbcs	r5, r5
1001280e:	426d      	negs	r5, r5
10012810:	197f      	adds	r7, r7, r5
10012812:	001d      	movs	r5, r3
10012814:	023b      	lsls	r3, r7, #8
10012816:	d400      	bmi.n	1001281a <__aeabi_dsub+0x76>
10012818:	e088      	b.n	1001292c <__aeabi_dsub+0x188>
1001281a:	4bbb      	ldr	r3, [pc, #748]	; (10012b08 <__aeabi_dsub+0x364>)
1001281c:	3401      	adds	r4, #1
1001281e:	429c      	cmp	r4, r3
10012820:	d100      	bne.n	10012824 <__aeabi_dsub+0x80>
10012822:	e110      	b.n	10012a46 <__aeabi_dsub+0x2a2>
10012824:	003a      	movs	r2, r7
10012826:	4bb9      	ldr	r3, [pc, #740]	; (10012b0c <__aeabi_dsub+0x368>)
10012828:	4651      	mov	r1, sl
1001282a:	401a      	ands	r2, r3
1001282c:	2301      	movs	r3, #1
1001282e:	0750      	lsls	r0, r2, #29
10012830:	08ed      	lsrs	r5, r5, #3
10012832:	0252      	lsls	r2, r2, #9
10012834:	0564      	lsls	r4, r4, #21
10012836:	4305      	orrs	r5, r0
10012838:	0b12      	lsrs	r2, r2, #12
1001283a:	0d64      	lsrs	r4, r4, #21
1001283c:	400b      	ands	r3, r1
1001283e:	2100      	movs	r1, #0
10012840:	0028      	movs	r0, r5
10012842:	0312      	lsls	r2, r2, #12
10012844:	0d0d      	lsrs	r5, r1, #20
10012846:	0b12      	lsrs	r2, r2, #12
10012848:	0564      	lsls	r4, r4, #21
1001284a:	052d      	lsls	r5, r5, #20
1001284c:	4315      	orrs	r5, r2
1001284e:	0862      	lsrs	r2, r4, #1
10012850:	4caf      	ldr	r4, [pc, #700]	; (10012b10 <__aeabi_dsub+0x36c>)
10012852:	07db      	lsls	r3, r3, #31
10012854:	402c      	ands	r4, r5
10012856:	4314      	orrs	r4, r2
10012858:	0064      	lsls	r4, r4, #1
1001285a:	0864      	lsrs	r4, r4, #1
1001285c:	431c      	orrs	r4, r3
1001285e:	0021      	movs	r1, r4
10012860:	bc1c      	pop	{r2, r3, r4}
10012862:	4690      	mov	r8, r2
10012864:	4699      	mov	r9, r3
10012866:	46a2      	mov	sl, r4
10012868:	bdf0      	pop	{r4, r5, r6, r7, pc}
1001286a:	4ba7      	ldr	r3, [pc, #668]	; (10012b08 <__aeabi_dsub+0x364>)
1001286c:	429c      	cmp	r4, r3
1001286e:	d0c5      	beq.n	100127fc <__aeabi_dsub+0x58>
10012870:	2380      	movs	r3, #128	; 0x80
10012872:	041b      	lsls	r3, r3, #16
10012874:	4318      	orrs	r0, r3
10012876:	4663      	mov	r3, ip
10012878:	2b38      	cmp	r3, #56	; 0x38
1001287a:	dd00      	ble.n	1001287e <__aeabi_dsub+0xda>
1001287c:	e0fd      	b.n	10012a7a <__aeabi_dsub+0x2d6>
1001287e:	2b1f      	cmp	r3, #31
10012880:	dd00      	ble.n	10012884 <__aeabi_dsub+0xe0>
10012882:	e130      	b.n	10012ae6 <__aeabi_dsub+0x342>
10012884:	4662      	mov	r2, ip
10012886:	2320      	movs	r3, #32
10012888:	1a9b      	subs	r3, r3, r2
1001288a:	0002      	movs	r2, r0
1001288c:	409a      	lsls	r2, r3
1001288e:	4666      	mov	r6, ip
10012890:	4690      	mov	r8, r2
10012892:	000a      	movs	r2, r1
10012894:	4099      	lsls	r1, r3
10012896:	40f2      	lsrs	r2, r6
10012898:	4646      	mov	r6, r8
1001289a:	1e4b      	subs	r3, r1, #1
1001289c:	4199      	sbcs	r1, r3
1001289e:	4332      	orrs	r2, r6
100128a0:	4311      	orrs	r1, r2
100128a2:	4663      	mov	r3, ip
100128a4:	0002      	movs	r2, r0
100128a6:	40da      	lsrs	r2, r3
100128a8:	1a69      	subs	r1, r5, r1
100128aa:	428d      	cmp	r5, r1
100128ac:	419b      	sbcs	r3, r3
100128ae:	000d      	movs	r5, r1
100128b0:	1aba      	subs	r2, r7, r2
100128b2:	425b      	negs	r3, r3
100128b4:	1ad7      	subs	r7, r2, r3
100128b6:	023b      	lsls	r3, r7, #8
100128b8:	d535      	bpl.n	10012926 <__aeabi_dsub+0x182>
100128ba:	027a      	lsls	r2, r7, #9
100128bc:	0a53      	lsrs	r3, r2, #9
100128be:	4698      	mov	r8, r3
100128c0:	4643      	mov	r3, r8
100128c2:	2b00      	cmp	r3, #0
100128c4:	d100      	bne.n	100128c8 <__aeabi_dsub+0x124>
100128c6:	e0c4      	b.n	10012a52 <__aeabi_dsub+0x2ae>
100128c8:	4640      	mov	r0, r8
100128ca:	f000 fb2d 	bl	10012f28 <__clzsi2>
100128ce:	0003      	movs	r3, r0
100128d0:	3b08      	subs	r3, #8
100128d2:	2b1f      	cmp	r3, #31
100128d4:	dd00      	ble.n	100128d8 <__aeabi_dsub+0x134>
100128d6:	e0c5      	b.n	10012a64 <__aeabi_dsub+0x2c0>
100128d8:	2220      	movs	r2, #32
100128da:	0029      	movs	r1, r5
100128dc:	1ad2      	subs	r2, r2, r3
100128de:	4647      	mov	r7, r8
100128e0:	40d1      	lsrs	r1, r2
100128e2:	409f      	lsls	r7, r3
100128e4:	000a      	movs	r2, r1
100128e6:	409d      	lsls	r5, r3
100128e8:	433a      	orrs	r2, r7
100128ea:	429c      	cmp	r4, r3
100128ec:	dd00      	ble.n	100128f0 <__aeabi_dsub+0x14c>
100128ee:	e0c0      	b.n	10012a72 <__aeabi_dsub+0x2ce>
100128f0:	1b1c      	subs	r4, r3, r4
100128f2:	1c63      	adds	r3, r4, #1
100128f4:	2b1f      	cmp	r3, #31
100128f6:	dd00      	ble.n	100128fa <__aeabi_dsub+0x156>
100128f8:	e0e4      	b.n	10012ac4 <__aeabi_dsub+0x320>
100128fa:	2120      	movs	r1, #32
100128fc:	0014      	movs	r4, r2
100128fe:	0028      	movs	r0, r5
10012900:	1ac9      	subs	r1, r1, r3
10012902:	40d8      	lsrs	r0, r3
10012904:	408c      	lsls	r4, r1
10012906:	408d      	lsls	r5, r1
10012908:	4304      	orrs	r4, r0
1001290a:	40da      	lsrs	r2, r3
1001290c:	1e68      	subs	r0, r5, #1
1001290e:	4185      	sbcs	r5, r0
10012910:	0017      	movs	r7, r2
10012912:	4325      	orrs	r5, r4
10012914:	2400      	movs	r4, #0
10012916:	e771      	b.n	100127fc <__aeabi_dsub+0x58>
10012918:	4642      	mov	r2, r8
1001291a:	4663      	mov	r3, ip
1001291c:	431a      	orrs	r2, r3
1001291e:	d100      	bne.n	10012922 <__aeabi_dsub+0x17e>
10012920:	e24c      	b.n	10012dbc <__aeabi_dsub+0x618>
10012922:	4667      	mov	r7, ip
10012924:	4645      	mov	r5, r8
10012926:	076b      	lsls	r3, r5, #29
10012928:	d000      	beq.n	1001292c <__aeabi_dsub+0x188>
1001292a:	e769      	b.n	10012800 <__aeabi_dsub+0x5c>
1001292c:	2301      	movs	r3, #1
1001292e:	4651      	mov	r1, sl
10012930:	0778      	lsls	r0, r7, #29
10012932:	08ed      	lsrs	r5, r5, #3
10012934:	08fa      	lsrs	r2, r7, #3
10012936:	400b      	ands	r3, r1
10012938:	4305      	orrs	r5, r0
1001293a:	4973      	ldr	r1, [pc, #460]	; (10012b08 <__aeabi_dsub+0x364>)
1001293c:	428c      	cmp	r4, r1
1001293e:	d038      	beq.n	100129b2 <__aeabi_dsub+0x20e>
10012940:	0312      	lsls	r2, r2, #12
10012942:	0564      	lsls	r4, r4, #21
10012944:	0b12      	lsrs	r2, r2, #12
10012946:	0d64      	lsrs	r4, r4, #21
10012948:	e779      	b.n	1001283e <__aeabi_dsub+0x9a>
1001294a:	2e00      	cmp	r6, #0
1001294c:	dc00      	bgt.n	10012950 <__aeabi_dsub+0x1ac>
1001294e:	e09a      	b.n	10012a86 <__aeabi_dsub+0x2e2>
10012950:	2a00      	cmp	r2, #0
10012952:	d047      	beq.n	100129e4 <__aeabi_dsub+0x240>
10012954:	4a6c      	ldr	r2, [pc, #432]	; (10012b08 <__aeabi_dsub+0x364>)
10012956:	4294      	cmp	r4, r2
10012958:	d100      	bne.n	1001295c <__aeabi_dsub+0x1b8>
1001295a:	e74f      	b.n	100127fc <__aeabi_dsub+0x58>
1001295c:	2280      	movs	r2, #128	; 0x80
1001295e:	0412      	lsls	r2, r2, #16
10012960:	4310      	orrs	r0, r2
10012962:	4662      	mov	r2, ip
10012964:	2a38      	cmp	r2, #56	; 0x38
10012966:	dc00      	bgt.n	1001296a <__aeabi_dsub+0x1c6>
10012968:	e108      	b.n	10012b7c <__aeabi_dsub+0x3d8>
1001296a:	4301      	orrs	r1, r0
1001296c:	1e48      	subs	r0, r1, #1
1001296e:	4181      	sbcs	r1, r0
10012970:	2200      	movs	r2, #0
10012972:	b2c9      	uxtb	r1, r1
10012974:	1949      	adds	r1, r1, r5
10012976:	19d2      	adds	r2, r2, r7
10012978:	42a9      	cmp	r1, r5
1001297a:	41bf      	sbcs	r7, r7
1001297c:	000d      	movs	r5, r1
1001297e:	427f      	negs	r7, r7
10012980:	18bf      	adds	r7, r7, r2
10012982:	023a      	lsls	r2, r7, #8
10012984:	d400      	bmi.n	10012988 <__aeabi_dsub+0x1e4>
10012986:	e142      	b.n	10012c0e <__aeabi_dsub+0x46a>
10012988:	4a5f      	ldr	r2, [pc, #380]	; (10012b08 <__aeabi_dsub+0x364>)
1001298a:	3401      	adds	r4, #1
1001298c:	4294      	cmp	r4, r2
1001298e:	d100      	bne.n	10012992 <__aeabi_dsub+0x1ee>
10012990:	e14e      	b.n	10012c30 <__aeabi_dsub+0x48c>
10012992:	2001      	movs	r0, #1
10012994:	4a5d      	ldr	r2, [pc, #372]	; (10012b0c <__aeabi_dsub+0x368>)
10012996:	0869      	lsrs	r1, r5, #1
10012998:	403a      	ands	r2, r7
1001299a:	4028      	ands	r0, r5
1001299c:	4308      	orrs	r0, r1
1001299e:	07d5      	lsls	r5, r2, #31
100129a0:	4305      	orrs	r5, r0
100129a2:	0857      	lsrs	r7, r2, #1
100129a4:	469a      	mov	sl, r3
100129a6:	e729      	b.n	100127fc <__aeabi_dsub+0x58>
100129a8:	0006      	movs	r6, r0
100129aa:	430e      	orrs	r6, r1
100129ac:	d000      	beq.n	100129b0 <__aeabi_dsub+0x20c>
100129ae:	e717      	b.n	100127e0 <__aeabi_dsub+0x3c>
100129b0:	e714      	b.n	100127dc <__aeabi_dsub+0x38>
100129b2:	0029      	movs	r1, r5
100129b4:	4311      	orrs	r1, r2
100129b6:	d100      	bne.n	100129ba <__aeabi_dsub+0x216>
100129b8:	e1f9      	b.n	10012dae <__aeabi_dsub+0x60a>
100129ba:	2180      	movs	r1, #128	; 0x80
100129bc:	0309      	lsls	r1, r1, #12
100129be:	430a      	orrs	r2, r1
100129c0:	0312      	lsls	r2, r2, #12
100129c2:	0b12      	lsrs	r2, r2, #12
100129c4:	e73b      	b.n	1001283e <__aeabi_dsub+0x9a>
100129c6:	2301      	movs	r3, #1
100129c8:	425b      	negs	r3, r3
100129ca:	4698      	mov	r8, r3
100129cc:	44c4      	add	ip, r8
100129ce:	4663      	mov	r3, ip
100129d0:	2b00      	cmp	r3, #0
100129d2:	d172      	bne.n	10012aba <__aeabi_dsub+0x316>
100129d4:	1a69      	subs	r1, r5, r1
100129d6:	428d      	cmp	r5, r1
100129d8:	419b      	sbcs	r3, r3
100129da:	1a3f      	subs	r7, r7, r0
100129dc:	425b      	negs	r3, r3
100129de:	1aff      	subs	r7, r7, r3
100129e0:	000d      	movs	r5, r1
100129e2:	e768      	b.n	100128b6 <__aeabi_dsub+0x112>
100129e4:	0002      	movs	r2, r0
100129e6:	430a      	orrs	r2, r1
100129e8:	d100      	bne.n	100129ec <__aeabi_dsub+0x248>
100129ea:	e707      	b.n	100127fc <__aeabi_dsub+0x58>
100129ec:	2201      	movs	r2, #1
100129ee:	4252      	negs	r2, r2
100129f0:	4690      	mov	r8, r2
100129f2:	44c4      	add	ip, r8
100129f4:	4662      	mov	r2, ip
100129f6:	2a00      	cmp	r2, #0
100129f8:	d000      	beq.n	100129fc <__aeabi_dsub+0x258>
100129fa:	e0e6      	b.n	10012bca <__aeabi_dsub+0x426>
100129fc:	1869      	adds	r1, r5, r1
100129fe:	42a9      	cmp	r1, r5
10012a00:	41b6      	sbcs	r6, r6
10012a02:	183f      	adds	r7, r7, r0
10012a04:	4276      	negs	r6, r6
10012a06:	19f7      	adds	r7, r6, r7
10012a08:	000d      	movs	r5, r1
10012a0a:	e7ba      	b.n	10012982 <__aeabi_dsub+0x1de>
10012a0c:	2e00      	cmp	r6, #0
10012a0e:	d000      	beq.n	10012a12 <__aeabi_dsub+0x26e>
10012a10:	e080      	b.n	10012b14 <__aeabi_dsub+0x370>
10012a12:	1c62      	adds	r2, r4, #1
10012a14:	0552      	lsls	r2, r2, #21
10012a16:	0d52      	lsrs	r2, r2, #21
10012a18:	2a01      	cmp	r2, #1
10012a1a:	dc00      	bgt.n	10012a1e <__aeabi_dsub+0x27a>
10012a1c:	e0f9      	b.n	10012c12 <__aeabi_dsub+0x46e>
10012a1e:	1a6a      	subs	r2, r5, r1
10012a20:	4691      	mov	r9, r2
10012a22:	454d      	cmp	r5, r9
10012a24:	41b6      	sbcs	r6, r6
10012a26:	1a3a      	subs	r2, r7, r0
10012a28:	4276      	negs	r6, r6
10012a2a:	1b92      	subs	r2, r2, r6
10012a2c:	4690      	mov	r8, r2
10012a2e:	0212      	lsls	r2, r2, #8
10012a30:	d400      	bmi.n	10012a34 <__aeabi_dsub+0x290>
10012a32:	e099      	b.n	10012b68 <__aeabi_dsub+0x3c4>
10012a34:	1b4d      	subs	r5, r1, r5
10012a36:	42a9      	cmp	r1, r5
10012a38:	4189      	sbcs	r1, r1
10012a3a:	1bc7      	subs	r7, r0, r7
10012a3c:	4249      	negs	r1, r1
10012a3e:	1a7a      	subs	r2, r7, r1
10012a40:	4690      	mov	r8, r2
10012a42:	469a      	mov	sl, r3
10012a44:	e73c      	b.n	100128c0 <__aeabi_dsub+0x11c>
10012a46:	4652      	mov	r2, sl
10012a48:	2301      	movs	r3, #1
10012a4a:	2500      	movs	r5, #0
10012a4c:	4013      	ands	r3, r2
10012a4e:	2200      	movs	r2, #0
10012a50:	e6f5      	b.n	1001283e <__aeabi_dsub+0x9a>
10012a52:	0028      	movs	r0, r5
10012a54:	f000 fa68 	bl	10012f28 <__clzsi2>
10012a58:	3020      	adds	r0, #32
10012a5a:	0003      	movs	r3, r0
10012a5c:	3b08      	subs	r3, #8
10012a5e:	2b1f      	cmp	r3, #31
10012a60:	dc00      	bgt.n	10012a64 <__aeabi_dsub+0x2c0>
10012a62:	e739      	b.n	100128d8 <__aeabi_dsub+0x134>
10012a64:	002a      	movs	r2, r5
10012a66:	3828      	subs	r0, #40	; 0x28
10012a68:	4082      	lsls	r2, r0
10012a6a:	2500      	movs	r5, #0
10012a6c:	429c      	cmp	r4, r3
10012a6e:	dc00      	bgt.n	10012a72 <__aeabi_dsub+0x2ce>
10012a70:	e73e      	b.n	100128f0 <__aeabi_dsub+0x14c>
10012a72:	4f26      	ldr	r7, [pc, #152]	; (10012b0c <__aeabi_dsub+0x368>)
10012a74:	1ae4      	subs	r4, r4, r3
10012a76:	4017      	ands	r7, r2
10012a78:	e6c0      	b.n	100127fc <__aeabi_dsub+0x58>
10012a7a:	4301      	orrs	r1, r0
10012a7c:	1e48      	subs	r0, r1, #1
10012a7e:	4181      	sbcs	r1, r0
10012a80:	2200      	movs	r2, #0
10012a82:	b2c9      	uxtb	r1, r1
10012a84:	e710      	b.n	100128a8 <__aeabi_dsub+0x104>
10012a86:	2e00      	cmp	r6, #0
10012a88:	d000      	beq.n	10012a8c <__aeabi_dsub+0x2e8>
10012a8a:	e0f1      	b.n	10012c70 <__aeabi_dsub+0x4cc>
10012a8c:	1c62      	adds	r2, r4, #1
10012a8e:	4694      	mov	ip, r2
10012a90:	0552      	lsls	r2, r2, #21
10012a92:	0d52      	lsrs	r2, r2, #21
10012a94:	2a01      	cmp	r2, #1
10012a96:	dc00      	bgt.n	10012a9a <__aeabi_dsub+0x2f6>
10012a98:	e0a0      	b.n	10012bdc <__aeabi_dsub+0x438>
10012a9a:	4a1b      	ldr	r2, [pc, #108]	; (10012b08 <__aeabi_dsub+0x364>)
10012a9c:	4594      	cmp	ip, r2
10012a9e:	d100      	bne.n	10012aa2 <__aeabi_dsub+0x2fe>
10012aa0:	e0c5      	b.n	10012c2e <__aeabi_dsub+0x48a>
10012aa2:	1869      	adds	r1, r5, r1
10012aa4:	42a9      	cmp	r1, r5
10012aa6:	4192      	sbcs	r2, r2
10012aa8:	183f      	adds	r7, r7, r0
10012aaa:	4252      	negs	r2, r2
10012aac:	19d2      	adds	r2, r2, r7
10012aae:	0849      	lsrs	r1, r1, #1
10012ab0:	07d5      	lsls	r5, r2, #31
10012ab2:	430d      	orrs	r5, r1
10012ab4:	0857      	lsrs	r7, r2, #1
10012ab6:	4664      	mov	r4, ip
10012ab8:	e6a0      	b.n	100127fc <__aeabi_dsub+0x58>
10012aba:	4b13      	ldr	r3, [pc, #76]	; (10012b08 <__aeabi_dsub+0x364>)
10012abc:	429c      	cmp	r4, r3
10012abe:	d000      	beq.n	10012ac2 <__aeabi_dsub+0x31e>
10012ac0:	e6d9      	b.n	10012876 <__aeabi_dsub+0xd2>
10012ac2:	e69b      	b.n	100127fc <__aeabi_dsub+0x58>
10012ac4:	0011      	movs	r1, r2
10012ac6:	3c1f      	subs	r4, #31
10012ac8:	40e1      	lsrs	r1, r4
10012aca:	000c      	movs	r4, r1
10012acc:	2b20      	cmp	r3, #32
10012ace:	d100      	bne.n	10012ad2 <__aeabi_dsub+0x32e>
10012ad0:	e080      	b.n	10012bd4 <__aeabi_dsub+0x430>
10012ad2:	2140      	movs	r1, #64	; 0x40
10012ad4:	1acb      	subs	r3, r1, r3
10012ad6:	409a      	lsls	r2, r3
10012ad8:	4315      	orrs	r5, r2
10012ada:	1e6a      	subs	r2, r5, #1
10012adc:	4195      	sbcs	r5, r2
10012ade:	2700      	movs	r7, #0
10012ae0:	4325      	orrs	r5, r4
10012ae2:	2400      	movs	r4, #0
10012ae4:	e71f      	b.n	10012926 <__aeabi_dsub+0x182>
10012ae6:	4663      	mov	r3, ip
10012ae8:	0002      	movs	r2, r0
10012aea:	3b20      	subs	r3, #32
10012aec:	40da      	lsrs	r2, r3
10012aee:	4663      	mov	r3, ip
10012af0:	2b20      	cmp	r3, #32
10012af2:	d071      	beq.n	10012bd8 <__aeabi_dsub+0x434>
10012af4:	2340      	movs	r3, #64	; 0x40
10012af6:	4666      	mov	r6, ip
10012af8:	1b9b      	subs	r3, r3, r6
10012afa:	4098      	lsls	r0, r3
10012afc:	4301      	orrs	r1, r0
10012afe:	1e48      	subs	r0, r1, #1
10012b00:	4181      	sbcs	r1, r0
10012b02:	4311      	orrs	r1, r2
10012b04:	2200      	movs	r2, #0
10012b06:	e6cf      	b.n	100128a8 <__aeabi_dsub+0x104>
10012b08:	000007ff 	.word	0x000007ff
10012b0c:	ff7fffff 	.word	0xff7fffff
10012b10:	800fffff 	.word	0x800fffff
10012b14:	2c00      	cmp	r4, #0
10012b16:	d048      	beq.n	10012baa <__aeabi_dsub+0x406>
10012b18:	4cca      	ldr	r4, [pc, #808]	; (10012e44 <__aeabi_dsub+0x6a0>)
10012b1a:	42a2      	cmp	r2, r4
10012b1c:	d100      	bne.n	10012b20 <__aeabi_dsub+0x37c>
10012b1e:	e0a2      	b.n	10012c66 <__aeabi_dsub+0x4c2>
10012b20:	4274      	negs	r4, r6
10012b22:	46a1      	mov	r9, r4
10012b24:	2480      	movs	r4, #128	; 0x80
10012b26:	0424      	lsls	r4, r4, #16
10012b28:	4327      	orrs	r7, r4
10012b2a:	464c      	mov	r4, r9
10012b2c:	2c38      	cmp	r4, #56	; 0x38
10012b2e:	dd00      	ble.n	10012b32 <__aeabi_dsub+0x38e>
10012b30:	e0db      	b.n	10012cea <__aeabi_dsub+0x546>
10012b32:	2c1f      	cmp	r4, #31
10012b34:	dd00      	ble.n	10012b38 <__aeabi_dsub+0x394>
10012b36:	e144      	b.n	10012dc2 <__aeabi_dsub+0x61e>
10012b38:	464e      	mov	r6, r9
10012b3a:	2420      	movs	r4, #32
10012b3c:	1ba4      	subs	r4, r4, r6
10012b3e:	003e      	movs	r6, r7
10012b40:	40a6      	lsls	r6, r4
10012b42:	46a2      	mov	sl, r4
10012b44:	46b0      	mov	r8, r6
10012b46:	464c      	mov	r4, r9
10012b48:	002e      	movs	r6, r5
10012b4a:	40e6      	lsrs	r6, r4
10012b4c:	46b4      	mov	ip, r6
10012b4e:	4646      	mov	r6, r8
10012b50:	4664      	mov	r4, ip
10012b52:	4326      	orrs	r6, r4
10012b54:	4654      	mov	r4, sl
10012b56:	40a5      	lsls	r5, r4
10012b58:	1e6c      	subs	r4, r5, #1
10012b5a:	41a5      	sbcs	r5, r4
10012b5c:	0034      	movs	r4, r6
10012b5e:	432c      	orrs	r4, r5
10012b60:	464d      	mov	r5, r9
10012b62:	40ef      	lsrs	r7, r5
10012b64:	1b0d      	subs	r5, r1, r4
10012b66:	e028      	b.n	10012bba <__aeabi_dsub+0x416>
10012b68:	464a      	mov	r2, r9
10012b6a:	4643      	mov	r3, r8
10012b6c:	464d      	mov	r5, r9
10012b6e:	431a      	orrs	r2, r3
10012b70:	d000      	beq.n	10012b74 <__aeabi_dsub+0x3d0>
10012b72:	e6a5      	b.n	100128c0 <__aeabi_dsub+0x11c>
10012b74:	2300      	movs	r3, #0
10012b76:	2400      	movs	r4, #0
10012b78:	2500      	movs	r5, #0
10012b7a:	e6de      	b.n	1001293a <__aeabi_dsub+0x196>
10012b7c:	2a1f      	cmp	r2, #31
10012b7e:	dc5a      	bgt.n	10012c36 <__aeabi_dsub+0x492>
10012b80:	4666      	mov	r6, ip
10012b82:	2220      	movs	r2, #32
10012b84:	1b92      	subs	r2, r2, r6
10012b86:	0006      	movs	r6, r0
10012b88:	4096      	lsls	r6, r2
10012b8a:	4691      	mov	r9, r2
10012b8c:	46b0      	mov	r8, r6
10012b8e:	4662      	mov	r2, ip
10012b90:	000e      	movs	r6, r1
10012b92:	40d6      	lsrs	r6, r2
10012b94:	4642      	mov	r2, r8
10012b96:	4316      	orrs	r6, r2
10012b98:	464a      	mov	r2, r9
10012b9a:	4091      	lsls	r1, r2
10012b9c:	1e4a      	subs	r2, r1, #1
10012b9e:	4191      	sbcs	r1, r2
10012ba0:	0002      	movs	r2, r0
10012ba2:	4660      	mov	r0, ip
10012ba4:	4331      	orrs	r1, r6
10012ba6:	40c2      	lsrs	r2, r0
10012ba8:	e6e4      	b.n	10012974 <__aeabi_dsub+0x1d0>
10012baa:	003c      	movs	r4, r7
10012bac:	432c      	orrs	r4, r5
10012bae:	d05a      	beq.n	10012c66 <__aeabi_dsub+0x4c2>
10012bb0:	43f4      	mvns	r4, r6
10012bb2:	46a1      	mov	r9, r4
10012bb4:	2c00      	cmp	r4, #0
10012bb6:	d152      	bne.n	10012c5e <__aeabi_dsub+0x4ba>
10012bb8:	1b4d      	subs	r5, r1, r5
10012bba:	42a9      	cmp	r1, r5
10012bbc:	4189      	sbcs	r1, r1
10012bbe:	1bc7      	subs	r7, r0, r7
10012bc0:	4249      	negs	r1, r1
10012bc2:	1a7f      	subs	r7, r7, r1
10012bc4:	0014      	movs	r4, r2
10012bc6:	469a      	mov	sl, r3
10012bc8:	e675      	b.n	100128b6 <__aeabi_dsub+0x112>
10012bca:	4a9e      	ldr	r2, [pc, #632]	; (10012e44 <__aeabi_dsub+0x6a0>)
10012bcc:	4294      	cmp	r4, r2
10012bce:	d000      	beq.n	10012bd2 <__aeabi_dsub+0x42e>
10012bd0:	e6c7      	b.n	10012962 <__aeabi_dsub+0x1be>
10012bd2:	e613      	b.n	100127fc <__aeabi_dsub+0x58>
10012bd4:	2200      	movs	r2, #0
10012bd6:	e77f      	b.n	10012ad8 <__aeabi_dsub+0x334>
10012bd8:	2000      	movs	r0, #0
10012bda:	e78f      	b.n	10012afc <__aeabi_dsub+0x358>
10012bdc:	2c00      	cmp	r4, #0
10012bde:	d000      	beq.n	10012be2 <__aeabi_dsub+0x43e>
10012be0:	e0c8      	b.n	10012d74 <__aeabi_dsub+0x5d0>
10012be2:	003b      	movs	r3, r7
10012be4:	432b      	orrs	r3, r5
10012be6:	d100      	bne.n	10012bea <__aeabi_dsub+0x446>
10012be8:	e10f      	b.n	10012e0a <__aeabi_dsub+0x666>
10012bea:	0003      	movs	r3, r0
10012bec:	430b      	orrs	r3, r1
10012bee:	d100      	bne.n	10012bf2 <__aeabi_dsub+0x44e>
10012bf0:	e604      	b.n	100127fc <__aeabi_dsub+0x58>
10012bf2:	1869      	adds	r1, r5, r1
10012bf4:	42a9      	cmp	r1, r5
10012bf6:	419b      	sbcs	r3, r3
10012bf8:	183f      	adds	r7, r7, r0
10012bfa:	425b      	negs	r3, r3
10012bfc:	19df      	adds	r7, r3, r7
10012bfe:	023b      	lsls	r3, r7, #8
10012c00:	d400      	bmi.n	10012c04 <__aeabi_dsub+0x460>
10012c02:	e11a      	b.n	10012e3a <__aeabi_dsub+0x696>
10012c04:	4b90      	ldr	r3, [pc, #576]	; (10012e48 <__aeabi_dsub+0x6a4>)
10012c06:	000d      	movs	r5, r1
10012c08:	401f      	ands	r7, r3
10012c0a:	4664      	mov	r4, ip
10012c0c:	e5f6      	b.n	100127fc <__aeabi_dsub+0x58>
10012c0e:	469a      	mov	sl, r3
10012c10:	e689      	b.n	10012926 <__aeabi_dsub+0x182>
10012c12:	003a      	movs	r2, r7
10012c14:	432a      	orrs	r2, r5
10012c16:	2c00      	cmp	r4, #0
10012c18:	d15c      	bne.n	10012cd4 <__aeabi_dsub+0x530>
10012c1a:	2a00      	cmp	r2, #0
10012c1c:	d175      	bne.n	10012d0a <__aeabi_dsub+0x566>
10012c1e:	0002      	movs	r2, r0
10012c20:	430a      	orrs	r2, r1
10012c22:	d100      	bne.n	10012c26 <__aeabi_dsub+0x482>
10012c24:	e0ca      	b.n	10012dbc <__aeabi_dsub+0x618>
10012c26:	0007      	movs	r7, r0
10012c28:	000d      	movs	r5, r1
10012c2a:	469a      	mov	sl, r3
10012c2c:	e5e6      	b.n	100127fc <__aeabi_dsub+0x58>
10012c2e:	4664      	mov	r4, ip
10012c30:	2200      	movs	r2, #0
10012c32:	2500      	movs	r5, #0
10012c34:	e681      	b.n	1001293a <__aeabi_dsub+0x196>
10012c36:	4662      	mov	r2, ip
10012c38:	0006      	movs	r6, r0
10012c3a:	3a20      	subs	r2, #32
10012c3c:	40d6      	lsrs	r6, r2
10012c3e:	4662      	mov	r2, ip
10012c40:	46b0      	mov	r8, r6
10012c42:	2a20      	cmp	r2, #32
10012c44:	d100      	bne.n	10012c48 <__aeabi_dsub+0x4a4>
10012c46:	e0b7      	b.n	10012db8 <__aeabi_dsub+0x614>
10012c48:	2240      	movs	r2, #64	; 0x40
10012c4a:	4666      	mov	r6, ip
10012c4c:	1b92      	subs	r2, r2, r6
10012c4e:	4090      	lsls	r0, r2
10012c50:	4301      	orrs	r1, r0
10012c52:	4642      	mov	r2, r8
10012c54:	1e48      	subs	r0, r1, #1
10012c56:	4181      	sbcs	r1, r0
10012c58:	4311      	orrs	r1, r2
10012c5a:	2200      	movs	r2, #0
10012c5c:	e68a      	b.n	10012974 <__aeabi_dsub+0x1d0>
10012c5e:	4c79      	ldr	r4, [pc, #484]	; (10012e44 <__aeabi_dsub+0x6a0>)
10012c60:	42a2      	cmp	r2, r4
10012c62:	d000      	beq.n	10012c66 <__aeabi_dsub+0x4c2>
10012c64:	e761      	b.n	10012b2a <__aeabi_dsub+0x386>
10012c66:	0007      	movs	r7, r0
10012c68:	000d      	movs	r5, r1
10012c6a:	0014      	movs	r4, r2
10012c6c:	469a      	mov	sl, r3
10012c6e:	e5c5      	b.n	100127fc <__aeabi_dsub+0x58>
10012c70:	2c00      	cmp	r4, #0
10012c72:	d141      	bne.n	10012cf8 <__aeabi_dsub+0x554>
10012c74:	003c      	movs	r4, r7
10012c76:	432c      	orrs	r4, r5
10012c78:	d078      	beq.n	10012d6c <__aeabi_dsub+0x5c8>
10012c7a:	43f4      	mvns	r4, r6
10012c7c:	46a1      	mov	r9, r4
10012c7e:	2c00      	cmp	r4, #0
10012c80:	d020      	beq.n	10012cc4 <__aeabi_dsub+0x520>
10012c82:	4c70      	ldr	r4, [pc, #448]	; (10012e44 <__aeabi_dsub+0x6a0>)
10012c84:	42a2      	cmp	r2, r4
10012c86:	d071      	beq.n	10012d6c <__aeabi_dsub+0x5c8>
10012c88:	464c      	mov	r4, r9
10012c8a:	2c38      	cmp	r4, #56	; 0x38
10012c8c:	dd00      	ble.n	10012c90 <__aeabi_dsub+0x4ec>
10012c8e:	e0b2      	b.n	10012df6 <__aeabi_dsub+0x652>
10012c90:	2c1f      	cmp	r4, #31
10012c92:	dd00      	ble.n	10012c96 <__aeabi_dsub+0x4f2>
10012c94:	e0bc      	b.n	10012e10 <__aeabi_dsub+0x66c>
10012c96:	2620      	movs	r6, #32
10012c98:	1b34      	subs	r4, r6, r4
10012c9a:	46a2      	mov	sl, r4
10012c9c:	003c      	movs	r4, r7
10012c9e:	4656      	mov	r6, sl
10012ca0:	40b4      	lsls	r4, r6
10012ca2:	464e      	mov	r6, r9
10012ca4:	46a0      	mov	r8, r4
10012ca6:	002c      	movs	r4, r5
10012ca8:	40f4      	lsrs	r4, r6
10012caa:	46a4      	mov	ip, r4
10012cac:	4644      	mov	r4, r8
10012cae:	4666      	mov	r6, ip
10012cb0:	4334      	orrs	r4, r6
10012cb2:	46a4      	mov	ip, r4
10012cb4:	4654      	mov	r4, sl
10012cb6:	40a5      	lsls	r5, r4
10012cb8:	4664      	mov	r4, ip
10012cba:	1e6e      	subs	r6, r5, #1
10012cbc:	41b5      	sbcs	r5, r6
10012cbe:	4325      	orrs	r5, r4
10012cc0:	464c      	mov	r4, r9
10012cc2:	40e7      	lsrs	r7, r4
10012cc4:	186d      	adds	r5, r5, r1
10012cc6:	428d      	cmp	r5, r1
10012cc8:	4189      	sbcs	r1, r1
10012cca:	183f      	adds	r7, r7, r0
10012ccc:	4249      	negs	r1, r1
10012cce:	19cf      	adds	r7, r1, r7
10012cd0:	0014      	movs	r4, r2
10012cd2:	e656      	b.n	10012982 <__aeabi_dsub+0x1de>
10012cd4:	2a00      	cmp	r2, #0
10012cd6:	d12f      	bne.n	10012d38 <__aeabi_dsub+0x594>
10012cd8:	0002      	movs	r2, r0
10012cda:	430a      	orrs	r2, r1
10012cdc:	d100      	bne.n	10012ce0 <__aeabi_dsub+0x53c>
10012cde:	e084      	b.n	10012dea <__aeabi_dsub+0x646>
10012ce0:	0007      	movs	r7, r0
10012ce2:	000d      	movs	r5, r1
10012ce4:	469a      	mov	sl, r3
10012ce6:	4c57      	ldr	r4, [pc, #348]	; (10012e44 <__aeabi_dsub+0x6a0>)
10012ce8:	e588      	b.n	100127fc <__aeabi_dsub+0x58>
10012cea:	433d      	orrs	r5, r7
10012cec:	1e6f      	subs	r7, r5, #1
10012cee:	41bd      	sbcs	r5, r7
10012cf0:	b2ec      	uxtb	r4, r5
10012cf2:	2700      	movs	r7, #0
10012cf4:	1b0d      	subs	r5, r1, r4
10012cf6:	e760      	b.n	10012bba <__aeabi_dsub+0x416>
10012cf8:	4c52      	ldr	r4, [pc, #328]	; (10012e44 <__aeabi_dsub+0x6a0>)
10012cfa:	42a2      	cmp	r2, r4
10012cfc:	d036      	beq.n	10012d6c <__aeabi_dsub+0x5c8>
10012cfe:	4274      	negs	r4, r6
10012d00:	2680      	movs	r6, #128	; 0x80
10012d02:	0436      	lsls	r6, r6, #16
10012d04:	46a1      	mov	r9, r4
10012d06:	4337      	orrs	r7, r6
10012d08:	e7be      	b.n	10012c88 <__aeabi_dsub+0x4e4>
10012d0a:	0002      	movs	r2, r0
10012d0c:	430a      	orrs	r2, r1
10012d0e:	d100      	bne.n	10012d12 <__aeabi_dsub+0x56e>
10012d10:	e574      	b.n	100127fc <__aeabi_dsub+0x58>
10012d12:	1a6a      	subs	r2, r5, r1
10012d14:	4690      	mov	r8, r2
10012d16:	4545      	cmp	r5, r8
10012d18:	41b6      	sbcs	r6, r6
10012d1a:	1a3a      	subs	r2, r7, r0
10012d1c:	4276      	negs	r6, r6
10012d1e:	1b92      	subs	r2, r2, r6
10012d20:	4694      	mov	ip, r2
10012d22:	0212      	lsls	r2, r2, #8
10012d24:	d400      	bmi.n	10012d28 <__aeabi_dsub+0x584>
10012d26:	e5f7      	b.n	10012918 <__aeabi_dsub+0x174>
10012d28:	1b4d      	subs	r5, r1, r5
10012d2a:	42a9      	cmp	r1, r5
10012d2c:	4189      	sbcs	r1, r1
10012d2e:	1bc7      	subs	r7, r0, r7
10012d30:	4249      	negs	r1, r1
10012d32:	1a7f      	subs	r7, r7, r1
10012d34:	469a      	mov	sl, r3
10012d36:	e561      	b.n	100127fc <__aeabi_dsub+0x58>
10012d38:	0002      	movs	r2, r0
10012d3a:	430a      	orrs	r2, r1
10012d3c:	d03a      	beq.n	10012db4 <__aeabi_dsub+0x610>
10012d3e:	08ed      	lsrs	r5, r5, #3
10012d40:	077c      	lsls	r4, r7, #29
10012d42:	432c      	orrs	r4, r5
10012d44:	2580      	movs	r5, #128	; 0x80
10012d46:	08fa      	lsrs	r2, r7, #3
10012d48:	032d      	lsls	r5, r5, #12
10012d4a:	422a      	tst	r2, r5
10012d4c:	d008      	beq.n	10012d60 <__aeabi_dsub+0x5bc>
10012d4e:	08c7      	lsrs	r7, r0, #3
10012d50:	422f      	tst	r7, r5
10012d52:	d105      	bne.n	10012d60 <__aeabi_dsub+0x5bc>
10012d54:	0745      	lsls	r5, r0, #29
10012d56:	002c      	movs	r4, r5
10012d58:	003a      	movs	r2, r7
10012d5a:	469a      	mov	sl, r3
10012d5c:	08c9      	lsrs	r1, r1, #3
10012d5e:	430c      	orrs	r4, r1
10012d60:	0f67      	lsrs	r7, r4, #29
10012d62:	00d2      	lsls	r2, r2, #3
10012d64:	00e5      	lsls	r5, r4, #3
10012d66:	4317      	orrs	r7, r2
10012d68:	4c36      	ldr	r4, [pc, #216]	; (10012e44 <__aeabi_dsub+0x6a0>)
10012d6a:	e547      	b.n	100127fc <__aeabi_dsub+0x58>
10012d6c:	0007      	movs	r7, r0
10012d6e:	000d      	movs	r5, r1
10012d70:	0014      	movs	r4, r2
10012d72:	e543      	b.n	100127fc <__aeabi_dsub+0x58>
10012d74:	003a      	movs	r2, r7
10012d76:	432a      	orrs	r2, r5
10012d78:	d043      	beq.n	10012e02 <__aeabi_dsub+0x65e>
10012d7a:	0002      	movs	r2, r0
10012d7c:	430a      	orrs	r2, r1
10012d7e:	d019      	beq.n	10012db4 <__aeabi_dsub+0x610>
10012d80:	08ed      	lsrs	r5, r5, #3
10012d82:	077c      	lsls	r4, r7, #29
10012d84:	432c      	orrs	r4, r5
10012d86:	2580      	movs	r5, #128	; 0x80
10012d88:	08fa      	lsrs	r2, r7, #3
10012d8a:	032d      	lsls	r5, r5, #12
10012d8c:	422a      	tst	r2, r5
10012d8e:	d007      	beq.n	10012da0 <__aeabi_dsub+0x5fc>
10012d90:	08c6      	lsrs	r6, r0, #3
10012d92:	422e      	tst	r6, r5
10012d94:	d104      	bne.n	10012da0 <__aeabi_dsub+0x5fc>
10012d96:	0747      	lsls	r7, r0, #29
10012d98:	003c      	movs	r4, r7
10012d9a:	0032      	movs	r2, r6
10012d9c:	08c9      	lsrs	r1, r1, #3
10012d9e:	430c      	orrs	r4, r1
10012da0:	00d7      	lsls	r7, r2, #3
10012da2:	0f62      	lsrs	r2, r4, #29
10012da4:	00e5      	lsls	r5, r4, #3
10012da6:	4317      	orrs	r7, r2
10012da8:	469a      	mov	sl, r3
10012daa:	4c26      	ldr	r4, [pc, #152]	; (10012e44 <__aeabi_dsub+0x6a0>)
10012dac:	e526      	b.n	100127fc <__aeabi_dsub+0x58>
10012dae:	2200      	movs	r2, #0
10012db0:	2500      	movs	r5, #0
10012db2:	e544      	b.n	1001283e <__aeabi_dsub+0x9a>
10012db4:	4c23      	ldr	r4, [pc, #140]	; (10012e44 <__aeabi_dsub+0x6a0>)
10012db6:	e521      	b.n	100127fc <__aeabi_dsub+0x58>
10012db8:	2000      	movs	r0, #0
10012dba:	e749      	b.n	10012c50 <__aeabi_dsub+0x4ac>
10012dbc:	2300      	movs	r3, #0
10012dbe:	2500      	movs	r5, #0
10012dc0:	e5bb      	b.n	1001293a <__aeabi_dsub+0x196>
10012dc2:	464c      	mov	r4, r9
10012dc4:	003e      	movs	r6, r7
10012dc6:	3c20      	subs	r4, #32
10012dc8:	40e6      	lsrs	r6, r4
10012dca:	464c      	mov	r4, r9
10012dcc:	46b4      	mov	ip, r6
10012dce:	2c20      	cmp	r4, #32
10012dd0:	d031      	beq.n	10012e36 <__aeabi_dsub+0x692>
10012dd2:	2440      	movs	r4, #64	; 0x40
10012dd4:	464e      	mov	r6, r9
10012dd6:	1ba6      	subs	r6, r4, r6
10012dd8:	40b7      	lsls	r7, r6
10012dda:	433d      	orrs	r5, r7
10012ddc:	1e6c      	subs	r4, r5, #1
10012dde:	41a5      	sbcs	r5, r4
10012de0:	4664      	mov	r4, ip
10012de2:	432c      	orrs	r4, r5
10012de4:	2700      	movs	r7, #0
10012de6:	1b0d      	subs	r5, r1, r4
10012de8:	e6e7      	b.n	10012bba <__aeabi_dsub+0x416>
10012dea:	2280      	movs	r2, #128	; 0x80
10012dec:	2300      	movs	r3, #0
10012dee:	0312      	lsls	r2, r2, #12
10012df0:	4c14      	ldr	r4, [pc, #80]	; (10012e44 <__aeabi_dsub+0x6a0>)
10012df2:	2500      	movs	r5, #0
10012df4:	e5a1      	b.n	1001293a <__aeabi_dsub+0x196>
10012df6:	433d      	orrs	r5, r7
10012df8:	1e6f      	subs	r7, r5, #1
10012dfa:	41bd      	sbcs	r5, r7
10012dfc:	2700      	movs	r7, #0
10012dfe:	b2ed      	uxtb	r5, r5
10012e00:	e760      	b.n	10012cc4 <__aeabi_dsub+0x520>
10012e02:	0007      	movs	r7, r0
10012e04:	000d      	movs	r5, r1
10012e06:	4c0f      	ldr	r4, [pc, #60]	; (10012e44 <__aeabi_dsub+0x6a0>)
10012e08:	e4f8      	b.n	100127fc <__aeabi_dsub+0x58>
10012e0a:	0007      	movs	r7, r0
10012e0c:	000d      	movs	r5, r1
10012e0e:	e4f5      	b.n	100127fc <__aeabi_dsub+0x58>
10012e10:	464e      	mov	r6, r9
10012e12:	003c      	movs	r4, r7
10012e14:	3e20      	subs	r6, #32
10012e16:	40f4      	lsrs	r4, r6
10012e18:	46a0      	mov	r8, r4
10012e1a:	464c      	mov	r4, r9
10012e1c:	2c20      	cmp	r4, #32
10012e1e:	d00e      	beq.n	10012e3e <__aeabi_dsub+0x69a>
10012e20:	2440      	movs	r4, #64	; 0x40
10012e22:	464e      	mov	r6, r9
10012e24:	1ba4      	subs	r4, r4, r6
10012e26:	40a7      	lsls	r7, r4
10012e28:	433d      	orrs	r5, r7
10012e2a:	1e6f      	subs	r7, r5, #1
10012e2c:	41bd      	sbcs	r5, r7
10012e2e:	4644      	mov	r4, r8
10012e30:	2700      	movs	r7, #0
10012e32:	4325      	orrs	r5, r4
10012e34:	e746      	b.n	10012cc4 <__aeabi_dsub+0x520>
10012e36:	2700      	movs	r7, #0
10012e38:	e7cf      	b.n	10012dda <__aeabi_dsub+0x636>
10012e3a:	000d      	movs	r5, r1
10012e3c:	e573      	b.n	10012926 <__aeabi_dsub+0x182>
10012e3e:	2700      	movs	r7, #0
10012e40:	e7f2      	b.n	10012e28 <__aeabi_dsub+0x684>
10012e42:	46c0      	nop			; (mov r8, r8)
10012e44:	000007ff 	.word	0x000007ff
10012e48:	ff7fffff 	.word	0xff7fffff

10012e4c <__aeabi_d2iz>:
10012e4c:	030b      	lsls	r3, r1, #12
10012e4e:	b530      	push	{r4, r5, lr}
10012e50:	4d13      	ldr	r5, [pc, #76]	; (10012ea0 <__aeabi_d2iz+0x54>)
10012e52:	0b1a      	lsrs	r2, r3, #12
10012e54:	004b      	lsls	r3, r1, #1
10012e56:	0d5b      	lsrs	r3, r3, #21
10012e58:	0fc9      	lsrs	r1, r1, #31
10012e5a:	2400      	movs	r4, #0
10012e5c:	42ab      	cmp	r3, r5
10012e5e:	dd11      	ble.n	10012e84 <__aeabi_d2iz+0x38>
10012e60:	4c10      	ldr	r4, [pc, #64]	; (10012ea4 <__aeabi_d2iz+0x58>)
10012e62:	42a3      	cmp	r3, r4
10012e64:	dc10      	bgt.n	10012e88 <__aeabi_d2iz+0x3c>
10012e66:	2480      	movs	r4, #128	; 0x80
10012e68:	0364      	lsls	r4, r4, #13
10012e6a:	4322      	orrs	r2, r4
10012e6c:	4c0e      	ldr	r4, [pc, #56]	; (10012ea8 <__aeabi_d2iz+0x5c>)
10012e6e:	1ae4      	subs	r4, r4, r3
10012e70:	2c1f      	cmp	r4, #31
10012e72:	dd0c      	ble.n	10012e8e <__aeabi_d2iz+0x42>
10012e74:	480d      	ldr	r0, [pc, #52]	; (10012eac <__aeabi_d2iz+0x60>)
10012e76:	1ac3      	subs	r3, r0, r3
10012e78:	40da      	lsrs	r2, r3
10012e7a:	0013      	movs	r3, r2
10012e7c:	425c      	negs	r4, r3
10012e7e:	2900      	cmp	r1, #0
10012e80:	d100      	bne.n	10012e84 <__aeabi_d2iz+0x38>
10012e82:	001c      	movs	r4, r3
10012e84:	0020      	movs	r0, r4
10012e86:	bd30      	pop	{r4, r5, pc}
10012e88:	4b09      	ldr	r3, [pc, #36]	; (10012eb0 <__aeabi_d2iz+0x64>)
10012e8a:	18cc      	adds	r4, r1, r3
10012e8c:	e7fa      	b.n	10012e84 <__aeabi_d2iz+0x38>
10012e8e:	40e0      	lsrs	r0, r4
10012e90:	4c08      	ldr	r4, [pc, #32]	; (10012eb4 <__aeabi_d2iz+0x68>)
10012e92:	46a4      	mov	ip, r4
10012e94:	4463      	add	r3, ip
10012e96:	409a      	lsls	r2, r3
10012e98:	0013      	movs	r3, r2
10012e9a:	4303      	orrs	r3, r0
10012e9c:	e7ee      	b.n	10012e7c <__aeabi_d2iz+0x30>
10012e9e:	46c0      	nop			; (mov r8, r8)
10012ea0:	000003fe 	.word	0x000003fe
10012ea4:	0000041d 	.word	0x0000041d
10012ea8:	00000433 	.word	0x00000433
10012eac:	00000413 	.word	0x00000413
10012eb0:	7fffffff 	.word	0x7fffffff
10012eb4:	fffffbed 	.word	0xfffffbed

10012eb8 <__aeabi_ui2d>:
10012eb8:	b570      	push	{r4, r5, r6, lr}
10012eba:	1e05      	subs	r5, r0, #0
10012ebc:	d028      	beq.n	10012f10 <__aeabi_ui2d+0x58>
10012ebe:	f000 f833 	bl	10012f28 <__clzsi2>
10012ec2:	4b15      	ldr	r3, [pc, #84]	; (10012f18 <__aeabi_ui2d+0x60>)
10012ec4:	4a15      	ldr	r2, [pc, #84]	; (10012f1c <__aeabi_ui2d+0x64>)
10012ec6:	1a1b      	subs	r3, r3, r0
10012ec8:	1ad2      	subs	r2, r2, r3
10012eca:	2a1f      	cmp	r2, #31
10012ecc:	dd16      	ble.n	10012efc <__aeabi_ui2d+0x44>
10012ece:	002c      	movs	r4, r5
10012ed0:	4a13      	ldr	r2, [pc, #76]	; (10012f20 <__aeabi_ui2d+0x68>)
10012ed2:	2500      	movs	r5, #0
10012ed4:	1ad2      	subs	r2, r2, r3
10012ed6:	4094      	lsls	r4, r2
10012ed8:	055a      	lsls	r2, r3, #21
10012eda:	0324      	lsls	r4, r4, #12
10012edc:	0b24      	lsrs	r4, r4, #12
10012ede:	0d52      	lsrs	r2, r2, #21
10012ee0:	2100      	movs	r1, #0
10012ee2:	0324      	lsls	r4, r4, #12
10012ee4:	0d0b      	lsrs	r3, r1, #20
10012ee6:	0b24      	lsrs	r4, r4, #12
10012ee8:	051b      	lsls	r3, r3, #20
10012eea:	4323      	orrs	r3, r4
10012eec:	4c0d      	ldr	r4, [pc, #52]	; (10012f24 <__aeabi_ui2d+0x6c>)
10012eee:	0512      	lsls	r2, r2, #20
10012ef0:	4023      	ands	r3, r4
10012ef2:	4313      	orrs	r3, r2
10012ef4:	005b      	lsls	r3, r3, #1
10012ef6:	0028      	movs	r0, r5
10012ef8:	0859      	lsrs	r1, r3, #1
10012efa:	bd70      	pop	{r4, r5, r6, pc}
10012efc:	210b      	movs	r1, #11
10012efe:	002c      	movs	r4, r5
10012f00:	1a08      	subs	r0, r1, r0
10012f02:	40c4      	lsrs	r4, r0
10012f04:	4095      	lsls	r5, r2
10012f06:	0324      	lsls	r4, r4, #12
10012f08:	055a      	lsls	r2, r3, #21
10012f0a:	0b24      	lsrs	r4, r4, #12
10012f0c:	0d52      	lsrs	r2, r2, #21
10012f0e:	e7e7      	b.n	10012ee0 <__aeabi_ui2d+0x28>
10012f10:	2200      	movs	r2, #0
10012f12:	2400      	movs	r4, #0
10012f14:	e7e4      	b.n	10012ee0 <__aeabi_ui2d+0x28>
10012f16:	46c0      	nop			; (mov r8, r8)
10012f18:	0000041e 	.word	0x0000041e
10012f1c:	00000433 	.word	0x00000433
10012f20:	00000413 	.word	0x00000413
10012f24:	800fffff 	.word	0x800fffff

10012f28 <__clzsi2>:
10012f28:	211c      	movs	r1, #28
10012f2a:	2301      	movs	r3, #1
10012f2c:	041b      	lsls	r3, r3, #16
10012f2e:	4298      	cmp	r0, r3
10012f30:	d301      	bcc.n	10012f36 <__clzsi2+0xe>
10012f32:	0c00      	lsrs	r0, r0, #16
10012f34:	3910      	subs	r1, #16
10012f36:	0a1b      	lsrs	r3, r3, #8
10012f38:	4298      	cmp	r0, r3
10012f3a:	d301      	bcc.n	10012f40 <__clzsi2+0x18>
10012f3c:	0a00      	lsrs	r0, r0, #8
10012f3e:	3908      	subs	r1, #8
10012f40:	091b      	lsrs	r3, r3, #4
10012f42:	4298      	cmp	r0, r3
10012f44:	d301      	bcc.n	10012f4a <__clzsi2+0x22>
10012f46:	0900      	lsrs	r0, r0, #4
10012f48:	3904      	subs	r1, #4
10012f4a:	a202      	add	r2, pc, #8	; (adr r2, 10012f54 <__clzsi2+0x2c>)
10012f4c:	5c10      	ldrb	r0, [r2, r0]
10012f4e:	1840      	adds	r0, r0, r1
10012f50:	4770      	bx	lr
10012f52:	46c0      	nop			; (mov r8, r8)
10012f54:	02020304 	.word	0x02020304
10012f58:	01010101 	.word	0x01010101
	...

10012f64 <__libc_init_array>:
10012f64:	4b0e      	ldr	r3, [pc, #56]	; (10012fa0 <__libc_init_array+0x3c>)
10012f66:	b570      	push	{r4, r5, r6, lr}
10012f68:	2500      	movs	r5, #0
10012f6a:	001e      	movs	r6, r3
10012f6c:	4c0d      	ldr	r4, [pc, #52]	; (10012fa4 <__libc_init_array+0x40>)
10012f6e:	1ae4      	subs	r4, r4, r3
10012f70:	10a4      	asrs	r4, r4, #2
10012f72:	42a5      	cmp	r5, r4
10012f74:	d004      	beq.n	10012f80 <__libc_init_array+0x1c>
10012f76:	00ab      	lsls	r3, r5, #2
10012f78:	58f3      	ldr	r3, [r6, r3]
10012f7a:	4798      	blx	r3
10012f7c:	3501      	adds	r5, #1
10012f7e:	e7f8      	b.n	10012f72 <__libc_init_array+0xe>
10012f80:	f001 fc18 	bl	100147b4 <_init>
10012f84:	4b08      	ldr	r3, [pc, #32]	; (10012fa8 <__libc_init_array+0x44>)
10012f86:	2500      	movs	r5, #0
10012f88:	001e      	movs	r6, r3
10012f8a:	4c08      	ldr	r4, [pc, #32]	; (10012fac <__libc_init_array+0x48>)
10012f8c:	1ae4      	subs	r4, r4, r3
10012f8e:	10a4      	asrs	r4, r4, #2
10012f90:	42a5      	cmp	r5, r4
10012f92:	d004      	beq.n	10012f9e <__libc_init_array+0x3a>
10012f94:	00ab      	lsls	r3, r5, #2
10012f96:	58f3      	ldr	r3, [r6, r3]
10012f98:	4798      	blx	r3
10012f9a:	3501      	adds	r5, #1
10012f9c:	e7f8      	b.n	10012f90 <__libc_init_array+0x2c>
10012f9e:	bd70      	pop	{r4, r5, r6, pc}
10012fa0:	100147c0 	.word	0x100147c0
10012fa4:	100147c0 	.word	0x100147c0
10012fa8:	100147c0 	.word	0x100147c0
10012fac:	100147c4 	.word	0x100147c4

10012fb0 <malloc>:
10012fb0:	b510      	push	{r4, lr}
10012fb2:	4b03      	ldr	r3, [pc, #12]	; (10012fc0 <malloc+0x10>)
10012fb4:	0001      	movs	r1, r0
10012fb6:	6818      	ldr	r0, [r3, #0]
10012fb8:	f000 f86a 	bl	10013090 <_malloc_r>
10012fbc:	bd10      	pop	{r4, pc}
10012fbe:	46c0      	nop			; (mov r8, r8)
10012fc0:	10014880 	.word	0x10014880

10012fc4 <memcmp>:
10012fc4:	b530      	push	{r4, r5, lr}
10012fc6:	2400      	movs	r4, #0
10012fc8:	42a2      	cmp	r2, r4
10012fca:	d008      	beq.n	10012fde <memcmp+0x1a>
10012fcc:	5d03      	ldrb	r3, [r0, r4]
10012fce:	1c65      	adds	r5, r4, #1
10012fd0:	5d0c      	ldrb	r4, [r1, r4]
10012fd2:	42a3      	cmp	r3, r4
10012fd4:	d001      	beq.n	10012fda <memcmp+0x16>
10012fd6:	1b18      	subs	r0, r3, r4
10012fd8:	e002      	b.n	10012fe0 <memcmp+0x1c>
10012fda:	002c      	movs	r4, r5
10012fdc:	e7f4      	b.n	10012fc8 <memcmp+0x4>
10012fde:	2000      	movs	r0, #0
10012fe0:	bd30      	pop	{r4, r5, pc}

10012fe2 <memcpy>:
10012fe2:	2300      	movs	r3, #0
10012fe4:	b510      	push	{r4, lr}
10012fe6:	429a      	cmp	r2, r3
10012fe8:	d003      	beq.n	10012ff2 <memcpy+0x10>
10012fea:	5ccc      	ldrb	r4, [r1, r3]
10012fec:	54c4      	strb	r4, [r0, r3]
10012fee:	3301      	adds	r3, #1
10012ff0:	e7f9      	b.n	10012fe6 <memcpy+0x4>
10012ff2:	bd10      	pop	{r4, pc}

10012ff4 <memset>:
10012ff4:	0003      	movs	r3, r0
10012ff6:	1882      	adds	r2, r0, r2
10012ff8:	4293      	cmp	r3, r2
10012ffa:	d002      	beq.n	10013002 <memset+0xe>
10012ffc:	7019      	strb	r1, [r3, #0]
10012ffe:	3301      	adds	r3, #1
10013000:	e7fa      	b.n	10012ff8 <memset+0x4>
10013002:	4770      	bx	lr

10013004 <_free_r>:
10013004:	b530      	push	{r4, r5, lr}
10013006:	2900      	cmp	r1, #0
10013008:	d03e      	beq.n	10013088 <_free_r+0x84>
1001300a:	3904      	subs	r1, #4
1001300c:	680b      	ldr	r3, [r1, #0]
1001300e:	2b00      	cmp	r3, #0
10013010:	da00      	bge.n	10013014 <_free_r+0x10>
10013012:	18c9      	adds	r1, r1, r3
10013014:	4a1d      	ldr	r2, [pc, #116]	; (1001308c <_free_r+0x88>)
10013016:	6813      	ldr	r3, [r2, #0]
10013018:	0014      	movs	r4, r2
1001301a:	2b00      	cmp	r3, #0
1001301c:	d102      	bne.n	10013024 <_free_r+0x20>
1001301e:	604b      	str	r3, [r1, #4]
10013020:	6011      	str	r1, [r2, #0]
10013022:	e031      	b.n	10013088 <_free_r+0x84>
10013024:	428b      	cmp	r3, r1
10013026:	d90d      	bls.n	10013044 <_free_r+0x40>
10013028:	680a      	ldr	r2, [r1, #0]
1001302a:	1888      	adds	r0, r1, r2
1001302c:	4283      	cmp	r3, r0
1001302e:	d103      	bne.n	10013038 <_free_r+0x34>
10013030:	6818      	ldr	r0, [r3, #0]
10013032:	685b      	ldr	r3, [r3, #4]
10013034:	1882      	adds	r2, r0, r2
10013036:	600a      	str	r2, [r1, #0]
10013038:	604b      	str	r3, [r1, #4]
1001303a:	6021      	str	r1, [r4, #0]
1001303c:	e024      	b.n	10013088 <_free_r+0x84>
1001303e:	428a      	cmp	r2, r1
10013040:	d803      	bhi.n	1001304a <_free_r+0x46>
10013042:	0013      	movs	r3, r2
10013044:	685a      	ldr	r2, [r3, #4]
10013046:	2a00      	cmp	r2, #0
10013048:	d1f9      	bne.n	1001303e <_free_r+0x3a>
1001304a:	681d      	ldr	r5, [r3, #0]
1001304c:	195c      	adds	r4, r3, r5
1001304e:	428c      	cmp	r4, r1
10013050:	d10b      	bne.n	1001306a <_free_r+0x66>
10013052:	6809      	ldr	r1, [r1, #0]
10013054:	1869      	adds	r1, r5, r1
10013056:	1858      	adds	r0, r3, r1
10013058:	6019      	str	r1, [r3, #0]
1001305a:	4282      	cmp	r2, r0
1001305c:	d114      	bne.n	10013088 <_free_r+0x84>
1001305e:	6810      	ldr	r0, [r2, #0]
10013060:	6852      	ldr	r2, [r2, #4]
10013062:	1841      	adds	r1, r0, r1
10013064:	6019      	str	r1, [r3, #0]
10013066:	605a      	str	r2, [r3, #4]
10013068:	e00e      	b.n	10013088 <_free_r+0x84>
1001306a:	428c      	cmp	r4, r1
1001306c:	d902      	bls.n	10013074 <_free_r+0x70>
1001306e:	230c      	movs	r3, #12
10013070:	6003      	str	r3, [r0, #0]
10013072:	e009      	b.n	10013088 <_free_r+0x84>
10013074:	6808      	ldr	r0, [r1, #0]
10013076:	180c      	adds	r4, r1, r0
10013078:	42a2      	cmp	r2, r4
1001307a:	d103      	bne.n	10013084 <_free_r+0x80>
1001307c:	6814      	ldr	r4, [r2, #0]
1001307e:	6852      	ldr	r2, [r2, #4]
10013080:	1820      	adds	r0, r4, r0
10013082:	6008      	str	r0, [r1, #0]
10013084:	604a      	str	r2, [r1, #4]
10013086:	6059      	str	r1, [r3, #4]
10013088:	bd30      	pop	{r4, r5, pc}
1001308a:	46c0      	nop			; (mov r8, r8)
1001308c:	10014fd8 	.word	0x10014fd8

10013090 <_malloc_r>:
10013090:	2303      	movs	r3, #3
10013092:	b570      	push	{r4, r5, r6, lr}
10013094:	1ccd      	adds	r5, r1, #3
10013096:	439d      	bics	r5, r3
10013098:	3508      	adds	r5, #8
1001309a:	0006      	movs	r6, r0
1001309c:	2d0c      	cmp	r5, #12
1001309e:	d201      	bcs.n	100130a4 <_malloc_r+0x14>
100130a0:	250c      	movs	r5, #12
100130a2:	e005      	b.n	100130b0 <_malloc_r+0x20>
100130a4:	2d00      	cmp	r5, #0
100130a6:	da03      	bge.n	100130b0 <_malloc_r+0x20>
100130a8:	230c      	movs	r3, #12
100130aa:	2000      	movs	r0, #0
100130ac:	6033      	str	r3, [r6, #0]
100130ae:	e040      	b.n	10013132 <_malloc_r+0xa2>
100130b0:	42a9      	cmp	r1, r5
100130b2:	d8f9      	bhi.n	100130a8 <_malloc_r+0x18>
100130b4:	4b1f      	ldr	r3, [pc, #124]	; (10013134 <_malloc_r+0xa4>)
100130b6:	681c      	ldr	r4, [r3, #0]
100130b8:	001a      	movs	r2, r3
100130ba:	0021      	movs	r1, r4
100130bc:	2900      	cmp	r1, #0
100130be:	d013      	beq.n	100130e8 <_malloc_r+0x58>
100130c0:	680b      	ldr	r3, [r1, #0]
100130c2:	1b5b      	subs	r3, r3, r5
100130c4:	d40d      	bmi.n	100130e2 <_malloc_r+0x52>
100130c6:	2b0b      	cmp	r3, #11
100130c8:	d902      	bls.n	100130d0 <_malloc_r+0x40>
100130ca:	600b      	str	r3, [r1, #0]
100130cc:	18cc      	adds	r4, r1, r3
100130ce:	e01e      	b.n	1001310e <_malloc_r+0x7e>
100130d0:	428c      	cmp	r4, r1
100130d2:	d102      	bne.n	100130da <_malloc_r+0x4a>
100130d4:	6863      	ldr	r3, [r4, #4]
100130d6:	6013      	str	r3, [r2, #0]
100130d8:	e01a      	b.n	10013110 <_malloc_r+0x80>
100130da:	684b      	ldr	r3, [r1, #4]
100130dc:	6063      	str	r3, [r4, #4]
100130de:	000c      	movs	r4, r1
100130e0:	e016      	b.n	10013110 <_malloc_r+0x80>
100130e2:	000c      	movs	r4, r1
100130e4:	6849      	ldr	r1, [r1, #4]
100130e6:	e7e9      	b.n	100130bc <_malloc_r+0x2c>
100130e8:	4c13      	ldr	r4, [pc, #76]	; (10013138 <_malloc_r+0xa8>)
100130ea:	6823      	ldr	r3, [r4, #0]
100130ec:	2b00      	cmp	r3, #0
100130ee:	d103      	bne.n	100130f8 <_malloc_r+0x68>
100130f0:	0030      	movs	r0, r6
100130f2:	f000 f879 	bl	100131e8 <_sbrk_r>
100130f6:	6020      	str	r0, [r4, #0]
100130f8:	0029      	movs	r1, r5
100130fa:	0030      	movs	r0, r6
100130fc:	f000 f874 	bl	100131e8 <_sbrk_r>
10013100:	1c43      	adds	r3, r0, #1
10013102:	d0d1      	beq.n	100130a8 <_malloc_r+0x18>
10013104:	2303      	movs	r3, #3
10013106:	1cc4      	adds	r4, r0, #3
10013108:	439c      	bics	r4, r3
1001310a:	42a0      	cmp	r0, r4
1001310c:	d10a      	bne.n	10013124 <_malloc_r+0x94>
1001310e:	6025      	str	r5, [r4, #0]
10013110:	0020      	movs	r0, r4
10013112:	2207      	movs	r2, #7
10013114:	300b      	adds	r0, #11
10013116:	1d23      	adds	r3, r4, #4
10013118:	4390      	bics	r0, r2
1001311a:	1ac3      	subs	r3, r0, r3
1001311c:	d009      	beq.n	10013132 <_malloc_r+0xa2>
1001311e:	425a      	negs	r2, r3
10013120:	50e2      	str	r2, [r4, r3]
10013122:	e006      	b.n	10013132 <_malloc_r+0xa2>
10013124:	1a21      	subs	r1, r4, r0
10013126:	0030      	movs	r0, r6
10013128:	f000 f85e 	bl	100131e8 <_sbrk_r>
1001312c:	1c43      	adds	r3, r0, #1
1001312e:	d1ee      	bne.n	1001310e <_malloc_r+0x7e>
10013130:	e7ba      	b.n	100130a8 <_malloc_r+0x18>
10013132:	bd70      	pop	{r4, r5, r6, pc}
10013134:	10014fd8 	.word	0x10014fd8
10013138:	10014fd4 	.word	0x10014fd4

1001313c <iprintf>:
1001313c:	b40f      	push	{r0, r1, r2, r3}
1001313e:	4b0b      	ldr	r3, [pc, #44]	; (1001316c <iprintf+0x30>)
10013140:	b513      	push	{r0, r1, r4, lr}
10013142:	681c      	ldr	r4, [r3, #0]
10013144:	2c00      	cmp	r4, #0
10013146:	d005      	beq.n	10013154 <iprintf+0x18>
10013148:	69a3      	ldr	r3, [r4, #24]
1001314a:	2b00      	cmp	r3, #0
1001314c:	d102      	bne.n	10013154 <iprintf+0x18>
1001314e:	0020      	movs	r0, r4
10013150:	f000 fa0a 	bl	10013568 <__sinit>
10013154:	ab05      	add	r3, sp, #20
10013156:	9a04      	ldr	r2, [sp, #16]
10013158:	68a1      	ldr	r1, [r4, #8]
1001315a:	0020      	movs	r0, r4
1001315c:	9301      	str	r3, [sp, #4]
1001315e:	f000 fb23 	bl	100137a8 <_vfiprintf_r>
10013162:	bc16      	pop	{r1, r2, r4}
10013164:	bc08      	pop	{r3}
10013166:	b004      	add	sp, #16
10013168:	4718      	bx	r3
1001316a:	46c0      	nop			; (mov r8, r8)
1001316c:	10014880 	.word	0x10014880

10013170 <rand>:
10013170:	4b15      	ldr	r3, [pc, #84]	; (100131c8 <rand+0x58>)
10013172:	b510      	push	{r4, lr}
10013174:	681c      	ldr	r4, [r3, #0]
10013176:	6ba3      	ldr	r3, [r4, #56]	; 0x38
10013178:	2b00      	cmp	r3, #0
1001317a:	d115      	bne.n	100131a8 <rand+0x38>
1001317c:	2018      	movs	r0, #24
1001317e:	f7ff ff17 	bl	10012fb0 <malloc>
10013182:	4b12      	ldr	r3, [pc, #72]	; (100131cc <rand+0x5c>)
10013184:	63a0      	str	r0, [r4, #56]	; 0x38
10013186:	8003      	strh	r3, [r0, #0]
10013188:	4b11      	ldr	r3, [pc, #68]	; (100131d0 <rand+0x60>)
1001318a:	2201      	movs	r2, #1
1001318c:	8043      	strh	r3, [r0, #2]
1001318e:	4b11      	ldr	r3, [pc, #68]	; (100131d4 <rand+0x64>)
10013190:	8083      	strh	r3, [r0, #4]
10013192:	4b11      	ldr	r3, [pc, #68]	; (100131d8 <rand+0x68>)
10013194:	80c3      	strh	r3, [r0, #6]
10013196:	4b11      	ldr	r3, [pc, #68]	; (100131dc <rand+0x6c>)
10013198:	8103      	strh	r3, [r0, #8]
1001319a:	2305      	movs	r3, #5
1001319c:	8143      	strh	r3, [r0, #10]
1001319e:	3306      	adds	r3, #6
100131a0:	8183      	strh	r3, [r0, #12]
100131a2:	2300      	movs	r3, #0
100131a4:	6102      	str	r2, [r0, #16]
100131a6:	6143      	str	r3, [r0, #20]
100131a8:	6ba4      	ldr	r4, [r4, #56]	; 0x38
100131aa:	4a0d      	ldr	r2, [pc, #52]	; (100131e0 <rand+0x70>)
100131ac:	6920      	ldr	r0, [r4, #16]
100131ae:	6961      	ldr	r1, [r4, #20]
100131b0:	4b0c      	ldr	r3, [pc, #48]	; (100131e4 <rand+0x74>)
100131b2:	f7fe fa49 	bl	10011648 <__aeabi_lmul>
100131b6:	2201      	movs	r2, #1
100131b8:	2300      	movs	r3, #0
100131ba:	1880      	adds	r0, r0, r2
100131bc:	4159      	adcs	r1, r3
100131be:	6120      	str	r0, [r4, #16]
100131c0:	6161      	str	r1, [r4, #20]
100131c2:	0048      	lsls	r0, r1, #1
100131c4:	0840      	lsrs	r0, r0, #1
100131c6:	bd10      	pop	{r4, pc}
100131c8:	10014880 	.word	0x10014880
100131cc:	0000330e 	.word	0x0000330e
100131d0:	ffffabcd 	.word	0xffffabcd
100131d4:	00001234 	.word	0x00001234
100131d8:	ffffe66d 	.word	0xffffe66d
100131dc:	ffffdeec 	.word	0xffffdeec
100131e0:	4c957f2d 	.word	0x4c957f2d
100131e4:	5851f42d 	.word	0x5851f42d

100131e8 <_sbrk_r>:
100131e8:	2300      	movs	r3, #0
100131ea:	b570      	push	{r4, r5, r6, lr}
100131ec:	4c06      	ldr	r4, [pc, #24]	; (10013208 <_sbrk_r+0x20>)
100131ee:	0005      	movs	r5, r0
100131f0:	0008      	movs	r0, r1
100131f2:	6023      	str	r3, [r4, #0]
100131f4:	f7f9 fb78 	bl	1000c8e8 <_sbrk>
100131f8:	1c43      	adds	r3, r0, #1
100131fa:	d103      	bne.n	10013204 <_sbrk_r+0x1c>
100131fc:	6823      	ldr	r3, [r4, #0]
100131fe:	2b00      	cmp	r3, #0
10013200:	d000      	beq.n	10013204 <_sbrk_r+0x1c>
10013202:	602b      	str	r3, [r5, #0]
10013204:	bd70      	pop	{r4, r5, r6, pc}
10013206:	46c0      	nop			; (mov r8, r8)
10013208:	10016608 	.word	0x10016608

1001320c <setbuf>:
1001320c:	424a      	negs	r2, r1
1001320e:	414a      	adcs	r2, r1
10013210:	2380      	movs	r3, #128	; 0x80
10013212:	b510      	push	{r4, lr}
10013214:	0052      	lsls	r2, r2, #1
10013216:	00db      	lsls	r3, r3, #3
10013218:	f000 f802 	bl	10013220 <setvbuf>
1001321c:	bd10      	pop	{r4, pc}
	...

10013220 <setvbuf>:
10013220:	b5f0      	push	{r4, r5, r6, r7, lr}
10013222:	001d      	movs	r5, r3
10013224:	4b51      	ldr	r3, [pc, #324]	; (1001336c <setvbuf+0x14c>)
10013226:	b085      	sub	sp, #20
10013228:	681e      	ldr	r6, [r3, #0]
1001322a:	0004      	movs	r4, r0
1001322c:	000f      	movs	r7, r1
1001322e:	9200      	str	r2, [sp, #0]
10013230:	2e00      	cmp	r6, #0
10013232:	d005      	beq.n	10013240 <setvbuf+0x20>
10013234:	69b3      	ldr	r3, [r6, #24]
10013236:	2b00      	cmp	r3, #0
10013238:	d102      	bne.n	10013240 <setvbuf+0x20>
1001323a:	0030      	movs	r0, r6
1001323c:	f000 f994 	bl	10013568 <__sinit>
10013240:	4b4b      	ldr	r3, [pc, #300]	; (10013370 <setvbuf+0x150>)
10013242:	429c      	cmp	r4, r3
10013244:	d101      	bne.n	1001324a <setvbuf+0x2a>
10013246:	6874      	ldr	r4, [r6, #4]
10013248:	e008      	b.n	1001325c <setvbuf+0x3c>
1001324a:	4b4a      	ldr	r3, [pc, #296]	; (10013374 <setvbuf+0x154>)
1001324c:	429c      	cmp	r4, r3
1001324e:	d101      	bne.n	10013254 <setvbuf+0x34>
10013250:	68b4      	ldr	r4, [r6, #8]
10013252:	e003      	b.n	1001325c <setvbuf+0x3c>
10013254:	4b48      	ldr	r3, [pc, #288]	; (10013378 <setvbuf+0x158>)
10013256:	429c      	cmp	r4, r3
10013258:	d100      	bne.n	1001325c <setvbuf+0x3c>
1001325a:	68f4      	ldr	r4, [r6, #12]
1001325c:	9b00      	ldr	r3, [sp, #0]
1001325e:	2b02      	cmp	r3, #2
10013260:	d005      	beq.n	1001326e <setvbuf+0x4e>
10013262:	2b01      	cmp	r3, #1
10013264:	d900      	bls.n	10013268 <setvbuf+0x48>
10013266:	e07c      	b.n	10013362 <setvbuf+0x142>
10013268:	2d00      	cmp	r5, #0
1001326a:	da00      	bge.n	1001326e <setvbuf+0x4e>
1001326c:	e079      	b.n	10013362 <setvbuf+0x142>
1001326e:	0021      	movs	r1, r4
10013270:	0030      	movs	r0, r6
10013272:	f000 f90b 	bl	1001348c <_fflush_r>
10013276:	6b61      	ldr	r1, [r4, #52]	; 0x34
10013278:	2900      	cmp	r1, #0
1001327a:	d008      	beq.n	1001328e <setvbuf+0x6e>
1001327c:	0023      	movs	r3, r4
1001327e:	3344      	adds	r3, #68	; 0x44
10013280:	4299      	cmp	r1, r3
10013282:	d002      	beq.n	1001328a <setvbuf+0x6a>
10013284:	0030      	movs	r0, r6
10013286:	f7ff febd 	bl	10013004 <_free_r>
1001328a:	2300      	movs	r3, #0
1001328c:	6363      	str	r3, [r4, #52]	; 0x34
1001328e:	2300      	movs	r3, #0
10013290:	61a3      	str	r3, [r4, #24]
10013292:	6063      	str	r3, [r4, #4]
10013294:	89a3      	ldrh	r3, [r4, #12]
10013296:	061b      	lsls	r3, r3, #24
10013298:	d503      	bpl.n	100132a2 <setvbuf+0x82>
1001329a:	6921      	ldr	r1, [r4, #16]
1001329c:	0030      	movs	r0, r6
1001329e:	f7ff feb1 	bl	10013004 <_free_r>
100132a2:	89a2      	ldrh	r2, [r4, #12]
100132a4:	4b35      	ldr	r3, [pc, #212]	; (1001337c <setvbuf+0x15c>)
100132a6:	4013      	ands	r3, r2
100132a8:	81a3      	strh	r3, [r4, #12]
100132aa:	9b00      	ldr	r3, [sp, #0]
100132ac:	2b02      	cmp	r3, #2
100132ae:	d021      	beq.n	100132f4 <setvbuf+0xd4>
100132b0:	ab03      	add	r3, sp, #12
100132b2:	aa02      	add	r2, sp, #8
100132b4:	0021      	movs	r1, r4
100132b6:	0030      	movs	r0, r6
100132b8:	f000 f9ea 	bl	10013690 <__swhatbuf_r>
100132bc:	89a3      	ldrh	r3, [r4, #12]
100132be:	4318      	orrs	r0, r3
100132c0:	81a0      	strh	r0, [r4, #12]
100132c2:	2d00      	cmp	r5, #0
100132c4:	d101      	bne.n	100132ca <setvbuf+0xaa>
100132c6:	9d02      	ldr	r5, [sp, #8]
100132c8:	e001      	b.n	100132ce <setvbuf+0xae>
100132ca:	2f00      	cmp	r7, #0
100132cc:	d125      	bne.n	1001331a <setvbuf+0xfa>
100132ce:	0028      	movs	r0, r5
100132d0:	f7ff fe6e 	bl	10012fb0 <malloc>
100132d4:	9501      	str	r5, [sp, #4]
100132d6:	1e07      	subs	r7, r0, #0
100132d8:	d11a      	bne.n	10013310 <setvbuf+0xf0>
100132da:	9b02      	ldr	r3, [sp, #8]
100132dc:	9301      	str	r3, [sp, #4]
100132de:	42ab      	cmp	r3, r5
100132e0:	d102      	bne.n	100132e8 <setvbuf+0xc8>
100132e2:	2001      	movs	r0, #1
100132e4:	4240      	negs	r0, r0
100132e6:	e006      	b.n	100132f6 <setvbuf+0xd6>
100132e8:	9801      	ldr	r0, [sp, #4]
100132ea:	f7ff fe61 	bl	10012fb0 <malloc>
100132ee:	1e07      	subs	r7, r0, #0
100132f0:	d10e      	bne.n	10013310 <setvbuf+0xf0>
100132f2:	e7f6      	b.n	100132e2 <setvbuf+0xc2>
100132f4:	2000      	movs	r0, #0
100132f6:	2202      	movs	r2, #2
100132f8:	89a3      	ldrh	r3, [r4, #12]
100132fa:	4313      	orrs	r3, r2
100132fc:	81a3      	strh	r3, [r4, #12]
100132fe:	2300      	movs	r3, #0
10013300:	60a3      	str	r3, [r4, #8]
10013302:	0023      	movs	r3, r4
10013304:	3347      	adds	r3, #71	; 0x47
10013306:	6023      	str	r3, [r4, #0]
10013308:	6123      	str	r3, [r4, #16]
1001330a:	2301      	movs	r3, #1
1001330c:	6163      	str	r3, [r4, #20]
1001330e:	e02a      	b.n	10013366 <setvbuf+0x146>
10013310:	2280      	movs	r2, #128	; 0x80
10013312:	89a3      	ldrh	r3, [r4, #12]
10013314:	9d01      	ldr	r5, [sp, #4]
10013316:	4313      	orrs	r3, r2
10013318:	81a3      	strh	r3, [r4, #12]
1001331a:	69b3      	ldr	r3, [r6, #24]
1001331c:	2b00      	cmp	r3, #0
1001331e:	d102      	bne.n	10013326 <setvbuf+0x106>
10013320:	0030      	movs	r0, r6
10013322:	f000 f921 	bl	10013568 <__sinit>
10013326:	9b00      	ldr	r3, [sp, #0]
10013328:	2b01      	cmp	r3, #1
1001332a:	d103      	bne.n	10013334 <setvbuf+0x114>
1001332c:	89a3      	ldrh	r3, [r4, #12]
1001332e:	9a00      	ldr	r2, [sp, #0]
10013330:	431a      	orrs	r2, r3
10013332:	81a2      	strh	r2, [r4, #12]
10013334:	2308      	movs	r3, #8
10013336:	89a2      	ldrh	r2, [r4, #12]
10013338:	6027      	str	r7, [r4, #0]
1001333a:	4013      	ands	r3, r2
1001333c:	6127      	str	r7, [r4, #16]
1001333e:	6165      	str	r5, [r4, #20]
10013340:	1e18      	subs	r0, r3, #0
10013342:	d00c      	beq.n	1001335e <setvbuf+0x13e>
10013344:	2301      	movs	r3, #1
10013346:	401a      	ands	r2, r3
10013348:	2300      	movs	r3, #0
1001334a:	1e10      	subs	r0, r2, #0
1001334c:	4298      	cmp	r0, r3
1001334e:	d004      	beq.n	1001335a <setvbuf+0x13a>
10013350:	426d      	negs	r5, r5
10013352:	60a3      	str	r3, [r4, #8]
10013354:	61a5      	str	r5, [r4, #24]
10013356:	0018      	movs	r0, r3
10013358:	e005      	b.n	10013366 <setvbuf+0x146>
1001335a:	60a5      	str	r5, [r4, #8]
1001335c:	e003      	b.n	10013366 <setvbuf+0x146>
1001335e:	60a3      	str	r3, [r4, #8]
10013360:	e001      	b.n	10013366 <setvbuf+0x146>
10013362:	2001      	movs	r0, #1
10013364:	4240      	negs	r0, r0
10013366:	b005      	add	sp, #20
10013368:	bdf0      	pop	{r4, r5, r6, r7, pc}
1001336a:	46c0      	nop			; (mov r8, r8)
1001336c:	10014880 	.word	0x10014880
10013370:	10014720 	.word	0x10014720
10013374:	10014740 	.word	0x10014740
10013378:	10014760 	.word	0x10014760
1001337c:	fffff35c 	.word	0xfffff35c

10013380 <__sflush_r>:
10013380:	b5f7      	push	{r0, r1, r2, r4, r5, r6, r7, lr}
10013382:	898a      	ldrh	r2, [r1, #12]
10013384:	0005      	movs	r5, r0
10013386:	000c      	movs	r4, r1
10013388:	0713      	lsls	r3, r2, #28
1001338a:	d45a      	bmi.n	10013442 <__sflush_r+0xc2>
1001338c:	684b      	ldr	r3, [r1, #4]
1001338e:	2b00      	cmp	r3, #0
10013390:	dc02      	bgt.n	10013398 <__sflush_r+0x18>
10013392:	6c0b      	ldr	r3, [r1, #64]	; 0x40
10013394:	2b00      	cmp	r3, #0
10013396:	dd19      	ble.n	100133cc <__sflush_r+0x4c>
10013398:	6ae7      	ldr	r7, [r4, #44]	; 0x2c
1001339a:	2f00      	cmp	r7, #0
1001339c:	d016      	beq.n	100133cc <__sflush_r+0x4c>
1001339e:	2300      	movs	r3, #0
100133a0:	682e      	ldr	r6, [r5, #0]
100133a2:	602b      	str	r3, [r5, #0]
100133a4:	2380      	movs	r3, #128	; 0x80
100133a6:	015b      	lsls	r3, r3, #5
100133a8:	401a      	ands	r2, r3
100133aa:	d001      	beq.n	100133b0 <__sflush_r+0x30>
100133ac:	6d60      	ldr	r0, [r4, #84]	; 0x54
100133ae:	e014      	b.n	100133da <__sflush_r+0x5a>
100133b0:	2301      	movs	r3, #1
100133b2:	6a21      	ldr	r1, [r4, #32]
100133b4:	0028      	movs	r0, r5
100133b6:	47b8      	blx	r7
100133b8:	1c43      	adds	r3, r0, #1
100133ba:	d10e      	bne.n	100133da <__sflush_r+0x5a>
100133bc:	682b      	ldr	r3, [r5, #0]
100133be:	2b00      	cmp	r3, #0
100133c0:	d00b      	beq.n	100133da <__sflush_r+0x5a>
100133c2:	2b1d      	cmp	r3, #29
100133c4:	d001      	beq.n	100133ca <__sflush_r+0x4a>
100133c6:	2b16      	cmp	r3, #22
100133c8:	d102      	bne.n	100133d0 <__sflush_r+0x50>
100133ca:	602e      	str	r6, [r5, #0]
100133cc:	2000      	movs	r0, #0
100133ce:	e05a      	b.n	10013486 <__sflush_r+0x106>
100133d0:	2240      	movs	r2, #64	; 0x40
100133d2:	89a3      	ldrh	r3, [r4, #12]
100133d4:	4313      	orrs	r3, r2
100133d6:	81a3      	strh	r3, [r4, #12]
100133d8:	e055      	b.n	10013486 <__sflush_r+0x106>
100133da:	89a3      	ldrh	r3, [r4, #12]
100133dc:	075b      	lsls	r3, r3, #29
100133de:	d506      	bpl.n	100133ee <__sflush_r+0x6e>
100133e0:	6863      	ldr	r3, [r4, #4]
100133e2:	1ac0      	subs	r0, r0, r3
100133e4:	6b63      	ldr	r3, [r4, #52]	; 0x34
100133e6:	2b00      	cmp	r3, #0
100133e8:	d001      	beq.n	100133ee <__sflush_r+0x6e>
100133ea:	6c23      	ldr	r3, [r4, #64]	; 0x40
100133ec:	1ac0      	subs	r0, r0, r3
100133ee:	2300      	movs	r3, #0
100133f0:	0002      	movs	r2, r0
100133f2:	6a21      	ldr	r1, [r4, #32]
100133f4:	0028      	movs	r0, r5
100133f6:	6ae7      	ldr	r7, [r4, #44]	; 0x2c
100133f8:	47b8      	blx	r7
100133fa:	89a3      	ldrh	r3, [r4, #12]
100133fc:	1c42      	adds	r2, r0, #1
100133fe:	d106      	bne.n	1001340e <__sflush_r+0x8e>
10013400:	6829      	ldr	r1, [r5, #0]
10013402:	291d      	cmp	r1, #29
10013404:	d83a      	bhi.n	1001347c <__sflush_r+0xfc>
10013406:	4a20      	ldr	r2, [pc, #128]	; (10013488 <__sflush_r+0x108>)
10013408:	40ca      	lsrs	r2, r1
1001340a:	07d2      	lsls	r2, r2, #31
1001340c:	d536      	bpl.n	1001347c <__sflush_r+0xfc>
1001340e:	2200      	movs	r2, #0
10013410:	6062      	str	r2, [r4, #4]
10013412:	6922      	ldr	r2, [r4, #16]
10013414:	6022      	str	r2, [r4, #0]
10013416:	04db      	lsls	r3, r3, #19
10013418:	d505      	bpl.n	10013426 <__sflush_r+0xa6>
1001341a:	1c43      	adds	r3, r0, #1
1001341c:	d102      	bne.n	10013424 <__sflush_r+0xa4>
1001341e:	682b      	ldr	r3, [r5, #0]
10013420:	2b00      	cmp	r3, #0
10013422:	d100      	bne.n	10013426 <__sflush_r+0xa6>
10013424:	6560      	str	r0, [r4, #84]	; 0x54
10013426:	6b61      	ldr	r1, [r4, #52]	; 0x34
10013428:	602e      	str	r6, [r5, #0]
1001342a:	2900      	cmp	r1, #0
1001342c:	d0ce      	beq.n	100133cc <__sflush_r+0x4c>
1001342e:	0023      	movs	r3, r4
10013430:	3344      	adds	r3, #68	; 0x44
10013432:	4299      	cmp	r1, r3
10013434:	d002      	beq.n	1001343c <__sflush_r+0xbc>
10013436:	0028      	movs	r0, r5
10013438:	f7ff fde4 	bl	10013004 <_free_r>
1001343c:	2000      	movs	r0, #0
1001343e:	6360      	str	r0, [r4, #52]	; 0x34
10013440:	e021      	b.n	10013486 <__sflush_r+0x106>
10013442:	690f      	ldr	r7, [r1, #16]
10013444:	2f00      	cmp	r7, #0
10013446:	d0c1      	beq.n	100133cc <__sflush_r+0x4c>
10013448:	680b      	ldr	r3, [r1, #0]
1001344a:	600f      	str	r7, [r1, #0]
1001344c:	1bdb      	subs	r3, r3, r7
1001344e:	9301      	str	r3, [sp, #4]
10013450:	2300      	movs	r3, #0
10013452:	0792      	lsls	r2, r2, #30
10013454:	d100      	bne.n	10013458 <__sflush_r+0xd8>
10013456:	694b      	ldr	r3, [r1, #20]
10013458:	60a3      	str	r3, [r4, #8]
1001345a:	e003      	b.n	10013464 <__sflush_r+0xe4>
1001345c:	9b01      	ldr	r3, [sp, #4]
1001345e:	183f      	adds	r7, r7, r0
10013460:	1a1b      	subs	r3, r3, r0
10013462:	9301      	str	r3, [sp, #4]
10013464:	9b01      	ldr	r3, [sp, #4]
10013466:	2b00      	cmp	r3, #0
10013468:	ddb0      	ble.n	100133cc <__sflush_r+0x4c>
1001346a:	9b01      	ldr	r3, [sp, #4]
1001346c:	003a      	movs	r2, r7
1001346e:	6a21      	ldr	r1, [r4, #32]
10013470:	0028      	movs	r0, r5
10013472:	6aa6      	ldr	r6, [r4, #40]	; 0x28
10013474:	47b0      	blx	r6
10013476:	2800      	cmp	r0, #0
10013478:	dcf0      	bgt.n	1001345c <__sflush_r+0xdc>
1001347a:	89a3      	ldrh	r3, [r4, #12]
1001347c:	2240      	movs	r2, #64	; 0x40
1001347e:	2001      	movs	r0, #1
10013480:	4313      	orrs	r3, r2
10013482:	81a3      	strh	r3, [r4, #12]
10013484:	4240      	negs	r0, r0
10013486:	bdfe      	pop	{r1, r2, r3, r4, r5, r6, r7, pc}
10013488:	20400001 	.word	0x20400001

1001348c <_fflush_r>:
1001348c:	690b      	ldr	r3, [r1, #16]
1001348e:	b570      	push	{r4, r5, r6, lr}
10013490:	0005      	movs	r5, r0
10013492:	000c      	movs	r4, r1
10013494:	2b00      	cmp	r3, #0
10013496:	d101      	bne.n	1001349c <_fflush_r+0x10>
10013498:	2000      	movs	r0, #0
1001349a:	e01c      	b.n	100134d6 <_fflush_r+0x4a>
1001349c:	2800      	cmp	r0, #0
1001349e:	d004      	beq.n	100134aa <_fflush_r+0x1e>
100134a0:	6983      	ldr	r3, [r0, #24]
100134a2:	2b00      	cmp	r3, #0
100134a4:	d101      	bne.n	100134aa <_fflush_r+0x1e>
100134a6:	f000 f85f 	bl	10013568 <__sinit>
100134aa:	4b0b      	ldr	r3, [pc, #44]	; (100134d8 <_fflush_r+0x4c>)
100134ac:	429c      	cmp	r4, r3
100134ae:	d101      	bne.n	100134b4 <_fflush_r+0x28>
100134b0:	686c      	ldr	r4, [r5, #4]
100134b2:	e008      	b.n	100134c6 <_fflush_r+0x3a>
100134b4:	4b09      	ldr	r3, [pc, #36]	; (100134dc <_fflush_r+0x50>)
100134b6:	429c      	cmp	r4, r3
100134b8:	d101      	bne.n	100134be <_fflush_r+0x32>
100134ba:	68ac      	ldr	r4, [r5, #8]
100134bc:	e003      	b.n	100134c6 <_fflush_r+0x3a>
100134be:	4b08      	ldr	r3, [pc, #32]	; (100134e0 <_fflush_r+0x54>)
100134c0:	429c      	cmp	r4, r3
100134c2:	d100      	bne.n	100134c6 <_fflush_r+0x3a>
100134c4:	68ec      	ldr	r4, [r5, #12]
100134c6:	220c      	movs	r2, #12
100134c8:	5ea3      	ldrsh	r3, [r4, r2]
100134ca:	2b00      	cmp	r3, #0
100134cc:	d0e4      	beq.n	10013498 <_fflush_r+0xc>
100134ce:	0021      	movs	r1, r4
100134d0:	0028      	movs	r0, r5
100134d2:	f7ff ff55 	bl	10013380 <__sflush_r>
100134d6:	bd70      	pop	{r4, r5, r6, pc}
100134d8:	10014720 	.word	0x10014720
100134dc:	10014740 	.word	0x10014740
100134e0:	10014760 	.word	0x10014760

100134e4 <_cleanup_r>:
100134e4:	b510      	push	{r4, lr}
100134e6:	4902      	ldr	r1, [pc, #8]	; (100134f0 <_cleanup_r+0xc>)
100134e8:	f000 f8b0 	bl	1001364c <_fwalk_reent>
100134ec:	bd10      	pop	{r4, pc}
100134ee:	46c0      	nop			; (mov r8, r8)
100134f0:	1001348d 	.word	0x1001348d

100134f4 <std.isra.0>:
100134f4:	2300      	movs	r3, #0
100134f6:	b510      	push	{r4, lr}
100134f8:	0004      	movs	r4, r0
100134fa:	6003      	str	r3, [r0, #0]
100134fc:	6043      	str	r3, [r0, #4]
100134fe:	6083      	str	r3, [r0, #8]
10013500:	8181      	strh	r1, [r0, #12]
10013502:	6643      	str	r3, [r0, #100]	; 0x64
10013504:	81c2      	strh	r2, [r0, #14]
10013506:	6103      	str	r3, [r0, #16]
10013508:	6143      	str	r3, [r0, #20]
1001350a:	6183      	str	r3, [r0, #24]
1001350c:	0019      	movs	r1, r3
1001350e:	2208      	movs	r2, #8
10013510:	305c      	adds	r0, #92	; 0x5c
10013512:	f7ff fd6f 	bl	10012ff4 <memset>
10013516:	4b05      	ldr	r3, [pc, #20]	; (1001352c <std.isra.0+0x38>)
10013518:	6224      	str	r4, [r4, #32]
1001351a:	6263      	str	r3, [r4, #36]	; 0x24
1001351c:	4b04      	ldr	r3, [pc, #16]	; (10013530 <std.isra.0+0x3c>)
1001351e:	62a3      	str	r3, [r4, #40]	; 0x28
10013520:	4b04      	ldr	r3, [pc, #16]	; (10013534 <std.isra.0+0x40>)
10013522:	62e3      	str	r3, [r4, #44]	; 0x2c
10013524:	4b04      	ldr	r3, [pc, #16]	; (10013538 <std.isra.0+0x44>)
10013526:	6323      	str	r3, [r4, #48]	; 0x30
10013528:	bd10      	pop	{r4, pc}
1001352a:	46c0      	nop			; (mov r8, r8)
1001352c:	10013d01 	.word	0x10013d01
10013530:	10013d29 	.word	0x10013d29
10013534:	10013d61 	.word	0x10013d61
10013538:	10013d8d 	.word	0x10013d8d

1001353c <__sfmoreglue>:
1001353c:	b570      	push	{r4, r5, r6, lr}
1001353e:	2568      	movs	r5, #104	; 0x68
10013540:	1e4b      	subs	r3, r1, #1
10013542:	435d      	muls	r5, r3
10013544:	000e      	movs	r6, r1
10013546:	0029      	movs	r1, r5
10013548:	3174      	adds	r1, #116	; 0x74
1001354a:	f7ff fda1 	bl	10013090 <_malloc_r>
1001354e:	1e04      	subs	r4, r0, #0
10013550:	d008      	beq.n	10013564 <__sfmoreglue+0x28>
10013552:	2100      	movs	r1, #0
10013554:	002a      	movs	r2, r5
10013556:	6001      	str	r1, [r0, #0]
10013558:	6046      	str	r6, [r0, #4]
1001355a:	300c      	adds	r0, #12
1001355c:	60a0      	str	r0, [r4, #8]
1001355e:	3268      	adds	r2, #104	; 0x68
10013560:	f7ff fd48 	bl	10012ff4 <memset>
10013564:	0020      	movs	r0, r4
10013566:	bd70      	pop	{r4, r5, r6, pc}

10013568 <__sinit>:
10013568:	6983      	ldr	r3, [r0, #24]
1001356a:	b513      	push	{r0, r1, r4, lr}
1001356c:	0004      	movs	r4, r0
1001356e:	2b00      	cmp	r3, #0
10013570:	d128      	bne.n	100135c4 <__sinit+0x5c>
10013572:	6483      	str	r3, [r0, #72]	; 0x48
10013574:	64c3      	str	r3, [r0, #76]	; 0x4c
10013576:	6503      	str	r3, [r0, #80]	; 0x50
10013578:	4b13      	ldr	r3, [pc, #76]	; (100135c8 <__sinit+0x60>)
1001357a:	4a14      	ldr	r2, [pc, #80]	; (100135cc <__sinit+0x64>)
1001357c:	681b      	ldr	r3, [r3, #0]
1001357e:	6282      	str	r2, [r0, #40]	; 0x28
10013580:	9301      	str	r3, [sp, #4]
10013582:	4298      	cmp	r0, r3
10013584:	d101      	bne.n	1001358a <__sinit+0x22>
10013586:	2301      	movs	r3, #1
10013588:	6183      	str	r3, [r0, #24]
1001358a:	0020      	movs	r0, r4
1001358c:	f000 f820 	bl	100135d0 <__sfp>
10013590:	6060      	str	r0, [r4, #4]
10013592:	0020      	movs	r0, r4
10013594:	f000 f81c 	bl	100135d0 <__sfp>
10013598:	60a0      	str	r0, [r4, #8]
1001359a:	0020      	movs	r0, r4
1001359c:	f000 f818 	bl	100135d0 <__sfp>
100135a0:	2200      	movs	r2, #0
100135a2:	60e0      	str	r0, [r4, #12]
100135a4:	2104      	movs	r1, #4
100135a6:	6860      	ldr	r0, [r4, #4]
100135a8:	f7ff ffa4 	bl	100134f4 <std.isra.0>
100135ac:	2201      	movs	r2, #1
100135ae:	2109      	movs	r1, #9
100135b0:	68a0      	ldr	r0, [r4, #8]
100135b2:	f7ff ff9f 	bl	100134f4 <std.isra.0>
100135b6:	2202      	movs	r2, #2
100135b8:	2112      	movs	r1, #18
100135ba:	68e0      	ldr	r0, [r4, #12]
100135bc:	f7ff ff9a 	bl	100134f4 <std.isra.0>
100135c0:	2301      	movs	r3, #1
100135c2:	61a3      	str	r3, [r4, #24]
100135c4:	bd13      	pop	{r0, r1, r4, pc}
100135c6:	46c0      	nop			; (mov r8, r8)
100135c8:	1001471c 	.word	0x1001471c
100135cc:	100134e5 	.word	0x100134e5

100135d0 <__sfp>:
100135d0:	b5f8      	push	{r3, r4, r5, r6, r7, lr}
100135d2:	4b1d      	ldr	r3, [pc, #116]	; (10013648 <__sfp+0x78>)
100135d4:	0006      	movs	r6, r0
100135d6:	681d      	ldr	r5, [r3, #0]
100135d8:	69ab      	ldr	r3, [r5, #24]
100135da:	2b00      	cmp	r3, #0
100135dc:	d102      	bne.n	100135e4 <__sfp+0x14>
100135de:	0028      	movs	r0, r5
100135e0:	f7ff ffc2 	bl	10013568 <__sinit>
100135e4:	3548      	adds	r5, #72	; 0x48
100135e6:	68ac      	ldr	r4, [r5, #8]
100135e8:	686b      	ldr	r3, [r5, #4]
100135ea:	3b01      	subs	r3, #1
100135ec:	d405      	bmi.n	100135fa <__sfp+0x2a>
100135ee:	220c      	movs	r2, #12
100135f0:	5ea7      	ldrsh	r7, [r4, r2]
100135f2:	2f00      	cmp	r7, #0
100135f4:	d010      	beq.n	10013618 <__sfp+0x48>
100135f6:	3468      	adds	r4, #104	; 0x68
100135f8:	e7f7      	b.n	100135ea <__sfp+0x1a>
100135fa:	682b      	ldr	r3, [r5, #0]
100135fc:	2b00      	cmp	r3, #0
100135fe:	d001      	beq.n	10013604 <__sfp+0x34>
10013600:	682d      	ldr	r5, [r5, #0]
10013602:	e7f0      	b.n	100135e6 <__sfp+0x16>
10013604:	2104      	movs	r1, #4
10013606:	0030      	movs	r0, r6
10013608:	f7ff ff98 	bl	1001353c <__sfmoreglue>
1001360c:	6028      	str	r0, [r5, #0]
1001360e:	2800      	cmp	r0, #0
10013610:	d1f6      	bne.n	10013600 <__sfp+0x30>
10013612:	230c      	movs	r3, #12
10013614:	6033      	str	r3, [r6, #0]
10013616:	e016      	b.n	10013646 <__sfp+0x76>
10013618:	2301      	movs	r3, #1
1001361a:	0020      	movs	r0, r4
1001361c:	425b      	negs	r3, r3
1001361e:	81e3      	strh	r3, [r4, #14]
10013620:	3302      	adds	r3, #2
10013622:	81a3      	strh	r3, [r4, #12]
10013624:	6667      	str	r7, [r4, #100]	; 0x64
10013626:	6027      	str	r7, [r4, #0]
10013628:	60a7      	str	r7, [r4, #8]
1001362a:	6067      	str	r7, [r4, #4]
1001362c:	6127      	str	r7, [r4, #16]
1001362e:	6167      	str	r7, [r4, #20]
10013630:	61a7      	str	r7, [r4, #24]
10013632:	305c      	adds	r0, #92	; 0x5c
10013634:	2208      	movs	r2, #8
10013636:	0039      	movs	r1, r7
10013638:	f7ff fcdc 	bl	10012ff4 <memset>
1001363c:	0020      	movs	r0, r4
1001363e:	6367      	str	r7, [r4, #52]	; 0x34
10013640:	63a7      	str	r7, [r4, #56]	; 0x38
10013642:	64a7      	str	r7, [r4, #72]	; 0x48
10013644:	64e7      	str	r7, [r4, #76]	; 0x4c
10013646:	bdf8      	pop	{r3, r4, r5, r6, r7, pc}
10013648:	1001471c 	.word	0x1001471c

1001364c <_fwalk_reent>:
1001364c:	b5f7      	push	{r0, r1, r2, r4, r5, r6, r7, lr}
1001364e:	0004      	movs	r4, r0
10013650:	0007      	movs	r7, r0
10013652:	2600      	movs	r6, #0
10013654:	9101      	str	r1, [sp, #4]
10013656:	3448      	adds	r4, #72	; 0x48
10013658:	2c00      	cmp	r4, #0
1001365a:	d016      	beq.n	1001368a <_fwalk_reent+0x3e>
1001365c:	6863      	ldr	r3, [r4, #4]
1001365e:	68a5      	ldr	r5, [r4, #8]
10013660:	9300      	str	r3, [sp, #0]
10013662:	9b00      	ldr	r3, [sp, #0]
10013664:	3b01      	subs	r3, #1
10013666:	9300      	str	r3, [sp, #0]
10013668:	d40d      	bmi.n	10013686 <_fwalk_reent+0x3a>
1001366a:	89ab      	ldrh	r3, [r5, #12]
1001366c:	2b01      	cmp	r3, #1
1001366e:	d908      	bls.n	10013682 <_fwalk_reent+0x36>
10013670:	220e      	movs	r2, #14
10013672:	5eab      	ldrsh	r3, [r5, r2]
10013674:	3301      	adds	r3, #1
10013676:	d004      	beq.n	10013682 <_fwalk_reent+0x36>
10013678:	0029      	movs	r1, r5
1001367a:	0038      	movs	r0, r7
1001367c:	9b01      	ldr	r3, [sp, #4]
1001367e:	4798      	blx	r3
10013680:	4306      	orrs	r6, r0
10013682:	3568      	adds	r5, #104	; 0x68
10013684:	e7ed      	b.n	10013662 <_fwalk_reent+0x16>
10013686:	6824      	ldr	r4, [r4, #0]
10013688:	e7e6      	b.n	10013658 <_fwalk_reent+0xc>
1001368a:	0030      	movs	r0, r6
1001368c:	bdfe      	pop	{r1, r2, r3, r4, r5, r6, r7, pc}
	...

10013690 <__swhatbuf_r>:
10013690:	b570      	push	{r4, r5, r6, lr}
10013692:	000e      	movs	r6, r1
10013694:	001d      	movs	r5, r3
10013696:	230e      	movs	r3, #14
10013698:	5ec9      	ldrsh	r1, [r1, r3]
1001369a:	b090      	sub	sp, #64	; 0x40
1001369c:	0014      	movs	r4, r2
1001369e:	2900      	cmp	r1, #0
100136a0:	da06      	bge.n	100136b0 <__swhatbuf_r+0x20>
100136a2:	2300      	movs	r3, #0
100136a4:	602b      	str	r3, [r5, #0]
100136a6:	89b3      	ldrh	r3, [r6, #12]
100136a8:	061b      	lsls	r3, r3, #24
100136aa:	d50f      	bpl.n	100136cc <__swhatbuf_r+0x3c>
100136ac:	2340      	movs	r3, #64	; 0x40
100136ae:	e00f      	b.n	100136d0 <__swhatbuf_r+0x40>
100136b0:	aa01      	add	r2, sp, #4
100136b2:	f000 fc65 	bl	10013f80 <_fstat_r>
100136b6:	2800      	cmp	r0, #0
100136b8:	dbf3      	blt.n	100136a2 <__swhatbuf_r+0x12>
100136ba:	23f0      	movs	r3, #240	; 0xf0
100136bc:	9a02      	ldr	r2, [sp, #8]
100136be:	021b      	lsls	r3, r3, #8
100136c0:	4013      	ands	r3, r2
100136c2:	4a05      	ldr	r2, [pc, #20]	; (100136d8 <__swhatbuf_r+0x48>)
100136c4:	189b      	adds	r3, r3, r2
100136c6:	425a      	negs	r2, r3
100136c8:	4153      	adcs	r3, r2
100136ca:	602b      	str	r3, [r5, #0]
100136cc:	2380      	movs	r3, #128	; 0x80
100136ce:	00db      	lsls	r3, r3, #3
100136d0:	2000      	movs	r0, #0
100136d2:	6023      	str	r3, [r4, #0]
100136d4:	b010      	add	sp, #64	; 0x40
100136d6:	bd70      	pop	{r4, r5, r6, pc}
100136d8:	ffffe000 	.word	0xffffe000

100136dc <__smakebuf_r>:
100136dc:	b5f7      	push	{r0, r1, r2, r4, r5, r6, r7, lr}
100136de:	2602      	movs	r6, #2
100136e0:	898b      	ldrh	r3, [r1, #12]
100136e2:	0005      	movs	r5, r0
100136e4:	000c      	movs	r4, r1
100136e6:	4233      	tst	r3, r6
100136e8:	d110      	bne.n	1001370c <__smakebuf_r+0x30>
100136ea:	ab01      	add	r3, sp, #4
100136ec:	466a      	mov	r2, sp
100136ee:	f7ff ffcf 	bl	10013690 <__swhatbuf_r>
100136f2:	9900      	ldr	r1, [sp, #0]
100136f4:	0007      	movs	r7, r0
100136f6:	0028      	movs	r0, r5
100136f8:	f7ff fcca 	bl	10013090 <_malloc_r>
100136fc:	2800      	cmp	r0, #0
100136fe:	d10c      	bne.n	1001371a <__smakebuf_r+0x3e>
10013700:	220c      	movs	r2, #12
10013702:	5ea3      	ldrsh	r3, [r4, r2]
10013704:	059a      	lsls	r2, r3, #22
10013706:	d423      	bmi.n	10013750 <__smakebuf_r+0x74>
10013708:	4333      	orrs	r3, r6
1001370a:	81a3      	strh	r3, [r4, #12]
1001370c:	0023      	movs	r3, r4
1001370e:	3347      	adds	r3, #71	; 0x47
10013710:	6023      	str	r3, [r4, #0]
10013712:	6123      	str	r3, [r4, #16]
10013714:	2301      	movs	r3, #1
10013716:	6163      	str	r3, [r4, #20]
10013718:	e01a      	b.n	10013750 <__smakebuf_r+0x74>
1001371a:	2280      	movs	r2, #128	; 0x80
1001371c:	4b0d      	ldr	r3, [pc, #52]	; (10013754 <__smakebuf_r+0x78>)
1001371e:	62ab      	str	r3, [r5, #40]	; 0x28
10013720:	89a3      	ldrh	r3, [r4, #12]
10013722:	6020      	str	r0, [r4, #0]
10013724:	4313      	orrs	r3, r2
10013726:	81a3      	strh	r3, [r4, #12]
10013728:	9b00      	ldr	r3, [sp, #0]
1001372a:	6120      	str	r0, [r4, #16]
1001372c:	6163      	str	r3, [r4, #20]
1001372e:	9b01      	ldr	r3, [sp, #4]
10013730:	2b00      	cmp	r3, #0
10013732:	d00a      	beq.n	1001374a <__smakebuf_r+0x6e>
10013734:	230e      	movs	r3, #14
10013736:	5ee1      	ldrsh	r1, [r4, r3]
10013738:	0028      	movs	r0, r5
1001373a:	f000 fc33 	bl	10013fa4 <_isatty_r>
1001373e:	2800      	cmp	r0, #0
10013740:	d003      	beq.n	1001374a <__smakebuf_r+0x6e>
10013742:	2201      	movs	r2, #1
10013744:	89a3      	ldrh	r3, [r4, #12]
10013746:	4313      	orrs	r3, r2
10013748:	81a3      	strh	r3, [r4, #12]
1001374a:	89a3      	ldrh	r3, [r4, #12]
1001374c:	431f      	orrs	r7, r3
1001374e:	81a7      	strh	r7, [r4, #12]
10013750:	bdf7      	pop	{r0, r1, r2, r4, r5, r6, r7, pc}
10013752:	46c0      	nop			; (mov r8, r8)
10013754:	100134e5 	.word	0x100134e5

10013758 <__sfputc_r>:
10013758:	6893      	ldr	r3, [r2, #8]
1001375a:	b510      	push	{r4, lr}
1001375c:	3b01      	subs	r3, #1
1001375e:	6093      	str	r3, [r2, #8]
10013760:	2b00      	cmp	r3, #0
10013762:	da05      	bge.n	10013770 <__sfputc_r+0x18>
10013764:	6994      	ldr	r4, [r2, #24]
10013766:	42a3      	cmp	r3, r4
10013768:	db08      	blt.n	1001377c <__sfputc_r+0x24>
1001376a:	b2cb      	uxtb	r3, r1
1001376c:	2b0a      	cmp	r3, #10
1001376e:	d005      	beq.n	1001377c <__sfputc_r+0x24>
10013770:	6813      	ldr	r3, [r2, #0]
10013772:	1c58      	adds	r0, r3, #1
10013774:	6010      	str	r0, [r2, #0]
10013776:	7019      	strb	r1, [r3, #0]
10013778:	b2c8      	uxtb	r0, r1
1001377a:	e001      	b.n	10013780 <__sfputc_r+0x28>
1001377c:	f000 fb0c 	bl	10013d98 <__swbuf_r>
10013780:	bd10      	pop	{r4, pc}

10013782 <__sfputs_r>:
10013782:	b5f8      	push	{r3, r4, r5, r6, r7, lr}
10013784:	0006      	movs	r6, r0
10013786:	000f      	movs	r7, r1
10013788:	0014      	movs	r4, r2
1001378a:	18d5      	adds	r5, r2, r3
1001378c:	42ac      	cmp	r4, r5
1001378e:	d008      	beq.n	100137a2 <__sfputs_r+0x20>
10013790:	7821      	ldrb	r1, [r4, #0]
10013792:	003a      	movs	r2, r7
10013794:	0030      	movs	r0, r6
10013796:	f7ff ffdf 	bl	10013758 <__sfputc_r>
1001379a:	3401      	adds	r4, #1
1001379c:	1c43      	adds	r3, r0, #1
1001379e:	d1f5      	bne.n	1001378c <__sfputs_r+0xa>
100137a0:	e000      	b.n	100137a4 <__sfputs_r+0x22>
100137a2:	2000      	movs	r0, #0
100137a4:	bdf8      	pop	{r3, r4, r5, r6, r7, pc}
	...

100137a8 <_vfiprintf_r>:
100137a8:	b5f0      	push	{r4, r5, r6, r7, lr}
100137aa:	b09f      	sub	sp, #124	; 0x7c
100137ac:	0006      	movs	r6, r0
100137ae:	000f      	movs	r7, r1
100137b0:	9202      	str	r2, [sp, #8]
100137b2:	9305      	str	r3, [sp, #20]
100137b4:	2800      	cmp	r0, #0
100137b6:	d004      	beq.n	100137c2 <_vfiprintf_r+0x1a>
100137b8:	6983      	ldr	r3, [r0, #24]
100137ba:	2b00      	cmp	r3, #0
100137bc:	d101      	bne.n	100137c2 <_vfiprintf_r+0x1a>
100137be:	f7ff fed3 	bl	10013568 <__sinit>
100137c2:	4b7f      	ldr	r3, [pc, #508]	; (100139c0 <_vfiprintf_r+0x218>)
100137c4:	429f      	cmp	r7, r3
100137c6:	d101      	bne.n	100137cc <_vfiprintf_r+0x24>
100137c8:	6877      	ldr	r7, [r6, #4]
100137ca:	e008      	b.n	100137de <_vfiprintf_r+0x36>
100137cc:	4b7d      	ldr	r3, [pc, #500]	; (100139c4 <_vfiprintf_r+0x21c>)
100137ce:	429f      	cmp	r7, r3
100137d0:	d101      	bne.n	100137d6 <_vfiprintf_r+0x2e>
100137d2:	68b7      	ldr	r7, [r6, #8]
100137d4:	e003      	b.n	100137de <_vfiprintf_r+0x36>
100137d6:	4b7c      	ldr	r3, [pc, #496]	; (100139c8 <_vfiprintf_r+0x220>)
100137d8:	429f      	cmp	r7, r3
100137da:	d100      	bne.n	100137de <_vfiprintf_r+0x36>
100137dc:	68f7      	ldr	r7, [r6, #12]
100137de:	89bb      	ldrh	r3, [r7, #12]
100137e0:	071b      	lsls	r3, r3, #28
100137e2:	d50a      	bpl.n	100137fa <_vfiprintf_r+0x52>
100137e4:	693b      	ldr	r3, [r7, #16]
100137e6:	2b00      	cmp	r3, #0
100137e8:	d007      	beq.n	100137fa <_vfiprintf_r+0x52>
100137ea:	2300      	movs	r3, #0
100137ec:	ad06      	add	r5, sp, #24
100137ee:	616b      	str	r3, [r5, #20]
100137f0:	3320      	adds	r3, #32
100137f2:	766b      	strb	r3, [r5, #25]
100137f4:	3310      	adds	r3, #16
100137f6:	76ab      	strb	r3, [r5, #26]
100137f8:	e03d      	b.n	10013876 <_vfiprintf_r+0xce>
100137fa:	0039      	movs	r1, r7
100137fc:	0030      	movs	r0, r6
100137fe:	f000 fb37 	bl	10013e70 <__swsetup_r>
10013802:	2800      	cmp	r0, #0
10013804:	d0f1      	beq.n	100137ea <_vfiprintf_r+0x42>
10013806:	2001      	movs	r0, #1
10013808:	4240      	negs	r0, r0
1001380a:	e0d6      	b.n	100139ba <_vfiprintf_r+0x212>
1001380c:	9a05      	ldr	r2, [sp, #20]
1001380e:	1d11      	adds	r1, r2, #4
10013810:	6812      	ldr	r2, [r2, #0]
10013812:	9105      	str	r1, [sp, #20]
10013814:	2a00      	cmp	r2, #0
10013816:	da00      	bge.n	1001381a <_vfiprintf_r+0x72>
10013818:	e07f      	b.n	1001391a <_vfiprintf_r+0x172>
1001381a:	9209      	str	r2, [sp, #36]	; 0x24
1001381c:	3401      	adds	r4, #1
1001381e:	7823      	ldrb	r3, [r4, #0]
10013820:	2b2e      	cmp	r3, #46	; 0x2e
10013822:	d100      	bne.n	10013826 <_vfiprintf_r+0x7e>
10013824:	e08d      	b.n	10013942 <_vfiprintf_r+0x19a>
10013826:	7821      	ldrb	r1, [r4, #0]
10013828:	2203      	movs	r2, #3
1001382a:	4868      	ldr	r0, [pc, #416]	; (100139cc <_vfiprintf_r+0x224>)
1001382c:	f000 fbe0 	bl	10013ff0 <memchr>
10013830:	2800      	cmp	r0, #0
10013832:	d007      	beq.n	10013844 <_vfiprintf_r+0x9c>
10013834:	4b65      	ldr	r3, [pc, #404]	; (100139cc <_vfiprintf_r+0x224>)
10013836:	682a      	ldr	r2, [r5, #0]
10013838:	1ac0      	subs	r0, r0, r3
1001383a:	2340      	movs	r3, #64	; 0x40
1001383c:	4083      	lsls	r3, r0
1001383e:	4313      	orrs	r3, r2
10013840:	602b      	str	r3, [r5, #0]
10013842:	3401      	adds	r4, #1
10013844:	7821      	ldrb	r1, [r4, #0]
10013846:	1c63      	adds	r3, r4, #1
10013848:	2206      	movs	r2, #6
1001384a:	4861      	ldr	r0, [pc, #388]	; (100139d0 <_vfiprintf_r+0x228>)
1001384c:	9302      	str	r3, [sp, #8]
1001384e:	7629      	strb	r1, [r5, #24]
10013850:	f000 fbce 	bl	10013ff0 <memchr>
10013854:	2800      	cmp	r0, #0
10013856:	d100      	bne.n	1001385a <_vfiprintf_r+0xb2>
10013858:	e09d      	b.n	10013996 <_vfiprintf_r+0x1ee>
1001385a:	4b5e      	ldr	r3, [pc, #376]	; (100139d4 <_vfiprintf_r+0x22c>)
1001385c:	2b00      	cmp	r3, #0
1001385e:	d000      	beq.n	10013862 <_vfiprintf_r+0xba>
10013860:	e090      	b.n	10013984 <_vfiprintf_r+0x1dc>
10013862:	2207      	movs	r2, #7
10013864:	9b05      	ldr	r3, [sp, #20]
10013866:	3307      	adds	r3, #7
10013868:	4393      	bics	r3, r2
1001386a:	3308      	adds	r3, #8
1001386c:	9305      	str	r3, [sp, #20]
1001386e:	696b      	ldr	r3, [r5, #20]
10013870:	9a03      	ldr	r2, [sp, #12]
10013872:	189b      	adds	r3, r3, r2
10013874:	616b      	str	r3, [r5, #20]
10013876:	9c02      	ldr	r4, [sp, #8]
10013878:	7823      	ldrb	r3, [r4, #0]
1001387a:	2b00      	cmp	r3, #0
1001387c:	d104      	bne.n	10013888 <_vfiprintf_r+0xe0>
1001387e:	9b02      	ldr	r3, [sp, #8]
10013880:	1ae3      	subs	r3, r4, r3
10013882:	9304      	str	r3, [sp, #16]
10013884:	d012      	beq.n	100138ac <_vfiprintf_r+0x104>
10013886:	e003      	b.n	10013890 <_vfiprintf_r+0xe8>
10013888:	2b25      	cmp	r3, #37	; 0x25
1001388a:	d0f8      	beq.n	1001387e <_vfiprintf_r+0xd6>
1001388c:	3401      	adds	r4, #1
1001388e:	e7f3      	b.n	10013878 <_vfiprintf_r+0xd0>
10013890:	9b04      	ldr	r3, [sp, #16]
10013892:	9a02      	ldr	r2, [sp, #8]
10013894:	0039      	movs	r1, r7
10013896:	0030      	movs	r0, r6
10013898:	f7ff ff73 	bl	10013782 <__sfputs_r>
1001389c:	1c43      	adds	r3, r0, #1
1001389e:	d100      	bne.n	100138a2 <_vfiprintf_r+0xfa>
100138a0:	e086      	b.n	100139b0 <_vfiprintf_r+0x208>
100138a2:	696a      	ldr	r2, [r5, #20]
100138a4:	9b04      	ldr	r3, [sp, #16]
100138a6:	4694      	mov	ip, r2
100138a8:	4463      	add	r3, ip
100138aa:	616b      	str	r3, [r5, #20]
100138ac:	7823      	ldrb	r3, [r4, #0]
100138ae:	2b00      	cmp	r3, #0
100138b0:	d07e      	beq.n	100139b0 <_vfiprintf_r+0x208>
100138b2:	2201      	movs	r2, #1
100138b4:	2300      	movs	r3, #0
100138b6:	4252      	negs	r2, r2
100138b8:	606a      	str	r2, [r5, #4]
100138ba:	a902      	add	r1, sp, #8
100138bc:	3254      	adds	r2, #84	; 0x54
100138be:	1852      	adds	r2, r2, r1
100138c0:	3401      	adds	r4, #1
100138c2:	602b      	str	r3, [r5, #0]
100138c4:	60eb      	str	r3, [r5, #12]
100138c6:	60ab      	str	r3, [r5, #8]
100138c8:	7013      	strb	r3, [r2, #0]
100138ca:	65ab      	str	r3, [r5, #88]	; 0x58
100138cc:	7821      	ldrb	r1, [r4, #0]
100138ce:	2205      	movs	r2, #5
100138d0:	4841      	ldr	r0, [pc, #260]	; (100139d8 <_vfiprintf_r+0x230>)
100138d2:	f000 fb8d 	bl	10013ff0 <memchr>
100138d6:	2800      	cmp	r0, #0
100138d8:	d008      	beq.n	100138ec <_vfiprintf_r+0x144>
100138da:	4b3f      	ldr	r3, [pc, #252]	; (100139d8 <_vfiprintf_r+0x230>)
100138dc:	682a      	ldr	r2, [r5, #0]
100138de:	1ac0      	subs	r0, r0, r3
100138e0:	2301      	movs	r3, #1
100138e2:	4083      	lsls	r3, r0
100138e4:	4313      	orrs	r3, r2
100138e6:	602b      	str	r3, [r5, #0]
100138e8:	3401      	adds	r4, #1
100138ea:	e7ef      	b.n	100138cc <_vfiprintf_r+0x124>
100138ec:	682b      	ldr	r3, [r5, #0]
100138ee:	06da      	lsls	r2, r3, #27
100138f0:	d504      	bpl.n	100138fc <_vfiprintf_r+0x154>
100138f2:	2253      	movs	r2, #83	; 0x53
100138f4:	2120      	movs	r1, #32
100138f6:	a802      	add	r0, sp, #8
100138f8:	1812      	adds	r2, r2, r0
100138fa:	7011      	strb	r1, [r2, #0]
100138fc:	071a      	lsls	r2, r3, #28
100138fe:	d504      	bpl.n	1001390a <_vfiprintf_r+0x162>
10013900:	2253      	movs	r2, #83	; 0x53
10013902:	212b      	movs	r1, #43	; 0x2b
10013904:	a802      	add	r0, sp, #8
10013906:	1812      	adds	r2, r2, r0
10013908:	7011      	strb	r1, [r2, #0]
1001390a:	7822      	ldrb	r2, [r4, #0]
1001390c:	2a2a      	cmp	r2, #42	; 0x2a
1001390e:	d100      	bne.n	10013912 <_vfiprintf_r+0x16a>
10013910:	e77c      	b.n	1001380c <_vfiprintf_r+0x64>
10013912:	9b09      	ldr	r3, [sp, #36]	; 0x24
10013914:	2000      	movs	r0, #0
10013916:	210a      	movs	r1, #10
10013918:	e005      	b.n	10013926 <_vfiprintf_r+0x17e>
1001391a:	4252      	negs	r2, r2
1001391c:	60ea      	str	r2, [r5, #12]
1001391e:	2202      	movs	r2, #2
10013920:	4313      	orrs	r3, r2
10013922:	602b      	str	r3, [r5, #0]
10013924:	e77a      	b.n	1001381c <_vfiprintf_r+0x74>
10013926:	7822      	ldrb	r2, [r4, #0]
10013928:	3a30      	subs	r2, #48	; 0x30
1001392a:	2a09      	cmp	r2, #9
1001392c:	d804      	bhi.n	10013938 <_vfiprintf_r+0x190>
1001392e:	434b      	muls	r3, r1
10013930:	3401      	adds	r4, #1
10013932:	189b      	adds	r3, r3, r2
10013934:	2001      	movs	r0, #1
10013936:	e7f6      	b.n	10013926 <_vfiprintf_r+0x17e>
10013938:	2800      	cmp	r0, #0
1001393a:	d100      	bne.n	1001393e <_vfiprintf_r+0x196>
1001393c:	e76f      	b.n	1001381e <_vfiprintf_r+0x76>
1001393e:	9309      	str	r3, [sp, #36]	; 0x24
10013940:	e76d      	b.n	1001381e <_vfiprintf_r+0x76>
10013942:	7863      	ldrb	r3, [r4, #1]
10013944:	2b2a      	cmp	r3, #42	; 0x2a
10013946:	d10a      	bne.n	1001395e <_vfiprintf_r+0x1b6>
10013948:	9b05      	ldr	r3, [sp, #20]
1001394a:	3402      	adds	r4, #2
1001394c:	1d1a      	adds	r2, r3, #4
1001394e:	681b      	ldr	r3, [r3, #0]
10013950:	9205      	str	r2, [sp, #20]
10013952:	2b00      	cmp	r3, #0
10013954:	da01      	bge.n	1001395a <_vfiprintf_r+0x1b2>
10013956:	2301      	movs	r3, #1
10013958:	425b      	negs	r3, r3
1001395a:	9307      	str	r3, [sp, #28]
1001395c:	e763      	b.n	10013826 <_vfiprintf_r+0x7e>
1001395e:	2300      	movs	r3, #0
10013960:	200a      	movs	r0, #10
10013962:	001a      	movs	r2, r3
10013964:	3401      	adds	r4, #1
10013966:	606b      	str	r3, [r5, #4]
10013968:	7821      	ldrb	r1, [r4, #0]
1001396a:	3930      	subs	r1, #48	; 0x30
1001396c:	2909      	cmp	r1, #9
1001396e:	d804      	bhi.n	1001397a <_vfiprintf_r+0x1d2>
10013970:	4342      	muls	r2, r0
10013972:	3401      	adds	r4, #1
10013974:	1852      	adds	r2, r2, r1
10013976:	2301      	movs	r3, #1
10013978:	e7f6      	b.n	10013968 <_vfiprintf_r+0x1c0>
1001397a:	2b00      	cmp	r3, #0
1001397c:	d100      	bne.n	10013980 <_vfiprintf_r+0x1d8>
1001397e:	e752      	b.n	10013826 <_vfiprintf_r+0x7e>
10013980:	9207      	str	r2, [sp, #28]
10013982:	e750      	b.n	10013826 <_vfiprintf_r+0x7e>
10013984:	ab05      	add	r3, sp, #20
10013986:	9300      	str	r3, [sp, #0]
10013988:	003a      	movs	r2, r7
1001398a:	4b14      	ldr	r3, [pc, #80]	; (100139dc <_vfiprintf_r+0x234>)
1001398c:	0029      	movs	r1, r5
1001398e:	0030      	movs	r0, r6
10013990:	e000      	b.n	10013994 <_vfiprintf_r+0x1ec>
10013992:	bf00      	nop
10013994:	e007      	b.n	100139a6 <_vfiprintf_r+0x1fe>
10013996:	ab05      	add	r3, sp, #20
10013998:	9300      	str	r3, [sp, #0]
1001399a:	003a      	movs	r2, r7
1001399c:	4b0f      	ldr	r3, [pc, #60]	; (100139dc <_vfiprintf_r+0x234>)
1001399e:	0029      	movs	r1, r5
100139a0:	0030      	movs	r0, r6
100139a2:	f000 f88b 	bl	10013abc <_printf_i>
100139a6:	9003      	str	r0, [sp, #12]
100139a8:	9b03      	ldr	r3, [sp, #12]
100139aa:	3301      	adds	r3, #1
100139ac:	d000      	beq.n	100139b0 <_vfiprintf_r+0x208>
100139ae:	e75e      	b.n	1001386e <_vfiprintf_r+0xc6>
100139b0:	89bb      	ldrh	r3, [r7, #12]
100139b2:	065b      	lsls	r3, r3, #25
100139b4:	d500      	bpl.n	100139b8 <_vfiprintf_r+0x210>
100139b6:	e726      	b.n	10013806 <_vfiprintf_r+0x5e>
100139b8:	980b      	ldr	r0, [sp, #44]	; 0x2c
100139ba:	b01f      	add	sp, #124	; 0x7c
100139bc:	bdf0      	pop	{r4, r5, r6, r7, pc}
100139be:	46c0      	nop			; (mov r8, r8)
100139c0:	10014720 	.word	0x10014720
100139c4:	10014740 	.word	0x10014740
100139c8:	10014760 	.word	0x10014760
100139cc:	10014786 	.word	0x10014786
100139d0:	1001478a 	.word	0x1001478a
100139d4:	00000000 	.word	0x00000000
100139d8:	10014780 	.word	0x10014780
100139dc:	10013783 	.word	0x10013783

100139e0 <_printf_common>:
100139e0:	b5f7      	push	{r0, r1, r2, r4, r5, r6, r7, lr}
100139e2:	0017      	movs	r7, r2
100139e4:	9301      	str	r3, [sp, #4]
100139e6:	688a      	ldr	r2, [r1, #8]
100139e8:	690b      	ldr	r3, [r1, #16]
100139ea:	9000      	str	r0, [sp, #0]
100139ec:	000c      	movs	r4, r1
100139ee:	4293      	cmp	r3, r2
100139f0:	da00      	bge.n	100139f4 <_printf_common+0x14>
100139f2:	0013      	movs	r3, r2
100139f4:	0022      	movs	r2, r4
100139f6:	603b      	str	r3, [r7, #0]
100139f8:	3243      	adds	r2, #67	; 0x43
100139fa:	7812      	ldrb	r2, [r2, #0]
100139fc:	2a00      	cmp	r2, #0
100139fe:	d001      	beq.n	10013a04 <_printf_common+0x24>
10013a00:	3301      	adds	r3, #1
10013a02:	603b      	str	r3, [r7, #0]
10013a04:	6823      	ldr	r3, [r4, #0]
10013a06:	069b      	lsls	r3, r3, #26
10013a08:	d502      	bpl.n	10013a10 <_printf_common+0x30>
10013a0a:	683b      	ldr	r3, [r7, #0]
10013a0c:	3302      	adds	r3, #2
10013a0e:	603b      	str	r3, [r7, #0]
10013a10:	2506      	movs	r5, #6
10013a12:	6823      	ldr	r3, [r4, #0]
10013a14:	401d      	ands	r5, r3
10013a16:	d01e      	beq.n	10013a56 <_printf_common+0x76>
10013a18:	0023      	movs	r3, r4
10013a1a:	3343      	adds	r3, #67	; 0x43
10013a1c:	781b      	ldrb	r3, [r3, #0]
10013a1e:	1e5a      	subs	r2, r3, #1
10013a20:	4193      	sbcs	r3, r2
10013a22:	6822      	ldr	r2, [r4, #0]
10013a24:	0692      	lsls	r2, r2, #26
10013a26:	d51c      	bpl.n	10013a62 <_printf_common+0x82>
10013a28:	2030      	movs	r0, #48	; 0x30
10013a2a:	18e1      	adds	r1, r4, r3
10013a2c:	3143      	adds	r1, #67	; 0x43
10013a2e:	7008      	strb	r0, [r1, #0]
10013a30:	0021      	movs	r1, r4
10013a32:	1c5a      	adds	r2, r3, #1
10013a34:	3145      	adds	r1, #69	; 0x45
10013a36:	7809      	ldrb	r1, [r1, #0]
10013a38:	18a2      	adds	r2, r4, r2
10013a3a:	3243      	adds	r2, #67	; 0x43
10013a3c:	3302      	adds	r3, #2
10013a3e:	7011      	strb	r1, [r2, #0]
10013a40:	e00f      	b.n	10013a62 <_printf_common+0x82>
10013a42:	0022      	movs	r2, r4
10013a44:	2301      	movs	r3, #1
10013a46:	3219      	adds	r2, #25
10013a48:	9901      	ldr	r1, [sp, #4]
10013a4a:	9800      	ldr	r0, [sp, #0]
10013a4c:	9e08      	ldr	r6, [sp, #32]
10013a4e:	47b0      	blx	r6
10013a50:	1c43      	adds	r3, r0, #1
10013a52:	d00e      	beq.n	10013a72 <_printf_common+0x92>
10013a54:	3501      	adds	r5, #1
10013a56:	68e3      	ldr	r3, [r4, #12]
10013a58:	683a      	ldr	r2, [r7, #0]
10013a5a:	1a9b      	subs	r3, r3, r2
10013a5c:	429d      	cmp	r5, r3
10013a5e:	dbf0      	blt.n	10013a42 <_printf_common+0x62>
10013a60:	e7da      	b.n	10013a18 <_printf_common+0x38>
10013a62:	0022      	movs	r2, r4
10013a64:	9901      	ldr	r1, [sp, #4]
10013a66:	3243      	adds	r2, #67	; 0x43
10013a68:	9800      	ldr	r0, [sp, #0]
10013a6a:	9d08      	ldr	r5, [sp, #32]
10013a6c:	47a8      	blx	r5
10013a6e:	1c43      	adds	r3, r0, #1
10013a70:	d102      	bne.n	10013a78 <_printf_common+0x98>
10013a72:	2001      	movs	r0, #1
10013a74:	4240      	negs	r0, r0
10013a76:	e020      	b.n	10013aba <_printf_common+0xda>
10013a78:	2306      	movs	r3, #6
10013a7a:	6820      	ldr	r0, [r4, #0]
10013a7c:	68e1      	ldr	r1, [r4, #12]
10013a7e:	683a      	ldr	r2, [r7, #0]
10013a80:	4003      	ands	r3, r0
10013a82:	2500      	movs	r5, #0
10013a84:	2b04      	cmp	r3, #4
10013a86:	d103      	bne.n	10013a90 <_printf_common+0xb0>
10013a88:	1a8d      	subs	r5, r1, r2
10013a8a:	43eb      	mvns	r3, r5
10013a8c:	17db      	asrs	r3, r3, #31
10013a8e:	401d      	ands	r5, r3
10013a90:	68a3      	ldr	r3, [r4, #8]
10013a92:	6922      	ldr	r2, [r4, #16]
10013a94:	4293      	cmp	r3, r2
10013a96:	dd01      	ble.n	10013a9c <_printf_common+0xbc>
10013a98:	1a9b      	subs	r3, r3, r2
10013a9a:	18ed      	adds	r5, r5, r3
10013a9c:	2700      	movs	r7, #0
10013a9e:	42bd      	cmp	r5, r7
10013aa0:	d00a      	beq.n	10013ab8 <_printf_common+0xd8>
10013aa2:	0022      	movs	r2, r4
10013aa4:	2301      	movs	r3, #1
10013aa6:	321a      	adds	r2, #26
10013aa8:	9901      	ldr	r1, [sp, #4]
10013aaa:	9800      	ldr	r0, [sp, #0]
10013aac:	9e08      	ldr	r6, [sp, #32]
10013aae:	47b0      	blx	r6
10013ab0:	1c43      	adds	r3, r0, #1
10013ab2:	d0de      	beq.n	10013a72 <_printf_common+0x92>
10013ab4:	3701      	adds	r7, #1
10013ab6:	e7f2      	b.n	10013a9e <_printf_common+0xbe>
10013ab8:	2000      	movs	r0, #0
10013aba:	bdfe      	pop	{r1, r2, r3, r4, r5, r6, r7, pc}

10013abc <_printf_i>:
10013abc:	b5f0      	push	{r4, r5, r6, r7, lr}
10013abe:	b08b      	sub	sp, #44	; 0x2c
10013ac0:	9206      	str	r2, [sp, #24]
10013ac2:	000a      	movs	r2, r1
10013ac4:	3243      	adds	r2, #67	; 0x43
10013ac6:	9307      	str	r3, [sp, #28]
10013ac8:	9005      	str	r0, [sp, #20]
10013aca:	9204      	str	r2, [sp, #16]
10013acc:	7e0a      	ldrb	r2, [r1, #24]
10013ace:	000c      	movs	r4, r1
10013ad0:	9b10      	ldr	r3, [sp, #64]	; 0x40
10013ad2:	2a6e      	cmp	r2, #110	; 0x6e
10013ad4:	d100      	bne.n	10013ad8 <_printf_i+0x1c>
10013ad6:	e0ab      	b.n	10013c30 <_printf_i+0x174>
10013ad8:	d811      	bhi.n	10013afe <_printf_i+0x42>
10013ada:	2a63      	cmp	r2, #99	; 0x63
10013adc:	d022      	beq.n	10013b24 <_printf_i+0x68>
10013ade:	d809      	bhi.n	10013af4 <_printf_i+0x38>
10013ae0:	2a00      	cmp	r2, #0
10013ae2:	d100      	bne.n	10013ae6 <_printf_i+0x2a>
10013ae4:	e0b5      	b.n	10013c52 <_printf_i+0x196>
10013ae6:	2a58      	cmp	r2, #88	; 0x58
10013ae8:	d000      	beq.n	10013aec <_printf_i+0x30>
10013aea:	e0c5      	b.n	10013c78 <_printf_i+0x1bc>
10013aec:	3145      	adds	r1, #69	; 0x45
10013aee:	700a      	strb	r2, [r1, #0]
10013af0:	4a81      	ldr	r2, [pc, #516]	; (10013cf8 <_printf_i+0x23c>)
10013af2:	e04f      	b.n	10013b94 <_printf_i+0xd8>
10013af4:	2a64      	cmp	r2, #100	; 0x64
10013af6:	d01d      	beq.n	10013b34 <_printf_i+0x78>
10013af8:	2a69      	cmp	r2, #105	; 0x69
10013afa:	d01b      	beq.n	10013b34 <_printf_i+0x78>
10013afc:	e0bc      	b.n	10013c78 <_printf_i+0x1bc>
10013afe:	2a73      	cmp	r2, #115	; 0x73
10013b00:	d100      	bne.n	10013b04 <_printf_i+0x48>
10013b02:	e0aa      	b.n	10013c5a <_printf_i+0x19e>
10013b04:	d809      	bhi.n	10013b1a <_printf_i+0x5e>
10013b06:	2a6f      	cmp	r2, #111	; 0x6f
10013b08:	d029      	beq.n	10013b5e <_printf_i+0xa2>
10013b0a:	2a70      	cmp	r2, #112	; 0x70
10013b0c:	d000      	beq.n	10013b10 <_printf_i+0x54>
10013b0e:	e0b3      	b.n	10013c78 <_printf_i+0x1bc>
10013b10:	2220      	movs	r2, #32
10013b12:	6809      	ldr	r1, [r1, #0]
10013b14:	430a      	orrs	r2, r1
10013b16:	6022      	str	r2, [r4, #0]
10013b18:	e037      	b.n	10013b8a <_printf_i+0xce>
10013b1a:	2a75      	cmp	r2, #117	; 0x75
10013b1c:	d01f      	beq.n	10013b5e <_printf_i+0xa2>
10013b1e:	2a78      	cmp	r2, #120	; 0x78
10013b20:	d033      	beq.n	10013b8a <_printf_i+0xce>
10013b22:	e0a9      	b.n	10013c78 <_printf_i+0x1bc>
10013b24:	000e      	movs	r6, r1
10013b26:	681a      	ldr	r2, [r3, #0]
10013b28:	3642      	adds	r6, #66	; 0x42
10013b2a:	1d11      	adds	r1, r2, #4
10013b2c:	6019      	str	r1, [r3, #0]
10013b2e:	6813      	ldr	r3, [r2, #0]
10013b30:	7033      	strb	r3, [r6, #0]
10013b32:	e0a4      	b.n	10013c7e <_printf_i+0x1c2>
10013b34:	6821      	ldr	r1, [r4, #0]
10013b36:	681a      	ldr	r2, [r3, #0]
10013b38:	0608      	lsls	r0, r1, #24
10013b3a:	d406      	bmi.n	10013b4a <_printf_i+0x8e>
10013b3c:	0649      	lsls	r1, r1, #25
10013b3e:	d504      	bpl.n	10013b4a <_printf_i+0x8e>
10013b40:	1d11      	adds	r1, r2, #4
10013b42:	6019      	str	r1, [r3, #0]
10013b44:	2300      	movs	r3, #0
10013b46:	5ed5      	ldrsh	r5, [r2, r3]
10013b48:	e002      	b.n	10013b50 <_printf_i+0x94>
10013b4a:	1d11      	adds	r1, r2, #4
10013b4c:	6019      	str	r1, [r3, #0]
10013b4e:	6815      	ldr	r5, [r2, #0]
10013b50:	2d00      	cmp	r5, #0
10013b52:	da3b      	bge.n	10013bcc <_printf_i+0x110>
10013b54:	232d      	movs	r3, #45	; 0x2d
10013b56:	9a04      	ldr	r2, [sp, #16]
10013b58:	426d      	negs	r5, r5
10013b5a:	7013      	strb	r3, [r2, #0]
10013b5c:	e036      	b.n	10013bcc <_printf_i+0x110>
10013b5e:	6821      	ldr	r1, [r4, #0]
10013b60:	681a      	ldr	r2, [r3, #0]
10013b62:	0608      	lsls	r0, r1, #24
10013b64:	d406      	bmi.n	10013b74 <_printf_i+0xb8>
10013b66:	0649      	lsls	r1, r1, #25
10013b68:	d504      	bpl.n	10013b74 <_printf_i+0xb8>
10013b6a:	6815      	ldr	r5, [r2, #0]
10013b6c:	1d11      	adds	r1, r2, #4
10013b6e:	6019      	str	r1, [r3, #0]
10013b70:	b2ad      	uxth	r5, r5
10013b72:	e002      	b.n	10013b7a <_printf_i+0xbe>
10013b74:	1d11      	adds	r1, r2, #4
10013b76:	6019      	str	r1, [r3, #0]
10013b78:	6815      	ldr	r5, [r2, #0]
10013b7a:	4b5f      	ldr	r3, [pc, #380]	; (10013cf8 <_printf_i+0x23c>)
10013b7c:	7e22      	ldrb	r2, [r4, #24]
10013b7e:	9303      	str	r3, [sp, #12]
10013b80:	2708      	movs	r7, #8
10013b82:	2a6f      	cmp	r2, #111	; 0x6f
10013b84:	d01d      	beq.n	10013bc2 <_printf_i+0x106>
10013b86:	270a      	movs	r7, #10
10013b88:	e01b      	b.n	10013bc2 <_printf_i+0x106>
10013b8a:	0022      	movs	r2, r4
10013b8c:	2178      	movs	r1, #120	; 0x78
10013b8e:	3245      	adds	r2, #69	; 0x45
10013b90:	7011      	strb	r1, [r2, #0]
10013b92:	4a5a      	ldr	r2, [pc, #360]	; (10013cfc <_printf_i+0x240>)
10013b94:	6819      	ldr	r1, [r3, #0]
10013b96:	9203      	str	r2, [sp, #12]
10013b98:	1d08      	adds	r0, r1, #4
10013b9a:	6822      	ldr	r2, [r4, #0]
10013b9c:	6018      	str	r0, [r3, #0]
10013b9e:	680d      	ldr	r5, [r1, #0]
10013ba0:	0610      	lsls	r0, r2, #24
10013ba2:	d402      	bmi.n	10013baa <_printf_i+0xee>
10013ba4:	0650      	lsls	r0, r2, #25
10013ba6:	d500      	bpl.n	10013baa <_printf_i+0xee>
10013ba8:	b2ad      	uxth	r5, r5
10013baa:	07d3      	lsls	r3, r2, #31
10013bac:	d502      	bpl.n	10013bb4 <_printf_i+0xf8>
10013bae:	2320      	movs	r3, #32
10013bb0:	431a      	orrs	r2, r3
10013bb2:	6022      	str	r2, [r4, #0]
10013bb4:	2710      	movs	r7, #16
10013bb6:	2d00      	cmp	r5, #0
10013bb8:	d103      	bne.n	10013bc2 <_printf_i+0x106>
10013bba:	2320      	movs	r3, #32
10013bbc:	6822      	ldr	r2, [r4, #0]
10013bbe:	439a      	bics	r2, r3
10013bc0:	6022      	str	r2, [r4, #0]
10013bc2:	0023      	movs	r3, r4
10013bc4:	2200      	movs	r2, #0
10013bc6:	3343      	adds	r3, #67	; 0x43
10013bc8:	701a      	strb	r2, [r3, #0]
10013bca:	e002      	b.n	10013bd2 <_printf_i+0x116>
10013bcc:	270a      	movs	r7, #10
10013bce:	4b4a      	ldr	r3, [pc, #296]	; (10013cf8 <_printf_i+0x23c>)
10013bd0:	9303      	str	r3, [sp, #12]
10013bd2:	6863      	ldr	r3, [r4, #4]
10013bd4:	60a3      	str	r3, [r4, #8]
10013bd6:	2b00      	cmp	r3, #0
10013bd8:	db09      	blt.n	10013bee <_printf_i+0x132>
10013bda:	2204      	movs	r2, #4
10013bdc:	6821      	ldr	r1, [r4, #0]
10013bde:	4391      	bics	r1, r2
10013be0:	6021      	str	r1, [r4, #0]
10013be2:	2d00      	cmp	r5, #0
10013be4:	d105      	bne.n	10013bf2 <_printf_i+0x136>
10013be6:	9e04      	ldr	r6, [sp, #16]
10013be8:	2b00      	cmp	r3, #0
10013bea:	d011      	beq.n	10013c10 <_printf_i+0x154>
10013bec:	e07b      	b.n	10013ce6 <_printf_i+0x22a>
10013bee:	2d00      	cmp	r5, #0
10013bf0:	d079      	beq.n	10013ce6 <_printf_i+0x22a>
10013bf2:	9e04      	ldr	r6, [sp, #16]
10013bf4:	0028      	movs	r0, r5
10013bf6:	0039      	movs	r1, r7
10013bf8:	f7fd fbbe 	bl	10011378 <__aeabi_uidivmod>
10013bfc:	9b03      	ldr	r3, [sp, #12]
10013bfe:	3e01      	subs	r6, #1
10013c00:	5c5b      	ldrb	r3, [r3, r1]
10013c02:	0028      	movs	r0, r5
10013c04:	7033      	strb	r3, [r6, #0]
10013c06:	0039      	movs	r1, r7
10013c08:	f7fd fb30 	bl	1001126c <__aeabi_uidiv>
10013c0c:	1e05      	subs	r5, r0, #0
10013c0e:	d1f1      	bne.n	10013bf4 <_printf_i+0x138>
10013c10:	2f08      	cmp	r7, #8
10013c12:	d109      	bne.n	10013c28 <_printf_i+0x16c>
10013c14:	6823      	ldr	r3, [r4, #0]
10013c16:	07db      	lsls	r3, r3, #31
10013c18:	d506      	bpl.n	10013c28 <_printf_i+0x16c>
10013c1a:	6863      	ldr	r3, [r4, #4]
10013c1c:	6922      	ldr	r2, [r4, #16]
10013c1e:	4293      	cmp	r3, r2
10013c20:	dc02      	bgt.n	10013c28 <_printf_i+0x16c>
10013c22:	2330      	movs	r3, #48	; 0x30
10013c24:	3e01      	subs	r6, #1
10013c26:	7033      	strb	r3, [r6, #0]
10013c28:	9b04      	ldr	r3, [sp, #16]
10013c2a:	1b9b      	subs	r3, r3, r6
10013c2c:	6123      	str	r3, [r4, #16]
10013c2e:	e02b      	b.n	10013c88 <_printf_i+0x1cc>
10013c30:	6809      	ldr	r1, [r1, #0]
10013c32:	681a      	ldr	r2, [r3, #0]
10013c34:	0608      	lsls	r0, r1, #24
10013c36:	d407      	bmi.n	10013c48 <_printf_i+0x18c>
10013c38:	0649      	lsls	r1, r1, #25
10013c3a:	d505      	bpl.n	10013c48 <_printf_i+0x18c>
10013c3c:	1d11      	adds	r1, r2, #4
10013c3e:	6019      	str	r1, [r3, #0]
10013c40:	6813      	ldr	r3, [r2, #0]
10013c42:	8aa2      	ldrh	r2, [r4, #20]
10013c44:	801a      	strh	r2, [r3, #0]
10013c46:	e004      	b.n	10013c52 <_printf_i+0x196>
10013c48:	1d11      	adds	r1, r2, #4
10013c4a:	6019      	str	r1, [r3, #0]
10013c4c:	6813      	ldr	r3, [r2, #0]
10013c4e:	6962      	ldr	r2, [r4, #20]
10013c50:	601a      	str	r2, [r3, #0]
10013c52:	2300      	movs	r3, #0
10013c54:	9e04      	ldr	r6, [sp, #16]
10013c56:	6123      	str	r3, [r4, #16]
10013c58:	e016      	b.n	10013c88 <_printf_i+0x1cc>
10013c5a:	681a      	ldr	r2, [r3, #0]
10013c5c:	1d11      	adds	r1, r2, #4
10013c5e:	6019      	str	r1, [r3, #0]
10013c60:	6816      	ldr	r6, [r2, #0]
10013c62:	2100      	movs	r1, #0
10013c64:	6862      	ldr	r2, [r4, #4]
10013c66:	0030      	movs	r0, r6
10013c68:	f000 f9c2 	bl	10013ff0 <memchr>
10013c6c:	2800      	cmp	r0, #0
10013c6e:	d001      	beq.n	10013c74 <_printf_i+0x1b8>
10013c70:	1b80      	subs	r0, r0, r6
10013c72:	6060      	str	r0, [r4, #4]
10013c74:	6863      	ldr	r3, [r4, #4]
10013c76:	e003      	b.n	10013c80 <_printf_i+0x1c4>
10013c78:	0026      	movs	r6, r4
10013c7a:	3642      	adds	r6, #66	; 0x42
10013c7c:	7032      	strb	r2, [r6, #0]
10013c7e:	2301      	movs	r3, #1
10013c80:	6123      	str	r3, [r4, #16]
10013c82:	2300      	movs	r3, #0
10013c84:	9a04      	ldr	r2, [sp, #16]
10013c86:	7013      	strb	r3, [r2, #0]
10013c88:	9b07      	ldr	r3, [sp, #28]
10013c8a:	aa09      	add	r2, sp, #36	; 0x24
10013c8c:	9300      	str	r3, [sp, #0]
10013c8e:	0021      	movs	r1, r4
10013c90:	9b06      	ldr	r3, [sp, #24]
10013c92:	9805      	ldr	r0, [sp, #20]
10013c94:	f7ff fea4 	bl	100139e0 <_printf_common>
10013c98:	1c43      	adds	r3, r0, #1
10013c9a:	d102      	bne.n	10013ca2 <_printf_i+0x1e6>
10013c9c:	2001      	movs	r0, #1
10013c9e:	4240      	negs	r0, r0
10013ca0:	e027      	b.n	10013cf2 <_printf_i+0x236>
10013ca2:	6923      	ldr	r3, [r4, #16]
10013ca4:	0032      	movs	r2, r6
10013ca6:	9906      	ldr	r1, [sp, #24]
10013ca8:	9805      	ldr	r0, [sp, #20]
10013caa:	9d07      	ldr	r5, [sp, #28]
10013cac:	47a8      	blx	r5
10013cae:	1c43      	adds	r3, r0, #1
10013cb0:	d0f4      	beq.n	10013c9c <_printf_i+0x1e0>
10013cb2:	6823      	ldr	r3, [r4, #0]
10013cb4:	2500      	movs	r5, #0
10013cb6:	079b      	lsls	r3, r3, #30
10013cb8:	d40f      	bmi.n	10013cda <_printf_i+0x21e>
10013cba:	9b09      	ldr	r3, [sp, #36]	; 0x24
10013cbc:	68e0      	ldr	r0, [r4, #12]
10013cbe:	4298      	cmp	r0, r3
10013cc0:	da17      	bge.n	10013cf2 <_printf_i+0x236>
10013cc2:	0018      	movs	r0, r3
10013cc4:	e015      	b.n	10013cf2 <_printf_i+0x236>
10013cc6:	0022      	movs	r2, r4
10013cc8:	2301      	movs	r3, #1
10013cca:	3219      	adds	r2, #25
10013ccc:	9906      	ldr	r1, [sp, #24]
10013cce:	9805      	ldr	r0, [sp, #20]
10013cd0:	9e07      	ldr	r6, [sp, #28]
10013cd2:	47b0      	blx	r6
10013cd4:	1c43      	adds	r3, r0, #1
10013cd6:	d0e1      	beq.n	10013c9c <_printf_i+0x1e0>
10013cd8:	3501      	adds	r5, #1
10013cda:	68e3      	ldr	r3, [r4, #12]
10013cdc:	9a09      	ldr	r2, [sp, #36]	; 0x24
10013cde:	1a9b      	subs	r3, r3, r2
10013ce0:	429d      	cmp	r5, r3
10013ce2:	dbf0      	blt.n	10013cc6 <_printf_i+0x20a>
10013ce4:	e7e9      	b.n	10013cba <_printf_i+0x1fe>
10013ce6:	0026      	movs	r6, r4
10013ce8:	9b03      	ldr	r3, [sp, #12]
10013cea:	3642      	adds	r6, #66	; 0x42
10013cec:	781b      	ldrb	r3, [r3, #0]
10013cee:	7033      	strb	r3, [r6, #0]
10013cf0:	e78e      	b.n	10013c10 <_printf_i+0x154>
10013cf2:	b00b      	add	sp, #44	; 0x2c
10013cf4:	bdf0      	pop	{r4, r5, r6, r7, pc}
10013cf6:	46c0      	nop			; (mov r8, r8)
10013cf8:	10014791 	.word	0x10014791
10013cfc:	100147a2 	.word	0x100147a2

10013d00 <__sread>:
10013d00:	b570      	push	{r4, r5, r6, lr}
10013d02:	000c      	movs	r4, r1
10013d04:	250e      	movs	r5, #14
10013d06:	5f49      	ldrsh	r1, [r1, r5]
10013d08:	f000 f97e 	bl	10014008 <_read_r>
10013d0c:	2800      	cmp	r0, #0
10013d0e:	db03      	blt.n	10013d18 <__sread+0x18>
10013d10:	6d63      	ldr	r3, [r4, #84]	; 0x54
10013d12:	181b      	adds	r3, r3, r0
10013d14:	6563      	str	r3, [r4, #84]	; 0x54
10013d16:	e003      	b.n	10013d20 <__sread+0x20>
10013d18:	89a2      	ldrh	r2, [r4, #12]
10013d1a:	4b02      	ldr	r3, [pc, #8]	; (10013d24 <__sread+0x24>)
10013d1c:	4013      	ands	r3, r2
10013d1e:	81a3      	strh	r3, [r4, #12]
10013d20:	bd70      	pop	{r4, r5, r6, pc}
10013d22:	46c0      	nop			; (mov r8, r8)
10013d24:	ffffefff 	.word	0xffffefff

10013d28 <__swrite>:
10013d28:	b5f8      	push	{r3, r4, r5, r6, r7, lr}
10013d2a:	001f      	movs	r7, r3
10013d2c:	898b      	ldrh	r3, [r1, #12]
10013d2e:	0005      	movs	r5, r0
10013d30:	000c      	movs	r4, r1
10013d32:	0016      	movs	r6, r2
10013d34:	05db      	lsls	r3, r3, #23
10013d36:	d505      	bpl.n	10013d44 <__swrite+0x1c>
10013d38:	230e      	movs	r3, #14
10013d3a:	5ec9      	ldrsh	r1, [r1, r3]
10013d3c:	2200      	movs	r2, #0
10013d3e:	2302      	movs	r3, #2
10013d40:	f000 f942 	bl	10013fc8 <_lseek_r>
10013d44:	89a2      	ldrh	r2, [r4, #12]
10013d46:	4b05      	ldr	r3, [pc, #20]	; (10013d5c <__swrite+0x34>)
10013d48:	0028      	movs	r0, r5
10013d4a:	4013      	ands	r3, r2
10013d4c:	81a3      	strh	r3, [r4, #12]
10013d4e:	0032      	movs	r2, r6
10013d50:	230e      	movs	r3, #14
10013d52:	5ee1      	ldrsh	r1, [r4, r3]
10013d54:	003b      	movs	r3, r7
10013d56:	f000 f877 	bl	10013e48 <_write_r>
10013d5a:	bdf8      	pop	{r3, r4, r5, r6, r7, pc}
10013d5c:	ffffefff 	.word	0xffffefff

10013d60 <__sseek>:
10013d60:	b570      	push	{r4, r5, r6, lr}
10013d62:	000c      	movs	r4, r1
10013d64:	250e      	movs	r5, #14
10013d66:	5f49      	ldrsh	r1, [r1, r5]
10013d68:	f000 f92e 	bl	10013fc8 <_lseek_r>
10013d6c:	89a3      	ldrh	r3, [r4, #12]
10013d6e:	1c42      	adds	r2, r0, #1
10013d70:	d103      	bne.n	10013d7a <__sseek+0x1a>
10013d72:	4a05      	ldr	r2, [pc, #20]	; (10013d88 <__sseek+0x28>)
10013d74:	4013      	ands	r3, r2
10013d76:	81a3      	strh	r3, [r4, #12]
10013d78:	e004      	b.n	10013d84 <__sseek+0x24>
10013d7a:	2280      	movs	r2, #128	; 0x80
10013d7c:	0152      	lsls	r2, r2, #5
10013d7e:	4313      	orrs	r3, r2
10013d80:	81a3      	strh	r3, [r4, #12]
10013d82:	6560      	str	r0, [r4, #84]	; 0x54
10013d84:	bd70      	pop	{r4, r5, r6, pc}
10013d86:	46c0      	nop			; (mov r8, r8)
10013d88:	ffffefff 	.word	0xffffefff

10013d8c <__sclose>:
10013d8c:	b510      	push	{r4, lr}
10013d8e:	230e      	movs	r3, #14
10013d90:	5ec9      	ldrsh	r1, [r1, r3]
10013d92:	f000 f8e3 	bl	10013f5c <_close_r>
10013d96:	bd10      	pop	{r4, pc}

10013d98 <__swbuf_r>:
10013d98:	b5f8      	push	{r3, r4, r5, r6, r7, lr}
10013d9a:	0005      	movs	r5, r0
10013d9c:	000f      	movs	r7, r1
10013d9e:	0014      	movs	r4, r2
10013da0:	2800      	cmp	r0, #0
10013da2:	d004      	beq.n	10013dae <__swbuf_r+0x16>
10013da4:	6983      	ldr	r3, [r0, #24]
10013da6:	2b00      	cmp	r3, #0
10013da8:	d101      	bne.n	10013dae <__swbuf_r+0x16>
10013daa:	f7ff fbdd 	bl	10013568 <__sinit>
10013dae:	4b23      	ldr	r3, [pc, #140]	; (10013e3c <__swbuf_r+0xa4>)
10013db0:	429c      	cmp	r4, r3
10013db2:	d101      	bne.n	10013db8 <__swbuf_r+0x20>
10013db4:	686c      	ldr	r4, [r5, #4]
10013db6:	e008      	b.n	10013dca <__swbuf_r+0x32>
10013db8:	4b21      	ldr	r3, [pc, #132]	; (10013e40 <__swbuf_r+0xa8>)
10013dba:	429c      	cmp	r4, r3
10013dbc:	d101      	bne.n	10013dc2 <__swbuf_r+0x2a>
10013dbe:	68ac      	ldr	r4, [r5, #8]
10013dc0:	e003      	b.n	10013dca <__swbuf_r+0x32>
10013dc2:	4b20      	ldr	r3, [pc, #128]	; (10013e44 <__swbuf_r+0xac>)
10013dc4:	429c      	cmp	r4, r3
10013dc6:	d100      	bne.n	10013dca <__swbuf_r+0x32>
10013dc8:	68ec      	ldr	r4, [r5, #12]
10013dca:	69a3      	ldr	r3, [r4, #24]
10013dcc:	60a3      	str	r3, [r4, #8]
10013dce:	89a3      	ldrh	r3, [r4, #12]
10013dd0:	071b      	lsls	r3, r3, #28
10013dd2:	d50a      	bpl.n	10013dea <__swbuf_r+0x52>
10013dd4:	6923      	ldr	r3, [r4, #16]
10013dd6:	2b00      	cmp	r3, #0
10013dd8:	d007      	beq.n	10013dea <__swbuf_r+0x52>
10013dda:	6823      	ldr	r3, [r4, #0]
10013ddc:	6922      	ldr	r2, [r4, #16]
10013dde:	b2fe      	uxtb	r6, r7
10013de0:	1a98      	subs	r0, r3, r2
10013de2:	6963      	ldr	r3, [r4, #20]
10013de4:	4298      	cmp	r0, r3
10013de6:	db0f      	blt.n	10013e08 <__swbuf_r+0x70>
10013de8:	e008      	b.n	10013dfc <__swbuf_r+0x64>
10013dea:	0021      	movs	r1, r4
10013dec:	0028      	movs	r0, r5
10013dee:	f000 f83f 	bl	10013e70 <__swsetup_r>
10013df2:	2800      	cmp	r0, #0
10013df4:	d0f1      	beq.n	10013dda <__swbuf_r+0x42>
10013df6:	2001      	movs	r0, #1
10013df8:	4240      	negs	r0, r0
10013dfa:	e01d      	b.n	10013e38 <__swbuf_r+0xa0>
10013dfc:	0021      	movs	r1, r4
10013dfe:	0028      	movs	r0, r5
10013e00:	f7ff fb44 	bl	1001348c <_fflush_r>
10013e04:	2800      	cmp	r0, #0
10013e06:	d1f6      	bne.n	10013df6 <__swbuf_r+0x5e>
10013e08:	68a3      	ldr	r3, [r4, #8]
10013e0a:	3001      	adds	r0, #1
10013e0c:	3b01      	subs	r3, #1
10013e0e:	60a3      	str	r3, [r4, #8]
10013e10:	6823      	ldr	r3, [r4, #0]
10013e12:	1c5a      	adds	r2, r3, #1
10013e14:	6022      	str	r2, [r4, #0]
10013e16:	701f      	strb	r7, [r3, #0]
10013e18:	6963      	ldr	r3, [r4, #20]
10013e1a:	4298      	cmp	r0, r3
10013e1c:	d005      	beq.n	10013e2a <__swbuf_r+0x92>
10013e1e:	89a3      	ldrh	r3, [r4, #12]
10013e20:	0030      	movs	r0, r6
10013e22:	07db      	lsls	r3, r3, #31
10013e24:	d508      	bpl.n	10013e38 <__swbuf_r+0xa0>
10013e26:	2e0a      	cmp	r6, #10
10013e28:	d106      	bne.n	10013e38 <__swbuf_r+0xa0>
10013e2a:	0021      	movs	r1, r4
10013e2c:	0028      	movs	r0, r5
10013e2e:	f7ff fb2d 	bl	1001348c <_fflush_r>
10013e32:	2800      	cmp	r0, #0
10013e34:	d1df      	bne.n	10013df6 <__swbuf_r+0x5e>
10013e36:	0030      	movs	r0, r6
10013e38:	bdf8      	pop	{r3, r4, r5, r6, r7, pc}
10013e3a:	46c0      	nop			; (mov r8, r8)
10013e3c:	10014720 	.word	0x10014720
10013e40:	10014740 	.word	0x10014740
10013e44:	10014760 	.word	0x10014760

10013e48 <_write_r>:
10013e48:	b570      	push	{r4, r5, r6, lr}
10013e4a:	0005      	movs	r5, r0
10013e4c:	0008      	movs	r0, r1
10013e4e:	0011      	movs	r1, r2
10013e50:	2200      	movs	r2, #0
10013e52:	4c06      	ldr	r4, [pc, #24]	; (10013e6c <_write_r+0x24>)
10013e54:	6022      	str	r2, [r4, #0]
10013e56:	001a      	movs	r2, r3
10013e58:	f7f8 fd20 	bl	1000c89c <_write>
10013e5c:	1c43      	adds	r3, r0, #1
10013e5e:	d103      	bne.n	10013e68 <_write_r+0x20>
10013e60:	6823      	ldr	r3, [r4, #0]
10013e62:	2b00      	cmp	r3, #0
10013e64:	d000      	beq.n	10013e68 <_write_r+0x20>
10013e66:	602b      	str	r3, [r5, #0]
10013e68:	bd70      	pop	{r4, r5, r6, pc}
10013e6a:	46c0      	nop			; (mov r8, r8)
10013e6c:	10016608 	.word	0x10016608

10013e70 <__swsetup_r>:
10013e70:	4b36      	ldr	r3, [pc, #216]	; (10013f4c <__swsetup_r+0xdc>)
10013e72:	b570      	push	{r4, r5, r6, lr}
10013e74:	681d      	ldr	r5, [r3, #0]
10013e76:	0006      	movs	r6, r0
10013e78:	000c      	movs	r4, r1
10013e7a:	2d00      	cmp	r5, #0
10013e7c:	d005      	beq.n	10013e8a <__swsetup_r+0x1a>
10013e7e:	69ab      	ldr	r3, [r5, #24]
10013e80:	2b00      	cmp	r3, #0
10013e82:	d102      	bne.n	10013e8a <__swsetup_r+0x1a>
10013e84:	0028      	movs	r0, r5
10013e86:	f7ff fb6f 	bl	10013568 <__sinit>
10013e8a:	4b31      	ldr	r3, [pc, #196]	; (10013f50 <__swsetup_r+0xe0>)
10013e8c:	429c      	cmp	r4, r3
10013e8e:	d101      	bne.n	10013e94 <__swsetup_r+0x24>
10013e90:	686c      	ldr	r4, [r5, #4]
10013e92:	e008      	b.n	10013ea6 <__swsetup_r+0x36>
10013e94:	4b2f      	ldr	r3, [pc, #188]	; (10013f54 <__swsetup_r+0xe4>)
10013e96:	429c      	cmp	r4, r3
10013e98:	d101      	bne.n	10013e9e <__swsetup_r+0x2e>
10013e9a:	68ac      	ldr	r4, [r5, #8]
10013e9c:	e003      	b.n	10013ea6 <__swsetup_r+0x36>
10013e9e:	4b2e      	ldr	r3, [pc, #184]	; (10013f58 <__swsetup_r+0xe8>)
10013ea0:	429c      	cmp	r4, r3
10013ea2:	d100      	bne.n	10013ea6 <__swsetup_r+0x36>
10013ea4:	68ec      	ldr	r4, [r5, #12]
10013ea6:	220c      	movs	r2, #12
10013ea8:	5ea3      	ldrsh	r3, [r4, r2]
10013eaa:	b29a      	uxth	r2, r3
10013eac:	0711      	lsls	r1, r2, #28
10013eae:	d423      	bmi.n	10013ef8 <__swsetup_r+0x88>
10013eb0:	06d1      	lsls	r1, r2, #27
10013eb2:	d407      	bmi.n	10013ec4 <__swsetup_r+0x54>
10013eb4:	2209      	movs	r2, #9
10013eb6:	2001      	movs	r0, #1
10013eb8:	6032      	str	r2, [r6, #0]
10013eba:	3237      	adds	r2, #55	; 0x37
10013ebc:	4313      	orrs	r3, r2
10013ebe:	81a3      	strh	r3, [r4, #12]
10013ec0:	4240      	negs	r0, r0
10013ec2:	e042      	b.n	10013f4a <__swsetup_r+0xda>
10013ec4:	0753      	lsls	r3, r2, #29
10013ec6:	d513      	bpl.n	10013ef0 <__swsetup_r+0x80>
10013ec8:	6b61      	ldr	r1, [r4, #52]	; 0x34
10013eca:	2900      	cmp	r1, #0
10013ecc:	d008      	beq.n	10013ee0 <__swsetup_r+0x70>
10013ece:	0023      	movs	r3, r4
10013ed0:	3344      	adds	r3, #68	; 0x44
10013ed2:	4299      	cmp	r1, r3
10013ed4:	d002      	beq.n	10013edc <__swsetup_r+0x6c>
10013ed6:	0030      	movs	r0, r6
10013ed8:	f7ff f894 	bl	10013004 <_free_r>
10013edc:	2300      	movs	r3, #0
10013ede:	6363      	str	r3, [r4, #52]	; 0x34
10013ee0:	2224      	movs	r2, #36	; 0x24
10013ee2:	89a3      	ldrh	r3, [r4, #12]
10013ee4:	4393      	bics	r3, r2
10013ee6:	81a3      	strh	r3, [r4, #12]
10013ee8:	2300      	movs	r3, #0
10013eea:	6063      	str	r3, [r4, #4]
10013eec:	6923      	ldr	r3, [r4, #16]
10013eee:	6023      	str	r3, [r4, #0]
10013ef0:	2208      	movs	r2, #8
10013ef2:	89a3      	ldrh	r3, [r4, #12]
10013ef4:	4313      	orrs	r3, r2
10013ef6:	81a3      	strh	r3, [r4, #12]
10013ef8:	6923      	ldr	r3, [r4, #16]
10013efa:	2b00      	cmp	r3, #0
10013efc:	d10b      	bne.n	10013f16 <__swsetup_r+0xa6>
10013efe:	23a0      	movs	r3, #160	; 0xa0
10013f00:	89a2      	ldrh	r2, [r4, #12]
10013f02:	009b      	lsls	r3, r3, #2
10013f04:	4013      	ands	r3, r2
10013f06:	2280      	movs	r2, #128	; 0x80
10013f08:	0092      	lsls	r2, r2, #2
10013f0a:	4293      	cmp	r3, r2
10013f0c:	d003      	beq.n	10013f16 <__swsetup_r+0xa6>
10013f0e:	0021      	movs	r1, r4
10013f10:	0030      	movs	r0, r6
10013f12:	f7ff fbe3 	bl	100136dc <__smakebuf_r>
10013f16:	2301      	movs	r3, #1
10013f18:	89a2      	ldrh	r2, [r4, #12]
10013f1a:	4013      	ands	r3, r2
10013f1c:	d005      	beq.n	10013f2a <__swsetup_r+0xba>
10013f1e:	2300      	movs	r3, #0
10013f20:	60a3      	str	r3, [r4, #8]
10013f22:	6963      	ldr	r3, [r4, #20]
10013f24:	425b      	negs	r3, r3
10013f26:	61a3      	str	r3, [r4, #24]
10013f28:	e003      	b.n	10013f32 <__swsetup_r+0xc2>
10013f2a:	0792      	lsls	r2, r2, #30
10013f2c:	d400      	bmi.n	10013f30 <__swsetup_r+0xc0>
10013f2e:	6963      	ldr	r3, [r4, #20]
10013f30:	60a3      	str	r3, [r4, #8]
10013f32:	2000      	movs	r0, #0
10013f34:	6923      	ldr	r3, [r4, #16]
10013f36:	4283      	cmp	r3, r0
10013f38:	d107      	bne.n	10013f4a <__swsetup_r+0xda>
10013f3a:	220c      	movs	r2, #12
10013f3c:	5ea3      	ldrsh	r3, [r4, r2]
10013f3e:	061a      	lsls	r2, r3, #24
10013f40:	d503      	bpl.n	10013f4a <__swsetup_r+0xda>
10013f42:	2240      	movs	r2, #64	; 0x40
10013f44:	4313      	orrs	r3, r2
10013f46:	81a3      	strh	r3, [r4, #12]
10013f48:	3801      	subs	r0, #1
10013f4a:	bd70      	pop	{r4, r5, r6, pc}
10013f4c:	10014880 	.word	0x10014880
10013f50:	10014720 	.word	0x10014720
10013f54:	10014740 	.word	0x10014740
10013f58:	10014760 	.word	0x10014760

10013f5c <_close_r>:
10013f5c:	2300      	movs	r3, #0
10013f5e:	b570      	push	{r4, r5, r6, lr}
10013f60:	4c06      	ldr	r4, [pc, #24]	; (10013f7c <_close_r+0x20>)
10013f62:	0005      	movs	r5, r0
10013f64:	0008      	movs	r0, r1
10013f66:	6023      	str	r3, [r4, #0]
10013f68:	f7f8 fccc 	bl	1000c904 <_close>
10013f6c:	1c43      	adds	r3, r0, #1
10013f6e:	d103      	bne.n	10013f78 <_close_r+0x1c>
10013f70:	6823      	ldr	r3, [r4, #0]
10013f72:	2b00      	cmp	r3, #0
10013f74:	d000      	beq.n	10013f78 <_close_r+0x1c>
10013f76:	602b      	str	r3, [r5, #0]
10013f78:	bd70      	pop	{r4, r5, r6, pc}
10013f7a:	46c0      	nop			; (mov r8, r8)
10013f7c:	10016608 	.word	0x10016608

10013f80 <_fstat_r>:
10013f80:	2300      	movs	r3, #0
10013f82:	b570      	push	{r4, r5, r6, lr}
10013f84:	4c06      	ldr	r4, [pc, #24]	; (10013fa0 <_fstat_r+0x20>)
10013f86:	0005      	movs	r5, r0
10013f88:	0008      	movs	r0, r1
10013f8a:	0011      	movs	r1, r2
10013f8c:	6023      	str	r3, [r4, #0]
10013f8e:	f7f8 fcbd 	bl	1000c90c <_fstat>
10013f92:	1c43      	adds	r3, r0, #1
10013f94:	d103      	bne.n	10013f9e <_fstat_r+0x1e>
10013f96:	6823      	ldr	r3, [r4, #0]
10013f98:	2b00      	cmp	r3, #0
10013f9a:	d000      	beq.n	10013f9e <_fstat_r+0x1e>
10013f9c:	602b      	str	r3, [r5, #0]
10013f9e:	bd70      	pop	{r4, r5, r6, pc}
10013fa0:	10016608 	.word	0x10016608

10013fa4 <_isatty_r>:
10013fa4:	2300      	movs	r3, #0
10013fa6:	b570      	push	{r4, r5, r6, lr}
10013fa8:	4c06      	ldr	r4, [pc, #24]	; (10013fc4 <_isatty_r+0x20>)
10013faa:	0005      	movs	r5, r0
10013fac:	0008      	movs	r0, r1
10013fae:	6023      	str	r3, [r4, #0]
10013fb0:	f7f8 fcb2 	bl	1000c918 <_isatty>
10013fb4:	1c43      	adds	r3, r0, #1
10013fb6:	d103      	bne.n	10013fc0 <_isatty_r+0x1c>
10013fb8:	6823      	ldr	r3, [r4, #0]
10013fba:	2b00      	cmp	r3, #0
10013fbc:	d000      	beq.n	10013fc0 <_isatty_r+0x1c>
10013fbe:	602b      	str	r3, [r5, #0]
10013fc0:	bd70      	pop	{r4, r5, r6, pc}
10013fc2:	46c0      	nop			; (mov r8, r8)
10013fc4:	10016608 	.word	0x10016608

10013fc8 <_lseek_r>:
10013fc8:	b570      	push	{r4, r5, r6, lr}
10013fca:	0005      	movs	r5, r0
10013fcc:	0008      	movs	r0, r1
10013fce:	0011      	movs	r1, r2
10013fd0:	2200      	movs	r2, #0
10013fd2:	4c06      	ldr	r4, [pc, #24]	; (10013fec <_lseek_r+0x24>)
10013fd4:	6022      	str	r2, [r4, #0]
10013fd6:	001a      	movs	r2, r3
10013fd8:	f7f8 fca0 	bl	1000c91c <_lseek>
10013fdc:	1c43      	adds	r3, r0, #1
10013fde:	d103      	bne.n	10013fe8 <_lseek_r+0x20>
10013fe0:	6823      	ldr	r3, [r4, #0]
10013fe2:	2b00      	cmp	r3, #0
10013fe4:	d000      	beq.n	10013fe8 <_lseek_r+0x20>
10013fe6:	602b      	str	r3, [r5, #0]
10013fe8:	bd70      	pop	{r4, r5, r6, pc}
10013fea:	46c0      	nop			; (mov r8, r8)
10013fec:	10016608 	.word	0x10016608

10013ff0 <memchr>:
10013ff0:	b2c9      	uxtb	r1, r1
10013ff2:	1882      	adds	r2, r0, r2
10013ff4:	4290      	cmp	r0, r2
10013ff6:	d004      	beq.n	10014002 <memchr+0x12>
10013ff8:	7803      	ldrb	r3, [r0, #0]
10013ffa:	428b      	cmp	r3, r1
10013ffc:	d002      	beq.n	10014004 <memchr+0x14>
10013ffe:	3001      	adds	r0, #1
10014000:	e7f8      	b.n	10013ff4 <memchr+0x4>
10014002:	2000      	movs	r0, #0
10014004:	4770      	bx	lr
	...

10014008 <_read_r>:
10014008:	b570      	push	{r4, r5, r6, lr}
1001400a:	0005      	movs	r5, r0
1001400c:	0008      	movs	r0, r1
1001400e:	0011      	movs	r1, r2
10014010:	2200      	movs	r2, #0
10014012:	4c06      	ldr	r4, [pc, #24]	; (1001402c <_read_r+0x24>)
10014014:	6022      	str	r2, [r4, #0]
10014016:	001a      	movs	r2, r3
10014018:	f7f8 fc20 	bl	1000c85c <_read>
1001401c:	1c43      	adds	r3, r0, #1
1001401e:	d103      	bne.n	10014028 <_read_r+0x20>
10014020:	6823      	ldr	r3, [r4, #0]
10014022:	2b00      	cmp	r3, #0
10014024:	d000      	beq.n	10014028 <_read_r+0x20>
10014026:	602b      	str	r3, [r5, #0]
10014028:	bd70      	pop	{r4, r5, r6, pc}
1001402a:	46c0      	nop			; (mov r8, r8)
1001402c:	10016608 	.word	0x10016608

10014030 <test>:
10014030:	00000083 00004000 00000200 00c800c8     .....@..........
10014040:	41a00000 42700000 3f000000 3e666666     ...A..pB...?fff>
10014050:	3f2ccccd 3f000000 3f000000 0000000a     ..,?...?...?....
10014060:	0d0a6425 00000000 5f504d44 0a214e4f     %d......DMP_ON!.
10014070:	0000000d 534e4553 2153524f 00000d0a     ....SENSORS!....

10014080 <reg>:
10014080:	0c1a1975 1c1b236a 201f1e1d 3b437472     u...j#..... rtC;
10014090:	3a393841 376c6b69 6d24776f 2625706e     A89:ikl7ow$mnp%&
100140a0:	2a292827 67646334 00000049              '()*4cdgI...

100140ac <hw>:
100140ac:	04000069 01410080 01000000 00001333     i.....A.....3...
100140bc:	8db3aab8 350d98b4 0000005d 006ccd4c     .......5]...L.l.
100140cc:	002cc90c 00765636 00664626 c4abf2fe     ..,.6Vv.&Ff.....
100140dc:	dfdff1aa dfdfafbb aaaaaab8 c5c388b0     ................
100140ec:	000000c7 f3b9b1d8 b691a38b 00d9b409     ................
100140fc:	f3b9b1da b691a38b 00dab4da              ............

10014108 <startup_template_app_gap_cb>:
	...
10014114:	1000a32d 00000000 1000a2a1 1000a2d5     -...............
	...
1001412c:	1000a329 00000000 00000000 00000000     )...............
1001413c:	00000000 1000a329 00000000 00000000     ....)...........
	...

10014154 <startup_template_app_gatt_server_cb>:
10014154:	1000a2b9 00000000 1000a2c5 00000000     ................
	...
1001417c:	1000bc5c 1000bc50 1000bc44 1000bc38     \...P...D...8...
1001418c:	1000bc2c 1000bc20 1000bc12 1000bc04     ,... ...........
1001419c:	1000bbf6 1000bbe8 1000bbda 1000bbcc     ................
100141ac:	1000bbbe 1000bbb0 1000bba2 1000bb94     ................
100141bc:	1000bb86 1000bb78 1000bb6a 1000bb5c     ....x...j...\...
100141cc:	1000bb4e 1000bb40 1000bb32 1000bb24     N...@...2...$...
100141dc:	1000bb16 1000bb08 1000bafa 1000baee     ................
100141ec:	1000bae2 1000bad6 1000baca 1000babe     ................
100141fc:	1000bab2 1000baa6 1000ba9a 1000ba8c     ................
1001420c:	1000ba7e 1000ba70 1000ba62 1000ba54     ~...p...b...T...
1001421c:	1000ba46 1000ba38 1000ba2a 1000ba1c     F...8...*.......
1001422c:	1000ba0e 1000ba00 1000b9f2 1000b9e4     ................
1001423c:	1000b9d6 1000b9c8 1000b9ba 1000b9ae     ................
1001424c:	1000b9a2 1000bc68 1000bf02 1000bef6     ....h...........
1001425c:	1000beea 1000bede 1000bed2 1000bec6     ................
1001426c:	1000beba 1000beae 1000bea2 1000be96     ................
1001427c:	1000be8a 1000be7e 1000be72 1000be66     ....~...r...f...
1001428c:	1000be5a 1000be4e 1000be42 1000be36     Z...N...B...6...
1001429c:	1000be2a 1000be1e 1000be12 1000be06     *...............
100142ac:	1000bdfa 1000bdee 1000bde2 1000bdd6     ................
100142bc:	1000bdca 1000bdbe 1000bdb2 1000bda6     ................
100142cc:	1000bd9a 1000bd8e 1000bd82 1000bd76     ............v...
100142dc:	1000bd6a 1000bd5e 1000bd52 1000bd46     j...^...R...F...
100142ec:	1000bd3a 1000bd2e 1000bd22 1000bd16     :.......".......
100142fc:	1000bd0a 1000bcfe 1000bcf2 1000bce6     ................
1001430c:	1000bcda 1000bcce 1000bcc2 1000bcb6     ................
1001431c:	1000bcaa 1000bc9e 1000bc92 1000bf0e     ................
1001432c:	1000c386 1000c37e 1000c376 1000c35e     ....~...v...^...
1001433c:	1000c348 1000c2ca 1000c2b2 1000c29a     H...............
1001434c:	1000c282 1000c26a 1000c252 1000c23a     ....j...R...:...
1001435c:	1000c222 1000c20a 1000c38e 1000c38e     "...............
1001436c:	1000c38e 1000c38e 1000c38e 1000c38e     ................
1001437c:	1000c38e 1000c38e 1000c1f2 1000c1da     ................
1001438c:	1000c1c2 1000c1ac 1000c194 1000c38e     ................
1001439c:	1000c38e 1000c38e 1000c38e 1000c38e     ................
100143ac:	1000c38e 1000c17c 1000c164 1000c14c     ....|...d...L...
100143bc:	1000c134 1000c38e 1000c11c 1000c104     4...............
100143cc:	1000c38e 1000c38e 1000c0ee 1000c0d8     ................
100143dc:	1000c0c2 1000c0ac 1000c38e 1000c38e     ................
100143ec:	1000c38e 1000c38e 1000c38e 1000c38e     ................
100143fc:	1000c38e 1000c38e 1000c0a4 1000c09c     ................
1001440c:	1000c094 1000c080 1000c068 1000c050     ........h...P...
1001441c:	1000c038 1000c020 1000c008 1000bff0     8... ...........
1001442c:	1000bfda 1000bfc4 1000bfac 1000bf94     ................
1001443c:	1000d402 1000d402 1000d402 1000d402     ................
1001444c:	1000d402 1000d402 1000d402 1000d402     ................
1001445c:	1000d402 1000d402 1000d402 1000d402     ................
1001446c:	1000d402 1000d402 1000d402 1000d402     ................
1001447c:	1000d402 1000d402 1000d402 1000d41e     ................
1001448c:	1000d41e 1000d41e 1000d41e 1000d41e     ................
1001449c:	1000d41e 1000d41e 1000d41e 1000d41e     ................
100144ac:	1000d41e 1000d440 1000d440 1000d440     ....@...@...@...
100144bc:	1000d440 1000d440 1000d440 1000d440     @...@...@...@...
100144cc:	1000d440 1000d440 1000d440 1000d462     @...@...@...b...
100144dc:	1000d462 1000d462 1000d462 1000d462     b...b...b...b...
100144ec:	1000d462 1000d470 1000d470 1000d470     b...p...p...p...
100144fc:	1000d470 1000d470 1000d470 1000d470     p...p...p...p...
1001450c:	1000d470 1000d470 1000d47e 1000d47e     p...p...~...~...
1001451c:	1000d3dc 1000d3dc 1000d3f6 1000d3dc     ................
1001452c:	34333231 00003635 efcdab00 00efcdab     123456..........

1001453c <ble_mgr_gatt_server_handle>:
	...
10014554:	1000d135 1000d13d 1000c92d 00000000     5...=...-.......
10014564:	52424153 4d532d65 00000053 5a2d571c     SABRe-SMS....W-Z
10014574:	50532dbe 00000000                       .-SP....

1001457c <ble_mgr_gap_handle>:
1001457c:	1000d139 1000ce25 1000c921 00000000     9...%...!.......
1001458c:	00000000 1000cf95 1000c939 1000c9b5     ........9.......
1001459c:	1000cad9 1000ce6d 1000cc81 1000caf1     ....m...........
100145ac:	1000cf11 1000cd99 1000c9b9 1000ca25     ............%...
	...

100145c8 <CSWTCH.87>:
100145c8:	01050505 00010501                       ........

100145d0 <CSWTCH.88>:
100145d0:	10015570 10015584 100152d8 100155bc     pU...U...R...U..
100145e0:	100152d4 1001555c 10015b00 656d7441     .R..\U...[..Atme
100145f0:	6f43206c 002e7072                                l Corp.

100145f7 <CSWTCH.51>:
100145f7:	03010300 03030303 03030303 02020303              ...............

10014606 <CSWTCH.49>:
10014606:	02100402                                         ...

10014609 <client_conf_uuid>:
10014609:	29042902                                         .)

1001460b <presentation_format_uuid>:
1001460b:	29012904                                         .)

1001460d <user_desc_uuid>:
1001460d:	29032901                                         .)

1001460f <server_conf_uuid>:
1001460f:	29002903                                         .)

10014611 <extended_props_uuid>:
10014611:	28022900                                         .)

10014613 <include_uuid>:
10014613:	28032802                                         .(

10014615 <char_uuid>:
10014615:	5e002803 82100118 40100117 18100118     .(.^.......@....
10014625:	40100118 0c100118 40100118 18100118     ...@.......@....
10014635:	82100118 82100117 0c100117 18100118     ................
10014645:	c4100118 c4100118 c4100118 46100118     ...............F
10014655:	82100118 82100117 2c100117 16100118     ...........,....
10014665:	2c100118 0c100118 2c100118 16100118     ...,.......,....
10014675:	82100118 82100117 0c100117 16100118     ................
10014685:	c4100118 c4100118 c4100118 d0100118     ................
10014695:	bc100118 1a10011b 1a10011b 1810011b     ................
100146a5:	ae10011b ae10011b a410011b 1810011b     ................
100146b5:	ae10011b a410011b ae10011b 1810011b     ................
100146c5:	b410011b b410011b b410011b 3e10011b     ...............>
100146d5:	a010011c 60100124 60100123 5e100123     ....$..`#..`#..^
100146e5:	78100123 78100124 6a100124 5e100124     #..x$..x$..j$..^
100146f5:	78100123 6a100124 78100124 5e100124     #..x$..j$..x$..^
10014705:	80100123 80100124 80100124 80100124     #...$...$...$...
10014715:	43100126 20000000                                &..C...

1001471c <_global_impure_ptr>:
1001471c:	10014820                                 H..

10014720 <__sf_fake_stdin>:
	...

10014740 <__sf_fake_stdout>:
	...

10014760 <__sf_fake_stderr>:
	...
10014780:	2b302d23 6c680020 6665004c 47464567     #-0+ .hlL.efgEFG
10014790:	32313000 36353433 41393837 45444342     .0123456789ABCDE
100147a0:	31300046 35343332 39383736 64636261     F.0123456789abcd
100147b0:	00006665                                ef..

100147b4 <_init>:
100147b4:	b5f8      	push	{r3, r4, r5, r6, r7, lr}
100147b6:	46c0      	nop			; (mov r8, r8)
100147b8:	bcf8      	pop	{r3, r4, r5, r6, r7}
100147ba:	bc08      	pop	{r3}
100147bc:	469e      	mov	lr, r3
100147be:	4770      	bx	lr

100147c0 <__init_array_start>:
100147c0:	10008095 	.word	0x10008095

100147c4 <_fini>:
100147c4:	b5f8      	push	{r3, r4, r5, r6, r7, lr}
100147c6:	46c0      	nop			; (mov r8, r8)
100147c8:	bcf8      	pop	{r3, r4, r5, r6, r7}
100147ca:	bc08      	pop	{r3}
100147cc:	469e      	mov	lr, r3
100147ce:	4770      	bx	lr

100147d0 <__fini_array_start>:
100147d0:	1000806d 	.word	0x1000806d
